
../bc:     file format elf64-x86-64


Disassembly of section .init:

0000000000403000 <_init>:
_init():
  403000:	f3 0f 1e fa          	endbr64 
  403004:	48 83 ec 08          	sub    $0x8,%rsp
  403008:	48 8b 05 e1 6f 01 00 	mov    0x16fe1(%rip),%rax        # 419ff0 <__gmon_start__>
  40300f:	48 85 c0             	test   %rax,%rax
  403012:	74 02                	je     403016 <_init+0x16>
  403014:	ff d0                	callq  *%rax
  403016:	48 83 c4 08          	add    $0x8,%rsp
  40301a:	c3                   	retq   

Disassembly of section .plt:

0000000000403020 <.plt>:
  403020:	ff 35 e2 6f 01 00    	pushq  0x16fe2(%rip)        # 41a008 <_GLOBAL_OFFSET_TABLE_+0x8>
  403026:	f2 ff 25 e3 6f 01 00 	bnd jmpq *0x16fe3(%rip)        # 41a010 <_GLOBAL_OFFSET_TABLE_+0x10>
  40302d:	0f 1f 00             	nopl   (%rax)
  403030:	f3 0f 1e fa          	endbr64 
  403034:	68 00 00 00 00       	pushq  $0x0
  403039:	f2 e9 e1 ff ff ff    	bnd jmpq 403020 <.plt>
  40303f:	90                   	nop
  403040:	f3 0f 1e fa          	endbr64 
  403044:	68 01 00 00 00       	pushq  $0x1
  403049:	f2 e9 d1 ff ff ff    	bnd jmpq 403020 <.plt>
  40304f:	90                   	nop
  403050:	f3 0f 1e fa          	endbr64 
  403054:	68 02 00 00 00       	pushq  $0x2
  403059:	f2 e9 c1 ff ff ff    	bnd jmpq 403020 <.plt>
  40305f:	90                   	nop
  403060:	f3 0f 1e fa          	endbr64 
  403064:	68 03 00 00 00       	pushq  $0x3
  403069:	f2 e9 b1 ff ff ff    	bnd jmpq 403020 <.plt>
  40306f:	90                   	nop
  403070:	f3 0f 1e fa          	endbr64 
  403074:	68 04 00 00 00       	pushq  $0x4
  403079:	f2 e9 a1 ff ff ff    	bnd jmpq 403020 <.plt>
  40307f:	90                   	nop
  403080:	f3 0f 1e fa          	endbr64 
  403084:	68 05 00 00 00       	pushq  $0x5
  403089:	f2 e9 91 ff ff ff    	bnd jmpq 403020 <.plt>
  40308f:	90                   	nop
  403090:	f3 0f 1e fa          	endbr64 
  403094:	68 06 00 00 00       	pushq  $0x6
  403099:	f2 e9 81 ff ff ff    	bnd jmpq 403020 <.plt>
  40309f:	90                   	nop
  4030a0:	f3 0f 1e fa          	endbr64 
  4030a4:	68 07 00 00 00       	pushq  $0x7
  4030a9:	f2 e9 71 ff ff ff    	bnd jmpq 403020 <.plt>
  4030af:	90                   	nop
  4030b0:	f3 0f 1e fa          	endbr64 
  4030b4:	68 08 00 00 00       	pushq  $0x8
  4030b9:	f2 e9 61 ff ff ff    	bnd jmpq 403020 <.plt>
  4030bf:	90                   	nop
  4030c0:	f3 0f 1e fa          	endbr64 
  4030c4:	68 09 00 00 00       	pushq  $0x9
  4030c9:	f2 e9 51 ff ff ff    	bnd jmpq 403020 <.plt>
  4030cf:	90                   	nop
  4030d0:	f3 0f 1e fa          	endbr64 
  4030d4:	68 0a 00 00 00       	pushq  $0xa
  4030d9:	f2 e9 41 ff ff ff    	bnd jmpq 403020 <.plt>
  4030df:	90                   	nop
  4030e0:	f3 0f 1e fa          	endbr64 
  4030e4:	68 0b 00 00 00       	pushq  $0xb
  4030e9:	f2 e9 31 ff ff ff    	bnd jmpq 403020 <.plt>
  4030ef:	90                   	nop
  4030f0:	f3 0f 1e fa          	endbr64 
  4030f4:	68 0c 00 00 00       	pushq  $0xc
  4030f9:	f2 e9 21 ff ff ff    	bnd jmpq 403020 <.plt>
  4030ff:	90                   	nop
  403100:	f3 0f 1e fa          	endbr64 
  403104:	68 0d 00 00 00       	pushq  $0xd
  403109:	f2 e9 11 ff ff ff    	bnd jmpq 403020 <.plt>
  40310f:	90                   	nop
  403110:	f3 0f 1e fa          	endbr64 
  403114:	68 0e 00 00 00       	pushq  $0xe
  403119:	f2 e9 01 ff ff ff    	bnd jmpq 403020 <.plt>
  40311f:	90                   	nop
  403120:	f3 0f 1e fa          	endbr64 
  403124:	68 0f 00 00 00       	pushq  $0xf
  403129:	f2 e9 f1 fe ff ff    	bnd jmpq 403020 <.plt>
  40312f:	90                   	nop
  403130:	f3 0f 1e fa          	endbr64 
  403134:	68 10 00 00 00       	pushq  $0x10
  403139:	f2 e9 e1 fe ff ff    	bnd jmpq 403020 <.plt>
  40313f:	90                   	nop
  403140:	f3 0f 1e fa          	endbr64 
  403144:	68 11 00 00 00       	pushq  $0x11
  403149:	f2 e9 d1 fe ff ff    	bnd jmpq 403020 <.plt>
  40314f:	90                   	nop
  403150:	f3 0f 1e fa          	endbr64 
  403154:	68 12 00 00 00       	pushq  $0x12
  403159:	f2 e9 c1 fe ff ff    	bnd jmpq 403020 <.plt>
  40315f:	90                   	nop
  403160:	f3 0f 1e fa          	endbr64 
  403164:	68 13 00 00 00       	pushq  $0x13
  403169:	f2 e9 b1 fe ff ff    	bnd jmpq 403020 <.plt>
  40316f:	90                   	nop
  403170:	f3 0f 1e fa          	endbr64 
  403174:	68 14 00 00 00       	pushq  $0x14
  403179:	f2 e9 a1 fe ff ff    	bnd jmpq 403020 <.plt>
  40317f:	90                   	nop
  403180:	f3 0f 1e fa          	endbr64 
  403184:	68 15 00 00 00       	pushq  $0x15
  403189:	f2 e9 91 fe ff ff    	bnd jmpq 403020 <.plt>
  40318f:	90                   	nop
  403190:	f3 0f 1e fa          	endbr64 
  403194:	68 16 00 00 00       	pushq  $0x16
  403199:	f2 e9 81 fe ff ff    	bnd jmpq 403020 <.plt>
  40319f:	90                   	nop
  4031a0:	f3 0f 1e fa          	endbr64 
  4031a4:	68 17 00 00 00       	pushq  $0x17
  4031a9:	f2 e9 71 fe ff ff    	bnd jmpq 403020 <.plt>
  4031af:	90                   	nop
  4031b0:	f3 0f 1e fa          	endbr64 
  4031b4:	68 18 00 00 00       	pushq  $0x18
  4031b9:	f2 e9 61 fe ff ff    	bnd jmpq 403020 <.plt>
  4031bf:	90                   	nop
  4031c0:	f3 0f 1e fa          	endbr64 
  4031c4:	68 19 00 00 00       	pushq  $0x19
  4031c9:	f2 e9 51 fe ff ff    	bnd jmpq 403020 <.plt>
  4031cf:	90                   	nop
  4031d0:	f3 0f 1e fa          	endbr64 
  4031d4:	68 1a 00 00 00       	pushq  $0x1a
  4031d9:	f2 e9 41 fe ff ff    	bnd jmpq 403020 <.plt>
  4031df:	90                   	nop
  4031e0:	f3 0f 1e fa          	endbr64 
  4031e4:	68 1b 00 00 00       	pushq  $0x1b
  4031e9:	f2 e9 31 fe ff ff    	bnd jmpq 403020 <.plt>
  4031ef:	90                   	nop
  4031f0:	f3 0f 1e fa          	endbr64 
  4031f4:	68 1c 00 00 00       	pushq  $0x1c
  4031f9:	f2 e9 21 fe ff ff    	bnd jmpq 403020 <.plt>
  4031ff:	90                   	nop
  403200:	f3 0f 1e fa          	endbr64 
  403204:	68 1d 00 00 00       	pushq  $0x1d
  403209:	f2 e9 11 fe ff ff    	bnd jmpq 403020 <.plt>
  40320f:	90                   	nop
  403210:	f3 0f 1e fa          	endbr64 
  403214:	68 1e 00 00 00       	pushq  $0x1e
  403219:	f2 e9 01 fe ff ff    	bnd jmpq 403020 <.plt>
  40321f:	90                   	nop
  403220:	f3 0f 1e fa          	endbr64 
  403224:	68 1f 00 00 00       	pushq  $0x1f
  403229:	f2 e9 f1 fd ff ff    	bnd jmpq 403020 <.plt>
  40322f:	90                   	nop
  403230:	f3 0f 1e fa          	endbr64 
  403234:	68 20 00 00 00       	pushq  $0x20
  403239:	f2 e9 e1 fd ff ff    	bnd jmpq 403020 <.plt>
  40323f:	90                   	nop
  403240:	f3 0f 1e fa          	endbr64 
  403244:	68 21 00 00 00       	pushq  $0x21
  403249:	f2 e9 d1 fd ff ff    	bnd jmpq 403020 <.plt>
  40324f:	90                   	nop
  403250:	f3 0f 1e fa          	endbr64 
  403254:	68 22 00 00 00       	pushq  $0x22
  403259:	f2 e9 c1 fd ff ff    	bnd jmpq 403020 <.plt>
  40325f:	90                   	nop
  403260:	f3 0f 1e fa          	endbr64 
  403264:	68 23 00 00 00       	pushq  $0x23
  403269:	f2 e9 b1 fd ff ff    	bnd jmpq 403020 <.plt>
  40326f:	90                   	nop
  403270:	f3 0f 1e fa          	endbr64 
  403274:	68 24 00 00 00       	pushq  $0x24
  403279:	f2 e9 a1 fd ff ff    	bnd jmpq 403020 <.plt>
  40327f:	90                   	nop
  403280:	f3 0f 1e fa          	endbr64 
  403284:	68 25 00 00 00       	pushq  $0x25
  403289:	f2 e9 91 fd ff ff    	bnd jmpq 403020 <.plt>
  40328f:	90                   	nop
  403290:	f3 0f 1e fa          	endbr64 
  403294:	68 26 00 00 00       	pushq  $0x26
  403299:	f2 e9 81 fd ff ff    	bnd jmpq 403020 <.plt>
  40329f:	90                   	nop
  4032a0:	f3 0f 1e fa          	endbr64 
  4032a4:	68 27 00 00 00       	pushq  $0x27
  4032a9:	f2 e9 71 fd ff ff    	bnd jmpq 403020 <.plt>
  4032af:	90                   	nop
  4032b0:	f3 0f 1e fa          	endbr64 
  4032b4:	68 28 00 00 00       	pushq  $0x28
  4032b9:	f2 e9 61 fd ff ff    	bnd jmpq 403020 <.plt>
  4032bf:	90                   	nop
  4032c0:	f3 0f 1e fa          	endbr64 
  4032c4:	68 29 00 00 00       	pushq  $0x29
  4032c9:	f2 e9 51 fd ff ff    	bnd jmpq 403020 <.plt>
  4032cf:	90                   	nop
  4032d0:	f3 0f 1e fa          	endbr64 
  4032d4:	68 2a 00 00 00       	pushq  $0x2a
  4032d9:	f2 e9 41 fd ff ff    	bnd jmpq 403020 <.plt>
  4032df:	90                   	nop
  4032e0:	f3 0f 1e fa          	endbr64 
  4032e4:	68 2b 00 00 00       	pushq  $0x2b
  4032e9:	f2 e9 31 fd ff ff    	bnd jmpq 403020 <.plt>
  4032ef:	90                   	nop
  4032f0:	f3 0f 1e fa          	endbr64 
  4032f4:	68 2c 00 00 00       	pushq  $0x2c
  4032f9:	f2 e9 21 fd ff ff    	bnd jmpq 403020 <.plt>
  4032ff:	90                   	nop
  403300:	f3 0f 1e fa          	endbr64 
  403304:	68 2d 00 00 00       	pushq  $0x2d
  403309:	f2 e9 11 fd ff ff    	bnd jmpq 403020 <.plt>
  40330f:	90                   	nop
  403310:	f3 0f 1e fa          	endbr64 
  403314:	68 2e 00 00 00       	pushq  $0x2e
  403319:	f2 e9 01 fd ff ff    	bnd jmpq 403020 <.plt>
  40331f:	90                   	nop
  403320:	f3 0f 1e fa          	endbr64 
  403324:	68 2f 00 00 00       	pushq  $0x2f
  403329:	f2 e9 f1 fc ff ff    	bnd jmpq 403020 <.plt>
  40332f:	90                   	nop
  403330:	f3 0f 1e fa          	endbr64 
  403334:	68 30 00 00 00       	pushq  $0x30
  403339:	f2 e9 e1 fc ff ff    	bnd jmpq 403020 <.plt>
  40333f:	90                   	nop
  403340:	f3 0f 1e fa          	endbr64 
  403344:	68 31 00 00 00       	pushq  $0x31
  403349:	f2 e9 d1 fc ff ff    	bnd jmpq 403020 <.plt>
  40334f:	90                   	nop
  403350:	f3 0f 1e fa          	endbr64 
  403354:	68 32 00 00 00       	pushq  $0x32
  403359:	f2 e9 c1 fc ff ff    	bnd jmpq 403020 <.plt>
  40335f:	90                   	nop
  403360:	f3 0f 1e fa          	endbr64 
  403364:	68 33 00 00 00       	pushq  $0x33
  403369:	f2 e9 b1 fc ff ff    	bnd jmpq 403020 <.plt>
  40336f:	90                   	nop
  403370:	f3 0f 1e fa          	endbr64 
  403374:	68 34 00 00 00       	pushq  $0x34
  403379:	f2 e9 a1 fc ff ff    	bnd jmpq 403020 <.plt>
  40337f:	90                   	nop
  403380:	f3 0f 1e fa          	endbr64 
  403384:	68 35 00 00 00       	pushq  $0x35
  403389:	f2 e9 91 fc ff ff    	bnd jmpq 403020 <.plt>
  40338f:	90                   	nop
  403390:	f3 0f 1e fa          	endbr64 
  403394:	68 36 00 00 00       	pushq  $0x36
  403399:	f2 e9 81 fc ff ff    	bnd jmpq 403020 <.plt>
  40339f:	90                   	nop
  4033a0:	f3 0f 1e fa          	endbr64 
  4033a4:	68 37 00 00 00       	pushq  $0x37
  4033a9:	f2 e9 71 fc ff ff    	bnd jmpq 403020 <.plt>
  4033af:	90                   	nop
  4033b0:	f3 0f 1e fa          	endbr64 
  4033b4:	68 38 00 00 00       	pushq  $0x38
  4033b9:	f2 e9 61 fc ff ff    	bnd jmpq 403020 <.plt>
  4033bf:	90                   	nop
  4033c0:	f3 0f 1e fa          	endbr64 
  4033c4:	68 39 00 00 00       	pushq  $0x39
  4033c9:	f2 e9 51 fc ff ff    	bnd jmpq 403020 <.plt>
  4033cf:	90                   	nop
  4033d0:	f3 0f 1e fa          	endbr64 
  4033d4:	68 3a 00 00 00       	pushq  $0x3a
  4033d9:	f2 e9 41 fc ff ff    	bnd jmpq 403020 <.plt>
  4033df:	90                   	nop
  4033e0:	f3 0f 1e fa          	endbr64 
  4033e4:	68 3b 00 00 00       	pushq  $0x3b
  4033e9:	f2 e9 31 fc ff ff    	bnd jmpq 403020 <.plt>
  4033ef:	90                   	nop
  4033f0:	f3 0f 1e fa          	endbr64 
  4033f4:	68 3c 00 00 00       	pushq  $0x3c
  4033f9:	f2 e9 21 fc ff ff    	bnd jmpq 403020 <.plt>
  4033ff:	90                   	nop
  403400:	f3 0f 1e fa          	endbr64 
  403404:	68 3d 00 00 00       	pushq  $0x3d
  403409:	f2 e9 11 fc ff ff    	bnd jmpq 403020 <.plt>
  40340f:	90                   	nop
  403410:	f3 0f 1e fa          	endbr64 
  403414:	68 3e 00 00 00       	pushq  $0x3e
  403419:	f2 e9 01 fc ff ff    	bnd jmpq 403020 <.plt>
  40341f:	90                   	nop
  403420:	f3 0f 1e fa          	endbr64 
  403424:	68 3f 00 00 00       	pushq  $0x3f
  403429:	f2 e9 f1 fb ff ff    	bnd jmpq 403020 <.plt>
  40342f:	90                   	nop
  403430:	f3 0f 1e fa          	endbr64 
  403434:	68 40 00 00 00       	pushq  $0x40
  403439:	f2 e9 e1 fb ff ff    	bnd jmpq 403020 <.plt>
  40343f:	90                   	nop
  403440:	f3 0f 1e fa          	endbr64 
  403444:	68 41 00 00 00       	pushq  $0x41
  403449:	f2 e9 d1 fb ff ff    	bnd jmpq 403020 <.plt>
  40344f:	90                   	nop
  403450:	f3 0f 1e fa          	endbr64 
  403454:	68 42 00 00 00       	pushq  $0x42
  403459:	f2 e9 c1 fb ff ff    	bnd jmpq 403020 <.plt>
  40345f:	90                   	nop
  403460:	f3 0f 1e fa          	endbr64 
  403464:	68 43 00 00 00       	pushq  $0x43
  403469:	f2 e9 b1 fb ff ff    	bnd jmpq 403020 <.plt>
  40346f:	90                   	nop
  403470:	f3 0f 1e fa          	endbr64 
  403474:	68 44 00 00 00       	pushq  $0x44
  403479:	f2 e9 a1 fb ff ff    	bnd jmpq 403020 <.plt>
  40347f:	90                   	nop
  403480:	f3 0f 1e fa          	endbr64 
  403484:	68 45 00 00 00       	pushq  $0x45
  403489:	f2 e9 91 fb ff ff    	bnd jmpq 403020 <.plt>
  40348f:	90                   	nop
  403490:	f3 0f 1e fa          	endbr64 
  403494:	68 46 00 00 00       	pushq  $0x46
  403499:	f2 e9 81 fb ff ff    	bnd jmpq 403020 <.plt>
  40349f:	90                   	nop
  4034a0:	f3 0f 1e fa          	endbr64 
  4034a4:	68 47 00 00 00       	pushq  $0x47
  4034a9:	f2 e9 71 fb ff ff    	bnd jmpq 403020 <.plt>
  4034af:	90                   	nop
  4034b0:	f3 0f 1e fa          	endbr64 
  4034b4:	68 48 00 00 00       	pushq  $0x48
  4034b9:	f2 e9 61 fb ff ff    	bnd jmpq 403020 <.plt>
  4034bf:	90                   	nop
  4034c0:	f3 0f 1e fa          	endbr64 
  4034c4:	68 49 00 00 00       	pushq  $0x49
  4034c9:	f2 e9 51 fb ff ff    	bnd jmpq 403020 <.plt>
  4034cf:	90                   	nop
  4034d0:	f3 0f 1e fa          	endbr64 
  4034d4:	68 4a 00 00 00       	pushq  $0x4a
  4034d9:	f2 e9 41 fb ff ff    	bnd jmpq 403020 <.plt>
  4034df:	90                   	nop
  4034e0:	f3 0f 1e fa          	endbr64 
  4034e4:	68 4b 00 00 00       	pushq  $0x4b
  4034e9:	f2 e9 31 fb ff ff    	bnd jmpq 403020 <.plt>
  4034ef:	90                   	nop
  4034f0:	f3 0f 1e fa          	endbr64 
  4034f4:	68 4c 00 00 00       	pushq  $0x4c
  4034f9:	f2 e9 21 fb ff ff    	bnd jmpq 403020 <.plt>
  4034ff:	90                   	nop
  403500:	f3 0f 1e fa          	endbr64 
  403504:	68 4d 00 00 00       	pushq  $0x4d
  403509:	f2 e9 11 fb ff ff    	bnd jmpq 403020 <.plt>
  40350f:	90                   	nop
  403510:	f3 0f 1e fa          	endbr64 
  403514:	68 4e 00 00 00       	pushq  $0x4e
  403519:	f2 e9 01 fb ff ff    	bnd jmpq 403020 <.plt>
  40351f:	90                   	nop
  403520:	f3 0f 1e fa          	endbr64 
  403524:	68 4f 00 00 00       	pushq  $0x4f
  403529:	f2 e9 f1 fa ff ff    	bnd jmpq 403020 <.plt>
  40352f:	90                   	nop
  403530:	f3 0f 1e fa          	endbr64 
  403534:	68 50 00 00 00       	pushq  $0x50
  403539:	f2 e9 e1 fa ff ff    	bnd jmpq 403020 <.plt>
  40353f:	90                   	nop
  403540:	f3 0f 1e fa          	endbr64 
  403544:	68 51 00 00 00       	pushq  $0x51
  403549:	f2 e9 d1 fa ff ff    	bnd jmpq 403020 <.plt>
  40354f:	90                   	nop
  403550:	f3 0f 1e fa          	endbr64 
  403554:	68 52 00 00 00       	pushq  $0x52
  403559:	f2 e9 c1 fa ff ff    	bnd jmpq 403020 <.plt>
  40355f:	90                   	nop
  403560:	f3 0f 1e fa          	endbr64 
  403564:	68 53 00 00 00       	pushq  $0x53
  403569:	f2 e9 b1 fa ff ff    	bnd jmpq 403020 <.plt>
  40356f:	90                   	nop
  403570:	f3 0f 1e fa          	endbr64 
  403574:	68 54 00 00 00       	pushq  $0x54
  403579:	f2 e9 a1 fa ff ff    	bnd jmpq 403020 <.plt>
  40357f:	90                   	nop
  403580:	f3 0f 1e fa          	endbr64 
  403584:	68 55 00 00 00       	pushq  $0x55
  403589:	f2 e9 91 fa ff ff    	bnd jmpq 403020 <.plt>
  40358f:	90                   	nop
  403590:	f3 0f 1e fa          	endbr64 
  403594:	68 56 00 00 00       	pushq  $0x56
  403599:	f2 e9 81 fa ff ff    	bnd jmpq 403020 <.plt>
  40359f:	90                   	nop
  4035a0:	f3 0f 1e fa          	endbr64 
  4035a4:	68 57 00 00 00       	pushq  $0x57
  4035a9:	f2 e9 71 fa ff ff    	bnd jmpq 403020 <.plt>
  4035af:	90                   	nop
  4035b0:	f3 0f 1e fa          	endbr64 
  4035b4:	68 58 00 00 00       	pushq  $0x58
  4035b9:	f2 e9 61 fa ff ff    	bnd jmpq 403020 <.plt>
  4035bf:	90                   	nop
  4035c0:	f3 0f 1e fa          	endbr64 
  4035c4:	68 59 00 00 00       	pushq  $0x59
  4035c9:	f2 e9 51 fa ff ff    	bnd jmpq 403020 <.plt>
  4035cf:	90                   	nop
  4035d0:	f3 0f 1e fa          	endbr64 
  4035d4:	68 5a 00 00 00       	pushq  $0x5a
  4035d9:	f2 e9 41 fa ff ff    	bnd jmpq 403020 <.plt>
  4035df:	90                   	nop
  4035e0:	f3 0f 1e fa          	endbr64 
  4035e4:	68 5b 00 00 00       	pushq  $0x5b
  4035e9:	f2 e9 31 fa ff ff    	bnd jmpq 403020 <.plt>
  4035ef:	90                   	nop
  4035f0:	f3 0f 1e fa          	endbr64 
  4035f4:	68 5c 00 00 00       	pushq  $0x5c
  4035f9:	f2 e9 21 fa ff ff    	bnd jmpq 403020 <.plt>
  4035ff:	90                   	nop
  403600:	f3 0f 1e fa          	endbr64 
  403604:	68 5d 00 00 00       	pushq  $0x5d
  403609:	f2 e9 11 fa ff ff    	bnd jmpq 403020 <.plt>
  40360f:	90                   	nop
  403610:	f3 0f 1e fa          	endbr64 
  403614:	68 5e 00 00 00       	pushq  $0x5e
  403619:	f2 e9 01 fa ff ff    	bnd jmpq 403020 <.plt>
  40361f:	90                   	nop
  403620:	f3 0f 1e fa          	endbr64 
  403624:	68 5f 00 00 00       	pushq  $0x5f
  403629:	f2 e9 f1 f9 ff ff    	bnd jmpq 403020 <.plt>
  40362f:	90                   	nop
  403630:	f3 0f 1e fa          	endbr64 
  403634:	68 60 00 00 00       	pushq  $0x60
  403639:	f2 e9 e1 f9 ff ff    	bnd jmpq 403020 <.plt>
  40363f:	90                   	nop
  403640:	f3 0f 1e fa          	endbr64 
  403644:	68 61 00 00 00       	pushq  $0x61
  403649:	f2 e9 d1 f9 ff ff    	bnd jmpq 403020 <.plt>
  40364f:	90                   	nop

Disassembly of section .plt.sec:

0000000000403650 <__printf_chk@plt>:
  403650:	f3 0f 1e fa          	endbr64 
  403654:	f2 ff 25 bd 69 01 00 	bnd jmpq *0x169bd(%rip)        # 41a018 <__printf_chk@GLIBC_2.3.4>
  40365b:	0f 1f 44 00 00       	nopl   0x0(%rax,%rax,1)

0000000000403660 <_Znam@plt>:
  403660:	f3 0f 1e fa          	endbr64 
  403664:	f2 ff 25 b5 69 01 00 	bnd jmpq *0x169b5(%rip)        # 41a020 <_Znam@GLIBCXX_3.4>
  40366b:	0f 1f 44 00 00       	nopl   0x0(%rax,%rax,1)

0000000000403670 <GOMP_loop_end_nowait@plt>:
  403670:	f3 0f 1e fa          	endbr64 
  403674:	f2 ff 25 ad 69 01 00 	bnd jmpq *0x169ad(%rip)        # 41a028 <GOMP_loop_end_nowait@VERSION>
  40367b:	0f 1f 44 00 00       	nopl   0x0(%rax,%rax,1)

0000000000403680 <_ZNSo3putEc@plt>:
  403680:	f3 0f 1e fa          	endbr64 
  403684:	f2 ff 25 a5 69 01 00 	bnd jmpq *0x169a5(%rip)        # 41a030 <_ZNSo3putEc@GLIBCXX_3.4>
  40368b:	0f 1f 44 00 00       	nopl   0x0(%rax,%rax,1)

0000000000403690 <_ZNSt6chrono3_V212system_clock3nowEv@plt>:
  403690:	f3 0f 1e fa          	endbr64 
  403694:	f2 ff 25 9d 69 01 00 	bnd jmpq *0x1699d(%rip)        # 41a038 <_ZNSt6chrono3_V212system_clock3nowEv@GLIBCXX_3.4.19>
  40369b:	0f 1f 44 00 00       	nopl   0x0(%rax,%rax,1)

00000000004036a0 <syscall@plt>:
  4036a0:	f3 0f 1e fa          	endbr64 
  4036a4:	f2 ff 25 95 69 01 00 	bnd jmpq *0x16995(%rip)        # 41a040 <syscall@GLIBC_2.2.5>
  4036ab:	0f 1f 44 00 00       	nopl   0x0(%rax,%rax,1)

00000000004036b0 <bind@plt>:
  4036b0:	f3 0f 1e fa          	endbr64 
  4036b4:	f2 ff 25 8d 69 01 00 	bnd jmpq *0x1698d(%rip)        # 41a048 <bind@GLIBC_2.2.5>
  4036bb:	0f 1f 44 00 00       	nopl   0x0(%rax,%rax,1)

00000000004036c0 <GOMP_loop_ull_nonmonotonic_dynamic_start@plt>:
  4036c0:	f3 0f 1e fa          	endbr64 
  4036c4:	f2 ff 25 85 69 01 00 	bnd jmpq *0x16985(%rip)        # 41a050 <GOMP_loop_ull_nonmonotonic_dynamic_start@VERSION>
  4036cb:	0f 1f 44 00 00       	nopl   0x0(%rax,%rax,1)

00000000004036d0 <GOMP_single_start@plt>:
  4036d0:	f3 0f 1e fa          	endbr64 
  4036d4:	f2 ff 25 7d 69 01 00 	bnd jmpq *0x1697d(%rip)        # 41a058 <GOMP_single_start@VERSION>
  4036db:	0f 1f 44 00 00       	nopl   0x0(%rax,%rax,1)

00000000004036e0 <strstr@plt>:
  4036e0:	f3 0f 1e fa          	endbr64 
  4036e4:	f2 ff 25 75 69 01 00 	bnd jmpq *0x16975(%rip)        # 41a060 <strstr@GLIBC_2.2.5>
  4036eb:	0f 1f 44 00 00       	nopl   0x0(%rax,%rax,1)

00000000004036f0 <_ZNSt13basic_filebufIcSt11char_traitsIcEE5closeEv@plt>:
  4036f0:	f3 0f 1e fa          	endbr64 
  4036f4:	f2 ff 25 6d 69 01 00 	bnd jmpq *0x1696d(%rip)        # 41a068 <_ZNSt13basic_filebufIcSt11char_traitsIcEE5closeEv@GLIBCXX_3.4>
  4036fb:	0f 1f 44 00 00       	nopl   0x0(%rax,%rax,1)

0000000000403700 <getopt@plt>:
  403700:	f3 0f 1e fa          	endbr64 
  403704:	f2 ff 25 65 69 01 00 	bnd jmpq *0x16965(%rip)        # 41a070 <getopt@GLIBC_2.2.5>
  40370b:	0f 1f 44 00 00       	nopl   0x0(%rax,%rax,1)

0000000000403710 <_ZNKSt12__basic_fileIcE7is_openEv@plt>:
  403710:	f3 0f 1e fa          	endbr64 
  403714:	f2 ff 25 5d 69 01 00 	bnd jmpq *0x1695d(%rip)        # 41a078 <_ZNKSt12__basic_fileIcE7is_openEv@GLIBCXX_3.4>
  40371b:	0f 1f 44 00 00       	nopl   0x0(%rax,%rax,1)

0000000000403720 <socket@plt>:
  403720:	f3 0f 1e fa          	endbr64 
  403724:	f2 ff 25 55 69 01 00 	bnd jmpq *0x16955(%rip)        # 41a080 <socket@GLIBC_2.2.5>
  40372b:	0f 1f 44 00 00       	nopl   0x0(%rax,%rax,1)

0000000000403730 <_ZNSt14basic_ifstreamIcSt11char_traitsIcEED1Ev@plt>:
  403730:	f3 0f 1e fa          	endbr64 
  403734:	f2 ff 25 4d 69 01 00 	bnd jmpq *0x1694d(%rip)        # 41a088 <_ZNSt14basic_ifstreamIcSt11char_traitsIcEED1Ev@GLIBCXX_3.4>
  40373b:	0f 1f 44 00 00       	nopl   0x0(%rax,%rax,1)

0000000000403740 <fork@plt>:
  403740:	f3 0f 1e fa          	endbr64 
  403744:	f2 ff 25 45 69 01 00 	bnd jmpq *0x16945(%rip)        # 41a090 <fork@GLIBC_2.2.5>
  40374b:	0f 1f 44 00 00       	nopl   0x0(%rax,%rax,1)

0000000000403750 <_ZNKSt7__cxx1112basic_stringIcSt11char_traitsIcESaIcEE7compareEPKc@plt>:
  403750:	f3 0f 1e fa          	endbr64 
  403754:	f2 ff 25 3d 69 01 00 	bnd jmpq *0x1693d(%rip)        # 41a098 <_ZNKSt7__cxx1112basic_stringIcSt11char_traitsIcESaIcEE7compareEPKc@GLIBCXX_3.4.21>
  40375b:	0f 1f 44 00 00       	nopl   0x0(%rax,%rax,1)

0000000000403760 <execlp@plt>:
  403760:	f3 0f 1e fa          	endbr64 
  403764:	f2 ff 25 35 69 01 00 	bnd jmpq *0x16935(%rip)        # 41a0a0 <execlp@GLIBC_2.2.5>
  40376b:	0f 1f 44 00 00       	nopl   0x0(%rax,%rax,1)

0000000000403770 <_ZNSt8ios_baseC2Ev@plt>:
  403770:	f3 0f 1e fa          	endbr64 
  403774:	f2 ff 25 2d 69 01 00 	bnd jmpq *0x1692d(%rip)        # 41a0a8 <_ZNSt8ios_baseC2Ev@GLIBCXX_3.4>
  40377b:	0f 1f 44 00 00       	nopl   0x0(%rax,%rax,1)

0000000000403780 <_ZNSt7__cxx1112basic_stringIcSt11char_traitsIcESaIcEE9_M_appendEPKcm@plt>:
  403780:	f3 0f 1e fa          	endbr64 
  403784:	f2 ff 25 25 69 01 00 	bnd jmpq *0x16925(%rip)        # 41a0b0 <_ZNSt7__cxx1112basic_stringIcSt11char_traitsIcESaIcEE9_M_appendEPKcm@GLIBCXX_3.4.21>
  40378b:	0f 1f 44 00 00       	nopl   0x0(%rax,%rax,1)

0000000000403790 <recv@plt>:
  403790:	f3 0f 1e fa          	endbr64 
  403794:	f2 ff 25 1d 69 01 00 	bnd jmpq *0x1691d(%rip)        # 41a0b8 <recv@GLIBC_2.2.5>
  40379b:	0f 1f 44 00 00       	nopl   0x0(%rax,%rax,1)

00000000004037a0 <_ZNSt8ios_baseD2Ev@plt>:
  4037a0:	f3 0f 1e fa          	endbr64 
  4037a4:	f2 ff 25 15 69 01 00 	bnd jmpq *0x16915(%rip)        # 41a0c0 <_ZNSt8ios_baseD2Ev@GLIBCXX_3.4>
  4037ab:	0f 1f 44 00 00       	nopl   0x0(%rax,%rax,1)

00000000004037b0 <_ZNSi4peekEv@plt>:
  4037b0:	f3 0f 1e fa          	endbr64 
  4037b4:	f2 ff 25 0d 69 01 00 	bnd jmpq *0x1690d(%rip)        # 41a0c8 <_ZNSi4peekEv@GLIBCXX_3.4>
  4037bb:	0f 1f 44 00 00       	nopl   0x0(%rax,%rax,1)

00000000004037c0 <__cxa_begin_catch@plt>:
  4037c0:	f3 0f 1e fa          	endbr64 
  4037c4:	f2 ff 25 05 69 01 00 	bnd jmpq *0x16905(%rip)        # 41a0d0 <__cxa_begin_catch@CXXABI_1.3>
  4037cb:	0f 1f 44 00 00       	nopl   0x0(%rax,%rax,1)

00000000004037d0 <strlen@plt>:
  4037d0:	f3 0f 1e fa          	endbr64 
  4037d4:	f2 ff 25 fd 68 01 00 	bnd jmpq *0x168fd(%rip)        # 41a0d8 <strlen@GLIBC_2.2.5>
  4037db:	0f 1f 44 00 00       	nopl   0x0(%rax,%rax,1)

00000000004037e0 <_ZNSt7__cxx1119basic_istringstreamIcSt11char_traitsIcESaIcEED1Ev@plt>:
  4037e0:	f3 0f 1e fa          	endbr64 
  4037e4:	f2 ff 25 f5 68 01 00 	bnd jmpq *0x168f5(%rip)        # 41a0e0 <_ZNSt7__cxx1119basic_istringstreamIcSt11char_traitsIcESaIcEED1Ev@GLIBCXX_3.4.21>
  4037eb:	0f 1f 44 00 00       	nopl   0x0(%rax,%rax,1)

00000000004037f0 <send@plt>:
  4037f0:	f3 0f 1e fa          	endbr64 
  4037f4:	f2 ff 25 ed 68 01 00 	bnd jmpq *0x168ed(%rip)        # 41a0e8 <send@GLIBC_2.2.5>
  4037fb:	0f 1f 44 00 00       	nopl   0x0(%rax,%rax,1)

0000000000403800 <_ZSt20__throw_length_errorPKc@plt>:
  403800:	f3 0f 1e fa          	endbr64 
  403804:	f2 ff 25 e5 68 01 00 	bnd jmpq *0x168e5(%rip)        # 41a0f0 <_ZSt20__throw_length_errorPKc@GLIBCXX_3.4>
  40380b:	0f 1f 44 00 00       	nopl   0x0(%rax,%rax,1)

0000000000403810 <memset@plt>:
  403810:	f3 0f 1e fa          	endbr64 
  403814:	f2 ff 25 dd 68 01 00 	bnd jmpq *0x168dd(%rip)        # 41a0f8 <memset@GLIBC_2.2.5>
  40381b:	0f 1f 44 00 00       	nopl   0x0(%rax,%rax,1)

0000000000403820 <getrusage@plt>:
  403820:	f3 0f 1e fa          	endbr64 
  403824:	f2 ff 25 d5 68 01 00 	bnd jmpq *0x168d5(%rip)        # 41a100 <getrusage@GLIBC_2.2.5>
  40382b:	0f 1f 44 00 00       	nopl   0x0(%rax,%rax,1)

0000000000403830 <__snprintf_chk@plt>:
  403830:	f3 0f 1e fa          	endbr64 
  403834:	f2 ff 25 cd 68 01 00 	bnd jmpq *0x168cd(%rip)        # 41a108 <__snprintf_chk@GLIBC_2.3.4>
  40383b:	0f 1f 44 00 00       	nopl   0x0(%rax,%rax,1)

0000000000403840 <_ZNSirsERi@plt>:
  403840:	f3 0f 1e fa          	endbr64 
  403844:	f2 ff 25 c5 68 01 00 	bnd jmpq *0x168c5(%rip)        # 41a110 <_ZNSirsERi@GLIBCXX_3.4>
  40384b:	0f 1f 44 00 00       	nopl   0x0(%rax,%rax,1)

0000000000403850 <_ZNSi6ignoreEli@plt>:
  403850:	f3 0f 1e fa          	endbr64 
  403854:	f2 ff 25 bd 68 01 00 	bnd jmpq *0x168bd(%rip)        # 41a118 <_ZNSi6ignoreEli@GLIBCXX_3.4>
  40385b:	0f 1f 44 00 00       	nopl   0x0(%rax,%rax,1)

0000000000403860 <_ZNSo5flushEv@plt>:
  403860:	f3 0f 1e fa          	endbr64 
  403864:	f2 ff 25 b5 68 01 00 	bnd jmpq *0x168b5(%rip)        # 41a120 <_ZNSo5flushEv@GLIBCXX_3.4>
  40386b:	0f 1f 44 00 00       	nopl   0x0(%rax,%rax,1)

0000000000403870 <_ZSt19__throw_logic_errorPKc@plt>:
  403870:	f3 0f 1e fa          	endbr64 
  403874:	f2 ff 25 ad 68 01 00 	bnd jmpq *0x168ad(%rip)        # 41a128 <_ZSt19__throw_logic_errorPKc@GLIBCXX_3.4>
  40387b:	0f 1f 44 00 00       	nopl   0x0(%rax,%rax,1)

0000000000403880 <memcpy@plt>:
  403880:	f3 0f 1e fa          	endbr64 
  403884:	f2 ff 25 a5 68 01 00 	bnd jmpq *0x168a5(%rip)        # 41a130 <memcpy@GLIBC_2.14>
  40388b:	0f 1f 44 00 00       	nopl   0x0(%rax,%rax,1)

0000000000403890 <perror@plt>:
  403890:	f3 0f 1e fa          	endbr64 
  403894:	f2 ff 25 9d 68 01 00 	bnd jmpq *0x1689d(%rip)        # 41a138 <perror@GLIBC_2.2.5>
  40389b:	0f 1f 44 00 00       	nopl   0x0(%rax,%rax,1)

00000000004038a0 <_ZSt2wsIcSt11char_traitsIcEERSt13basic_istreamIT_T0_ES6_@plt>:
  4038a0:	f3 0f 1e fa          	endbr64 
  4038a4:	f2 ff 25 95 68 01 00 	bnd jmpq *0x16895(%rip)        # 41a140 <_ZSt2wsIcSt11char_traitsIcEERSt13basic_istreamIT_T0_ES6_@GLIBCXX_3.4>
  4038ab:	0f 1f 44 00 00       	nopl   0x0(%rax,%rax,1)

00000000004038b0 <system@plt>:
  4038b0:	f3 0f 1e fa          	endbr64 
  4038b4:	f2 ff 25 8d 68 01 00 	bnd jmpq *0x1688d(%rip)        # 41a148 <system@GLIBC_2.2.5>
  4038bb:	0f 1f 44 00 00       	nopl   0x0(%rax,%rax,1)

00000000004038c0 <__cxa_atexit@plt>:
  4038c0:	f3 0f 1e fa          	endbr64 
  4038c4:	f2 ff 25 85 68 01 00 	bnd jmpq *0x16885(%rip)        # 41a150 <__cxa_atexit@GLIBC_2.2.5>
  4038cb:	0f 1f 44 00 00       	nopl   0x0(%rax,%rax,1)

00000000004038d0 <_ZNSt13basic_filebufIcSt11char_traitsIcEE4openEPKcSt13_Ios_Openmode@plt>:
  4038d0:	f3 0f 1e fa          	endbr64 
  4038d4:	f2 ff 25 7d 68 01 00 	bnd jmpq *0x1687d(%rip)        # 41a158 <_ZNSt13basic_filebufIcSt11char_traitsIcEE4openEPKcSt13_Ios_Openmode@GLIBCXX_3.4>
  4038db:	0f 1f 44 00 00       	nopl   0x0(%rax,%rax,1)

00000000004038e0 <clock_gettime@plt>:
  4038e0:	f3 0f 1e fa          	endbr64 
  4038e4:	f2 ff 25 75 68 01 00 	bnd jmpq *0x16875(%rip)        # 41a160 <clock_gettime@GLIBC_2.17>
  4038eb:	0f 1f 44 00 00       	nopl   0x0(%rax,%rax,1)

00000000004038f0 <_ZdlPv@plt>:
  4038f0:	f3 0f 1e fa          	endbr64 
  4038f4:	f2 ff 25 6d 68 01 00 	bnd jmpq *0x1686d(%rip)        # 41a168 <_ZdlPv@GLIBCXX_3.4>
  4038fb:	0f 1f 44 00 00       	nopl   0x0(%rax,%rax,1)

0000000000403900 <_ZNSo9_M_insertIlEERSoT_@plt>:
  403900:	f3 0f 1e fa          	endbr64 
  403904:	f2 ff 25 65 68 01 00 	bnd jmpq *0x16865(%rip)        # 41a170 <_ZNSo9_M_insertIlEERSoT_@GLIBCXX_3.4.9>
  40390b:	0f 1f 44 00 00       	nopl   0x0(%rax,%rax,1)

0000000000403910 <__isoc99_sscanf@plt>:
  403910:	f3 0f 1e fa          	endbr64 
  403914:	f2 ff 25 5d 68 01 00 	bnd jmpq *0x1685d(%rip)        # 41a178 <__isoc99_sscanf@GLIBC_2.7>
  40391b:	0f 1f 44 00 00       	nopl   0x0(%rax,%rax,1)

0000000000403920 <fclose@plt>:
  403920:	f3 0f 1e fa          	endbr64 
  403924:	f2 ff 25 55 68 01 00 	bnd jmpq *0x16855(%rip)        # 41a180 <fclose@GLIBC_2.2.5>
  40392b:	0f 1f 44 00 00       	nopl   0x0(%rax,%rax,1)

0000000000403930 <_Znwm@plt>:
  403930:	f3 0f 1e fa          	endbr64 
  403934:	f2 ff 25 4d 68 01 00 	bnd jmpq *0x1684d(%rip)        # 41a188 <_Znwm@GLIBCXX_3.4>
  40393b:	0f 1f 44 00 00       	nopl   0x0(%rax,%rax,1)

0000000000403940 <_ZNSi10_M_extractIlEERSiRT_@plt>:
  403940:	f3 0f 1e fa          	endbr64 
  403944:	f2 ff 25 45 68 01 00 	bnd jmpq *0x16845(%rip)        # 41a190 <_ZNSi10_M_extractIlEERSiRT_@GLIBCXX_3.4.9>
  40394b:	0f 1f 44 00 00       	nopl   0x0(%rax,%rax,1)

0000000000403950 <_ZNSt13basic_filebufIcSt11char_traitsIcEEC1Ev@plt>:
  403950:	f3 0f 1e fa          	endbr64 
  403954:	f2 ff 25 3d 68 01 00 	bnd jmpq *0x1683d(%rip)        # 41a198 <_ZNSt13basic_filebufIcSt11char_traitsIcEEC1Ev@GLIBCXX_3.4>
  40395b:	0f 1f 44 00 00       	nopl   0x0(%rax,%rax,1)

0000000000403960 <__stack_chk_fail@plt>:
  403960:	f3 0f 1e fa          	endbr64 
  403964:	f2 ff 25 35 68 01 00 	bnd jmpq *0x16835(%rip)        # 41a1a0 <__stack_chk_fail@GLIBC_2.4>
  40396b:	0f 1f 44 00 00       	nopl   0x0(%rax,%rax,1)

0000000000403970 <_ZSt16__ostream_insertIcSt11char_traitsIcEERSt13basic_ostreamIT_T0_ES6_PKS3_l@plt>:
  403970:	f3 0f 1e fa          	endbr64 
  403974:	f2 ff 25 2d 68 01 00 	bnd jmpq *0x1682d(%rip)        # 41a1a8 <_ZSt16__ostream_insertIcSt11char_traitsIcEERSt13basic_ostreamIT_T0_ES6_PKS3_l@GLIBCXX_3.4.9>
  40397b:	0f 1f 44 00 00       	nopl   0x0(%rax,%rax,1)

0000000000403980 <_ZNKSt5ctypeIcE13_M_widen_initEv@plt>:
  403980:	f3 0f 1e fa          	endbr64 
  403984:	f2 ff 25 25 68 01 00 	bnd jmpq *0x16825(%rip)        # 41a1b0 <_ZNKSt5ctypeIcE13_M_widen_initEv@GLIBCXX_3.4.11>
  40398b:	0f 1f 44 00 00       	nopl   0x0(%rax,%rax,1)

0000000000403990 <omp_get_thread_num@plt>:
  403990:	f3 0f 1e fa          	endbr64 
  403994:	f2 ff 25 1d 68 01 00 	bnd jmpq *0x1681d(%rip)        # 41a1b8 <omp_get_thread_num@VERSION>
  40399b:	0f 1f 44 00 00       	nopl   0x0(%rax,%rax,1)

00000000004039a0 <_ZNSt7__cxx1112basic_stringIcSt11char_traitsIcESaIcEE12_M_constructEmc@plt>:
  4039a0:	f3 0f 1e fa          	endbr64 
  4039a4:	f2 ff 25 15 68 01 00 	bnd jmpq *0x16815(%rip)        # 41a1c0 <_ZNSt7__cxx1112basic_stringIcSt11char_traitsIcESaIcEE12_M_constructEmc@GLIBCXX_3.4.21>
  4039ab:	0f 1f 44 00 00       	nopl   0x0(%rax,%rax,1)

00000000004039b0 <fopen@plt>:
  4039b0:	f3 0f 1e fa          	endbr64 
  4039b4:	f2 ff 25 0d 68 01 00 	bnd jmpq *0x1680d(%rip)        # 41a1c8 <fopen@GLIBC_2.2.5>
  4039bb:	0f 1f 44 00 00       	nopl   0x0(%rax,%rax,1)

00000000004039c0 <GOMP_barrier@plt>:
  4039c0:	f3 0f 1e fa          	endbr64 
  4039c4:	f2 ff 25 05 68 01 00 	bnd jmpq *0x16805(%rip)        # 41a1d0 <GOMP_barrier@VERSION>
  4039cb:	0f 1f 44 00 00       	nopl   0x0(%rax,%rax,1)

00000000004039d0 <exit@plt>:
  4039d0:	f3 0f 1e fa          	endbr64 
  4039d4:	f2 ff 25 fd 67 01 00 	bnd jmpq *0x167fd(%rip)        # 41a1d8 <exit@GLIBC_2.2.5>
  4039db:	0f 1f 44 00 00       	nopl   0x0(%rax,%rax,1)

00000000004039e0 <getenv@plt>:
  4039e0:	f3 0f 1e fa          	endbr64 
  4039e4:	f2 ff 25 f5 67 01 00 	bnd jmpq *0x167f5(%rip)        # 41a1e0 <getenv@GLIBC_2.2.5>
  4039eb:	0f 1f 44 00 00       	nopl   0x0(%rax,%rax,1)

00000000004039f0 <_ZNSi4readEPcl@plt>:
  4039f0:	f3 0f 1e fa          	endbr64 
  4039f4:	f2 ff 25 ed 67 01 00 	bnd jmpq *0x167ed(%rip)        # 41a1e8 <_ZNSi4readEPcl@GLIBCXX_3.4>
  4039fb:	0f 1f 44 00 00       	nopl   0x0(%rax,%rax,1)

0000000000403a00 <_ZSt16__throw_bad_castv@plt>:
  403a00:	f3 0f 1e fa          	endbr64 
  403a04:	f2 ff 25 e5 67 01 00 	bnd jmpq *0x167e5(%rip)        # 41a1f0 <_ZSt16__throw_bad_castv@GLIBCXX_3.4>
  403a0b:	0f 1f 44 00 00       	nopl   0x0(%rax,%rax,1)

0000000000403a10 <_ZStrsIcSt11char_traitsIcESaIcEERSt13basic_istreamIT_T0_ES7_RNSt7__cxx1112basic_stringIS4_S5_T1_EE@plt>:
  403a10:	f3 0f 1e fa          	endbr64 
  403a14:	f2 ff 25 dd 67 01 00 	bnd jmpq *0x167dd(%rip)        # 41a1f8 <_ZStrsIcSt11char_traitsIcESaIcEERSt13basic_istreamIT_T0_ES7_RNSt7__cxx1112basic_stringIS4_S5_T1_EE@GLIBCXX_3.4.21>
  403a1b:	0f 1f 44 00 00       	nopl   0x0(%rax,%rax,1)

0000000000403a20 <_ZdaPv@plt>:
  403a20:	f3 0f 1e fa          	endbr64 
  403a24:	f2 ff 25 d5 67 01 00 	bnd jmpq *0x167d5(%rip)        # 41a200 <_ZdaPv@GLIBCXX_3.4>
  403a2b:	0f 1f 44 00 00       	nopl   0x0(%rax,%rax,1)

0000000000403a30 <_ZNSt7__cxx1115basic_stringbufIcSt11char_traitsIcESaIcEE7_M_syncEPcmm@plt>:
  403a30:	f3 0f 1e fa          	endbr64 
  403a34:	f2 ff 25 cd 67 01 00 	bnd jmpq *0x167cd(%rip)        # 41a208 <_ZNSt7__cxx1115basic_stringbufIcSt11char_traitsIcESaIcEE7_M_syncEPcmm@GLIBCXX_3.4.21>
  403a3b:	0f 1f 44 00 00       	nopl   0x0(%rax,%rax,1)

0000000000403a40 <_ZStrsIcSt11char_traitsIcEERSt13basic_istreamIT_T0_ES6_RS3_@plt>:
  403a40:	f3 0f 1e fa          	endbr64 
  403a44:	f2 ff 25 c5 67 01 00 	bnd jmpq *0x167c5(%rip)        # 41a210 <_ZStrsIcSt11char_traitsIcEERSt13basic_istreamIT_T0_ES6_RS3_@GLIBCXX_3.4>
  403a4b:	0f 1f 44 00 00       	nopl   0x0(%rax,%rax,1)

0000000000403a50 <_ZNSt9basic_iosIcSt11char_traitsIcEE4initEPSt15basic_streambufIcS1_E@plt>:
  403a50:	f3 0f 1e fa          	endbr64 
  403a54:	f2 ff 25 bd 67 01 00 	bnd jmpq *0x167bd(%rip)        # 41a218 <_ZNSt9basic_iosIcSt11char_traitsIcEE4initEPSt15basic_streambufIcS1_E@GLIBCXX_3.4>
  403a5b:	0f 1f 44 00 00       	nopl   0x0(%rax,%rax,1)

0000000000403a60 <strtol@plt>:
  403a60:	f3 0f 1e fa          	endbr64 
  403a64:	f2 ff 25 b5 67 01 00 	bnd jmpq *0x167b5(%rip)        # 41a220 <strtol@GLIBC_2.2.5>
  403a6b:	0f 1f 44 00 00       	nopl   0x0(%rax,%rax,1)

0000000000403a70 <ioctl@plt>:
  403a70:	f3 0f 1e fa          	endbr64 
  403a74:	f2 ff 25 ad 67 01 00 	bnd jmpq *0x167ad(%rip)        # 41a228 <ioctl@GLIBC_2.2.5>
  403a7b:	0f 1f 44 00 00       	nopl   0x0(%rax,%rax,1)

0000000000403a80 <_ZNSt6localeD1Ev@plt>:
  403a80:	f3 0f 1e fa          	endbr64 
  403a84:	f2 ff 25 a5 67 01 00 	bnd jmpq *0x167a5(%rip)        # 41a230 <_ZNSt6localeD1Ev@GLIBCXX_3.4>
  403a8b:	0f 1f 44 00 00       	nopl   0x0(%rax,%rax,1)

0000000000403a90 <__cxa_throw_bad_array_new_length@plt>:
  403a90:	f3 0f 1e fa          	endbr64 
  403a94:	f2 ff 25 9d 67 01 00 	bnd jmpq *0x1679d(%rip)        # 41a238 <__cxa_throw_bad_array_new_length@CXXABI_1.3.8>
  403a9b:	0f 1f 44 00 00       	nopl   0x0(%rax,%rax,1)

0000000000403aa0 <read@plt>:
  403aa0:	f3 0f 1e fa          	endbr64 
  403aa4:	f2 ff 25 95 67 01 00 	bnd jmpq *0x16795(%rip)        # 41a240 <read@GLIBC_2.2.5>
  403aab:	0f 1f 44 00 00       	nopl   0x0(%rax,%rax,1)

0000000000403ab0 <omp_get_num_threads@plt>:
  403ab0:	f3 0f 1e fa          	endbr64 
  403ab4:	f2 ff 25 8d 67 01 00 	bnd jmpq *0x1678d(%rip)        # 41a248 <omp_get_num_threads@VERSION>
  403abb:	0f 1f 44 00 00       	nopl   0x0(%rax,%rax,1)

0000000000403ac0 <getpid@plt>:
  403ac0:	f3 0f 1e fa          	endbr64 
  403ac4:	f2 ff 25 85 67 01 00 	bnd jmpq *0x16785(%rip)        # 41a250 <getpid@GLIBC_2.2.5>
  403acb:	0f 1f 44 00 00       	nopl   0x0(%rax,%rax,1)

0000000000403ad0 <fread@plt>:
  403ad0:	f3 0f 1e fa          	endbr64 
  403ad4:	f2 ff 25 7d 67 01 00 	bnd jmpq *0x1677d(%rip)        # 41a258 <fread@GLIBC_2.2.5>
  403adb:	0f 1f 44 00 00       	nopl   0x0(%rax,%rax,1)

0000000000403ae0 <_ZSt24__throw_out_of_range_fmtPKcz@plt>:
  403ae0:	f3 0f 1e fa          	endbr64 
  403ae4:	f2 ff 25 75 67 01 00 	bnd jmpq *0x16775(%rip)        # 41a260 <_ZSt24__throw_out_of_range_fmtPKcz@GLIBCXX_3.4.20>
  403aeb:	0f 1f 44 00 00       	nopl   0x0(%rax,%rax,1)

0000000000403af0 <_ZNSt8ios_base4InitC1Ev@plt>:
  403af0:	f3 0f 1e fa          	endbr64 
  403af4:	f2 ff 25 6d 67 01 00 	bnd jmpq *0x1676d(%rip)        # 41a268 <_ZNSt8ios_base4InitC1Ev@GLIBCXX_3.4>
  403afb:	0f 1f 44 00 00       	nopl   0x0(%rax,%rax,1)

0000000000403b00 <_ZNSt13basic_filebufIcSt11char_traitsIcEED1Ev@plt>:
  403b00:	f3 0f 1e fa          	endbr64 
  403b04:	f2 ff 25 65 67 01 00 	bnd jmpq *0x16765(%rip)        # 41a270 <_ZNSt13basic_filebufIcSt11char_traitsIcEED1Ev@GLIBCXX_3.4>
  403b0b:	0f 1f 44 00 00       	nopl   0x0(%rax,%rax,1)

0000000000403b10 <_ZNSt7__cxx1112basic_stringIcSt11char_traitsIcESaIcEE7reserveEm@plt>:
  403b10:	f3 0f 1e fa          	endbr64 
  403b14:	f2 ff 25 5d 67 01 00 	bnd jmpq *0x1675d(%rip)        # 41a278 <_ZNSt7__cxx1112basic_stringIcSt11char_traitsIcESaIcEE7reserveEm@GLIBCXX_3.4.21>
  403b1b:	0f 1f 44 00 00       	nopl   0x0(%rax,%rax,1)

0000000000403b20 <fgets@plt>:
  403b20:	f3 0f 1e fa          	endbr64 
  403b24:	f2 ff 25 55 67 01 00 	bnd jmpq *0x16755(%rip)        # 41a280 <fgets@GLIBC_2.2.5>
  403b2b:	0f 1f 44 00 00       	nopl   0x0(%rax,%rax,1)

0000000000403b30 <_ZNSo9_M_insertIdEERSoT_@plt>:
  403b30:	f3 0f 1e fa          	endbr64 
  403b34:	f2 ff 25 4d 67 01 00 	bnd jmpq *0x1674d(%rip)        # 41a288 <_ZNSo9_M_insertIdEERSoT_@GLIBCXX_3.4.9>
  403b3b:	0f 1f 44 00 00       	nopl   0x0(%rax,%rax,1)

0000000000403b40 <gettimeofday@plt>:
  403b40:	f3 0f 1e fa          	endbr64 
  403b44:	f2 ff 25 45 67 01 00 	bnd jmpq *0x16745(%rip)        # 41a290 <gettimeofday@GLIBC_2.2.5>
  403b4b:	0f 1f 44 00 00       	nopl   0x0(%rax,%rax,1)

0000000000403b50 <memmove@plt>:
  403b50:	f3 0f 1e fa          	endbr64 
  403b54:	f2 ff 25 3d 67 01 00 	bnd jmpq *0x1673d(%rip)        # 41a298 <memmove@GLIBC_2.2.5>
  403b5b:	0f 1f 44 00 00       	nopl   0x0(%rax,%rax,1)

0000000000403b60 <__cxa_end_catch@plt>:
  403b60:	f3 0f 1e fa          	endbr64 
  403b64:	f2 ff 25 35 67 01 00 	bnd jmpq *0x16735(%rip)        # 41a2a0 <__cxa_end_catch@CXXABI_1.3>
  403b6b:	0f 1f 44 00 00       	nopl   0x0(%rax,%rax,1)

0000000000403b70 <realloc@plt>:
  403b70:	f3 0f 1e fa          	endbr64 
  403b74:	f2 ff 25 2d 67 01 00 	bnd jmpq *0x1672d(%rip)        # 41a2a8 <realloc@GLIBC_2.2.5>
  403b7b:	0f 1f 44 00 00       	nopl   0x0(%rax,%rax,1)

0000000000403b80 <__fprintf_chk@plt>:
  403b80:	f3 0f 1e fa          	endbr64 
  403b84:	f2 ff 25 25 67 01 00 	bnd jmpq *0x16725(%rip)        # 41a2b0 <__fprintf_chk@GLIBC_2.3.4>
  403b8b:	0f 1f 44 00 00       	nopl   0x0(%rax,%rax,1)

0000000000403b90 <_ZNSt7__cxx1119basic_istringstreamIcSt11char_traitsIcESaIcEEC1ERKNS_12basic_stringIcS2_S3_EESt13_Ios_Openmode@plt>:
  403b90:	f3 0f 1e fa          	endbr64 
  403b94:	f2 ff 25 1d 67 01 00 	bnd jmpq *0x1671d(%rip)        # 41a2b8 <_ZNSt7__cxx1119basic_istringstreamIcSt11char_traitsIcESaIcEEC1ERKNS_12basic_stringIcS2_S3_EESt13_Ios_Openmode@GLIBCXX_3.4.21>
  403b9b:	0f 1f 44 00 00       	nopl   0x0(%rax,%rax,1)

0000000000403ba0 <_ZNSt9basic_iosIcSt11char_traitsIcEE5clearESt12_Ios_Iostate@plt>:
  403ba0:	f3 0f 1e fa          	endbr64 
  403ba4:	f2 ff 25 15 67 01 00 	bnd jmpq *0x16715(%rip)        # 41a2c0 <_ZNSt9basic_iosIcSt11char_traitsIcEE5clearESt12_Ios_Iostate@GLIBCXX_3.4>
  403bab:	0f 1f 44 00 00       	nopl   0x0(%rax,%rax,1)

0000000000403bb0 <_ZNSolsEi@plt>:
  403bb0:	f3 0f 1e fa          	endbr64 
  403bb4:	f2 ff 25 0d 67 01 00 	bnd jmpq *0x1670d(%rip)        # 41a2c8 <_ZNSolsEi@GLIBCXX_3.4>
  403bbb:	0f 1f 44 00 00       	nopl   0x0(%rax,%rax,1)

0000000000403bc0 <GOMP_parallel@plt>:
  403bc0:	f3 0f 1e fa          	endbr64 
  403bc4:	f2 ff 25 05 67 01 00 	bnd jmpq *0x16705(%rip)        # 41a2d0 <GOMP_parallel@VERSION>
  403bcb:	0f 1f 44 00 00       	nopl   0x0(%rax,%rax,1)

0000000000403bd0 <GOMP_loop_ull_nonmonotonic_dynamic_next@plt>:
  403bd0:	f3 0f 1e fa          	endbr64 
  403bd4:	f2 ff 25 fd 66 01 00 	bnd jmpq *0x166fd(%rip)        # 41a2d8 <GOMP_loop_ull_nonmonotonic_dynamic_next@VERSION>
  403bdb:	0f 1f 44 00 00       	nopl   0x0(%rax,%rax,1)

0000000000403be0 <_Unwind_Resume@plt>:
  403be0:	f3 0f 1e fa          	endbr64 
  403be4:	f2 ff 25 f5 66 01 00 	bnd jmpq *0x166f5(%rip)        # 41a2e0 <_Unwind_Resume@GCC_3.0>
  403beb:	0f 1f 44 00 00       	nopl   0x0(%rax,%rax,1)

0000000000403bf0 <_ZNSt7__cxx1112basic_stringIcSt11char_traitsIcESaIcEE9_M_createERmm@plt>:
  403bf0:	f3 0f 1e fa          	endbr64 
  403bf4:	f2 ff 25 ed 66 01 00 	bnd jmpq *0x166ed(%rip)        # 41a2e8 <_ZNSt7__cxx1112basic_stringIcSt11char_traitsIcESaIcEE9_M_createERmm@GLIBCXX_3.4.21>
  403bfb:	0f 1f 44 00 00       	nopl   0x0(%rax,%rax,1)

0000000000403c00 <__isoc99_fscanf@plt>:
  403c00:	f3 0f 1e fa          	endbr64 
  403c04:	f2 ff 25 e5 66 01 00 	bnd jmpq *0x166e5(%rip)        # 41a2f0 <__isoc99_fscanf@GLIBC_2.7>
  403c0b:	0f 1f 44 00 00       	nopl   0x0(%rax,%rax,1)

0000000000403c10 <_ZSt7getlineIcSt11char_traitsIcESaIcEERSt13basic_istreamIT_T0_ES7_RNSt7__cxx1112basic_stringIS4_S5_T1_EES4_@plt>:
  403c10:	f3 0f 1e fa          	endbr64 
  403c14:	f2 ff 25 dd 66 01 00 	bnd jmpq *0x166dd(%rip)        # 41a2f8 <_ZSt7getlineIcSt11char_traitsIcESaIcEERSt13basic_istreamIT_T0_ES7_RNSt7__cxx1112basic_stringIS4_S5_T1_EES4_@GLIBCXX_3.4.21>
  403c1b:	0f 1f 44 00 00       	nopl   0x0(%rax,%rax,1)

0000000000403c20 <_ZNSt12__basic_fileIcED1Ev@plt>:
  403c20:	f3 0f 1e fa          	endbr64 
  403c24:	f2 ff 25 d5 66 01 00 	bnd jmpq *0x166d5(%rip)        # 41a300 <_ZNSt12__basic_fileIcED1Ev@GLIBCXX_3.4>
  403c2b:	0f 1f 44 00 00       	nopl   0x0(%rax,%rax,1)

0000000000403c30 <fwrite@plt>:
  403c30:	f3 0f 1e fa          	endbr64 
  403c34:	f2 ff 25 cd 66 01 00 	bnd jmpq *0x166cd(%rip)        # 41a308 <fwrite@GLIBC_2.2.5>
  403c3b:	0f 1f 44 00 00       	nopl   0x0(%rax,%rax,1)

0000000000403c40 <close@plt>:
  403c40:	f3 0f 1e fa          	endbr64 
  403c44:	f2 ff 25 c5 66 01 00 	bnd jmpq *0x166c5(%rip)        # 41a310 <close@GLIBC_2.2.5>
  403c4b:	0f 1f 44 00 00       	nopl   0x0(%rax,%rax,1)

0000000000403c50 <_ZNKSt7__cxx1112basic_stringIcSt11char_traitsIcESaIcEE5rfindEcm@plt>:
  403c50:	f3 0f 1e fa          	endbr64 
  403c54:	f2 ff 25 bd 66 01 00 	bnd jmpq *0x166bd(%rip)        # 41a318 <_ZNKSt7__cxx1112basic_stringIcSt11char_traitsIcESaIcEE5rfindEcm@GLIBCXX_3.4.21>
  403c5b:	0f 1f 44 00 00       	nopl   0x0(%rax,%rax,1)

0000000000403c60 <_ZNSt6localeC1Ev@plt>:
  403c60:	f3 0f 1e fa          	endbr64 
  403c64:	f2 ff 25 b5 66 01 00 	bnd jmpq *0x166b5(%rip)        # 41a320 <_ZNSt6localeC1Ev@GLIBCXX_3.4>
  403c6b:	0f 1f 44 00 00       	nopl   0x0(%rax,%rax,1)

Disassembly of section .text:

0000000000403c70 <_Z10PrintLabelRKNSt7__cxx1112basic_stringIcSt11char_traitsIcESaIcEEES6_.cold>:
_ZNKSt7__cxx1112basic_stringIcSt11char_traitsIcESaIcEE7_M_dataEv():
/usr/include/c++/10/bits/basic_string.h:195 (discriminator 1)
      _M_length(size_type __length)
      { _M_string_length = __length; }

      pointer
      _M_data() const
      { return _M_dataplus._M_p; }
  403c70:	48 8b 7c 24 10       	mov    0x10(%rsp),%rdi
_ZNSt7__cxx1112basic_stringIcSt11char_traitsIcESaIcEE10_M_disposeEv():
/usr/include/c++/10/bits/basic_string.h:239 (discriminator 1)
      _M_create(size_type&, size_type);

      void
      _M_dispose()
      {
	if (!_M_is_local())
  403c75:	48 39 df             	cmp    %rbx,%rdi
  403c78:	74 05                	je     403c7f <_Z10PrintLabelRKNSt7__cxx1112basic_stringIcSt11char_traitsIcESaIcEEES6_.cold+0xf>
_ZN9__gnu_cxx13new_allocatorIcE10deallocateEPcm():
/usr/include/c++/10/ext/new_allocator.h:139
# endif
			      std::align_val_t(alignof(_Tp)));
	    return;
	  }
#endif
	::operator delete(__p
  403c7a:	e8 71 fc ff ff       	callq  4038f0 <_ZdlPv@plt>
_ZN9__gnu_cxx13new_allocatorIcED4Ev():
/usr/include/c++/10/ext/new_allocator.h:89
      ~new_allocator() _GLIBCXX_USE_NOEXCEPT { }
  403c7f:	48 89 ef             	mov    %rbp,%rdi
  403c82:	e8 59 ff ff ff       	callq  403be0 <_Unwind_Resume@plt>

0000000000403c87 <_Z9PrintTimeRKNSt7__cxx1112basic_stringIcSt11char_traitsIcESaIcEEEd.cold>:
_ZNKSt7__cxx1112basic_stringIcSt11char_traitsIcESaIcEE7_M_dataEv():
/usr/include/c++/10/bits/basic_string.h:195 (discriminator 1)
      { return _M_dataplus._M_p; }
  403c87:	48 8b 7c 24 10       	mov    0x10(%rsp),%rdi
_ZNSt7__cxx1112basic_stringIcSt11char_traitsIcESaIcEE10_M_disposeEv():
/usr/include/c++/10/bits/basic_string.h:239 (discriminator 1)
	if (!_M_is_local())
  403c8c:	48 39 df             	cmp    %rbx,%rdi
  403c8f:	74 05                	je     403c96 <_Z9PrintTimeRKNSt7__cxx1112basic_stringIcSt11char_traitsIcESaIcEEEd.cold+0xf>
_ZN9__gnu_cxx13new_allocatorIcE10deallocateEPcm():
/usr/include/c++/10/ext/new_allocator.h:139
	::operator delete(__p
  403c91:	e8 5a fc ff ff       	callq  4038f0 <_ZdlPv@plt>
_ZN9__gnu_cxx13new_allocatorIcED4Ev():
/usr/include/c++/10/ext/new_allocator.h:89
      ~new_allocator() _GLIBCXX_USE_NOEXCEPT { }
  403c96:	48 89 ef             	mov    %rbp,%rdi
  403c99:	e8 42 ff ff ff       	callq  403be0 <_Unwind_Resume@plt>

0000000000403c9e <_Z9PrintStepRKNSt7__cxx1112basic_stringIcSt11char_traitsIcESaIcEEEl.cold>:
_ZNKSt7__cxx1112basic_stringIcSt11char_traitsIcESaIcEE7_M_dataEv():
/usr/include/c++/10/bits/basic_string.h:195 (discriminator 1)
      { return _M_dataplus._M_p; }
  403c9e:	48 8b 7c 24 10       	mov    0x10(%rsp),%rdi
_ZNSt7__cxx1112basic_stringIcSt11char_traitsIcESaIcEE10_M_disposeEv():
/usr/include/c++/10/bits/basic_string.h:239 (discriminator 1)
	if (!_M_is_local())
  403ca3:	48 39 df             	cmp    %rbx,%rdi
  403ca6:	74 05                	je     403cad <_Z9PrintStepRKNSt7__cxx1112basic_stringIcSt11char_traitsIcESaIcEEEl.cold+0xf>
_ZN9__gnu_cxx13new_allocatorIcE10deallocateEPcm():
/usr/include/c++/10/ext/new_allocator.h:139
	::operator delete(__p
  403ca8:	e8 43 fc ff ff       	callq  4038f0 <_ZdlPv@plt>
_ZN9__gnu_cxx13new_allocatorIcED4Ev():
/usr/include/c++/10/ext/new_allocator.h:89
      ~new_allocator() _GLIBCXX_USE_NOEXCEPT { }
  403cad:	48 89 ef             	mov    %rbp,%rdi
  403cb0:	e8 2b ff ff ff       	callq  403be0 <_Unwind_Resume@plt>

0000000000403cb5 <_Z9PrintStepidl.cold>:
_ZNKSt7__cxx1112basic_stringIcSt11char_traitsIcESaIcEE7_M_dataEv():
/usr/include/c++/10/bits/basic_string.h:195 (discriminator 1)
      { return _M_dataplus._M_p; }
  403cb5:	48 8b 7c 24 10       	mov    0x10(%rsp),%rdi
_ZNSt7__cxx1112basic_stringIcSt11char_traitsIcESaIcEE10_M_disposeEv():
/usr/include/c++/10/bits/basic_string.h:239 (discriminator 1)
	if (!_M_is_local())
  403cba:	48 39 ef             	cmp    %rbp,%rdi
  403cbd:	74 05                	je     403cc4 <_Z9PrintStepidl.cold+0xf>
_ZN9__gnu_cxx13new_allocatorIcE10deallocateEPcm():
/usr/include/c++/10/ext/new_allocator.h:139
	::operator delete(__p
  403cbf:	e8 2c fc ff ff       	callq  4038f0 <_ZdlPv@plt>
_ZN9__gnu_cxx13new_allocatorIcED4Ev():
/usr/include/c++/10/ext/new_allocator.h:89
      ~new_allocator() _GLIBCXX_USE_NOEXCEPT { }
  403cc4:	4c 89 e7             	mov    %r12,%rdi
  403cc7:	e8 14 ff ff ff       	callq  403be0 <_Unwind_Resume@plt>

0000000000403ccc <_Z4PBFSRK8CSRGraphIiiLb1EEiR7pvectorIdER6BitmapRSt6vectorIPiSaIS9_EER12SlidingQueueIiE.cold>:
_ZN7pvectorIiEC4Em():
/home/aliha951/ipdps-artifact/gapbs-master/src/pvector.h:30
  typedef T_* iterator;

  pvector() : start_(nullptr), end_size_(nullptr), end_capacity_(nullptr) {}

  explicit pvector(size_t num_elements) {
    start_ = new T_[num_elements];
  403ccc:	e8 bf fd ff ff       	callq  403a90 <__cxa_throw_bad_array_new_length@plt>
_ZN7pvectorIiE16ReleaseResourcesEv():
/home/aliha951/ipdps-artifact/gapbs-master/src/pvector.h:73
    }
    return *this;
  }

  void ReleaseResources(){
    if (start_ != nullptr) {
  403cd1:	48 8b 7c 24 10       	mov    0x10(%rsp),%rdi
  403cd6:	48 85 ff             	test   %rdi,%rdi
  403cd9:	74 05                	je     403ce0 <_Z4PBFSRK8CSRGraphIiiLb1EEiR7pvectorIdER6BitmapRSt6vectorIPiSaIS9_EER12SlidingQueueIiE.cold+0x14>
/home/aliha951/ipdps-artifact/gapbs-master/src/pvector.h:74
      delete[] start_;
  403cdb:	e8 40 fd ff ff       	callq  403a20 <_ZdaPv@plt>
  403ce0:	48 89 ef             	mov    %rbp,%rdi
  403ce3:	e8 f8 fe ff ff       	callq  403be0 <_Unwind_Resume@plt>

0000000000403ce8 <_Z10BCVerifierRK8CSRGraphIiiLb1EER12SourcePickerIS0_EiRK7pvectorIfE.cold>:
_ZN7pvectorIfEC4Em():
/home/aliha951/ipdps-artifact/gapbs-master/src/pvector.h:30
    start_ = new T_[num_elements];
  403ce8:	e8 a3 fd ff ff       	callq  403a90 <__cxa_throw_bad_array_new_length@plt>
_ZNSt6vectorIiSaIiEED4Ev():
/usr/include/c++/10/bits/stl_vector.h:680
       *  not touched in any way.  Managing the pointer is the user's
       *  responsibility.
       */
      ~vector() _GLIBCXX_NOEXCEPT
      {
	std::_Destroy(this->_M_impl._M_start, this->_M_impl._M_finish,
  403ced:	49 8b 3c 24          	mov    (%r12),%rdi
_ZNSt12_Vector_baseIiSaIiEE13_M_deallocateEPim():
/usr/include/c++/10/bits/stl_vector.h:353
	if (__p)
  403cf1:	48 85 ff             	test   %rdi,%rdi
  403cf4:	74 05                	je     403cfb <_Z10BCVerifierRK8CSRGraphIiiLb1EER12SourcePickerIS0_EiRK7pvectorIfE.cold+0x13>
_ZN9__gnu_cxx13new_allocatorIiE10deallocateEPim():
/usr/include/c++/10/ext/new_allocator.h:139
	::operator delete(__p
  403cf6:	e8 f5 fb ff ff       	callq  4038f0 <_ZdlPv@plt>
_ZNSt12_Destroy_auxILb0EE9__destroyIPSt6vectorIiSaIiEEEEvT_S6_():
/usr/include/c++/10/bits/stl_construct.h:151
    {
      template<typename _ForwardIterator>
	static _GLIBCXX20_CONSTEXPR void
	__destroy(_ForwardIterator __first, _ForwardIterator __last)
	{
	  for (; __first != __last; ++__first)
  403cfb:	49 83 c4 18          	add    $0x18,%r12
  403cff:	4d 39 e5             	cmp    %r12,%r13
  403d02:	75 e9                	jne    403ced <_Z10BCVerifierRK8CSRGraphIiiLb1EER12SourcePickerIS0_EiRK7pvectorIfE.cold+0x5>
_ZNSt12_Vector_baseISt6vectorIiSaIiEESaIS2_EED4Ev():
/usr/include/c++/10/bits/stl_vector.h:336
		      _M_impl._M_end_of_storage - _M_impl._M_start);
  403d04:	48 8b bc 24 c0 00 00 	mov    0xc0(%rsp),%rdi
  403d0b:	00 
_ZNSt12_Vector_baseISt6vectorIiSaIiEESaIS2_EE13_M_deallocateEPS2_m():
/usr/include/c++/10/bits/stl_vector.h:353
	if (__p)
  403d0c:	48 85 ff             	test   %rdi,%rdi
  403d0f:	74 05                	je     403d16 <_Z10BCVerifierRK8CSRGraphIiiLb1EER12SourcePickerIS0_EiRK7pvectorIfE.cold+0x2e>
_ZN9__gnu_cxx13new_allocatorISt6vectorIiSaIiEEE10deallocateEPS3_m():
/usr/include/c++/10/ext/new_allocator.h:139
  403d11:	e8 da fb ff ff       	callq  4038f0 <_ZdlPv@plt>
_ZNSt6vectorIiSaIiEED4Ev():
/usr/include/c++/10/bits/stl_vector.h:680
	std::_Destroy(this->_M_impl._M_start, this->_M_impl._M_finish,
  403d16:	48 8b bc 24 a0 00 00 	mov    0xa0(%rsp),%rdi
  403d1d:	00 
_ZNSt12_Vector_baseIiSaIiEE13_M_deallocateEPim():
/usr/include/c++/10/bits/stl_vector.h:353
	if (__p)
  403d1e:	48 85 ff             	test   %rdi,%rdi
  403d21:	74 05                	je     403d28 <_Z10BCVerifierRK8CSRGraphIiiLb1EER12SourcePickerIS0_EiRK7pvectorIfE.cold+0x40>
_ZN9__gnu_cxx13new_allocatorIiE10deallocateEPim():
/usr/include/c++/10/ext/new_allocator.h:139
  403d23:	e8 c8 fb ff ff       	callq  4038f0 <_ZdlPv@plt>
_ZNSt12_Vector_baseIdSaIdEE13_M_deallocateEPdm():
/usr/include/c++/10/bits/stl_vector.h:353
  403d28:	48 85 ed             	test   %rbp,%rbp
  403d2b:	74 08                	je     403d35 <_Z10BCVerifierRK8CSRGraphIiiLb1EER12SourcePickerIS0_EiRK7pvectorIfE.cold+0x4d>
_ZN9__gnu_cxx13new_allocatorIdE10deallocateEPdm():
/usr/include/c++/10/ext/new_allocator.h:139
  403d2d:	48 89 ef             	mov    %rbp,%rdi
  403d30:	e8 bb fb ff ff       	callq  4038f0 <_ZdlPv@plt>
_ZN7pvectorIiE16ReleaseResourcesEv():
/home/aliha951/ipdps-artifact/gapbs-master/src/pvector.h:73
    if (start_ != nullptr) {
  403d35:	48 8b bc 24 80 00 00 	mov    0x80(%rsp),%rdi
  403d3c:	00 
  403d3d:	48 85 ff             	test   %rdi,%rdi
  403d40:	74 05                	je     403d47 <_Z10BCVerifierRK8CSRGraphIiiLb1EER12SourcePickerIS0_EiRK7pvectorIfE.cold+0x5f>
/home/aliha951/ipdps-artifact/gapbs-master/src/pvector.h:74
      delete[] start_;
  403d42:	e8 d9 fc ff ff       	callq  403a20 <_ZdaPv@plt>
  403d47:	48 89 dd             	mov    %rbx,%rbp
_ZN7pvectorIfE16ReleaseResourcesEv():
/home/aliha951/ipdps-artifact/gapbs-master/src/pvector.h:73
    if (start_ != nullptr) {
  403d4a:	48 8b 7c 24 60       	mov    0x60(%rsp),%rdi
  403d4f:	48 85 ff             	test   %rdi,%rdi
  403d52:	74 05                	je     403d59 <_Z10BCVerifierRK8CSRGraphIiiLb1EER12SourcePickerIS0_EiRK7pvectorIfE.cold+0x71>
/home/aliha951/ipdps-artifact/gapbs-master/src/pvector.h:74
      delete[] start_;
  403d54:	e8 c7 fc ff ff       	callq  403a20 <_ZdaPv@plt>
  403d59:	48 89 ef             	mov    %rbp,%rdi
  403d5c:	e8 7f fe ff ff       	callq  403be0 <_Unwind_Resume@plt>
_ZN7pvectorIfEC4Em():
/home/aliha951/ipdps-artifact/gapbs-master/src/pvector.h:30
    start_ = new T_[num_elements];
  403d61:	e8 2a fd ff ff       	callq  403a90 <__cxa_throw_bad_array_new_length@plt>
  403d66:	f3 0f 1e fa          	endbr64 
_ZNSt6vectorIS_IiSaIiEESaIS1_EED4Ev():
/usr/include/c++/10/bits/stl_vector.h:680
	std::_Destroy(this->_M_impl._M_start, this->_M_impl._M_finish,
  403d6a:	4c 8b ac 24 c8 00 00 	mov    0xc8(%rsp),%r13
  403d71:	00 
  403d72:	4c 8b a4 24 c0 00 00 	mov    0xc0(%rsp),%r12
  403d79:	00 
  403d7a:	48 89 c3             	mov    %rax,%rbx
_ZSt8_DestroyIPSt6vectorIiSaIiEES2_EvT_S4_RSaIT0_E():
/usr/include/c++/10/bits/alloc_traits.h:839
#endif
    }

  template<typename _ForwardIterator, typename _Tp>
    inline void
    _Destroy(_ForwardIterator __first, _ForwardIterator __last,
  403d7d:	eb 80                	jmp    403cff <_Z10BCVerifierRK8CSRGraphIiiLb1EER12SourcePickerIS0_EiRK7pvectorIfE.cold+0x17>
_ZN7pvectorIiEC4Em():
/home/aliha951/ipdps-artifact/gapbs-master/src/pvector.h:30
  403d7f:	e8 0c fd ff ff       	callq  403a90 <__cxa_throw_bad_array_new_length@plt>
  403d84:	f3 0f 1e fa          	endbr64 
_ZN7pvectorIfE16ReleaseResourcesEv():
/home/aliha951/ipdps-artifact/gapbs-master/src/pvector.h:73
    if (start_ != nullptr) {
  403d88:	48 89 c5             	mov    %rax,%rbp
  403d8b:	eb bd                	jmp    403d4a <_Z10BCVerifierRK8CSRGraphIiiLb1EER12SourcePickerIS0_EiRK7pvectorIfE.cold+0x62>

0000000000403d8d <_Z7BrandesRK8CSRGraphIiiLb1EER12SourcePickerIS0_Eib.cold>:
_ZN12SlidingQueueIiEC4Em():
/home/aliha951/ipdps-artifact/gapbs-master/src/sliding_queue.h:36
  size_t shared_out_end;
  friend class QueueBuffer<T>;

 public:
  explicit SlidingQueue(size_t shared_size) {
    shared = new T[shared_size];
  403d8d:	e8 fe fc ff ff       	callq  403a90 <__cxa_throw_bad_array_new_length@plt>
_ZNKSt7__cxx1112basic_stringIcSt11char_traitsIcESaIcEE7_M_dataEv():
/usr/include/c++/10/bits/basic_string.h:195 (discriminator 4)
      { return _M_dataplus._M_p; }
  403d92:	48 8b bc 24 40 01 00 	mov    0x140(%rsp),%rdi
  403d99:	00 
_ZNSt7__cxx1112basic_stringIcSt11char_traitsIcESaIcEE10_M_disposeEv():
/usr/include/c++/10/bits/basic_string.h:239 (discriminator 4)
	if (!_M_is_local())
  403d9a:	4c 39 ff             	cmp    %r15,%rdi
  403d9d:	74 05                	je     403da4 <_Z7BrandesRK8CSRGraphIiiLb1EER12SourcePickerIS0_Eib.cold+0x17>
_ZN9__gnu_cxx13new_allocatorIcE10deallocateEPcm():
/usr/include/c++/10/ext/new_allocator.h:139
  403d9f:	e8 4c fb ff ff       	callq  4038f0 <_ZdlPv@plt>
_ZN7pvectorIfE16ReleaseResourcesEv():
/home/aliha951/ipdps-artifact/gapbs-master/src/pvector.h:73
  403da4:	48 8b bc 24 c0 00 00 	mov    0xc0(%rsp),%rdi
  403dab:	00 
  403dac:	48 85 ff             	test   %rdi,%rdi
  403daf:	74 05                	je     403db6 <_Z7BrandesRK8CSRGraphIiiLb1EER12SourcePickerIS0_Eib.cold+0x29>
/home/aliha951/ipdps-artifact/gapbs-master/src/pvector.h:74
      delete[] start_;
  403db1:	e8 6a fc ff ff       	callq  403a20 <_ZdaPv@plt>
_ZN12SlidingQueueIiED4Ev():
/home/aliha951/ipdps-artifact/gapbs-master/src/sliding_queue.h:41
    reset();
  }

  ~SlidingQueue() {
    delete[] shared;
  403db6:	48 8b bc 24 e0 00 00 	mov    0xe0(%rsp),%rdi
  403dbd:	00 
  403dbe:	48 85 ff             	test   %rdi,%rdi
  403dc1:	74 05                	je     403dc8 <_Z7BrandesRK8CSRGraphIiiLb1EER12SourcePickerIS0_Eib.cold+0x3b>
  403dc3:	e8 58 fc ff ff       	callq  403a20 <_ZdaPv@plt>
_ZNSt6vectorIPiSaIS0_EED4Ev():
/usr/include/c++/10/bits/stl_vector.h:680
  403dc8:	48 8b bc 24 a0 00 00 	mov    0xa0(%rsp),%rdi
  403dcf:	00 
_ZNSt12_Vector_baseIPiSaIS0_EE13_M_deallocateEPS0_m():
/usr/include/c++/10/bits/stl_vector.h:353
	if (__p)
  403dd0:	48 85 ff             	test   %rdi,%rdi
  403dd3:	74 05                	je     403dda <_Z7BrandesRK8CSRGraphIiiLb1EER12SourcePickerIS0_Eib.cold+0x4d>
_ZN9__gnu_cxx13new_allocatorIPiE10deallocateEPS1_m():
/usr/include/c++/10/ext/new_allocator.h:139
  403dd5:	e8 16 fb ff ff       	callq  4038f0 <_ZdlPv@plt>
_ZN6BitmapD4Ev():
/home/aliha951/ipdps-artifact/gapbs-master/src/bitmap.h:32
    start_ = new uint64_t[num_words];
    end_ = start_ + num_words;
  }

  ~Bitmap() {
    delete[] start_;
  403dda:	48 8b 7c 24 70       	mov    0x70(%rsp),%rdi
  403ddf:	48 85 ff             	test   %rdi,%rdi
  403de2:	74 05                	je     403de9 <_Z7BrandesRK8CSRGraphIiiLb1EER12SourcePickerIS0_Eib.cold+0x5c>
  403de4:	e8 37 fc ff ff       	callq  403a20 <_ZdaPv@plt>
_ZN7pvectorIdE16ReleaseResourcesEv():
/home/aliha951/ipdps-artifact/gapbs-master/src/pvector.h:73
    if (start_ != nullptr) {
  403de9:	48 8b bc 24 80 00 00 	mov    0x80(%rsp),%rdi
  403df0:	00 
  403df1:	48 85 ff             	test   %rdi,%rdi
  403df4:	74 05                	je     403dfb <_Z7BrandesRK8CSRGraphIiiLb1EER12SourcePickerIS0_Eib.cold+0x6e>
/home/aliha951/ipdps-artifact/gapbs-master/src/pvector.h:74
      delete[] start_;
  403df6:	e8 25 fc ff ff       	callq  403a20 <_ZdaPv@plt>
  403dfb:	48 89 dd             	mov    %rbx,%rbp
_ZN7pvectorIfE16ReleaseResourcesEv():
/home/aliha951/ipdps-artifact/gapbs-master/src/pvector.h:73
    if (start_ != nullptr) {
  403dfe:	48 8b 44 24 48       	mov    0x48(%rsp),%rax
  403e03:	48 8b 38             	mov    (%rax),%rdi
  403e06:	48 85 ff             	test   %rdi,%rdi
  403e09:	74 05                	je     403e10 <_Z7BrandesRK8CSRGraphIiiLb1EER12SourcePickerIS0_Eib.cold+0x83>
/home/aliha951/ipdps-artifact/gapbs-master/src/pvector.h:74
      delete[] start_;
  403e0b:	e8 10 fc ff ff       	callq  403a20 <_ZdaPv@plt>
  403e10:	48 89 ef             	mov    %rbp,%rdi
  403e13:	e8 c8 fd ff ff       	callq  403be0 <_Unwind_Resume@plt>
  403e18:	f3 0f 1e fa          	endbr64 
_ZNSt6vectorIPiSaIS0_EED4Ev():
/usr/include/c++/10/bits/stl_vector.h:680
	std::_Destroy(this->_M_impl._M_start, this->_M_impl._M_finish,
  403e1c:	48 89 c3             	mov    %rax,%rbx
  403e1f:	eb a7                	jmp    403dc8 <_Z7BrandesRK8CSRGraphIiiLb1EER12SourcePickerIS0_Eib.cold+0x3b>
  403e21:	f3 0f 1e fa          	endbr64 
_ZN7pvectorIfE16ReleaseResourcesEv():
/home/aliha951/ipdps-artifact/gapbs-master/src/pvector.h:73
    if (start_ != nullptr) {
  403e25:	48 89 c5             	mov    %rax,%rbp
  403e28:	eb d4                	jmp    403dfe <_Z7BrandesRK8CSRGraphIiiLb1EER12SourcePickerIS0_Eib.cold+0x71>
_ZN7pvectorIfEC4Em():
/home/aliha951/ipdps-artifact/gapbs-master/src/pvector.h:30
    start_ = new T_[num_elements];
  403e2a:	e8 61 fc ff ff       	callq  403a90 <__cxa_throw_bad_array_new_length@plt>
  403e2f:	e8 5c fc ff ff       	callq  403a90 <__cxa_throw_bad_array_new_length@plt>
  403e34:	f3 0f 1e fa          	endbr64 
_ZN12SlidingQueueIiED4Ev():
/home/aliha951/ipdps-artifact/gapbs-master/src/sliding_queue.h:41
  403e38:	48 89 c3             	mov    %rax,%rbx
  403e3b:	e9 76 ff ff ff       	jmpq   403db6 <_Z7BrandesRK8CSRGraphIiiLb1EER12SourcePickerIS0_Eib.cold+0x29>
_ZNKSt7__cxx1112basic_stringIcSt11char_traitsIcESaIcEE7_M_dataEv():
/usr/include/c++/10/bits/basic_string.h:195 (discriminator 4)
      { return _M_dataplus._M_p; }
  403e40:	48 8b bc 24 40 01 00 	mov    0x140(%rsp),%rdi
  403e47:	00 
_ZNSt7__cxx1112basic_stringIcSt11char_traitsIcESaIcEE10_M_disposeEv():
/usr/include/c++/10/bits/basic_string.h:239 (discriminator 4)
	if (!_M_is_local())
  403e48:	48 8d 84 24 50 01 00 	lea    0x150(%rsp),%rax
  403e4f:	00 
  403e50:	48 39 c7             	cmp    %rax,%rdi
  403e53:	0f 84 5d ff ff ff    	je     403db6 <_Z7BrandesRK8CSRGraphIiiLb1EER12SourcePickerIS0_Eib.cold+0x29>
_ZN9__gnu_cxx13new_allocatorIcE10deallocateEPcm():
/usr/include/c++/10/ext/new_allocator.h:139
  403e59:	e8 92 fa ff ff       	callq  4038f0 <_ZdlPv@plt>
_ZNSt7__cxx1112basic_stringIcSt11char_traitsIcESaIcEE10_M_destroyEm():
/usr/include/c++/10/bits/basic_string.h:245
	  _M_destroy(_M_allocated_capacity);
      }

      void
      _M_destroy(size_type __size) throw()
      { _Alloc_traits::deallocate(_M_get_allocator(), _M_data(), __size + 1); }
  403e5e:	e9 53 ff ff ff       	jmpq   403db6 <_Z7BrandesRK8CSRGraphIiiLb1EER12SourcePickerIS0_Eib.cold+0x29>
_ZN7pvectorIdEC4Em():
/home/aliha951/ipdps-artifact/gapbs-master/src/pvector.h:30
  403e63:	e8 28 fc ff ff       	callq  403a90 <__cxa_throw_bad_array_new_length@plt>
_ZNKSt7__cxx1112basic_stringIcSt11char_traitsIcESaIcEE7_M_dataEv():
/usr/include/c++/10/bits/basic_string.h:195 (discriminator 4)
      { return _M_dataplus._M_p; }
  403e68:	48 8b bc 24 40 01 00 	mov    0x140(%rsp),%rdi
  403e6f:	00 
_ZNSt7__cxx1112basic_stringIcSt11char_traitsIcESaIcEE10_M_disposeEv():
/usr/include/c++/10/bits/basic_string.h:239 (discriminator 4)
	if (!_M_is_local())
  403e70:	4c 39 ff             	cmp    %r15,%rdi
  403e73:	75 e4                	jne    403e59 <_Z7BrandesRK8CSRGraphIiiLb1EER12SourcePickerIS0_Eib.cold+0xcc>
  403e75:	e9 3c ff ff ff       	jmpq   403db6 <_Z7BrandesRK8CSRGraphIiiLb1EER12SourcePickerIS0_Eib.cold+0x29>

0000000000403e7a <_Z14PrintTopScoresRK8CSRGraphIiiLb1EERK7pvectorIfE.cold>:
_ZNSt6vectorISt4pairIfiESaIS1_EED4Ev():
/usr/include/c++/10/bits/stl_vector.h:680
  403e7a:	48 8b 7c 24 20       	mov    0x20(%rsp),%rdi
_ZNSt12_Vector_baseISt4pairIfiESaIS1_EE13_M_deallocateEPS1_m():
/usr/include/c++/10/bits/stl_vector.h:353
	if (__p)
  403e7f:	48 85 ff             	test   %rdi,%rdi
  403e82:	74 05                	je     403e89 <_Z14PrintTopScoresRK8CSRGraphIiiLb1EERK7pvectorIfE.cold+0xf>
_ZN9__gnu_cxx13new_allocatorISt4pairIfiEE10deallocateEPS2_m():
/usr/include/c++/10/ext/new_allocator.h:139
  403e84:	e8 67 fa ff ff       	callq  4038f0 <_ZdlPv@plt>
_ZNSt6vectorISt4pairIifESaIS1_EED4Ev():
/usr/include/c++/10/bits/stl_vector.h:680
	std::_Destroy(this->_M_impl._M_start, this->_M_impl._M_finish,
  403e89:	48 8b 3c 24          	mov    (%rsp),%rdi
_ZNSt12_Vector_baseISt4pairIifESaIS1_EE13_M_deallocateEPS1_m():
/usr/include/c++/10/bits/stl_vector.h:353
	if (__p)
  403e8d:	48 85 ff             	test   %rdi,%rdi
  403e90:	74 05                	je     403e97 <_Z14PrintTopScoresRK8CSRGraphIiiLb1EERK7pvectorIfE.cold+0x1d>
_ZN9__gnu_cxx13new_allocatorISt4pairIifEE10deallocateEPS2_m():
/usr/include/c++/10/ext/new_allocator.h:139
  403e92:	e8 59 fa ff ff       	callq  4038f0 <_ZdlPv@plt>
_ZN9__gnu_cxx13new_allocatorISt4pairIifEED4Ev():
/usr/include/c++/10/ext/new_allocator.h:89
      ~new_allocator() _GLIBCXX_USE_NOEXCEPT { }
  403e97:	48 89 ef             	mov    %rbp,%rdi
  403e9a:	e8 41 fd ff ff       	callq  403be0 <_Unwind_Resume@plt>

0000000000403e9f <main.cold>:
_ZNKSt7__cxx1112basic_stringIcSt11char_traitsIcESaIcEE7_M_dataEv():
/usr/include/c++/10/bits/basic_string.h:195
      { return _M_dataplus._M_p; }
  403e9f:	48 8b bc 24 f0 00 00 	mov    0xf0(%rsp),%rdi
  403ea6:	00 
_ZNSt7__cxx1112basic_stringIcSt11char_traitsIcESaIcEE10_M_disposeEv():
/usr/include/c++/10/bits/basic_string.h:239
	if (!_M_is_local())
  403ea7:	48 39 df             	cmp    %rbx,%rdi
  403eaa:	74 05                	je     403eb1 <main.cold+0x12>
_ZN9__gnu_cxx13new_allocatorIcE10deallocateEPcm():
/usr/include/c++/10/ext/new_allocator.h:139
	::operator delete(__p
  403eac:	e8 3f fa ff ff       	callq  4038f0 <_ZdlPv@plt>
_ZN7pvectorIfE16ReleaseResourcesEv():
/home/aliha951/ipdps-artifact/gapbs-master/src/pvector.h:73
    if (start_ != nullptr) {
  403eb1:	48 8b 7c 24 70       	mov    0x70(%rsp),%rdi
  403eb6:	48 85 ff             	test   %rdi,%rdi
  403eb9:	74 05                	je     403ec0 <main.cold+0x21>
/home/aliha951/ipdps-artifact/gapbs-master/src/pvector.h:74
      delete[] start_;
  403ebb:	e8 60 fb ff ff       	callq  403a20 <_ZdaPv@plt>
  403ec0:	48 89 eb             	mov    %rbp,%rbx
_ZN8CSRGraphIiiLb1EED4Ev():
/home/aliha951/ipdps-artifact/gapbs-master/src/graph.h:166
      other.in_index_ = nullptr;
      other.in_neighbors_ = nullptr;
  }

  ~CSRGraph() {
    ReleaseResources();
  403ec3:	4c 89 ef             	mov    %r13,%rdi
  403ec6:	e8 05 7c 00 00       	callq  40bad0 <_ZN8CSRGraphIiiLb1EE16ReleaseResourcesEv>
_ZN5CLAppD4Ev():
/home/aliha951/ipdps-artifact/gapbs-master/src/command_line.h:140
  int batching_mode() const { return batching_mode_; }
};



class CLApp : public CLBase {
  403ecb:	48 8b 7c 24 28       	mov    0x28(%rsp),%rdi
  403ed0:	48 8d 05 21 5c 01 00 	lea    0x15c21(%rip),%rax        # 419af8 <_ZTV5CLApp+0x10>
  403ed7:	48 89 84 24 10 01 00 	mov    %rax,0x110(%rsp)
  403ede:	00 
  403edf:	e8 4c 6f 00 00       	callq  40ae30 <_ZN6CLBaseD1Ev>
  403ee4:	48 89 df             	mov    %rbx,%rdi
  403ee7:	e8 f4 fc ff ff       	callq  403be0 <_Unwind_Resume@plt>
_ZNKSt7__cxx1112basic_stringIcSt11char_traitsIcESaIcEE7_M_dataEv():
/usr/include/c++/10/bits/basic_string.h:195
      { return _M_dataplus._M_p; }
  403eec:	48 8b bc 24 f0 00 00 	mov    0xf0(%rsp),%rdi
  403ef3:	00 
_ZNSt7__cxx1112basic_stringIcSt11char_traitsIcESaIcEE10_M_disposeEv():
/usr/include/c++/10/bits/basic_string.h:239
	if (!_M_is_local())
  403ef4:	48 39 df             	cmp    %rbx,%rdi
  403ef7:	74 05                	je     403efe <main.cold+0x5f>
_ZN9__gnu_cxx13new_allocatorIcE10deallocateEPcm():
/usr/include/c++/10/ext/new_allocator.h:139
  403ef9:	e8 f2 f9 ff ff       	callq  4038f0 <_ZdlPv@plt>
_ZNKSt7__cxx1112basic_stringIcSt11char_traitsIcESaIcEE7_M_dataEv():
/usr/include/c++/10/bits/basic_string.h:195
      { return _M_dataplus._M_p; }
  403efe:	48 8b bc 24 d0 00 00 	mov    0xd0(%rsp),%rdi
  403f05:	00 
_ZNSt7__cxx1112basic_stringIcSt11char_traitsIcESaIcEE10_M_disposeEv():
/usr/include/c++/10/bits/basic_string.h:239
	if (!_M_is_local())
  403f06:	48 3b 7c 24 10       	cmp    0x10(%rsp),%rdi
  403f0b:	74 a4                	je     403eb1 <main.cold+0x12>
_ZN9__gnu_cxx13new_allocatorIcE10deallocateEPcm():
/usr/include/c++/10/ext/new_allocator.h:139
  403f0d:	e8 de f9 ff ff       	callq  4038f0 <_ZdlPv@plt>
_ZNSt7__cxx1112basic_stringIcSt11char_traitsIcESaIcEE10_M_destroyEm():
/usr/include/c++/10/bits/basic_string.h:245
      { _Alloc_traits::deallocate(_M_get_allocator(), _M_data(), __size + 1); }
  403f12:	eb 9d                	jmp    403eb1 <main.cold+0x12>
_ZNKSt7__cxx1112basic_stringIcSt11char_traitsIcESaIcEE7_M_dataEv():
/usr/include/c++/10/bits/basic_string.h:195
      { return _M_dataplus._M_p; }
  403f14:	48 8b bc 24 f0 00 00 	mov    0xf0(%rsp),%rdi
  403f1b:	00 
_ZNSt7__cxx1112basic_stringIcSt11char_traitsIcESaIcEE10_M_disposeEv():
/usr/include/c++/10/bits/basic_string.h:239
	if (!_M_is_local())
  403f1c:	48 39 df             	cmp    %rbx,%rdi
  403f1f:	74 90                	je     403eb1 <main.cold+0x12>
_ZN9__gnu_cxx13new_allocatorIcE10deallocateEPcm():
/usr/include/c++/10/ext/new_allocator.h:139
  403f21:	e8 ca f9 ff ff       	callq  4038f0 <_ZdlPv@plt>
_ZNSt7__cxx1112basic_stringIcSt11char_traitsIcESaIcEE10_M_destroyEm():
/usr/include/c++/10/bits/basic_string.h:245
      { _Alloc_traits::deallocate(_M_get_allocator(), _M_data(), __size + 1); }
  403f26:	eb 89                	jmp    403eb1 <main.cold+0x12>
_ZNKSt7__cxx1112basic_stringIcSt11char_traitsIcESaIcEE7_M_dataEv():
/usr/include/c++/10/bits/basic_string.h:195
      { return _M_dataplus._M_p; }
  403f28:	48 8b bc 24 d0 0b 00 	mov    0xbd0(%rsp),%rdi
  403f2f:	00 
_ZNSt7__cxx1112basic_stringIcSt11char_traitsIcESaIcEE10_M_disposeEv():
/usr/include/c++/10/bits/basic_string.h:239
	if (!_M_is_local())
  403f30:	48 8d 84 24 e0 0b 00 	lea    0xbe0(%rsp),%rax
  403f37:	00 
  403f38:	48 39 c7             	cmp    %rax,%rdi
  403f3b:	74 05                	je     403f42 <main.cold+0xa3>
_ZN9__gnu_cxx13new_allocatorIcE10deallocateEPcm():
/usr/include/c++/10/ext/new_allocator.h:139
  403f3d:	e8 ae f9 ff ff       	callq  4038f0 <_ZdlPv@plt>
_ZN9__gnu_cxx13new_allocatorIcED4Ev():
/usr/include/c++/10/ext/new_allocator.h:89
      ~new_allocator() _GLIBCXX_USE_NOEXCEPT { }
  403f42:	48 89 ef             	mov    %rbp,%rdi
  403f45:	e8 96 fc ff ff       	callq  403be0 <_Unwind_Resume@plt>
_ZNKSt7__cxx1112basic_stringIcSt11char_traitsIcESaIcEE7_M_dataEv():
/usr/include/c++/10/bits/basic_string.h:195
      { return _M_dataplus._M_p; }
  403f4a:	48 8b bc 24 f0 00 00 	mov    0xf0(%rsp),%rdi
  403f51:	00 
_ZNSt7__cxx1112basic_stringIcSt11char_traitsIcESaIcEE10_M_disposeEv():
/usr/include/c++/10/bits/basic_string.h:239
	if (!_M_is_local())
  403f52:	48 8d 84 24 00 01 00 	lea    0x100(%rsp),%rax
  403f59:	00 
  403f5a:	48 39 c7             	cmp    %rax,%rdi
  403f5d:	0f 84 60 ff ff ff    	je     403ec3 <main.cold+0x24>
_ZN9__gnu_cxx13new_allocatorIcE10deallocateEPcm():
/usr/include/c++/10/ext/new_allocator.h:139
	::operator delete(__p
  403f63:	e8 88 f9 ff ff       	callq  4038f0 <_ZdlPv@plt>
_ZNSt7__cxx1112basic_stringIcSt11char_traitsIcESaIcEE10_M_destroyEm():
/usr/include/c++/10/bits/basic_string.h:245
      { _Alloc_traits::deallocate(_M_get_allocator(), _M_data(), __size + 1); }
  403f68:	e9 56 ff ff ff       	jmpq   403ec3 <main.cold+0x24>
main.cold():
  403f6d:	0f 1f 00             	nopl   (%rax)

0000000000403f70 <main>:
main():
/home/aliha951/ipdps-artifact/gapbs-master/src/bc.cc:233
  }
  return all_ok;
}


int main(int argc, char* argv[]) {
  403f70:	f3 0f 1e fa          	endbr64 
  403f74:	41 57                	push   %r15
  403f76:	41 56                	push   %r14
  403f78:	41 55                	push   %r13
  403f7a:	41 54                	push   %r12
  403f7c:	55                   	push   %rbp
  403f7d:	53                   	push   %rbx
  403f7e:	48 81 ec 00 10 00 00 	sub    $0x1000,%rsp
  403f85:	48 83 0c 24 00       	orq    $0x0,(%rsp)
  403f8a:	48 81 ec d8 06 00 00 	sub    $0x6d8,%rsp
  403f91:	64 48 8b 04 25 28 00 	mov    %fs:0x28,%rax
  403f98:	00 00 
  403f9a:	48 89 84 24 c8 16 00 	mov    %rax,0x16c8(%rsp)
  403fa1:	00 
  403fa2:	31 c0                	xor    %eax,%eax
/home/aliha951/ipdps-artifact/gapbs-master/src/bc.cc:235
  initialize_perf_measurements();
  CLIterApp cli(argc, argv, "betweenness-centrality", 1);
  403fa4:	48 8d 9c 24 d0 0b 00 	lea    0xbd0(%rsp),%rbx
  403fab:	00 
/home/aliha951/ipdps-artifact/gapbs-master/src/bc.cc:233
int main(int argc, char* argv[]) {
  403fac:	89 fd                	mov    %edi,%ebp
  403fae:	49 89 f4             	mov    %rsi,%r12
_Z28initialize_perf_measurementsv():
/home/aliha951/ipdps-artifact/gapbs-master/src/profiling_utils.h:169

/* Setup counters before any threads are created by omp
 * Must be called at the begining of the program.
*/
void initialize_perf_measurements(){
  perf_ctrs = setup_counters();
  403fb1:	e8 3a 2c 00 00       	callq  406bf0 <_Z14setup_countersv>
main():
/home/aliha951/ipdps-artifact/gapbs-master/src/bc.cc:235
  CLIterApp cli(argc, argv, "betweenness-centrality", 1);
  403fb6:	48 8d 35 1e 13 01 00 	lea    0x1131e(%rip),%rsi        # 4152db <_IO_stdin_used+0x2db>
  403fbd:	48 89 df             	mov    %rbx,%rdi
  403fc0:	48 89 5c 24 20       	mov    %rbx,0x20(%rsp)
_Z28initialize_perf_measurementsv():
/home/aliha951/ipdps-artifact/gapbs-master/src/profiling_utils.h:169
  403fc5:	48 89 05 c4 68 01 00 	mov    %rax,0x168c4(%rip)        # 41a890 <perf_ctrs>
  403fcc:	48 89 15 c5 68 01 00 	mov    %rdx,0x168c5(%rip)        # 41a898 <perf_ctrs+0x8>
main():
/home/aliha951/ipdps-artifact/gapbs-master/src/bc.cc:235
  403fd3:	e8 58 1f 00 00       	callq  405f30 <_ZNSt7__cxx1112basic_stringIcSt11char_traitsIcESaIcEEC2EPKcRKS3_.constprop.0>
  403fd8:	41 b8 01 00 00 00    	mov    $0x1,%r8d
  403fde:	48 89 d9             	mov    %rbx,%rcx
  403fe1:	89 ee                	mov    %ebp,%esi
  403fe3:	48 8d 84 24 10 01 00 	lea    0x110(%rsp),%rax
  403fea:	00 
  403feb:	4c 89 e2             	mov    %r12,%rdx
  403fee:	48 89 c7             	mov    %rax,%rdi
  403ff1:	48 89 44 24 28       	mov    %rax,0x28(%rsp)
  403ff6:	e8 25 9c 00 00       	callq  40dc20 <_ZN9CLIterAppC1EiPPcNSt7__cxx1112basic_stringIcSt11char_traitsIcESaIcEEEi>
_ZNKSt7__cxx1112basic_stringIcSt11char_traitsIcESaIcEE7_M_dataEv():
/usr/include/c++/10/bits/basic_string.h:195
      { return _M_dataplus._M_p; }
  403ffb:	48 8b bc 24 d0 0b 00 	mov    0xbd0(%rsp),%rdi
  404002:	00 
_ZNSt7__cxx1112basic_stringIcSt11char_traitsIcESaIcEE10_M_disposeEv():
/usr/include/c++/10/bits/basic_string.h:239
	if (!_M_is_local())
  404003:	48 8d ac 24 e0 0b 00 	lea    0xbe0(%rsp),%rbp
  40400a:	00 
  40400b:	48 39 ef             	cmp    %rbp,%rdi
  40400e:	74 05                	je     404015 <main+0xa5>
_ZN9__gnu_cxx13new_allocatorIcE10deallocateEPcm():
/usr/include/c++/10/ext/new_allocator.h:139
  404010:	e8 db f8 ff ff       	callq  4038f0 <_ZdlPv@plt>
_ZN6CLBase9HandleArgEaPc():
/home/aliha951/ipdps-artifact/gapbs-master/src/command_line.h:100
    switch (opt) {
  404015:	4c 8d 25 80 1f 01 00 	lea    0x11f80(%rip),%r12        # 415f9c <_IO_stdin_used+0xf9c>
_ZNSt7__cxx1112basic_stringIcSt11char_traitsIcESaIcEEaSEOS4_():
/usr/include/c++/10/bits/basic_string.h:745
	    || _M_get_allocator() == __str._M_get_allocator())
	  {
	    // Just move the allocated pointer, our allocator can free it.
	    pointer __data = nullptr;
	    size_type __capacity;
	    if (!_M_is_local())
  40401c:	4c 8d ac 24 98 01 00 	lea    0x198(%rsp),%r13
  404023:	00 
_ZN5CLApp9HandleArgEaPc():
/home/aliha951/ipdps-artifact/gapbs-master/src/command_line.h:165
    AddHelpLine('p', "", "partial execution", "false");
    AddHelpLine('z', "", "pin vertex array in memory", "false");
  }

  void HandleArg(signed char opt, char* opt_arg) override {
    switch (opt) {
  404024:	48 8d 1d 09 1f 01 00 	lea    0x11f09(%rip),%rbx        # 415f34 <_IO_stdin_used+0xf34>
  40402b:	0f 1f 44 00 00       	nopl   0x0(%rax,%rax,1)
_ZN6CLBase9ParseArgsEv():
/home/aliha951/ipdps-artifact/gapbs-master/src/command_line.h:87
    while ((c_opt = getopt(argc_, argv_, get_args_.c_str())) != -1) {
  404030:	48 8b 94 24 48 01 00 	mov    0x148(%rsp),%rdx
  404037:	00 
  404038:	48 8b b4 24 20 01 00 	mov    0x120(%rsp),%rsi
  40403f:	00 
  404040:	8b bc 24 18 01 00 00 	mov    0x118(%rsp),%edi
  404047:	e8 b4 f6 ff ff       	callq  403700 <getopt@plt>
  40404c:	3c ff                	cmp    $0xff,%al
  40404e:	0f 84 ec 00 00 00    	je     404140 <main+0x1d0>
/home/aliha951/ipdps-artifact/gapbs-master/src/command_line.h:88
      HandleArg(c_opt, optarg);
  404054:	48 8b 3d 25 63 01 00 	mov    0x16325(%rip),%rdi        # 41a380 <optarg@@GLIBC_2.2.5>
_ZN9CLIterApp9HandleArgEaPc():
/home/aliha951/ipdps-artifact/gapbs-master/src/command_line.h:203
    get_args_ += "i:";
    AddHelpLine('i', "i", "perform i iterations", std::to_string(num_iters_));
  }

  void HandleArg(signed char opt, char* opt_arg) override {
    switch (opt) {
  40405b:	3c 69                	cmp    $0x69,%al
  40405d:	0f 84 bd 00 00 00    	je     404120 <main+0x1b0>
_ZN5CLApp9HandleArgEaPc():
/home/aliha951/ipdps-artifact/gapbs-master/src/command_line.h:165
    switch (opt) {
  404063:	8d 50 9f             	lea    -0x61(%rax),%edx
  404066:	80 fa 19             	cmp    $0x19,%dl
  404069:	77 15                	ja     404080 <main+0x110>
  40406b:	0f b6 d2             	movzbl %dl,%edx
  40406e:	48 63 14 93          	movslq (%rbx,%rdx,4),%rdx
  404072:	48 01 da             	add    %rbx,%rdx
  404075:	3e ff e2             	notrack jmpq *%rdx
  404078:	0f 1f 84 00 00 00 00 	nopl   0x0(%rax,%rax,1)
  40407f:	00 
_ZN6CLBase9HandleArgEaPc():
/home/aliha951/ipdps-artifact/gapbs-master/src/command_line.h:100
    switch (opt) {
  404080:	83 e8 66             	sub    $0x66,%eax
  404083:	3c 13                	cmp    $0x13,%al
  404085:	77 a9                	ja     404030 <main+0xc0>
  404087:	0f b6 c0             	movzbl %al,%eax
  40408a:	49 63 04 84          	movslq (%r12,%rax,4),%rax
  40408e:	4c 01 e0             	add    %r12,%rax
  404091:	3e ff e0             	notrack jmpq *%rax
  404094:	0f 1f 40 00          	nopl   0x0(%rax)
_ZN5CLApp9HandleArgEaPc():
/home/aliha951/ipdps-artifact/gapbs-master/src/command_line.h:174
      case 'z': pin_vertices_ = true;                 	break;
  404098:	c6 84 24 d3 01 00 00 	movb   $0x1,0x1d3(%rsp)
  40409f:	01 
  4040a0:	eb 8e                	jmp    404030 <main+0xc0>
  4040a2:	66 0f 1f 44 00 00    	nopw   0x0(%rax,%rax,1)
/home/aliha951/ipdps-artifact/gapbs-master/src/command_line.h:169
      case 'v': do_verify_ = true;                      break;
  4040a8:	c6 84 24 d0 01 00 00 	movb   $0x1,0x1d0(%rsp)
  4040af:	01 
  4040b0:	e9 7b ff ff ff       	jmpq   404030 <main+0xc0>
  4040b5:	0f 1f 00             	nopl   (%rax)
main():
/usr/include/stdlib.h:368
  return (int) strtol (__nptr, (char **) NULL, 10);
}
__extern_inline long int
__NTH (atol (const char *__nptr))
{
  return strtol (__nptr, (char **) NULL, 10);
  4040b8:	ba 0a 00 00 00       	mov    $0xa,%edx
atol():
/usr/include/stdlib.h:368
  4040bd:	31 f6                	xor    %esi,%esi
  4040bf:	e8 9c f9 ff ff       	callq  403a60 <strtol@plt>
_ZN5CLApp9HandleArgEaPc():
/home/aliha951/ipdps-artifact/gapbs-master/src/command_line.h:168
      case 'r': start_vertex_ = atol(opt_arg);          break;
  4040c4:	48 89 84 24 c8 01 00 	mov    %rax,0x1c8(%rsp)
  4040cb:	00 
  4040cc:	e9 5f ff ff ff       	jmpq   404030 <main+0xc0>
  4040d1:	0f 1f 80 00 00 00 00 	nopl   0x0(%rax)
/home/aliha951/ipdps-artifact/gapbs-master/src/command_line.h:173
      case 'p': partial_execution_ = true;              break;
  4040d8:	c6 84 24 d2 01 00 00 	movb   $0x1,0x1d2(%rsp)
  4040df:	01 
  4040e0:	e9 4b ff ff ff       	jmpq   404030 <main+0xc0>
  4040e5:	0f 1f 00             	nopl   (%rax)
main():
/usr/include/stdlib.h:363
  return (int) strtol (__nptr, (char **) NULL, 10);
  4040e8:	ba 0a 00 00 00       	mov    $0xa,%edx
atoi():
/usr/include/stdlib.h:363
  4040ed:	31 f6                	xor    %esi,%esi
  4040ef:	e8 6c f9 ff ff       	callq  403a60 <strtol@plt>
  4040f4:	89 84 24 c4 01 00 00 	mov    %eax,0x1c4(%rsp)
_ZN5CLApp9HandleArgEaPc():
/home/aliha951/ipdps-artifact/gapbs-master/src/command_line.h:167
      case 'n': num_trials_ = atoi(opt_arg);            break;
  4040fb:	e9 30 ff ff ff       	jmpq   404030 <main+0xc0>
/home/aliha951/ipdps-artifact/gapbs-master/src/command_line.h:170
      case 'l': enable_logging_ = true;                 break;
  404100:	c6 84 24 d1 01 00 00 	movb   $0x1,0x1d1(%rsp)
  404107:	01 
  404108:	e9 23 ff ff ff       	jmpq   404030 <main+0xc0>
  40410d:	0f 1f 00             	nopl   (%rax)
/home/aliha951/ipdps-artifact/gapbs-master/src/command_line.h:166
      case 'a': do_analysis_ = true;                    break;
  404110:	c6 84 24 c0 01 00 00 	movb   $0x1,0x1c0(%rsp)
  404117:	01 
  404118:	e9 13 ff ff ff       	jmpq   404030 <main+0xc0>
  40411d:	0f 1f 00             	nopl   (%rax)
main():
/usr/include/stdlib.h:363
  404120:	ba 0a 00 00 00       	mov    $0xa,%edx
atoi():
/usr/include/stdlib.h:363
  404125:	31 f6                	xor    %esi,%esi
  404127:	e8 34 f9 ff ff       	callq  403a60 <strtol@plt>
  40412c:	89 84 24 d4 01 00 00 	mov    %eax,0x1d4(%rsp)
_ZN9CLIterApp9HandleArgEaPc():
/home/aliha951/ipdps-artifact/gapbs-master/src/command_line.h:204
      case 'i': num_iters_ = atoi(opt_arg);            break;
  404133:	e9 f8 fe ff ff       	jmpq   404030 <main+0xc0>
  404138:	0f 1f 84 00 00 00 00 	nopl   0x0(%rax,%rax,1)
  40413f:	00 
_ZSteqIcSt11char_traitsIcESaIcEEbRKNSt7__cxx1112basic_stringIT_T0_T1_EEPKS5_():
/usr/include/c++/10/bits/basic_string.h:6199
   */
  template<typename _CharT, typename _Traits, typename _Alloc>
    inline bool
    operator==(const basic_string<_CharT, _Traits, _Alloc>& __lhs,
	       const _CharT* __rhs)
    { return __lhs.compare(__rhs) == 0; }
  404140:	48 8d bc 24 88 01 00 	lea    0x188(%rsp),%rdi
  404147:	00 
  404148:	48 8d 35 fc 10 01 00 	lea    0x110fc(%rip),%rsi        # 41524b <_IO_stdin_used+0x24b>
  40414f:	e8 fc f5 ff ff       	callq  403750 <_ZNKSt7__cxx1112basic_stringIcSt11char_traitsIcESaIcEE7compareEPKc@plt>
_ZN6CLBase9ParseArgsEv():
/home/aliha951/ipdps-artifact/gapbs-master/src/command_line.h:90
    if ((filename_ == "") && (scale_ == -1)) {
  404154:	85 c0                	test   %eax,%eax
  404156:	0f 84 d3 04 00 00    	je     40462f <main+0x6bf>
/home/aliha951/ipdps-artifact/gapbs-master/src/command_line.h:94
    if (scale_ != -1)
  40415c:	83 bc 24 80 01 00 00 	cmpl   $0xffffffff,0x180(%rsp)
  404163:	ff 
  404164:	0f 85 d7 04 00 00    	jne    404641 <main+0x6d1>
main():
/home/aliha951/ipdps-artifact/gapbs-master/src/bc.cc:238
  if (!cli.ParseArgs())
    return -1;
  if (cli.num_iters() > 1 && cli.start_vertex() != -1)
  40416a:	83 bc 24 d4 01 00 00 	cmpl   $0x1,0x1d4(%rsp)
  404171:	01 
  404172:	7e 2f                	jle    4041a3 <main+0x233>
  404174:	48 83 bc 24 c8 01 00 	cmpq   $0xffffffffffffffff,0x1c8(%rsp)
  40417b:	00 ff 
  40417d:	74 24                	je     4041a3 <main+0x233>
_ZStlsISt11char_traitsIcEERSt13basic_ostreamIcT_ES5_PKc():
/usr/include/c++/10/ostream:611
    operator<<(basic_ostream<char, _Traits>& __out, const char* __s)
    {
      if (!__s)
	__out.setstate(ios_base::badbit);
      else
	__ostream_insert(__out, __s,
  40417f:	ba 2d 00 00 00       	mov    $0x2d,%edx
  404184:	48 8d 35 35 16 01 00 	lea    0x11635(%rip),%rsi        # 4157c0 <_IO_stdin_used+0x7c0>
  40418b:	48 8d 3d 2e 62 01 00 	lea    0x1622e(%rip),%rdi        # 41a3c0 <_ZSt4cout@@GLIBCXX_3.4>
  404192:	e8 d9 f7 ff ff       	callq  403970 <_ZSt16__ostream_insertIcSt11char_traitsIcEERSt13basic_ostreamIT_T0_ES6_PKS3_l@plt>
_ZNSolsEPFRSoS_E():
/usr/include/c++/10/ostream:113
	return __pf(*this);
  404197:	48 8d 3d 22 62 01 00 	lea    0x16222(%rip),%rdi        # 41a3c0 <_ZSt4cout@@GLIBCXX_3.4>
  40419e:	e8 0d 1d 00 00       	callq  405eb0 <_ZSt4endlIcSt11char_traitsIcEERSt13basic_ostreamIT_T0_ES6_.isra.0>
_ZN11BuilderBaseIiiiLb1EEC4ERK6CLBase():
/home/aliha951/ipdps-artifact/gapbs-master/src/builder.h:50
  bool needs_weights_;
  bool in_place_ = false;
  int64_t num_nodes_ = -1;

 public:
  explicit BuilderBase(const CLBase &cli) : cli_(cli) {
  4041a3:	48 8b 44 24 28       	mov    0x28(%rsp),%rax
main():
/home/aliha951/ipdps-artifact/gapbs-master/src/bc.cc:241
    cout << "Warning: iterating from same source (-r & -i)" << endl;
  Builder b(cli);
  Graph g = b.MakeGraph();
  4041a8:	48 8d 74 24 50       	lea    0x50(%rsp),%rsi
  4041ad:	4c 8d ac 24 90 00 00 	lea    0x90(%rsp),%r13
  4041b4:	00 
_ZN11BuilderBaseIiiiLb1EEC4ERK6CLBase():
/home/aliha951/ipdps-artifact/gapbs-master/src/builder.h:50
  4041b5:	48 c7 44 24 60 ff ff 	movq   $0xffffffffffffffff,0x60(%rsp)
  4041bc:	ff ff 
main():
/home/aliha951/ipdps-artifact/gapbs-master/src/bc.cc:241
  4041be:	4c 89 ef             	mov    %r13,%rdi
_ZN11BuilderBaseIiiiLb1EEC4ERK6CLBase():
/home/aliha951/ipdps-artifact/gapbs-master/src/builder.h:52
    symmetrize_ = cli_.symmetrize();
    needs_weights_ = !std::is_same<NodeID_, DestID_>::value;
  4041c1:	c6 44 24 59 00       	movb   $0x0,0x59(%rsp)
/home/aliha951/ipdps-artifact/gapbs-master/src/builder.h:50
  explicit BuilderBase(const CLBase &cli) : cli_(cli) {
  4041c6:	48 89 44 24 50       	mov    %rax,0x50(%rsp)
/home/aliha951/ipdps-artifact/gapbs-master/src/builder.h:51
    symmetrize_ = cli_.symmetrize();
  4041cb:	0f b6 84 24 a8 01 00 	movzbl 0x1a8(%rsp),%eax
  4041d2:	00 
  4041d3:	88 44 24 58          	mov    %al,0x58(%rsp)
/home/aliha951/ipdps-artifact/gapbs-master/src/builder.h:53
    in_place_ = cli_.in_place();
  4041d7:	0f b6 84 24 aa 01 00 	movzbl 0x1aa(%rsp),%eax
  4041de:	00 
  4041df:	88 44 24 5a          	mov    %al,0x5a(%rsp)
main():
/home/aliha951/ipdps-artifact/gapbs-master/src/bc.cc:241
  4041e3:	e8 28 f8 00 00       	callq  413a10 <_ZN11BuilderBaseIiiiLb1EE9MakeGraphEv>
/home/aliha951/ipdps-artifact/gapbs-master/src/bc.cc:242
  SourcePicker<Graph> sp(g, cli.start_vertex());
  4041e8:	8b 94 24 c8 01 00 00 	mov    0x1c8(%rsp),%edx
  4041ef:	4c 8d bc 24 e0 01 00 	lea    0x1e0(%rsp),%r15
  4041f6:	00 
  4041f7:	4c 89 ee             	mov    %r13,%rsi
  4041fa:	4c 89 ff             	mov    %r15,%rdi
  4041fd:	e8 be 71 00 00       	callq  40b3c0 <_ZN12SourcePickerI8CSRGraphIiiLb1EEEC1ERKS1_i>
/home/aliha951/ipdps-artifact/gapbs-master/src/bc.cc:246
  auto BCBound = [&sp, &cli] (const Graph &g) {
    return Brandes(g, sp, cli.num_iters(), cli.logging_en());
  };
  SourcePicker<Graph> vsp(g, cli.start_vertex());
  404202:	48 8b 7c 24 20       	mov    0x20(%rsp),%rdi
  404207:	8b 94 24 c8 01 00 00 	mov    0x1c8(%rsp),%edx
  40420e:	4c 89 ee             	mov    %r13,%rsi
  404211:	e8 aa 71 00 00       	callq  40b3c0 <_ZN12SourcePickerI8CSRGraphIiiLb1EEEC1ERKS1_i>
/home/aliha951/ipdps-artifact/gapbs-master/src/benchmark.h:107
template<typename GraphT_, typename GraphFunc, typename AnalysisFunc,
         typename VerifierFunc>
void BenchmarkKernel(const CLApp &cli, const GraphT_ &g,
                     GraphFunc kernel, AnalysisFunc stats,
                     VerifierFunc verify) {
  g.PrintStats();
  404216:	4c 89 ef             	mov    %r13,%rdi
BenchmarkKernel<CSRGraph<int>, main(int, char**)::<lambda(const Graph&)>, void (*)(const CSRGraph<int>&, const pvector<float>&), main(int, char**)::<lambda(const Graph&, const pvector<float>&)> >():
/home/aliha951/ipdps-artifact/gapbs-master/src/benchmark.h:107
  404219:	e8 12 79 00 00       	callq  40bb30 <_ZNK8CSRGraphIiiLb1EE10PrintStatsEv>
_Z16start_disk_statsPKc():
/home/aliha951/ipdps-artifact/gapbs-master/src/profiling_utils.h:300
	fprintf(f, "%d", pid);
	fclose(f);
}

inline void start_disk_stats(const char* result_file_name){
  pid_t pid = fork();
  40421e:	e8 1d f5 ff ff       	callq  403740 <fork@plt>
/home/aliha951/ipdps-artifact/gapbs-master/src/profiling_utils.h:301
  if (pid < 0) {
  404223:	85 c0                	test   %eax,%eax
  404225:	0f 88 a8 06 00 00    	js     4048d3 <main+0x963>
/home/aliha951/ipdps-artifact/gapbs-master/src/profiling_utils.h:304
    perror("fork failed");
    exit(EXIT_FAILURE);
  } else if (pid == 0) { // Child process
  40422b:	0f 84 b8 06 00 00    	je     4048e9 <main+0x979>
/home/aliha951/ipdps-artifact/gapbs-master/src/profiling_utils.h:312
    execlp("/home/aliha951/ipdps-gapbs/gather_diskstats.sh", "/home/aliha951/ipdps-gapbs/gather_diskstats.sh", result_file_name, NULL);
    perror("execlp failed");
    exit(EXIT_FAILURE);
  }
  // Parent process continues
  diskstat_pid = pid;
  404231:	89 05 05 61 01 00    	mov    %eax,0x16105(%rip)        # 41a33c <diskstat_pid>
BenchmarkKernel<CSRGraph<int>, main(int, char**)::<lambda(const Graph&)>, void (*)(const CSRGraph<int>&, const pvector<float>&), main(int, char**)::<lambda(const Graph&, const pvector<float>&)> >():
/home/aliha951/ipdps-artifact/gapbs-master/src/benchmark.h:114
  
  // adding profiling markers and rusage counters for performance analysis
  long long user_instructions, kernel_instructions,
              user_time, kernel_time;
  start_disk_stats("disk.stats");
  start_taskstats();                    
  404237:	e8 d4 32 00 00       	callq  407510 <_Z15start_taskstatsv>
/home/aliha951/ipdps-artifact/gapbs-master/src/benchmark.h:115
  snapshot_proc_pid(BEGIN);
  40423c:	31 ff                	xor    %edi,%edi
  40423e:	e8 9d 6c 00 00       	callq  40aee0 <_Z17snapshot_proc_pid13SnapshotPoint>
/home/aliha951/ipdps-artifact/gapbs-master/src/benchmark.h:116
  snapshot_proc_stat(BEGIN);
  404243:	31 ff                	xor    %edi,%edi
  404245:	e8 c6 6f 00 00       	callq  40b210 <_Z18snapshot_proc_stat13SnapshotPoint>
/home/aliha951/ipdps-artifact/gapbs-master/src/benchmark.h:117
  start_counters(&perf_ctrs);
  40424a:	48 8d 3d 3f 66 01 00 	lea    0x1663f(%rip),%rdi        # 41a890 <perf_ctrs>
  404251:	e8 9a 2b 00 00       	callq  406df0 <_Z14start_countersP13perf_counters>
/home/aliha951/ipdps-artifact/gapbs-master/src/benchmark.h:118
  trace_marker("BenchmarkKernel_Start");
  404256:	48 8d 3d d0 10 01 00 	lea    0x110d0(%rip),%rdi        # 41532d <_IO_stdin_used+0x32d>
  40425d:	e8 be 28 00 00       	callq  406b20 <_Z12trace_markerPKc>
/home/aliha951/ipdps-artifact/gapbs-master/src/benchmark.h:119
  start_time_stats();
  404262:	e8 69 26 00 00       	callq  4068d0 <_Z16start_time_statsv>
_Z19ompt_mark_roi_startv():
/home/aliha951/ipdps-artifact/gapbs-master/src/../omp_runtime_visualizer/include/runtime_visualizer_utils.h:52
  printf("[OMPT_annotation] Thread %d Annotation at %.3f ms: %s\n", 
         thread_id, timestamp / 1000.0, annotation);
}

inline void ompt_mark_roi_start() {
  ompt_annotate("ROI_START");
  404267:	48 8d 3d d5 10 01 00 	lea    0x110d5(%rip),%rdi        # 415343 <_IO_stdin_used+0x343>
  40426e:	e8 3d 35 00 00       	callq  4077b0 <_Z13ompt_annotatePKc>
BenchmarkKernel<CSRGraph<int>, main(int, char**)::<lambda(const Graph&)>, void (*)(const CSRGraph<int>&, const pvector<float>&), main(int, char**)::<lambda(const Graph&, const pvector<float>&)> >():
/home/aliha951/ipdps-artifact/gapbs-master/src/benchmark.h:123
  ompt_mark_roi_start();

  Timer trial_timer;
  for (int iter=0; iter < cli.num_trials(); iter++) {
  404273:	8b 8c 24 c4 01 00 00 	mov    0x1c4(%rsp),%ecx
  40427a:	85 c9                	test   %ecx,%ecx
  40427c:	0f 8e 8f 05 00 00    	jle    404811 <main+0x8a1>
/home/aliha951/ipdps-artifact/gapbs-master/src/benchmark.h:108
  double total_seconds = 0;
  404282:	66 0f ef e4          	pxor   %xmm4,%xmm4
/home/aliha951/ipdps-artifact/gapbs-master/src/benchmark.h:123
  for (int iter=0; iter < cli.num_trials(); iter++) {
  404286:	31 ed                	xor    %ebp,%ebp
  404288:	4c 8d 74 24 70       	lea    0x70(%rsp),%r14
/home/aliha951/ipdps-artifact/gapbs-master/src/benchmark.h:108
  double total_seconds = 0;
  40428d:	f2 0f 11 64 24 08    	movsd  %xmm4,0x8(%rsp)
_ZNSt7__cxx1112basic_stringIcSt11char_traitsIcESaIcEE12_Alloc_hiderC4EPcRKS3_():
/usr/include/c++/10/bits/basic_string.h:165
	: allocator_type(__a), _M_p(__dat) { }
  404293:	4c 8d a4 24 f0 00 00 	lea    0xf0(%rsp),%r12
  40429a:	00 
  40429b:	0f 1f 44 00 00       	nopl   0x0(%rax,%rax,1)
_ZN5Timer5StartEv():
/home/aliha951/ipdps-artifact/gapbs-master/src/timer.h:23
class Timer {
 public:
  Timer() {}

  void Start() {
    elapsed_time_ = start_time_ = std::chrono::high_resolution_clock::now();
  4042a0:	e8 eb f3 ff ff       	callq  403690 <_ZNSt6chrono3_V212system_clock3nowEv@plt>
main():
/home/aliha951/ipdps-artifact/gapbs-master/src/bc.cc:244
    return Brandes(g, sp, cli.num_iters(), cli.logging_en());
  4042a5:	4c 89 fa             	mov    %r15,%rdx
operator()():
/home/aliha951/ipdps-artifact/gapbs-master/src/bc.cc:244
  4042a8:	4c 89 ee             	mov    %r13,%rsi
  4042ab:	4c 89 f7             	mov    %r14,%rdi
  4042ae:	44 0f b6 84 24 d1 01 	movzbl 0x1d1(%rsp),%r8d
  4042b5:	00 00 
  4042b7:	8b 8c 24 d4 01 00 00 	mov    0x1d4(%rsp),%ecx
_ZN5Timer5StartEv():
/home/aliha951/ipdps-artifact/gapbs-master/src/timer.h:23
  4042be:	48 89 c3             	mov    %rax,%rbx
operator()():
/home/aliha951/ipdps-artifact/gapbs-master/src/bc.cc:244
  4042c1:	e8 ba 47 00 00       	callq  408a80 <_Z7BrandesRK8CSRGraphIiiLb1EER12SourcePickerIS0_Eib>
_ZN5Timer4StopEv():
/home/aliha951/ipdps-artifact/gapbs-master/src/timer.h:27
  }

  void Stop() {
    elapsed_time_ = std::chrono::high_resolution_clock::now();
  4042c6:	e8 c5 f3 ff ff       	callq  403690 <_ZNSt6chrono3_V212system_clock3nowEv@plt>
_ZNSt6chrono20__duration_cast_implINS_8durationIdSt5ratioILl1ELl1EEEES2_ILl1ELl1000000000EEdLb1ELb0EE6__castIlS5_EES4_RKNS1_IT_T0_EE():
/usr/include/c++/10/chrono:214
	  static constexpr _ToDur
	  __cast(const duration<_Rep, _Period>& __d)
	  {
	    typedef typename _ToDur::rep			__to_rep;
	    return _ToDur(static_cast<__to_rep>(
	      static_cast<_CR>(__d.count()) / static_cast<_CR>(_CF::den)));
  4042cb:	66 0f ef c0          	pxor   %xmm0,%xmm0
BenchmarkKernel<CSRGraph<int>, main(int, char**)::<lambda(const Graph&)>, void (*)(const CSRGraph<int>&, const pvector<float>&), main(int, char**)::<lambda(const Graph&, const pvector<float>&)> >():
/home/aliha951/ipdps-artifact/gapbs-master/src/benchmark.h:127
    trial_timer.Start();
    auto result = kernel(g);
    trial_timer.Stop();
    PrintTime("Trial Time", trial_timer.Seconds());
  4042cf:	4c 89 e7             	mov    %r12,%rdi
_ZNSt11char_traitsIcE4copyEPcPKcm():
/usr/include/c++/10/bits/char_traits.h:437
	  return __s1;
#ifdef __cpp_lib_is_constant_evaluated
	if (std::is_constant_evaluated())
	  return __gnu_cxx::char_traits<char_type>::copy(__s1, __s2, __n);
#endif
	return static_cast<char_type*>(__builtin_memcpy(__s1, __s2, __n));
  4042d2:	ba 6d 65 00 00       	mov    $0x656d,%edx
_ZNSt6chronomiIlSt5ratioILl1ELl1000000000EElS2_EENSt11common_typeIJNS_8durationIT_T0_EENS4_IT1_T2_EEEE4typeERKS7_RKSA_():
/usr/include/c++/10/chrono:614
		const duration<_Rep2, _Period2>& __rhs)
      {
	typedef duration<_Rep1, _Period1>			__dur1;
	typedef duration<_Rep2, _Period2>			__dur2;
	typedef typename common_type<__dur1,__dur2>::type	__cd;
	return __cd(__cd(__lhs).count() - __cd(__rhs).count());
  4042d7:	48 29 d8             	sub    %rbx,%rax
_ZNSt7__cxx1112basic_stringIcSt11char_traitsIcESaIcEE12_Alloc_hiderC4EPcRKS3_():
/usr/include/c++/10/bits/basic_string.h:165
  4042da:	48 8d 9c 24 00 01 00 	lea    0x100(%rsp),%rbx
  4042e1:	00 
_ZNSt11char_traitsIcE4copyEPcPKcm():
/usr/include/c++/10/bits/char_traits.h:437
  4042e2:	66 89 94 24 08 01 00 	mov    %dx,0x108(%rsp)
  4042e9:	00 
_ZNSt6chrono20__duration_cast_implINS_8durationIdSt5ratioILl1ELl1EEEES2_ILl1ELl1000000000EEdLb1ELb0EE6__castIlS5_EES4_RKNS1_IT_T0_EE():
/usr/include/c++/10/chrono:214
	      static_cast<_CR>(__d.count()) / static_cast<_CR>(_CF::den)));
  4042ea:	f2 48 0f 2a c0       	cvtsi2sd %rax,%xmm0
_ZNSt7__cxx1112basic_stringIcSt11char_traitsIcESaIcEE12_Alloc_hiderC4EPcRKS3_():
/usr/include/c++/10/bits/basic_string.h:165
  4042ef:	48 89 9c 24 f0 00 00 	mov    %rbx,0xf0(%rsp)
  4042f6:	00 
_ZNSt11char_traitsIcE4copyEPcPKcm():
/usr/include/c++/10/bits/char_traits.h:437
  4042f7:	48 b8 54 72 69 61 6c 	movabs $0x6954206c61697254,%rax
  4042fe:	20 54 69 
_ZNSt6chrono20__duration_cast_implINS_8durationIdSt5ratioILl1ELl1EEEES2_ILl1ELl1000000000EEdLb1ELb0EE6__castIlS5_EES4_RKNS1_IT_T0_EE():
/usr/include/c++/10/chrono:214
  404301:	f2 0f 5e 05 a7 1f 01 	divsd  0x11fa7(%rip),%xmm0        # 4162b0 <_ZZNSt8__detail18__to_chars_10_implIjEEvPcjT_E8__digits+0x290>
  404308:	00 
_ZNSt11char_traitsIcE4copyEPcPKcm():
/usr/include/c++/10/bits/char_traits.h:437
  404309:	48 89 84 24 00 01 00 	mov    %rax,0x100(%rsp)
  404310:	00 
_ZNSt7__cxx1112basic_stringIcSt11char_traitsIcESaIcEE9_M_lengthEm():
/usr/include/c++/10/bits/basic_string.h:191
      { _M_string_length = __length; }
  404311:	48 c7 84 24 f8 00 00 	movq   $0xa,0xf8(%rsp)
  404318:	00 0a 00 00 00 
_ZNSt11char_traitsIcE6assignERcRKc():
/usr/include/c++/10/bits/char_traits.h:357
      { __c1 = __c2; }
  40431d:	c6 84 24 0a 01 00 00 	movb   $0x0,0x10a(%rsp)
  404324:	00 
_ZNSt6chrono20__duration_cast_implINS_8durationIdSt5ratioILl1ELl1EEEES2_ILl1ELl1000000000EEdLb1ELb0EE6__castIlS5_EES4_RKNS1_IT_T0_EE():
/usr/include/c++/10/chrono:214
  404325:	f2 0f 11 44 24 10    	movsd  %xmm0,0x10(%rsp)
BenchmarkKernel<CSRGraph<int>, main(int, char**)::<lambda(const Graph&)>, void (*)(const CSRGraph<int>&, const pvector<float>&), main(int, char**)::<lambda(const Graph&, const pvector<float>&)> >():
/home/aliha951/ipdps-artifact/gapbs-master/src/benchmark.h:127
  40432b:	e8 00 1f 00 00       	callq  406230 <_Z9PrintTimeRKNSt7__cxx1112basic_stringIcSt11char_traitsIcESaIcEEEd>
_ZNKSt7__cxx1112basic_stringIcSt11char_traitsIcESaIcEE7_M_dataEv():
/usr/include/c++/10/bits/basic_string.h:195
      { return _M_dataplus._M_p; }
  404330:	48 8b bc 24 f0 00 00 	mov    0xf0(%rsp),%rdi
  404337:	00 
_ZNSt7__cxx1112basic_stringIcSt11char_traitsIcESaIcEE10_M_disposeEv():
/usr/include/c++/10/bits/basic_string.h:239
	if (!_M_is_local())
  404338:	48 39 df             	cmp    %rbx,%rdi
  40433b:	74 05                	je     404342 <main+0x3d2>
_ZN9__gnu_cxx13new_allocatorIcE10deallocateEPcm():
/usr/include/c++/10/ext/new_allocator.h:139
  40433d:	e8 ae f5 ff ff       	callq  4038f0 <_ZdlPv@plt>
BenchmarkKernel<CSRGraph<int>, main(int, char**)::<lambda(const Graph&)>, void (*)(const CSRGraph<int>&, const pvector<float>&), main(int, char**)::<lambda(const Graph&, const pvector<float>&)> >():
/home/aliha951/ipdps-artifact/gapbs-master/src/benchmark.h:128
    total_seconds += trial_timer.Seconds();
  404342:	f2 0f 10 4c 24 08    	movsd  0x8(%rsp),%xmm1
  404348:	f2 0f 58 4c 24 10    	addsd  0x10(%rsp),%xmm1
/home/aliha951/ipdps-artifact/gapbs-master/src/benchmark.h:129
    if (cli.do_analysis() && (iter == (cli.num_trials()-1)))
  40434e:	80 bc 24 c0 01 00 00 	cmpb   $0x0,0x1c0(%rsp)
  404355:	00 
/home/aliha951/ipdps-artifact/gapbs-master/src/benchmark.h:128
    total_seconds += trial_timer.Seconds();
  404356:	f2 0f 11 4c 24 08    	movsd  %xmm1,0x8(%rsp)
/home/aliha951/ipdps-artifact/gapbs-master/src/benchmark.h:129
    if (cli.do_analysis() && (iter == (cli.num_trials()-1)))
  40435c:	74 12                	je     404370 <main+0x400>
  40435e:	8b 84 24 c4 01 00 00 	mov    0x1c4(%rsp),%eax
  404365:	83 e8 01             	sub    $0x1,%eax
  404368:	39 e8                	cmp    %ebp,%eax
  40436a:	0f 84 f8 02 00 00    	je     404668 <main+0x6f8>
/home/aliha951/ipdps-artifact/gapbs-master/src/benchmark.h:131
      stats(g, result);
    if (cli.do_verify()) {
  404370:	80 bc 24 d0 01 00 00 	cmpb   $0x0,0x1d0(%rsp)
  404377:	00 
  404378:	0f 84 63 01 00 00    	je     4044e1 <main+0x571>
_ZN5Timer5StartEv():
/home/aliha951/ipdps-artifact/gapbs-master/src/timer.h:23
    elapsed_time_ = start_time_ = std::chrono::high_resolution_clock::now();
  40437e:	e8 0d f3 ff ff       	callq  403690 <_ZNSt6chrono3_V212system_clock3nowEv@plt>
main():
/home/aliha951/ipdps-artifact/gapbs-master/src/bc.cc:249
  auto VerifierBound = [&vsp, &cli] (const Graph &g,
                                     const pvector<ScoreT> &scores) {
    return BCVerifier(g, vsp, cli.num_iters(), scores);
  404383:	48 8b 74 24 20       	mov    0x20(%rsp),%rsi
operator()():
/home/aliha951/ipdps-artifact/gapbs-master/src/bc.cc:249
  404388:	4c 89 f1             	mov    %r14,%rcx
  40438b:	4c 89 ef             	mov    %r13,%rdi
  40438e:	8b 94 24 d4 01 00 00 	mov    0x1d4(%rsp),%edx
_ZN5Timer5StartEv():
/home/aliha951/ipdps-artifact/gapbs-master/src/timer.h:23
  404395:	48 89 44 24 18       	mov    %rax,0x18(%rsp)
operator()():
/home/aliha951/ipdps-artifact/gapbs-master/src/bc.cc:249
  40439a:	e8 01 3b 00 00       	callq  407ea0 <_Z10BCVerifierRK8CSRGraphIiiLb1EER12SourcePickerIS0_EiRK7pvectorIfE>
BenchmarkKernel<CSRGraph<int>, main(int, char**)::<lambda(const Graph&)>, void (*)(const CSRGraph<int>&, const pvector<float>&), main(int, char**)::<lambda(const Graph&, const pvector<float>&)> >():
/home/aliha951/ipdps-artifact/gapbs-master/src/benchmark.h:133
      trial_timer.Start();
      PrintLabel("Verification",
  40439f:	3c 01                	cmp    $0x1,%al
_ZNSt7__cxx1112basic_stringIcSt11char_traitsIcESaIcEE12_Alloc_hiderC4EPcRKS3_():
/usr/include/c++/10/bits/basic_string.h:165
	: allocator_type(__a), _M_p(__dat) { }
  4043a1:	48 89 9c 24 f0 00 00 	mov    %rbx,0xf0(%rsp)
  4043a8:	00 
BenchmarkKernel<CSRGraph<int>, main(int, char**)::<lambda(const Graph&)>, void (*)(const CSRGraph<int>&, const pvector<float>&), main(int, char**)::<lambda(const Graph&, const pvector<float>&)> >():
/home/aliha951/ipdps-artifact/gapbs-master/src/benchmark.h:133
  4043a9:	4c 89 e7             	mov    %r12,%rdi
_ZNSt7__cxx1112basic_stringIcSt11char_traitsIcESaIcEE12_Alloc_hiderC4EPcRKS3_():
/usr/include/c++/10/bits/basic_string.h:165
  4043ac:	48 8d 8c 24 e0 00 00 	lea    0xe0(%rsp),%rcx
  4043b3:	00 
BenchmarkKernel<CSRGraph<int>, main(int, char**)::<lambda(const Graph&)>, void (*)(const CSRGraph<int>&, const pvector<float>&), main(int, char**)::<lambda(const Graph&, const pvector<float>&)> >():
/home/aliha951/ipdps-artifact/gapbs-master/src/benchmark.h:133
  4043b4:	19 c0                	sbb    %eax,%eax
_ZNSt11char_traitsIcE4copyEPcPKcm():
/usr/include/c++/10/bits/char_traits.h:437
	return static_cast<char_type*>(__builtin_memcpy(__s1, __s2, __n));
  4043b6:	c7 43 08 74 69 6f 6e 	movl   $0x6e6f6974,0x8(%rbx)
_ZNSt7__cxx1112basic_stringIcSt11char_traitsIcESaIcEE12_Alloc_hiderC4EPcRKS3_():
/usr/include/c++/10/bits/basic_string.h:165
  4043bd:	48 8d b4 24 d0 00 00 	lea    0xd0(%rsp),%rsi
  4043c4:	00 
BenchmarkKernel<CSRGraph<int>, main(int, char**)::<lambda(const Graph&)>, void (*)(const CSRGraph<int>&, const pvector<float>&), main(int, char**)::<lambda(const Graph&, const pvector<float>&)> >():
/home/aliha951/ipdps-artifact/gapbs-master/src/benchmark.h:133
  4043c5:	25 f6 ff f5 f8       	and    $0xf8f5fff6,%eax
_ZNSt7__cxx1112basic_stringIcSt11char_traitsIcESaIcEE12_Alloc_hiderC4EPcRKS3_():
/usr/include/c++/10/bits/basic_string.h:165
  4043ca:	48 89 4c 24 10       	mov    %rcx,0x10(%rsp)
BenchmarkKernel<CSRGraph<int>, main(int, char**)::<lambda(const Graph&)>, void (*)(const CSRGraph<int>&, const pvector<float>&), main(int, char**)::<lambda(const Graph&, const pvector<float>&)> >():
/home/aliha951/ipdps-artifact/gapbs-master/src/benchmark.h:133
  4043cf:	05 50 41 53 53       	add    $0x53534150,%eax
_ZNSt7__cxx1112basic_stringIcSt11char_traitsIcESaIcEE12_Alloc_hiderC4EPcRKS3_():
/usr/include/c++/10/bits/basic_string.h:165
  4043d4:	48 89 8c 24 d0 00 00 	mov    %rcx,0xd0(%rsp)
  4043db:	00 
_ZNSt11char_traitsIcE4copyEPcPKcm():
/usr/include/c++/10/bits/char_traits.h:437
  4043dc:	89 84 24 e0 00 00 00 	mov    %eax,0xe0(%rsp)
  4043e3:	48 b8 56 65 72 69 66 	movabs $0x6163696669726556,%rax
  4043ea:	69 63 61 
  4043ed:	48 89 03             	mov    %rax,(%rbx)
_ZNSt7__cxx1112basic_stringIcSt11char_traitsIcESaIcEE9_M_lengthEm():
/usr/include/c++/10/bits/basic_string.h:191
      { _M_string_length = __length; }
  4043f0:	48 c7 84 24 d8 00 00 	movq   $0x4,0xd8(%rsp)
  4043f7:	00 04 00 00 00 
_ZNSt11char_traitsIcE6assignERcRKc():
/usr/include/c++/10/bits/char_traits.h:357
      { __c1 = __c2; }
  4043fc:	c6 84 24 e4 00 00 00 	movb   $0x0,0xe4(%rsp)
  404403:	00 
_ZNSt7__cxx1112basic_stringIcSt11char_traitsIcESaIcEE9_M_lengthEm():
/usr/include/c++/10/bits/basic_string.h:191
  404404:	48 c7 84 24 f8 00 00 	movq   $0xc,0xf8(%rsp)
  40440b:	00 0c 00 00 00 
_ZNSt11char_traitsIcE6assignERcRKc():
/usr/include/c++/10/bits/char_traits.h:357
  404410:	c6 84 24 0c 01 00 00 	movb   $0x0,0x10c(%rsp)
  404417:	00 
BenchmarkKernel<CSRGraph<int>, main(int, char**)::<lambda(const Graph&)>, void (*)(const CSRGraph<int>&, const pvector<float>&), main(int, char**)::<lambda(const Graph&, const pvector<float>&)> >():
/home/aliha951/ipdps-artifact/gapbs-master/src/benchmark.h:133
  404418:	e8 a3 1c 00 00       	callq  4060c0 <_Z10PrintLabelRKNSt7__cxx1112basic_stringIcSt11char_traitsIcESaIcEEES6_>
_ZNKSt7__cxx1112basic_stringIcSt11char_traitsIcESaIcEE7_M_dataEv():
/usr/include/c++/10/bits/basic_string.h:195
      { return _M_dataplus._M_p; }
  40441d:	48 8b bc 24 f0 00 00 	mov    0xf0(%rsp),%rdi
  404424:	00 
_ZNSt7__cxx1112basic_stringIcSt11char_traitsIcESaIcEE10_M_disposeEv():
/usr/include/c++/10/bits/basic_string.h:239
	if (!_M_is_local())
  404425:	48 39 df             	cmp    %rbx,%rdi
  404428:	74 05                	je     40442f <main+0x4bf>
_ZN9__gnu_cxx13new_allocatorIcE10deallocateEPcm():
/usr/include/c++/10/ext/new_allocator.h:139
  40442a:	e8 c1 f4 ff ff       	callq  4038f0 <_ZdlPv@plt>
_ZNKSt7__cxx1112basic_stringIcSt11char_traitsIcESaIcEE7_M_dataEv():
/usr/include/c++/10/bits/basic_string.h:195
      { return _M_dataplus._M_p; }
  40442f:	48 8b bc 24 d0 00 00 	mov    0xd0(%rsp),%rdi
  404436:	00 
_ZNSt7__cxx1112basic_stringIcSt11char_traitsIcESaIcEE10_M_disposeEv():
/usr/include/c++/10/bits/basic_string.h:239
	if (!_M_is_local())
  404437:	48 3b 7c 24 10       	cmp    0x10(%rsp),%rdi
  40443c:	74 05                	je     404443 <main+0x4d3>
_ZN9__gnu_cxx13new_allocatorIcE10deallocateEPcm():
/usr/include/c++/10/ext/new_allocator.h:139
  40443e:	e8 ad f4 ff ff       	callq  4038f0 <_ZdlPv@plt>
_ZN5Timer4StopEv():
/home/aliha951/ipdps-artifact/gapbs-master/src/timer.h:27
    elapsed_time_ = std::chrono::high_resolution_clock::now();
  404443:	e8 48 f2 ff ff       	callq  403690 <_ZNSt6chrono3_V212system_clock3nowEv@plt>
_ZNSt6chrono20__duration_cast_implINS_8durationIdSt5ratioILl1ELl1EEEES2_ILl1ELl1000000000EEdLb1ELb0EE6__castIlS5_EES4_RKNS1_IT_T0_EE():
/usr/include/c++/10/chrono:214
  404448:	66 0f ef c0          	pxor   %xmm0,%xmm0
_ZNSt6chronomiIlSt5ratioILl1ELl1000000000EElS2_EENSt11common_typeIJNS_8durationIT_T0_EENS4_IT1_T2_EEEE4typeERKS7_RKSA_():
/usr/include/c++/10/chrono:614
	return __cd(__cd(__lhs).count() - __cd(__rhs).count());
  40444c:	48 2b 44 24 18       	sub    0x18(%rsp),%rax
_ZNSt7__cxx1112basic_stringIcSt11char_traitsIcESaIcEE12_M_constructIPKcEEvT_S8_St20forward_iterator_tag():
/usr/include/c++/10/bits/basic_string.tcc:219

	size_type __dnew = static_cast<size_type>(std::distance(__beg, __end));

	if (__dnew > size_type(_S_local_capacity))
	  {
	    _M_data(_M_create(__dnew, size_type(0)));
  404451:	31 d2                	xor    %edx,%edx
  404453:	48 8d 74 24 48       	lea    0x48(%rsp),%rsi
  404458:	4c 89 e7             	mov    %r12,%rdi
_ZNSt7__cxx1112basic_stringIcSt11char_traitsIcESaIcEE12_Alloc_hiderC4EPcRKS3_():
/usr/include/c++/10/bits/basic_string.h:165
	: allocator_type(__a), _M_p(__dat) { }
  40445b:	48 89 9c 24 f0 00 00 	mov    %rbx,0xf0(%rsp)
  404462:	00 
_ZNSt7__cxx1112basic_stringIcSt11char_traitsIcESaIcEE12_M_constructIPKcEEvT_S8_St20forward_iterator_tag():
/usr/include/c++/10/bits/basic_string.tcc:215
	size_type __dnew = static_cast<size_type>(std::distance(__beg, __end));
  404463:	48 c7 44 24 48 11 00 	movq   $0x11,0x48(%rsp)
  40446a:	00 00 
_ZNSt6chrono20__duration_cast_implINS_8durationIdSt5ratioILl1ELl1EEEES2_ILl1ELl1000000000EEdLb1ELb0EE6__castIlS5_EES4_RKNS1_IT_T0_EE():
/usr/include/c++/10/chrono:214
	      static_cast<_CR>(__d.count()) / static_cast<_CR>(_CF::den)));
  40446c:	f2 48 0f 2a c0       	cvtsi2sd %rax,%xmm0
  404471:	f2 0f 5e 05 37 1e 01 	divsd  0x11e37(%rip),%xmm0        # 4162b0 <_ZZNSt8__detail18__to_chars_10_implIjEEvPcjT_E8__digits+0x290>
  404478:	00 
  404479:	f2 0f 11 44 24 10    	movsd  %xmm0,0x10(%rsp)
_ZNSt7__cxx1112basic_stringIcSt11char_traitsIcESaIcEE12_M_constructIPKcEEvT_S8_St20forward_iterator_tag():
/usr/include/c++/10/bits/basic_string.tcc:219
	    _M_data(_M_create(__dnew, size_type(0)));
  40447f:	e8 6c f7 ff ff       	callq  403bf0 <_ZNSt7__cxx1112basic_stringIcSt11char_traitsIcESaIcEE9_M_createERmm@plt>
_ZNSt7__cxx1112basic_stringIcSt11char_traitsIcESaIcEE11_M_capacityEm():
/usr/include/c++/10/bits/basic_string.h:219
      { _M_allocated_capacity = __capacity; }
  404484:	48 8b 54 24 48       	mov    0x48(%rsp),%rdx
_ZNSt11char_traitsIcE4copyEPcPKcm():
/usr/include/c++/10/bits/char_traits.h:437
	return static_cast<char_type*>(__builtin_memcpy(__s1, __s2, __n));
  404489:	66 0f 6f 05 cf 1d 01 	movdqa 0x11dcf(%rip),%xmm0        # 416260 <_ZZNSt8__detail18__to_chars_10_implIjEEvPcjT_E8__digits+0x240>
  404490:	00 
_ZNSt7__cxx1112basic_stringIcSt11char_traitsIcESaIcEE7_M_dataEPc():
/usr/include/c++/10/bits/basic_string.h:187
      { _M_dataplus._M_p = __p; }
  404491:	48 89 84 24 f0 00 00 	mov    %rax,0xf0(%rsp)
  404498:	00 
BenchmarkKernel<CSRGraph<int>, main(int, char**)::<lambda(const Graph&)>, void (*)(const CSRGraph<int>&, const pvector<float>&), main(int, char**)::<lambda(const Graph&, const pvector<float>&)> >():
/home/aliha951/ipdps-artifact/gapbs-master/src/benchmark.h:136
                 verify(std::ref(g), std::ref(result)) ? "PASS" : "FAIL");
      trial_timer.Stop();
      PrintTime("Verification Time", trial_timer.Seconds());
  404499:	4c 89 e7             	mov    %r12,%rdi
_ZNSt7__cxx1112basic_stringIcSt11char_traitsIcESaIcEE11_M_capacityEm():
/usr/include/c++/10/bits/basic_string.h:219
      { _M_allocated_capacity = __capacity; }
  40449c:	48 89 94 24 00 01 00 	mov    %rdx,0x100(%rsp)
  4044a3:	00 
_ZNSt11char_traitsIcE4copyEPcPKcm():
/usr/include/c++/10/bits/char_traits.h:437
  4044a4:	0f 11 00             	movups %xmm0,(%rax)
BenchmarkKernel<CSRGraph<int>, main(int, char**)::<lambda(const Graph&)>, void (*)(const CSRGraph<int>&, const pvector<float>&), main(int, char**)::<lambda(const Graph&, const pvector<float>&)> >():
/home/aliha951/ipdps-artifact/gapbs-master/src/benchmark.h:136
  4044a7:	f2 0f 10 44 24 10    	movsd  0x10(%rsp),%xmm0
_ZNSt11char_traitsIcE4copyEPcPKcm():
/usr/include/c++/10/bits/char_traits.h:437
  4044ad:	c6 40 10 65          	movb   $0x65,0x10(%rax)
_ZNSt7__cxx1112basic_stringIcSt11char_traitsIcESaIcEE12_M_constructIPKcEEvT_S8_St20forward_iterator_tag():
/usr/include/c++/10/bits/basic_string.tcc:232
	  {
	    _M_dispose();
	    __throw_exception_again;
	  }

	_M_set_length(__dnew);
  4044b1:	48 8b 44 24 48       	mov    0x48(%rsp),%rax
_ZNSt11char_traitsIcE6assignERcRKc():
/usr/include/c++/10/bits/char_traits.h:357
      { __c1 = __c2; }
  4044b6:	48 8b 94 24 f0 00 00 	mov    0xf0(%rsp),%rdx
  4044bd:	00 
_ZNSt7__cxx1112basic_stringIcSt11char_traitsIcESaIcEE9_M_lengthEm():
/usr/include/c++/10/bits/basic_string.h:191
      { _M_string_length = __length; }
  4044be:	48 89 84 24 f8 00 00 	mov    %rax,0xf8(%rsp)
  4044c5:	00 
_ZNSt11char_traitsIcE6assignERcRKc():
/usr/include/c++/10/bits/char_traits.h:357
  4044c6:	c6 04 02 00          	movb   $0x0,(%rdx,%rax,1)
BenchmarkKernel<CSRGraph<int>, main(int, char**)::<lambda(const Graph&)>, void (*)(const CSRGraph<int>&, const pvector<float>&), main(int, char**)::<lambda(const Graph&, const pvector<float>&)> >():
/home/aliha951/ipdps-artifact/gapbs-master/src/benchmark.h:136
  4044ca:	e8 61 1d 00 00       	callq  406230 <_Z9PrintTimeRKNSt7__cxx1112basic_stringIcSt11char_traitsIcESaIcEEEd>
_ZNKSt7__cxx1112basic_stringIcSt11char_traitsIcESaIcEE7_M_dataEv():
/usr/include/c++/10/bits/basic_string.h:195
      { return _M_dataplus._M_p; }
  4044cf:	48 8b bc 24 f0 00 00 	mov    0xf0(%rsp),%rdi
  4044d6:	00 
_ZNSt7__cxx1112basic_stringIcSt11char_traitsIcESaIcEE10_M_disposeEv():
/usr/include/c++/10/bits/basic_string.h:239
	if (!_M_is_local())
  4044d7:	48 39 df             	cmp    %rbx,%rdi
  4044da:	74 05                	je     4044e1 <main+0x571>
_ZN9__gnu_cxx13new_allocatorIcE10deallocateEPcm():
/usr/include/c++/10/ext/new_allocator.h:139
  4044dc:	e8 0f f4 ff ff       	callq  4038f0 <_ZdlPv@plt>
BenchmarkKernel<CSRGraph<int>, main(int, char**)::<lambda(const Graph&)>, void (*)(const CSRGraph<int>&, const pvector<float>&), main(int, char**)::<lambda(const Graph&, const pvector<float>&)> >():
/home/aliha951/ipdps-artifact/gapbs-master/src/benchmark.h:138
    }
    ompt_annotate("Trial End");
  4044e1:	48 8d 3d 65 0e 01 00 	lea    0x10e65(%rip),%rdi        # 41534d <_IO_stdin_used+0x34d>
  4044e8:	e8 c3 32 00 00       	callq  4077b0 <_Z13ompt_annotatePKc>
_ZN7pvectorIfE16ReleaseResourcesEv():
/home/aliha951/ipdps-artifact/gapbs-master/src/pvector.h:73
    if (start_ != nullptr) {
  4044ed:	48 8b 7c 24 70       	mov    0x70(%rsp),%rdi
  4044f2:	48 85 ff             	test   %rdi,%rdi
  4044f5:	0f 84 55 01 00 00    	je     404650 <main+0x6e0>
/home/aliha951/ipdps-artifact/gapbs-master/src/pvector.h:74
      delete[] start_;
  4044fb:	e8 20 f5 ff ff       	callq  403a20 <_ZdaPv@plt>
BenchmarkKernel<CSRGraph<int>, main(int, char**)::<lambda(const Graph&)>, void (*)(const CSRGraph<int>&, const pvector<float>&), main(int, char**)::<lambda(const Graph&, const pvector<float>&)> >():
/home/aliha951/ipdps-artifact/gapbs-master/src/benchmark.h:123
  for (int iter=0; iter < cli.num_trials(); iter++) {
  404500:	83 c5 01             	add    $0x1,%ebp
  404503:	39 ac 24 c4 01 00 00 	cmp    %ebp,0x1c4(%rsp)
  40450a:	0f 8f 90 fd ff ff    	jg     4042a0 <main+0x330>
_Z17ompt_mark_roi_endv():
/home/aliha951/ipdps-artifact/gapbs-master/src/../omp_runtime_visualizer/include/runtime_visualizer_utils.h:56
}

inline void ompt_mark_roi_end() {
  ompt_annotate("ROI_END");
  404510:	48 8d 3d 40 0e 01 00 	lea    0x10e40(%rip),%rdi        # 415357 <_IO_stdin_used+0x357>
  404517:	e8 94 32 00 00       	callq  4077b0 <_Z13ompt_annotatePKc>
BenchmarkKernel<CSRGraph<int>, main(int, char**)::<lambda(const Graph&)>, void (*)(const CSRGraph<int>&, const pvector<float>&), main(int, char**)::<lambda(const Graph&, const pvector<float>&)> >():
/home/aliha951/ipdps-artifact/gapbs-master/src/benchmark.h:143
  }
  
  // adding profiling markers and rusage counters for performance analysis
  ompt_mark_roi_end();
  stop_time_stats();
  40451c:	e8 df 23 00 00       	callq  406900 <_Z15stop_time_statsv>
/home/aliha951/ipdps-artifact/gapbs-master/src/benchmark.h:144
  trace_marker("BenchmarkKernel_End");
  404521:	48 8d 3d 37 0e 01 00 	lea    0x10e37(%rip),%rdi        # 41535f <_IO_stdin_used+0x35f>
  404528:	e8 f3 25 00 00       	callq  406b20 <_Z12trace_markerPKc>
/home/aliha951/ipdps-artifact/gapbs-master/src/benchmark.h:145
  stop_counters(&perf_ctrs, &user_time, &kernel_time ,&user_instructions, &kernel_instructions);
  40452d:	48 8d 4c 24 38       	lea    0x38(%rsp),%rcx
  404532:	48 8d 54 24 70       	lea    0x70(%rsp),%rdx
  404537:	48 8d 74 24 48       	lea    0x48(%rsp),%rsi
  40453c:	4c 8d 44 24 40       	lea    0x40(%rsp),%r8
  404541:	48 8d 3d 48 63 01 00 	lea    0x16348(%rip),%rdi        # 41a890 <perf_ctrs>
  404548:	e8 33 2a 00 00       	callq  406f80 <_Z13stop_countersP13perf_countersPxS1_S1_S1_>
/home/aliha951/ipdps-artifact/gapbs-master/src/benchmark.h:146
  snapshot_proc_stat(END);
  40454d:	bf 01 00 00 00       	mov    $0x1,%edi
  404552:	e8 b9 6c 00 00       	callq  40b210 <_Z18snapshot_proc_stat13SnapshotPoint>
/home/aliha951/ipdps-artifact/gapbs-master/src/benchmark.h:147
  snapshot_proc_pid(END);
  404557:	bf 01 00 00 00       	mov    $0x1,%edi
  40455c:	e8 7f 69 00 00       	callq  40aee0 <_Z17snapshot_proc_pid13SnapshotPoint>
/home/aliha951/ipdps-artifact/gapbs-master/src/benchmark.h:148
  stop_taskstats();
  404561:	e8 ea 2f 00 00       	callq  407550 <_Z14stop_taskstatsv>
_Z15stop_disk_statsv():
/home/aliha951/ipdps-artifact/gapbs-master/src/profiling_utils.h:316
}

inline void stop_disk_stats() {
  if (diskstat_pid > 0) {
  404566:	8b 05 d0 5d 01 00    	mov    0x15dd0(%rip),%eax        # 41a33c <diskstat_pid>
  40456c:	85 c0                	test   %eax,%eax
  40456e:	0f 8f 04 01 00 00    	jg     404678 <main+0x708>
BenchmarkKernel<CSRGraph<int>, main(int, char**)::<lambda(const Graph&)>, void (*)(const CSRGraph<int>&, const pvector<float>&), main(int, char**)::<lambda(const Graph&, const pvector<float>&)> >():
/home/aliha951/ipdps-artifact/gapbs-master/src/benchmark.h:150
  stop_disk_stats();
  cleanup_counters(&perf_ctrs);
  404574:	48 8d 3d 15 63 01 00 	lea    0x16315(%rip),%rdi        # 41a890 <perf_ctrs>
  40457b:	e8 40 2c 00 00       	callq  4071c0 <_Z16cleanup_countersP13perf_counters>
/home/aliha951/ipdps-artifact/gapbs-master/src/benchmark.h:151
  measure_time_stats();
  404580:	e8 ab 23 00 00       	callq  406930 <_Z18measure_time_statsv>
/home/aliha951/ipdps-artifact/gapbs-master/src/benchmark.h:153

  PrintTime("Average Time", total_seconds / cli.num_trials());
  404585:	66 0f ef c0          	pxor   %xmm0,%xmm0
  404589:	f2 0f 10 5c 24 08    	movsd  0x8(%rsp),%xmm3
  40458f:	48 8d ac 24 f0 00 00 	lea    0xf0(%rsp),%rbp
  404596:	00 
  404597:	48 8d 35 d5 0d 01 00 	lea    0x10dd5(%rip),%rsi        # 415373 <_IO_stdin_used+0x373>
  40459e:	f2 0f 2a 84 24 c4 01 	cvtsi2sdl 0x1c4(%rsp),%xmm0
  4045a5:	00 00 
  4045a7:	48 89 ef             	mov    %rbp,%rdi
  4045aa:	f2 0f 5e d8          	divsd  %xmm0,%xmm3
  4045ae:	66 48 0f 7e db       	movq   %xmm3,%rbx
  4045b3:	e8 78 19 00 00       	callq  405f30 <_ZNSt7__cxx1112basic_stringIcSt11char_traitsIcESaIcEEC2EPKcRKS3_.constprop.0>
  4045b8:	66 48 0f 6e c3       	movq   %rbx,%xmm0
  4045bd:	48 89 ef             	mov    %rbp,%rdi
  4045c0:	e8 6b 1c 00 00       	callq  406230 <_Z9PrintTimeRKNSt7__cxx1112basic_stringIcSt11char_traitsIcESaIcEEEd>
_ZNKSt7__cxx1112basic_stringIcSt11char_traitsIcESaIcEE7_M_dataEv():
/usr/include/c++/10/bits/basic_string.h:195
      { return _M_dataplus._M_p; }
  4045c5:	48 8b bc 24 f0 00 00 	mov    0xf0(%rsp),%rdi
  4045cc:	00 
_ZNSt7__cxx1112basic_stringIcSt11char_traitsIcESaIcEE10_M_disposeEv():
/usr/include/c++/10/bits/basic_string.h:239
	if (!_M_is_local())
  4045cd:	48 8d 84 24 00 01 00 	lea    0x100(%rsp),%rax
  4045d4:	00 
  4045d5:	48 39 c7             	cmp    %rax,%rdi
  4045d8:	74 05                	je     4045df <main+0x66f>
_ZN9__gnu_cxx13new_allocatorIcE10deallocateEPcm():
/usr/include/c++/10/ext/new_allocator.h:139
  4045da:	e8 11 f3 ff ff       	callq  4038f0 <_ZdlPv@plt>
_ZN8CSRGraphIiiLb1EED4Ev():
/home/aliha951/ipdps-artifact/gapbs-master/src/graph.h:166
  4045df:	4c 89 ef             	mov    %r13,%rdi
main():
/home/aliha951/ipdps-artifact/gapbs-master/src/bc.cc:252
  };
  BenchmarkKernel(cli, g, BCBound, PrintTopScores, VerifierBound);
  return 0;
  4045e2:	45 31 e4             	xor    %r12d,%r12d
_ZN8CSRGraphIiiLb1EED4Ev():
/home/aliha951/ipdps-artifact/gapbs-master/src/graph.h:166
  4045e5:	e8 e6 74 00 00       	callq  40bad0 <_ZN8CSRGraphIiiLb1EE16ReleaseResourcesEv>
_ZN5CLAppD4Ev():
/home/aliha951/ipdps-artifact/gapbs-master/src/command_line.h:140
class CLApp : public CLBase {
  4045ea:	48 8b 7c 24 28       	mov    0x28(%rsp),%rdi
  4045ef:	48 8d 05 02 55 01 00 	lea    0x15502(%rip),%rax        # 419af8 <_ZTV5CLApp+0x10>
  4045f6:	48 89 84 24 10 01 00 	mov    %rax,0x110(%rsp)
  4045fd:	00 
  4045fe:	e8 2d 68 00 00       	callq  40ae30 <_ZN6CLBaseD1Ev>
main():
/home/aliha951/ipdps-artifact/gapbs-master/src/bc.cc:253
}
  404603:	48 8b 84 24 c8 16 00 	mov    0x16c8(%rsp),%rax
  40460a:	00 
  40460b:	64 48 2b 04 25 28 00 	sub    %fs:0x28,%rax
  404612:	00 00 
  404614:	0f 85 b4 02 00 00    	jne    4048ce <main+0x95e>
  40461a:	48 81 c4 d8 16 00 00 	add    $0x16d8,%rsp
  404621:	44 89 e0             	mov    %r12d,%eax
  404624:	5b                   	pop    %rbx
  404625:	5d                   	pop    %rbp
  404626:	41 5c                	pop    %r12
  404628:	41 5d                	pop    %r13
  40462a:	41 5e                	pop    %r14
  40462c:	41 5f                	pop    %r15
  40462e:	c3                   	retq   
_ZN6CLBase9ParseArgsEv():
/home/aliha951/ipdps-artifact/gapbs-master/src/command_line.h:90
    if ((filename_ == "") && (scale_ == -1)) {
  40462f:	44 8b a4 24 80 01 00 	mov    0x180(%rsp),%r12d
  404636:	00 
  404637:	41 83 fc ff          	cmp    $0xffffffff,%r12d
  40463b:	0f 84 df 01 00 00    	je     404820 <main+0x8b0>
/home/aliha951/ipdps-artifact/gapbs-master/src/command_line.h:95
      symmetrize_ = true;
  404641:	c6 84 24 a8 01 00 00 	movb   $0x1,0x1a8(%rsp)
  404648:	01 
/home/aliha951/ipdps-artifact/gapbs-master/src/command_line.h:92
      return false;
  404649:	e9 1c fb ff ff       	jmpq   40416a <main+0x1fa>
  40464e:	66 90                	xchg   %ax,%ax
BenchmarkKernel<CSRGraph<int>, main(int, char**)::<lambda(const Graph&)>, void (*)(const CSRGraph<int>&, const pvector<float>&), main(int, char**)::<lambda(const Graph&, const pvector<float>&)> >():
/home/aliha951/ipdps-artifact/gapbs-master/src/benchmark.h:123
  for (int iter=0; iter < cli.num_trials(); iter++) {
  404650:	83 c5 01             	add    $0x1,%ebp
  404653:	39 ac 24 c4 01 00 00 	cmp    %ebp,0x1c4(%rsp)
  40465a:	0f 8f 40 fc ff ff    	jg     4042a0 <main+0x330>
  404660:	e9 ab fe ff ff       	jmpq   404510 <main+0x5a0>
  404665:	0f 1f 00             	nopl   (%rax)
/home/aliha951/ipdps-artifact/gapbs-master/src/benchmark.h:130
      stats(g, result);
  404668:	4c 89 f6             	mov    %r14,%rsi
  40466b:	4c 89 ef             	mov    %r13,%rdi
  40466e:	e8 9d 4c 00 00       	callq  409310 <_Z14PrintTopScoresRK8CSRGraphIiiLb1EERK7pvectorIfE>
  404673:	e9 f8 fc ff ff       	jmpq   404370 <main+0x400>
main():
/usr/include/x86_64-linux-gnu/bits/stdio2.h:67
# ifdef __va_arg_pack
__fortify_function int
__NTH (snprintf (char *__restrict __s, size_t __n,
		 const char *__restrict __fmt, ...))
{
  return __builtin___snprintf_chk (__s, __n, __USE_FORTIFY_LEVEL - 1,
  404678:	4c 8d 84 24 c0 15 00 	lea    0x15c0(%rsp),%r8
  40467f:	00 
snprintf():
/usr/include/x86_64-linux-gnu/bits/stdio2.h:67
  404680:	48 8d 35 99 11 01 00 	lea    0x11199(%rip),%rsi        # 415820 <_IO_stdin_used+0x820>
  404687:	b9 09 00 00 00       	mov    $0x9,%ecx
  40468c:	4c 89 c7             	mov    %r8,%rdi
  40468f:	f3 a5                	rep movsl %ds:(%rsi),%es:(%rdi)
_Z15stop_disk_statsv():
/home/aliha951/ipdps-artifact/gapbs-master/src/profiling_utils.h:319
    char command[256];
    snprintf(command, sizeof(command), "sudo pkill -f 'gather_diskstats.sh'");
    int ret = system(command);
  404691:	4c 89 c7             	mov    %r8,%rdi
  404694:	e8 17 f2 ff ff       	callq  4038b0 <system@plt>
/home/aliha951/ipdps-artifact/gapbs-master/src/profiling_utils.h:320
    if (ret==-1)	std::cout << "could not stop diskstat gathering\n";
  404699:	83 c0 01             	add    $0x1,%eax
  40469c:	0f 85 d2 fe ff ff    	jne    404574 <main+0x604>
_ZStlsISt11char_traitsIcEERSt13basic_ostreamIcT_ES5_PKc():
/usr/include/c++/10/ostream:611
	__ostream_insert(__out, __s,
  4046a2:	ba 22 00 00 00       	mov    $0x22,%edx
  4046a7:	48 8d 35 9a 11 01 00 	lea    0x1119a(%rip),%rsi        # 415848 <_IO_stdin_used+0x848>
  4046ae:	48 8d 3d 0b 5d 01 00 	lea    0x15d0b(%rip),%rdi        # 41a3c0 <_ZSt4cout@@GLIBCXX_3.4>
  4046b5:	e8 b6 f2 ff ff       	callq  403970 <_ZSt16__ostream_insertIcSt11char_traitsIcEERSt13basic_ostreamIT_T0_ES6_PKS3_l@plt>
  4046ba:	e9 b5 fe ff ff       	jmpq   404574 <main+0x604>
_ZN6CLBase9HandleArgEaPc():
/home/aliha951/ipdps-artifact/gapbs-master/src/command_line.h:106
      case 'u': uniform_ = true; scale_ = atoi(opt_arg);                break;
  4046bf:	c6 84 24 a9 01 00 00 	movb   $0x1,0x1a9(%rsp)
  4046c6:	01 
main():
/usr/include/stdlib.h:363
  4046c7:	ba 0a 00 00 00       	mov    $0xa,%edx
atoi():
/usr/include/stdlib.h:363
  4046cc:	31 f6                	xor    %esi,%esi
  4046ce:	e8 8d f3 ff ff       	callq  403a60 <strtol@plt>
  4046d3:	89 84 24 80 01 00 00 	mov    %eax,0x180(%rsp)
_ZN6CLBase9HandleArgEaPc():
/home/aliha951/ipdps-artifact/gapbs-master/src/command_line.h:106
  4046da:	e9 51 f9 ff ff       	jmpq   404030 <main+0xc0>
main():
/usr/include/stdlib.h:363
  4046df:	ba 0a 00 00 00       	mov    $0xa,%edx
atoi():
/usr/include/stdlib.h:363
  4046e4:	31 f6                	xor    %esi,%esi
  4046e6:	e8 75 f3 ff ff       	callq  403a60 <strtol@plt>
  4046eb:	89 84 24 b8 01 00 00 	mov    %eax,0x1b8(%rsp)
_ZN6CLBase9HandleArgEaPc():
/home/aliha951/ipdps-artifact/gapbs-master/src/command_line.h:111
      case 'x': readahead_size_ = atoi(opt_arg);                        break;
  4046f2:	e9 39 f9 ff ff       	jmpq   404030 <main+0xc0>
main():
/usr/include/stdlib.h:363
  4046f7:	ba 0a 00 00 00       	mov    $0xa,%edx
atoi():
/usr/include/stdlib.h:363
  4046fc:	31 f6                	xor    %esi,%esi
  4046fe:	e8 5d f3 ff ff       	callq  403a60 <strtol@plt>
_ZN6CLBase9HandleArgEaPc():
/home/aliha951/ipdps-artifact/gapbs-master/src/command_line.h:110
      case 'y': queue_size_ = (long unsigned int) atoi(opt_arg);        break;
  404703:	48 98                	cltq   
  404705:	48 89 84 24 b0 01 00 	mov    %rax,0x1b0(%rsp)
  40470c:	00 
  40470d:	e9 1e f9 ff ff       	jmpq   404030 <main+0xc0>
main():
/usr/include/stdlib.h:363
  404712:	ba 0a 00 00 00       	mov    $0xa,%edx
atoi():
/usr/include/stdlib.h:363
  404717:	31 f6                	xor    %esi,%esi
  404719:	e8 42 f3 ff ff       	callq  403a60 <strtol@plt>
  40471e:	89 84 24 84 01 00 00 	mov    %eax,0x184(%rsp)
_ZN6CLBase9HandleArgEaPc():
/home/aliha951/ipdps-artifact/gapbs-master/src/command_line.h:104
      case 'k': degree_ = atoi(opt_arg);                                break;
  404725:	e9 06 f9 ff ff       	jmpq   404030 <main+0xc0>
/home/aliha951/ipdps-artifact/gapbs-master/src/command_line.h:107
      case 'm': in_place_ = true;                                       break;
  40472a:	c6 84 24 aa 01 00 00 	movb   $0x1,0x1aa(%rsp)
  404731:	01 
  404732:	e9 f9 f8 ff ff       	jmpq   404030 <main+0xc0>
/home/aliha951/ipdps-artifact/gapbs-master/src/command_line.h:112
      case 'o': batching_mode_ = MADVISE;                               break;
  404737:	c7 84 24 bc 01 00 00 	movl   $0x2,0x1bc(%rsp)
  40473e:	02 00 00 00 
  404742:	e9 e9 f8 ff ff       	jmpq   404030 <main+0xc0>
/home/aliha951/ipdps-artifact/gapbs-master/src/command_line.h:109
      case 'q': batching_ = true;                                       break;
  404747:	c6 84 24 ab 01 00 00 	movb   $0x1,0x1ab(%rsp)
  40474e:	01 
  40474f:	e9 dc f8 ff ff       	jmpq   404030 <main+0xc0>
/home/aliha951/ipdps-artifact/gapbs-master/src/command_line.h:101
      case 'f': filename_ = std::string(opt_arg);                       break;
  404754:	48 89 fe             	mov    %rdi,%rsi
  404757:	48 8b 7c 24 20       	mov    0x20(%rsp),%rdi
  40475c:	e8 cf 17 00 00       	callq  405f30 <_ZNSt7__cxx1112basic_stringIcSt11char_traitsIcESaIcEEC2EPKcRKS3_.constprop.0>
_ZNKSt7__cxx1112basic_stringIcSt11char_traitsIcESaIcEE7_M_dataEv():
/usr/include/c++/10/bits/basic_string.h:195
      { return _M_dataplus._M_p; }
  404761:	48 8b 84 24 d0 0b 00 	mov    0xbd0(%rsp),%rax
  404768:	00 
  404769:	48 8b bc 24 88 01 00 	mov    0x188(%rsp),%rdi
  404770:	00 
_ZNKSt7__cxx1112basic_stringIcSt11char_traitsIcESaIcEE4sizeEv():
/usr/include/c++/10/bits/basic_string.h:915
      { return _M_string_length; }
  404771:	48 8b 94 24 d8 0b 00 	mov    0xbd8(%rsp),%rdx
  404778:	00 
_ZNSt7__cxx1112basic_stringIcSt11char_traitsIcESaIcEEaSEOS4_():
/usr/include/c++/10/bits/basic_string.h:731
	if (__str._M_is_local())
  404779:	48 39 e8             	cmp    %rbp,%rax
  40477c:	0f 84 d1 00 00 00    	je     404853 <main+0x8e3>
/usr/include/c++/10/bits/basic_string.h:759
	    _M_capacity(__str._M_allocated_capacity);
  404782:	48 8b 8c 24 e0 0b 00 	mov    0xbe0(%rsp),%rcx
  404789:	00 
/usr/include/c++/10/bits/basic_string.h:745
	    if (!_M_is_local())
  40478a:	4c 39 ef             	cmp    %r13,%rdi
  40478d:	0f 84 f4 00 00 00    	je     404887 <main+0x917>
_ZNSt7__cxx1112basic_stringIcSt11char_traitsIcESaIcEE9_M_lengthEm():
/usr/include/c++/10/bits/basic_string.h:191
      { _M_string_length = __length; }
  404793:	66 48 0f 6e c2       	movq   %rdx,%xmm0
  404798:	66 48 0f 6e f1       	movq   %rcx,%xmm6
_ZNSt7__cxx1112basic_stringIcSt11char_traitsIcESaIcEEaSEOS4_():
/usr/include/c++/10/bits/basic_string.h:751
		    __capacity = _M_allocated_capacity;
  40479d:	48 8b b4 24 98 01 00 	mov    0x198(%rsp),%rsi
  4047a4:	00 
_ZNSt7__cxx1112basic_stringIcSt11char_traitsIcESaIcEE7_M_dataEPc():
/usr/include/c++/10/bits/basic_string.h:187
      { _M_dataplus._M_p = __p; }
  4047a5:	48 89 84 24 88 01 00 	mov    %rax,0x188(%rsp)
  4047ac:	00 
_ZNSt7__cxx1112basic_stringIcSt11char_traitsIcESaIcEE9_M_lengthEm():
/usr/include/c++/10/bits/basic_string.h:191
      { _M_string_length = __length; }
  4047ad:	66 0f 6c c6          	punpcklqdq %xmm6,%xmm0
  4047b1:	0f 29 84 24 90 01 00 	movaps %xmm0,0x190(%rsp)
  4047b8:	00 
_ZNSt7__cxx1112basic_stringIcSt11char_traitsIcESaIcEEaSEOS4_():
/usr/include/c++/10/bits/basic_string.h:760
	    if (__data)
  4047b9:	48 85 ff             	test   %rdi,%rdi
  4047bc:	0f 84 e3 00 00 00    	je     4048a5 <main+0x935>
_ZNSt7__cxx1112basic_stringIcSt11char_traitsIcESaIcEE7_M_dataEPc():
/usr/include/c++/10/bits/basic_string.h:187
      { _M_dataplus._M_p = __p; }
  4047c2:	48 89 bc 24 d0 0b 00 	mov    %rdi,0xbd0(%rsp)
  4047c9:	00 
_ZNSt7__cxx1112basic_stringIcSt11char_traitsIcESaIcEE11_M_capacityEm():
/usr/include/c++/10/bits/basic_string.h:219
      { _M_allocated_capacity = __capacity; }
  4047ca:	48 89 b4 24 e0 0b 00 	mov    %rsi,0xbe0(%rsp)
  4047d1:	00 
_ZNKSt7__cxx1112basic_stringIcSt11char_traitsIcESaIcEE7_M_dataEv():
/usr/include/c++/10/bits/basic_string.h:195
      { return _M_dataplus._M_p; }
  4047d2:	48 8b 84 24 d0 0b 00 	mov    0xbd0(%rsp),%rax
  4047d9:	00 
_ZNSt7__cxx1112basic_stringIcSt11char_traitsIcESaIcEE9_M_lengthEm():
/usr/include/c++/10/bits/basic_string.h:191
      { _M_string_length = __length; }
  4047da:	48 c7 84 24 d8 0b 00 	movq   $0x0,0xbd8(%rsp)
  4047e1:	00 00 00 00 00 
_ZNSt11char_traitsIcE6assignERcRKc():
/usr/include/c++/10/bits/char_traits.h:357
  4047e6:	c6 00 00             	movb   $0x0,(%rax)
_ZNKSt7__cxx1112basic_stringIcSt11char_traitsIcESaIcEE7_M_dataEv():
/usr/include/c++/10/bits/basic_string.h:195
      { return _M_dataplus._M_p; }
  4047e9:	48 8b bc 24 d0 0b 00 	mov    0xbd0(%rsp),%rdi
  4047f0:	00 
_ZNSt7__cxx1112basic_stringIcSt11char_traitsIcESaIcEE10_M_disposeEv():
/usr/include/c++/10/bits/basic_string.h:239
	if (!_M_is_local())
  4047f1:	48 39 ef             	cmp    %rbp,%rdi
  4047f4:	0f 84 36 f8 ff ff    	je     404030 <main+0xc0>
_ZN9__gnu_cxx13new_allocatorIcE10deallocateEPcm():
/usr/include/c++/10/ext/new_allocator.h:139
  4047fa:	e8 f1 f0 ff ff       	callq  4038f0 <_ZdlPv@plt>
_ZN6CLBase9HandleArgEaPc():
/home/aliha951/ipdps-artifact/gapbs-master/src/command_line.h:114
  }
  4047ff:	e9 2c f8 ff ff       	jmpq   404030 <main+0xc0>
/home/aliha951/ipdps-artifact/gapbs-master/src/command_line.h:105
      case 's': symmetrize_ = true;                                     break;
  404804:	c6 84 24 a8 01 00 00 	movb   $0x1,0x1a8(%rsp)
  40480b:	01 
  40480c:	e9 1f f8 ff ff       	jmpq   404030 <main+0xc0>
BenchmarkKernel<CSRGraph<int>, main(int, char**)::<lambda(const Graph&)>, void (*)(const CSRGraph<int>&, const pvector<float>&), main(int, char**)::<lambda(const Graph&, const pvector<float>&)> >():
/home/aliha951/ipdps-artifact/gapbs-master/src/benchmark.h:108
  double total_seconds = 0;
  404811:	66 0f ef ed          	pxor   %xmm5,%xmm5
  404815:	f2 0f 11 6c 24 08    	movsd  %xmm5,0x8(%rsp)
  40481b:	e9 f0 fc ff ff       	jmpq   404510 <main+0x5a0>
_ZStlsISt11char_traitsIcEERSt13basic_ostreamIcT_ES5_PKc():
/usr/include/c++/10/ostream:611
  404820:	ba 2b 00 00 00       	mov    $0x2b,%edx
  404825:	48 8d 35 64 0f 01 00 	lea    0x10f64(%rip),%rsi        # 415790 <_IO_stdin_used+0x790>
  40482c:	48 8d 3d 8d 5b 01 00 	lea    0x15b8d(%rip),%rdi        # 41a3c0 <_ZSt4cout@@GLIBCXX_3.4>
  404833:	e8 38 f1 ff ff       	callq  403970 <_ZSt16__ostream_insertIcSt11char_traitsIcEERSt13basic_ostreamIT_T0_ES6_PKS3_l@plt>
_ZNSolsEPFRSoS_E():
/usr/include/c++/10/ostream:113
	return __pf(*this);
  404838:	48 8d 3d 81 5b 01 00 	lea    0x15b81(%rip),%rdi        # 41a3c0 <_ZSt4cout@@GLIBCXX_3.4>
  40483f:	e8 6c 16 00 00       	callq  405eb0 <_ZSt4endlIcSt11char_traitsIcEERSt13basic_ostreamIT_T0_ES6_.isra.0>
  404844:	e9 a1 fd ff ff       	jmpq   4045ea <main+0x67a>
_ZN6CLBase9HandleArgEaPc():
/home/aliha951/ipdps-artifact/gapbs-master/src/command_line.h:103
      case 'h': PrintUsage();                                           break;
  404849:	48 8b 7c 24 28       	mov    0x28(%rsp),%rdi
  40484e:	e8 3d 5e 00 00       	callq  40a690 <_ZN6CLBase10PrintUsageEv>
_ZNSt7__cxx1112basic_stringIcSt11char_traitsIcESaIcEEaSEOS4_():
/usr/include/c++/10/bits/basic_string.h:734
	    if (__str.size())
  404853:	48 85 d2             	test   %rdx,%rdx
  404856:	74 1e                	je     404876 <main+0x906>
_ZNSt7__cxx1112basic_stringIcSt11char_traitsIcESaIcEE7_S_copyEPcPKcm():
/usr/include/c++/10/bits/basic_string.h:356
	if (__n == 1)
  404858:	48 83 fa 01          	cmp    $0x1,%rdx
  40485c:	74 54                	je     4048b2 <main+0x942>
_ZNSt11char_traitsIcE4copyEPcPKcm():
/usr/include/c++/10/bits/char_traits.h:437
	return static_cast<char_type*>(__builtin_memcpy(__s1, __s2, __n));
  40485e:	48 89 ee             	mov    %rbp,%rsi
  404861:	e8 1a f0 ff ff       	callq  403880 <memcpy@plt>
  404866:	48 8b bc 24 88 01 00 	mov    0x188(%rsp),%rdi
  40486d:	00 
  40486e:	48 8b 94 24 d8 0b 00 	mov    0xbd8(%rsp),%rdx
  404875:	00 
_ZNSt7__cxx1112basic_stringIcSt11char_traitsIcESaIcEE9_M_lengthEm():
/usr/include/c++/10/bits/basic_string.h:191
      { _M_string_length = __length; }
  404876:	48 89 94 24 90 01 00 	mov    %rdx,0x190(%rsp)
  40487d:	00 
_ZNSt11char_traitsIcE6assignERcRKc():
/usr/include/c++/10/bits/char_traits.h:357
      { __c1 = __c2; }
  40487e:	c6 04 17 00          	movb   $0x0,(%rdi,%rdx,1)
_ZNSt7__cxx1112basic_stringIcSt11char_traitsIcESaIcEE13_M_set_lengthEm():
/usr/include/c++/10/bits/basic_string.h:226
      }
  404882:	e9 4b ff ff ff       	jmpq   4047d2 <main+0x862>
_ZNSt7__cxx1112basic_stringIcSt11char_traitsIcESaIcEE9_M_lengthEm():
/usr/include/c++/10/bits/basic_string.h:191
      { _M_string_length = __length; }
  404887:	66 48 0f 6e c2       	movq   %rdx,%xmm0
  40488c:	66 48 0f 6e f9       	movq   %rcx,%xmm7
_ZNSt7__cxx1112basic_stringIcSt11char_traitsIcESaIcEE7_M_dataEPc():
/usr/include/c++/10/bits/basic_string.h:187
      { _M_dataplus._M_p = __p; }
  404891:	48 89 84 24 88 01 00 	mov    %rax,0x188(%rsp)
  404898:	00 
_ZNSt7__cxx1112basic_stringIcSt11char_traitsIcESaIcEE9_M_lengthEm():
/usr/include/c++/10/bits/basic_string.h:191
      { _M_string_length = __length; }
  404899:	66 0f 6c c7          	punpcklqdq %xmm7,%xmm0
  40489d:	0f 29 84 24 90 01 00 	movaps %xmm0,0x190(%rsp)
  4048a4:	00 
_ZNSt7__cxx1112basic_stringIcSt11char_traitsIcESaIcEE7_M_dataEPc():
/usr/include/c++/10/bits/basic_string.h:187
      { _M_dataplus._M_p = __p; }
  4048a5:	48 89 ac 24 d0 0b 00 	mov    %rbp,0xbd0(%rsp)
  4048ac:	00 
  4048ad:	e9 20 ff ff ff       	jmpq   4047d2 <main+0x862>
_ZNSt11char_traitsIcE6assignERcRKc():
/usr/include/c++/10/bits/char_traits.h:357
  4048b2:	0f b6 84 24 e0 0b 00 	movzbl 0xbe0(%rsp),%eax
  4048b9:	00 
  4048ba:	88 07                	mov    %al,(%rdi)
  4048bc:	48 8b bc 24 88 01 00 	mov    0x188(%rsp),%rdi
  4048c3:	00 
  4048c4:	48 8b 94 24 d8 0b 00 	mov    0xbd8(%rsp),%rdx
  4048cb:	00 
  4048cc:	eb a8                	jmp    404876 <main+0x906>
main():
/home/aliha951/ipdps-artifact/gapbs-master/src/bc.cc:253
  4048ce:	e8 8d f0 ff ff       	callq  403960 <__stack_chk_fail@plt>
_Z16start_disk_statsPKc():
/home/aliha951/ipdps-artifact/gapbs-master/src/profiling_utils.h:302
    perror("fork failed");
  4048d3:	48 8d 3d 18 0a 01 00 	lea    0x10a18(%rip),%rdi        # 4152f2 <_IO_stdin_used+0x2f2>
  4048da:	e8 b1 ef ff ff       	callq  403890 <perror@plt>
/home/aliha951/ipdps-artifact/gapbs-master/src/profiling_utils.h:303
    exit(EXIT_FAILURE);
  4048df:	bf 01 00 00 00       	mov    $0x1,%edi
  4048e4:	e8 e7 f0 ff ff       	callq  4039d0 <exit@plt>
/home/aliha951/ipdps-artifact/gapbs-master/src/profiling_utils.h:306
	  move_to_cgroup(root_cgroup, getpid());
  4048e9:	e8 d2 f1 ff ff       	callq  403ac0 <getpid@plt>
  4048ee:	48 8d 3d 09 0a 01 00 	lea    0x10a09(%rip),%rdi        # 4152fe <_IO_stdin_used+0x2fe>
  4048f5:	89 c6                	mov    %eax,%esi
  4048f7:	e8 f4 28 00 00       	callq  4071f0 <_Z14move_to_cgroupPKci>
/home/aliha951/ipdps-artifact/gapbs-master/src/profiling_utils.h:307
    execlp("/home/aliha951/ipdps-gapbs/gather_diskstats.sh", "/home/aliha951/ipdps-gapbs/gather_diskstats.sh", result_file_name, NULL);
  4048fc:	48 8d 35 ed 0e 01 00 	lea    0x10eed(%rip),%rsi        # 4157f0 <_IO_stdin_used+0x7f0>
  404903:	31 c9                	xor    %ecx,%ecx
  404905:	48 8d 15 08 0a 01 00 	lea    0x10a08(%rip),%rdx        # 415314 <_IO_stdin_used+0x314>
  40490c:	31 c0                	xor    %eax,%eax
  40490e:	48 89 f7             	mov    %rsi,%rdi
  404911:	e8 4a ee ff ff       	callq  403760 <execlp@plt>
/home/aliha951/ipdps-artifact/gapbs-master/src/profiling_utils.h:308
    perror("execlp failed");
  404916:	48 8d 3d 02 0a 01 00 	lea    0x10a02(%rip),%rdi        # 41531f <_IO_stdin_used+0x31f>
  40491d:	e8 6e ef ff ff       	callq  403890 <perror@plt>
  404922:	eb bb                	jmp    4048df <main+0x96f>
  404924:	f3 0f 1e fa          	endbr64 
_ZNKSt7__cxx1112basic_stringIcSt11char_traitsIcESaIcEE7_M_dataEv():
/usr/include/c++/10/bits/basic_string.h:195
      { return _M_dataplus._M_p; }
  404928:	48 89 c5             	mov    %rax,%rbp
  40492b:	e9 6f f5 ff ff       	jmpq   403e9f <main.cold>
  404930:	f3 0f 1e fa          	endbr64 
_ZN7pvectorIfE16ReleaseResourcesEv():
/home/aliha951/ipdps-artifact/gapbs-master/src/pvector.h:73
    if (start_ != nullptr) {
  404934:	48 89 c5             	mov    %rax,%rbp
  404937:	e9 75 f5 ff ff       	jmpq   403eb1 <main.cold+0x12>
  40493c:	f3 0f 1e fa          	endbr64 
_ZNKSt7__cxx1112basic_stringIcSt11char_traitsIcESaIcEE7_M_dataEv():
/usr/include/c++/10/bits/basic_string.h:195
  404940:	48 89 c5             	mov    %rax,%rbp
  404943:	e9 a4 f5 ff ff       	jmpq   403eec <main.cold+0x4d>
  404948:	f3 0f 1e fa          	endbr64 
  40494c:	48 89 c5             	mov    %rax,%rbp
  40494f:	e9 c0 f5 ff ff       	jmpq   403f14 <main.cold+0x75>
  404954:	f3 0f 1e fa          	endbr64 
  404958:	48 89 c5             	mov    %rax,%rbp
  40495b:	e9 c8 f5 ff ff       	jmpq   403f28 <main.cold+0x89>
  404960:	f3 0f 1e fa          	endbr64 
_ZN5CLAppD4Ev():
/home/aliha951/ipdps-artifact/gapbs-master/src/command_line.h:140
class CLApp : public CLBase {
  404964:	48 89 c3             	mov    %rax,%rbx
  404967:	e9 5f f5 ff ff       	jmpq   403ecb <main.cold+0x2c>
  40496c:	f3 0f 1e fa          	endbr64 
  404970:	48 89 c3             	mov    %rax,%rbx
  404973:	e9 4b f5 ff ff       	jmpq   403ec3 <main.cold+0x24>
  404978:	f3 0f 1e fa          	endbr64 
_ZNKSt7__cxx1112basic_stringIcSt11char_traitsIcESaIcEE7_M_dataEv():
/usr/include/c++/10/bits/basic_string.h:195
  40497c:	48 89 c3             	mov    %rax,%rbx
  40497f:	e9 c6 f5 ff ff       	jmpq   403f4a <main.cold+0xab>
main():
/usr/include/c++/10/bits/basic_string.h:195
  404984:	66 66 2e 0f 1f 84 00 	data16 nopw %cs:0x0(%rax,%rax,1)
  40498b:	00 00 00 00 
  40498f:	90                   	nop

0000000000404990 <_GLOBAL__sub_I__Z10PrintLabelRKNSt7__cxx1112basic_stringIcSt11char_traitsIcESaIcEEES6_>:
_GLOBAL__sub_I__Z10PrintLabelRKNSt7__cxx1112basic_stringIcSt11char_traitsIcESaIcEEES6_():
/home/aliha951/ipdps-artifact/gapbs-master/src/bc.cc:253
  404990:	f3 0f 1e fa          	endbr64 
  404994:	48 83 ec 08          	sub    $0x8,%rsp
/usr/include/c++/10/iostream:74
  extern wostream wclog;	/// Linked to standard error (buffered)
#endif
  ///@}

  // For construction of filebuffers for cout, cin, cerr, clog et. al.
  static ios_base::Init __ioinit;
  404998:	48 8d 3d 51 60 01 00 	lea    0x16051(%rip),%rdi        # 41a9f0 <_ZStL8__ioinit>
__static_initialization_and_destruction_0():
/usr/include/c++/10/iostream:74
  40499f:	e8 4c f1 ff ff       	callq  403af0 <_ZNSt8ios_base4InitC1Ev@plt>
  4049a4:	48 8b 3d 4d 56 01 00 	mov    0x1564d(%rip),%rdi        # 419ff8 <_ZNSt8ios_base4InitD1Ev@GLIBCXX_3.4>
_GLOBAL__sub_I__Z10PrintLabelRKNSt7__cxx1112basic_stringIcSt11char_traitsIcESaIcEEES6_():
/home/aliha951/ipdps-artifact/gapbs-master/src/bc.cc:253
  4049ab:	48 83 c4 08          	add    $0x8,%rsp
__static_initialization_and_destruction_0():
/usr/include/c++/10/iostream:74
  4049af:	48 8d 15 7a 59 01 00 	lea    0x1597a(%rip),%rdx        # 41a330 <__dso_handle>
  4049b6:	48 8d 35 33 60 01 00 	lea    0x16033(%rip),%rsi        # 41a9f0 <_ZStL8__ioinit>
  4049bd:	e9 fe ee ff ff       	jmpq   4038c0 <__cxa_atexit@plt>
_GLOBAL__sub_I__Z10PrintLabelRKNSt7__cxx1112basic_stringIcSt11char_traitsIcESaIcEEES6_():
  4049c2:	66 2e 0f 1f 84 00 00 	nopw   %cs:0x0(%rax,%rax,1)
  4049c9:	00 00 00 
  4049cc:	0f 1f 40 00          	nopl   0x0(%rax)

00000000004049d0 <_start>:
_start():
  4049d0:	f3 0f 1e fa          	endbr64 
  4049d4:	31 ed                	xor    %ebp,%ebp
  4049d6:	49 89 d1             	mov    %rdx,%r9
  4049d9:	5e                   	pop    %rsi
  4049da:	48 89 e2             	mov    %rsp,%rdx
  4049dd:	48 83 e4 f0          	and    $0xfffffffffffffff0,%rsp
  4049e1:	50                   	push   %rax
  4049e2:	54                   	push   %rsp
  4049e3:	49 c7 c0 90 4f 41 00 	mov    $0x414f90,%r8
  4049ea:	48 c7 c1 20 4f 41 00 	mov    $0x414f20,%rcx
  4049f1:	48 c7 c7 70 3f 40 00 	mov    $0x403f70,%rdi
  4049f8:	ff 15 ea 55 01 00    	callq  *0x155ea(%rip)        # 419fe8 <__libc_start_main@GLIBC_2.2.5>
  4049fe:	f4                   	hlt    
  4049ff:	90                   	nop

0000000000404a00 <_dl_relocate_static_pie>:
_dl_relocate_static_pie():
  404a00:	f3 0f 1e fa          	endbr64 
  404a04:	c3                   	retq   
  404a05:	66 2e 0f 1f 84 00 00 	nopw   %cs:0x0(%rax,%rax,1)
  404a0c:	00 00 00 
  404a0f:	90                   	nop

0000000000404a10 <deregister_tm_clones>:
deregister_tm_clones():
  404a10:	b8 48 a3 41 00       	mov    $0x41a348,%eax
  404a15:	48 3d 48 a3 41 00    	cmp    $0x41a348,%rax
  404a1b:	74 13                	je     404a30 <deregister_tm_clones+0x20>
  404a1d:	b8 00 00 00 00       	mov    $0x0,%eax
  404a22:	48 85 c0             	test   %rax,%rax
  404a25:	74 09                	je     404a30 <deregister_tm_clones+0x20>
  404a27:	bf 48 a3 41 00       	mov    $0x41a348,%edi
  404a2c:	ff e0                	jmpq   *%rax
  404a2e:	66 90                	xchg   %ax,%ax
  404a30:	c3                   	retq   
  404a31:	66 66 2e 0f 1f 84 00 	data16 nopw %cs:0x0(%rax,%rax,1)
  404a38:	00 00 00 00 
  404a3c:	0f 1f 40 00          	nopl   0x0(%rax)

0000000000404a40 <register_tm_clones>:
register_tm_clones():
  404a40:	be 48 a3 41 00       	mov    $0x41a348,%esi
  404a45:	48 81 ee 48 a3 41 00 	sub    $0x41a348,%rsi
  404a4c:	48 89 f0             	mov    %rsi,%rax
  404a4f:	48 c1 ee 3f          	shr    $0x3f,%rsi
  404a53:	48 c1 f8 03          	sar    $0x3,%rax
  404a57:	48 01 c6             	add    %rax,%rsi
  404a5a:	48 d1 fe             	sar    %rsi
  404a5d:	74 11                	je     404a70 <register_tm_clones+0x30>
  404a5f:	b8 00 00 00 00       	mov    $0x0,%eax
  404a64:	48 85 c0             	test   %rax,%rax
  404a67:	74 07                	je     404a70 <register_tm_clones+0x30>
  404a69:	bf 48 a3 41 00       	mov    $0x41a348,%edi
  404a6e:	ff e0                	jmpq   *%rax
  404a70:	c3                   	retq   
  404a71:	66 66 2e 0f 1f 84 00 	data16 nopw %cs:0x0(%rax,%rax,1)
  404a78:	00 00 00 00 
  404a7c:	0f 1f 40 00          	nopl   0x0(%rax)

0000000000404a80 <__do_global_dtors_aux>:
__do_global_dtors_aux():
  404a80:	f3 0f 1e fa          	endbr64 
  404a84:	80 3d 5d 5a 01 00 00 	cmpb   $0x0,0x15a5d(%rip)        # 41a4e8 <completed.0>
  404a8b:	75 13                	jne    404aa0 <__do_global_dtors_aux+0x20>
  404a8d:	55                   	push   %rbp
  404a8e:	48 89 e5             	mov    %rsp,%rbp
  404a91:	e8 7a ff ff ff       	callq  404a10 <deregister_tm_clones>
  404a96:	c6 05 4b 5a 01 00 01 	movb   $0x1,0x15a4b(%rip)        # 41a4e8 <completed.0>
  404a9d:	5d                   	pop    %rbp
  404a9e:	c3                   	retq   
  404a9f:	90                   	nop
  404aa0:	c3                   	retq   
  404aa1:	66 66 2e 0f 1f 84 00 	data16 nopw %cs:0x0(%rax,%rax,1)
  404aa8:	00 00 00 00 
  404aac:	0f 1f 40 00          	nopl   0x0(%rax)

0000000000404ab0 <frame_dummy>:
frame_dummy():
  404ab0:	f3 0f 1e fa          	endbr64 
  404ab4:	eb 8a                	jmp    404a40 <register_tm_clones>
  404ab6:	66 2e 0f 1f 84 00 00 	nopw   %cs:0x0(%rax,%rax,1)
  404abd:	00 00 00 

0000000000404ac0 <_ZL13get_family_idi>:
_ZL13get_family_idi():
/home/aliha951/ipdps-artifact/gapbs-master/src/taskstats_helper.h:30
	struct genlmsghdr g;
	char buf[512];
};

/* Ask generic netlink for the family id of TASKSTATS */
static int get_family_id(int sd) {
  404ac0:	41 54                	push   %r12
/home/aliha951/ipdps-artifact/gapbs-master/src/taskstats_helper.h:32
	struct msgtemplate req = {0};
	struct msgtemplate ans = {0};
  404ac2:	b9 42 00 00 00       	mov    $0x42,%ecx
/home/aliha951/ipdps-artifact/gapbs-master/src/taskstats_helper.h:30
static int get_family_id(int sd) {
  404ac7:	55                   	push   %rbp
  404ac8:	89 fd                	mov    %edi,%ebp
  404aca:	48 81 ec 48 04 00 00 	sub    $0x448,%rsp
  404ad1:	64 48 8b 04 25 28 00 	mov    %fs:0x28,%rax
  404ad8:	00 00 
  404ada:	48 89 84 24 38 04 00 	mov    %rax,0x438(%rsp)
  404ae1:	00 
  404ae2:	31 c0                	xor    %eax,%eax
/home/aliha951/ipdps-artifact/gapbs-master/src/taskstats_helper.h:32
	struct msgtemplate ans = {0};
  404ae4:	4c 8d a4 24 20 02 00 	lea    0x220(%rsp),%r12
  404aeb:	00 
  404aec:	4c 89 e7             	mov    %r12,%rdi
  404aef:	f3 48 ab             	rep stos %rax,%es:(%rdi)
/home/aliha951/ipdps-artifact/gapbs-master/src/taskstats_helper.h:31
	struct msgtemplate req = {0};
  404af2:	b9 42 00 00 00       	mov    $0x42,%ecx
/home/aliha951/ipdps-artifact/gapbs-master/src/taskstats_helper.h:32
	struct msgtemplate ans = {0};
  404af7:	c7 07 00 00 00 00    	movl   $0x0,(%rdi)
/home/aliha951/ipdps-artifact/gapbs-master/src/taskstats_helper.h:31
	struct msgtemplate req = {0};
  404afd:	48 89 e7             	mov    %rsp,%rdi
  404b00:	f3 48 ab             	rep stos %rax,%es:(%rdi)
/home/aliha951/ipdps-artifact/gapbs-master/src/taskstats_helper.h:36
	struct nlattr *na;
	int rep_len;

	req.n.nlmsg_len = NLMSG_LENGTH(GENL_HDRLEN);
  404b03:	48 b8 14 00 00 00 10 	movabs $0x1001000000014,%rax
  404b0a:	00 01 00 
  404b0d:	48 89 04 24          	mov    %rax,(%rsp)
/home/aliha951/ipdps-artifact/gapbs-master/src/taskstats_helper.h:31
	struct msgtemplate req = {0};
  404b11:	c7 07 00 00 00 00    	movl   $0x0,(%rdi)
/home/aliha951/ipdps-artifact/gapbs-master/src/taskstats_helper.h:40
	req.n.nlmsg_type = GENL_ID_CTRL;
	req.n.nlmsg_flags = NLM_F_REQUEST;
	req.n.nlmsg_seq = 0;
	req.n.nlmsg_pid = getpid();
  404b17:	e8 a4 ef ff ff       	callq  403ac0 <getpid@plt>
/usr/include/x86_64-linux-gnu/bits/string_fortified.h:34

__fortify_function void *
__NTH (memcpy (void *__restrict __dest, const void *__restrict __src,
	       size_t __len))
{
  return __builtin___memcpy_chk (__dest, __src, __len, __bos0 (__dest));
  404b1c:	ba 53 00 00 00       	mov    $0x53,%edx
/home/aliha951/ipdps-artifact/gapbs-master/src/taskstats_helper.h:50
	na->nla_type = CTRL_ATTR_FAMILY_NAME;
	na->nla_len = NLA_HDRLEN + strlen(TASKSTATS_GENL_NAME) + 1;
	memcpy(NLA_DATA(na), TASKSTATS_GENL_NAME, strlen(TASKSTATS_GENL_NAME) + 1);
	req.n.nlmsg_len += NLMSG_ALIGN(na->nla_len);

	if (send(sd, &req, req.n.nlmsg_len, 0) < 0)
  404b21:	31 c9                	xor    %ecx,%ecx
memcpy():
/usr/include/x86_64-linux-gnu/bits/string_fortified.h:34
  404b23:	48 89 e6             	mov    %rsp,%rsi
_ZL13get_family_idi():
/home/aliha951/ipdps-artifact/gapbs-master/src/taskstats_helper.h:40
	req.n.nlmsg_pid = getpid();
  404b26:	89 44 24 0c          	mov    %eax,0xc(%rsp)
/home/aliha951/ipdps-artifact/gapbs-master/src/taskstats_helper.h:41
	req.g.cmd = CTRL_CMD_GETFAMILY;
  404b2a:	b8 03 01 00 00       	mov    $0x103,%eax
/home/aliha951/ipdps-artifact/gapbs-master/src/taskstats_helper.h:50
	if (send(sd, &req, req.n.nlmsg_len, 0) < 0)
  404b2f:	89 ef                	mov    %ebp,%edi
/home/aliha951/ipdps-artifact/gapbs-master/src/taskstats_helper.h:41
	req.g.cmd = CTRL_CMD_GETFAMILY;
  404b31:	66 89 44 24 10       	mov    %ax,0x10(%rsp)
memcpy():
/usr/include/x86_64-linux-gnu/bits/string_fortified.h:34
  404b36:	48 b8 54 41 53 4b 53 	movabs $0x544154534b534154,%rax
  404b3d:	54 41 54 
  404b40:	48 89 44 24 18       	mov    %rax,0x18(%rsp)
_ZL13get_family_idi():
/home/aliha951/ipdps-artifact/gapbs-master/src/taskstats_helper.h:48
	req.n.nlmsg_len += NLMSG_ALIGN(na->nla_len);
  404b45:	8b 04 24             	mov    (%rsp),%eax
memcpy():
/usr/include/x86_64-linux-gnu/bits/string_fortified.h:34
  404b48:	66 89 54 24 20       	mov    %dx,0x20(%rsp)
_ZL13get_family_idi():
/home/aliha951/ipdps-artifact/gapbs-master/src/taskstats_helper.h:48
  404b4d:	8d 50 10             	lea    0x10(%rax),%edx
/home/aliha951/ipdps-artifact/gapbs-master/src/taskstats_helper.h:46
	na->nla_len = NLA_HDRLEN + strlen(TASKSTATS_GENL_NAME) + 1;
  404b50:	c7 44 24 14 0e 00 02 	movl   $0x2000e,0x14(%rsp)
  404b57:	00 
/home/aliha951/ipdps-artifact/gapbs-master/src/taskstats_helper.h:48
	req.n.nlmsg_len += NLMSG_ALIGN(na->nla_len);
  404b58:	89 14 24             	mov    %edx,(%rsp)
/home/aliha951/ipdps-artifact/gapbs-master/src/taskstats_helper.h:50
	if (send(sd, &req, req.n.nlmsg_len, 0) < 0)
  404b5b:	e8 90 ec ff ff       	callq  4037f0 <send@plt>
  404b60:	48 85 c0             	test   %rax,%rax
  404b63:	78 6b                	js     404bd0 <_ZL13get_family_idi+0x110>
/usr/include/x86_64-linux-gnu/bits/socket2.h:44
	return __recv_chk (__fd, __buf, __n, __bos0 (__buf), __flags);

      if (__n > __bos0 (__buf))
	return __recv_chk_warn (__fd, __buf, __n, __bos0 (__buf), __flags);
    }
  return __recv_alias (__fd, __buf, __n, __flags);
  404b65:	31 c9                	xor    %ecx,%ecx
recv():
/usr/include/x86_64-linux-gnu/bits/socket2.h:44
  404b67:	ba 14 02 00 00       	mov    $0x214,%edx
  404b6c:	4c 89 e6             	mov    %r12,%rsi
  404b6f:	89 ef                	mov    %ebp,%edi
  404b71:	e8 1a ec ff ff       	callq  403790 <recv@plt>
_ZL13get_family_idi():
/home/aliha951/ipdps-artifact/gapbs-master/src/taskstats_helper.h:54
		return -1;

	rep_len = recv(sd, &ans, sizeof(ans), 0);
	if (rep_len < 0 || ans.n.nlmsg_type == NLMSG_ERROR)
  404b76:	85 c0                	test   %eax,%eax
  404b78:	78 56                	js     404bd0 <_ZL13get_family_idi+0x110>
/home/aliha951/ipdps-artifact/gapbs-master/src/taskstats_helper.h:54 (discriminator 1)
  404b7a:	66 83 bc 24 24 02 00 	cmpw   $0x2,0x224(%rsp)
  404b81:	00 02 
  404b83:	74 4b                	je     404bd0 <_ZL13get_family_idi+0x110>
/home/aliha951/ipdps-artifact/gapbs-master/src/taskstats_helper.h:59
		return -1;

	/* First attr is family name we sent, second should be ID */
	na = (struct nlattr *) GENLMSG_DATA(&ans.n);
	na = (struct nlattr *) ((char*)na + NLA_ALIGN(na->nla_len));
  404b85:	0f b7 84 24 34 02 00 	movzwl 0x234(%rsp),%eax
  404b8c:	00 
  404b8d:	83 c0 03             	add    $0x3,%eax
  404b90:	25 fc ff 01 00       	and    $0x1fffc,%eax
  404b95:	48 8d 84 04 34 02 00 	lea    0x234(%rsp,%rax,1),%rax
  404b9c:	00 
/home/aliha951/ipdps-artifact/gapbs-master/src/taskstats_helper.h:60
	if (na->nla_type == CTRL_ATTR_FAMILY_ID)
  404b9d:	66 83 78 02 01       	cmpw   $0x1,0x2(%rax)
  404ba2:	75 2c                	jne    404bd0 <_ZL13get_family_idi+0x110>
/home/aliha951/ipdps-artifact/gapbs-master/src/taskstats_helper.h:61
		return *(__u16 *) NLA_DATA(na);
  404ba4:	0f b7 40 04          	movzwl 0x4(%rax),%eax
/home/aliha951/ipdps-artifact/gapbs-master/src/taskstats_helper.h:63
	return -1;
}
  404ba8:	48 8b b4 24 38 04 00 	mov    0x438(%rsp),%rsi
  404baf:	00 
  404bb0:	64 48 2b 34 25 28 00 	sub    %fs:0x28,%rsi
  404bb7:	00 00 
  404bb9:	75 1c                	jne    404bd7 <_ZL13get_family_idi+0x117>
  404bbb:	48 81 c4 48 04 00 00 	add    $0x448,%rsp
  404bc2:	5d                   	pop    %rbp
  404bc3:	41 5c                	pop    %r12
  404bc5:	c3                   	retq   
  404bc6:	66 2e 0f 1f 84 00 00 	nopw   %cs:0x0(%rax,%rax,1)
  404bcd:	00 00 00 
/home/aliha951/ipdps-artifact/gapbs-master/src/taskstats_helper.h:51
		return -1;
  404bd0:	b8 ff ff ff ff       	mov    $0xffffffff,%eax
  404bd5:	eb d1                	jmp    404ba8 <_ZL13get_family_idi+0xe8>
/home/aliha951/ipdps-artifact/gapbs-master/src/taskstats_helper.h:63
}
  404bd7:	e8 84 ed ff ff       	callq  403960 <__stack_chk_fail@plt>
  404bdc:	0f 1f 40 00          	nopl   0x0(%rax)

0000000000404be0 <_ZL21request_taskstats_pidiiiP9taskstatsPm>:
_ZL21request_taskstats_pidiiiP9taskstatsPm():
/home/aliha951/ipdps-artifact/gapbs-master/src/taskstats_helper.h:80
		return -1;
	}
	return sd;
}

static int request_taskstats_pid(int sd, int family_id, pid_t pid, struct taskstats *out_ts, size_t *out_len) {
  404be0:	41 57                	push   %r15
  404be2:	41 89 d7             	mov    %edx,%r15d
  404be5:	41 56                	push   %r14
  404be7:	41 55                	push   %r13
  404be9:	41 89 fd             	mov    %edi,%r13d
  404bec:	41 54                	push   %r12
  404bee:	49 89 cc             	mov    %rcx,%r12
/home/aliha951/ipdps-artifact/gapbs-master/src/taskstats_helper.h:81
	struct msgtemplate req = {0};
  404bf1:	b9 42 00 00 00       	mov    $0x42,%ecx
/home/aliha951/ipdps-artifact/gapbs-master/src/taskstats_helper.h:80
static int request_taskstats_pid(int sd, int family_id, pid_t pid, struct taskstats *out_ts, size_t *out_len) {
  404bf6:	55                   	push   %rbp
/usr/include/x86_64-linux-gnu/bits/string_fortified.h:71
    {
      __warn_memset_zero_len ();
      return __dest;
    }
#endif
  return __builtin___memset_chk (__dest, __ch, __len, __bos0 (__dest));
  404bf7:	49 8d 6c 24 08       	lea    0x8(%r12),%rbp
/home/aliha951/ipdps-artifact/gapbs-master/src/taskstats_helper.h:80
  404bfc:	53                   	push   %rbx
  404bfd:	4c 89 c3             	mov    %r8,%rbx
  404c00:	48 81 ec 48 04 00 00 	sub    $0x448,%rsp
  404c07:	64 48 8b 04 25 28 00 	mov    %fs:0x28,%rax
  404c0e:	00 00 
  404c10:	48 89 84 24 38 04 00 	mov    %rax,0x438(%rsp)
  404c17:	00 
  404c18:	31 c0                	xor    %eax,%eax
/home/aliha951/ipdps-artifact/gapbs-master/src/taskstats_helper.h:81
	struct msgtemplate req = {0};
  404c1a:	48 89 e7             	mov    %rsp,%rdi
/home/aliha951/ipdps-artifact/gapbs-master/src/taskstats_helper.h:85
	struct msgtemplate rep = {0};
	struct nlattr *na;

	*out_len = 0;
  404c1d:	49 c7 00 00 00 00 00 	movq   $0x0,(%r8)
/home/aliha951/ipdps-artifact/gapbs-master/src/taskstats_helper.h:82
	struct msgtemplate rep = {0};
  404c24:	4c 8d b4 24 20 02 00 	lea    0x220(%rsp),%r14
  404c2b:	00 
/home/aliha951/ipdps-artifact/gapbs-master/src/taskstats_helper.h:81
	struct msgtemplate req = {0};
  404c2c:	f3 48 ab             	rep stos %rax,%es:(%rdi)
/home/aliha951/ipdps-artifact/gapbs-master/src/taskstats_helper.h:82
	struct msgtemplate rep = {0};
  404c2f:	b9 42 00 00 00       	mov    $0x42,%ecx
/home/aliha951/ipdps-artifact/gapbs-master/src/taskstats_helper.h:81
	struct msgtemplate req = {0};
  404c34:	c7 07 00 00 00 00    	movl   $0x0,(%rdi)
/home/aliha951/ipdps-artifact/gapbs-master/src/taskstats_helper.h:82
	struct msgtemplate rep = {0};
  404c3a:	4c 89 f7             	mov    %r14,%rdi
  404c3d:	f3 48 ab             	rep stos %rax,%es:(%rdi)
memset():
/usr/include/x86_64-linux-gnu/bits/string_fortified.h:71
  404c40:	4c 89 e1             	mov    %r12,%rcx
_ZL21request_taskstats_pidiiiP9taskstatsPm():
/home/aliha951/ipdps-artifact/gapbs-master/src/taskstats_helper.h:82
  404c43:	c7 07 00 00 00 00    	movl   $0x0,(%rdi)
memset():
/usr/include/x86_64-linux-gnu/bits/string_fortified.h:71
  404c49:	48 89 ef             	mov    %rbp,%rdi
  404c4c:	48 83 e7 f8          	and    $0xfffffffffffffff8,%rdi
  404c50:	49 c7 04 24 00 00 00 	movq   $0x0,(%r12)
  404c57:	00 
  404c58:	49 c7 84 24 a8 01 00 	movq   $0x0,0x1a8(%r12)
  404c5f:	00 00 00 00 00 
  404c64:	48 29 f9             	sub    %rdi,%rcx
  404c67:	81 c1 b0 01 00 00    	add    $0x1b0,%ecx
  404c6d:	c1 e9 03             	shr    $0x3,%ecx
  404c70:	f3 48 ab             	rep stos %rax,%es:(%rdi)
_ZL21request_taskstats_pidiiiP9taskstatsPm():
/home/aliha951/ipdps-artifact/gapbs-master/src/taskstats_helper.h:90
	memset(out_ts, 0, sizeof(*out_ts));

	req.n.nlmsg_len = NLMSG_LENGTH(GENL_HDRLEN);
	req.n.nlmsg_type = family_id;
	req.n.nlmsg_flags = NLM_F_REQUEST;
  404c73:	b8 01 00 00 00       	mov    $0x1,%eax
/home/aliha951/ipdps-artifact/gapbs-master/src/taskstats_helper.h:89
	req.n.nlmsg_type = family_id;
  404c78:	66 89 74 24 04       	mov    %si,0x4(%rsp)
/home/aliha951/ipdps-artifact/gapbs-master/src/taskstats_helper.h:88
	req.n.nlmsg_len = NLMSG_LENGTH(GENL_HDRLEN);
  404c7d:	c7 04 24 14 00 00 00 	movl   $0x14,(%rsp)
/home/aliha951/ipdps-artifact/gapbs-master/src/taskstats_helper.h:90
	req.n.nlmsg_flags = NLM_F_REQUEST;
  404c84:	66 89 44 24 06       	mov    %ax,0x6(%rsp)
/home/aliha951/ipdps-artifact/gapbs-master/src/taskstats_helper.h:91
	req.n.nlmsg_seq = 1;
  404c89:	c7 44 24 08 01 00 00 	movl   $0x1,0x8(%rsp)
  404c90:	00 
/home/aliha951/ipdps-artifact/gapbs-master/src/taskstats_helper.h:92
	req.n.nlmsg_pid = getpid();
  404c91:	e8 2a ee ff ff       	callq  403ac0 <getpid@plt>
/home/aliha951/ipdps-artifact/gapbs-master/src/taskstats_helper.h:93
	req.g.cmd = TASKSTATS_CMD_GET;
  404c96:	ba 01 0e 00 00       	mov    $0xe01,%edx
/home/aliha951/ipdps-artifact/gapbs-master/src/taskstats_helper.h:103
  na->nla_type = TASKSTATS_CMD_ATTR_TGID; // Use TGID to get stats for thread group (process) instead of single thread
	na->nla_len = NLA_HDRLEN + sizeof(pid);
	memcpy(NLA_DATA(na), &pid, sizeof(pid));
	req.n.nlmsg_len += NLMSG_ALIGN(na->nla_len);

	if (send(sd, &req, req.n.nlmsg_len, 0) < 0)
  404c9b:	31 c9                	xor    %ecx,%ecx
  404c9d:	48 89 e6             	mov    %rsp,%rsi
/home/aliha951/ipdps-artifact/gapbs-master/src/taskstats_helper.h:92
	req.n.nlmsg_pid = getpid();
  404ca0:	89 44 24 0c          	mov    %eax,0xc(%rsp)
/home/aliha951/ipdps-artifact/gapbs-master/src/taskstats_helper.h:101
	req.n.nlmsg_len += NLMSG_ALIGN(na->nla_len);
  404ca4:	8b 04 24             	mov    (%rsp),%eax
/home/aliha951/ipdps-artifact/gapbs-master/src/taskstats_helper.h:103
	if (send(sd, &req, req.n.nlmsg_len, 0) < 0)
  404ca7:	44 89 ef             	mov    %r13d,%edi
/home/aliha951/ipdps-artifact/gapbs-master/src/taskstats_helper.h:93
	req.g.cmd = TASKSTATS_CMD_GET;
  404caa:	66 89 54 24 10       	mov    %dx,0x10(%rsp)
/home/aliha951/ipdps-artifact/gapbs-master/src/taskstats_helper.h:101
	req.n.nlmsg_len += NLMSG_ALIGN(na->nla_len);
  404caf:	8d 50 08             	lea    0x8(%rax),%edx
/home/aliha951/ipdps-artifact/gapbs-master/src/taskstats_helper.h:99
	na->nla_len = NLA_HDRLEN + sizeof(pid);
  404cb2:	c7 44 24 14 08 00 02 	movl   $0x20008,0x14(%rsp)
  404cb9:	00 
/usr/include/x86_64-linux-gnu/bits/string_fortified.h:34
  return __builtin___memcpy_chk (__dest, __src, __len, __bos0 (__dest));
  404cba:	44 89 7c 24 18       	mov    %r15d,0x18(%rsp)
/home/aliha951/ipdps-artifact/gapbs-master/src/taskstats_helper.h:101
	req.n.nlmsg_len += NLMSG_ALIGN(na->nla_len);
  404cbf:	89 14 24             	mov    %edx,(%rsp)
/home/aliha951/ipdps-artifact/gapbs-master/src/taskstats_helper.h:103
	if (send(sd, &req, req.n.nlmsg_len, 0) < 0)
  404cc2:	e8 29 eb ff ff       	callq  4037f0 <send@plt>
  404cc7:	48 85 c0             	test   %rax,%rax
  404cca:	0f 88 18 01 00 00    	js     404de8 <_ZL21request_taskstats_pidiiiP9taskstatsPm+0x208>
/usr/include/x86_64-linux-gnu/bits/socket2.h:44
  404cd0:	31 c9                	xor    %ecx,%ecx
recv():
/usr/include/x86_64-linux-gnu/bits/socket2.h:44
  404cd2:	ba 14 02 00 00       	mov    $0x214,%edx
  404cd7:	4c 89 f6             	mov    %r14,%rsi
  404cda:	44 89 ef             	mov    %r13d,%edi
  404cdd:	e8 ae ea ff ff       	callq  403790 <recv@plt>
_ZL21request_taskstats_pidiiiP9taskstatsPm():
/home/aliha951/ipdps-artifact/gapbs-master/src/taskstats_helper.h:105
		return -1;
	if (recv(sd, &rep, sizeof(rep), 0) < 0)
  404ce2:	48 85 c0             	test   %rax,%rax
  404ce5:	0f 88 fd 00 00 00    	js     404de8 <_ZL21request_taskstats_pidiiiP9taskstatsPm+0x208>
/home/aliha951/ipdps-artifact/gapbs-master/src/taskstats_helper.h:109
		return -1;

	na = (struct nlattr *) GENLMSG_DATA(&rep.n);
	int rem = rep.n.nlmsg_len - NLMSG_LENGTH(GENL_HDRLEN);
  404ceb:	8b 84 24 20 02 00 00 	mov    0x220(%rsp),%eax
  404cf2:	8d 70 ec             	lea    -0x14(%rax),%esi
/home/aliha951/ipdps-artifact/gapbs-master/src/taskstats_helper.h:110
	while (rem > 0 && na->nla_len >= NLA_HDRLEN && rem >= na->nla_len) {
  404cf5:	85 f6                	test   %esi,%esi
  404cf7:	0f 8e eb 00 00 00    	jle    404de8 <_ZL21request_taskstats_pidiiiP9taskstatsPm+0x208>
/home/aliha951/ipdps-artifact/gapbs-master/src/taskstats_helper.h:108
	na = (struct nlattr *) GENLMSG_DATA(&rep.n);
  404cfd:	48 8d 8c 24 34 02 00 	lea    0x234(%rsp),%rcx
  404d04:	00 
  404d05:	eb 29                	jmp    404d30 <_ZL21request_taskstats_pidiiiP9taskstatsPm+0x150>
  404d07:	66 0f 1f 84 00 00 00 	nopw   0x0(%rax,%rax,1)
  404d0e:	00 00 
/home/aliha951/ipdps-artifact/gapbs-master/src/taskstats_helper.h:126
				}
				int step2 = NLA_ALIGN(n2->nla_len);
				aggr_len -= step2;
				n2 = (struct nlattr *) ((char*)n2 + step2);
			}
		} else if (na->nla_type == TASKSTATS_TYPE_STATS) {
  404d10:	66 83 f8 03          	cmp    $0x3,%ax
  404d14:	0f 84 26 01 00 00    	je     404e40 <_ZL21request_taskstats_pidiiiP9taskstatsPm+0x260>
/home/aliha951/ipdps-artifact/gapbs-master/src/taskstats_helper.h:133
			if (payload > sizeof(*out_ts)) payload = sizeof(*out_ts);
			memcpy(out_ts, NLA_DATA(na), payload);
			*out_len = payload;
			return 0;
		}
		int step = NLA_ALIGN(na->nla_len);
  404d1a:	83 c2 03             	add    $0x3,%edx
  404d1d:	83 e2 fc             	and    $0xfffffffc,%edx
/home/aliha951/ipdps-artifact/gapbs-master/src/taskstats_helper.h:134
		rem -= step;
  404d20:	29 d6                	sub    %edx,%esi
/home/aliha951/ipdps-artifact/gapbs-master/src/taskstats_helper.h:135
		na = (struct nlattr *) ((char*)na + step);
  404d22:	48 63 d2             	movslq %edx,%rdx
  404d25:	48 01 d1             	add    %rdx,%rcx
/home/aliha951/ipdps-artifact/gapbs-master/src/taskstats_helper.h:110
	while (rem > 0 && na->nla_len >= NLA_HDRLEN && rem >= na->nla_len) {
  404d28:	85 f6                	test   %esi,%esi
  404d2a:	0f 8e b8 00 00 00    	jle    404de8 <_ZL21request_taskstats_pidiiiP9taskstatsPm+0x208>
/home/aliha951/ipdps-artifact/gapbs-master/src/taskstats_helper.h:110 (discriminator 1)
  404d30:	0f b7 11             	movzwl (%rcx),%edx
  404d33:	66 83 fa 03          	cmp    $0x3,%dx
  404d37:	0f 86 ab 00 00 00    	jbe    404de8 <_ZL21request_taskstats_pidiiiP9taskstatsPm+0x208>
/home/aliha951/ipdps-artifact/gapbs-master/src/taskstats_helper.h:110 (discriminator 2)
  404d3d:	39 f2                	cmp    %esi,%edx
  404d3f:	0f 8f a3 00 00 00    	jg     404de8 <_ZL21request_taskstats_pidiiiP9taskstatsPm+0x208>
/home/aliha951/ipdps-artifact/gapbs-master/src/taskstats_helper.h:111
		if (na->nla_type == TASKSTATS_TYPE_AGGR_PID || na->nla_type == TASKSTATS_TYPE_AGGR_TGID) {
  404d45:	0f b7 41 02          	movzwl 0x2(%rcx),%eax
  404d49:	8d 78 fc             	lea    -0x4(%rax),%edi
  404d4c:	66 83 ff 01          	cmp    $0x1,%di
  404d50:	77 be                	ja     404d10 <_ZL21request_taskstats_pidiiiP9taskstatsPm+0x130>
/home/aliha951/ipdps-artifact/gapbs-master/src/taskstats_helper.h:114
			while (aggr_len > 0 && n2->nla_len >= NLA_HDRLEN && aggr_len >= n2->nla_len) {
  404d52:	41 89 d0             	mov    %edx,%r8d
/home/aliha951/ipdps-artifact/gapbs-master/src/taskstats_helper.h:113
			struct nlattr *n2 = (struct nlattr *) NLA_DATA(na);
  404d55:	48 8d 79 04          	lea    0x4(%rcx),%rdi
/home/aliha951/ipdps-artifact/gapbs-master/src/taskstats_helper.h:114
			while (aggr_len > 0 && n2->nla_len >= NLA_HDRLEN && aggr_len >= n2->nla_len) {
  404d59:	41 83 e8 04          	sub    $0x4,%r8d
  404d5d:	75 1c                	jne    404d7b <_ZL21request_taskstats_pidiiiP9taskstatsPm+0x19b>
  404d5f:	eb b9                	jmp    404d1a <_ZL21request_taskstats_pidiiiP9taskstatsPm+0x13a>
  404d61:	0f 1f 80 00 00 00 00 	nopl   0x0(%rax)
/home/aliha951/ipdps-artifact/gapbs-master/src/taskstats_helper.h:122
				int step2 = NLA_ALIGN(n2->nla_len);
  404d68:	83 c0 03             	add    $0x3,%eax
  404d6b:	83 e0 fc             	and    $0xfffffffc,%eax
/home/aliha951/ipdps-artifact/gapbs-master/src/taskstats_helper.h:123
				aggr_len -= step2;
  404d6e:	41 29 c0             	sub    %eax,%r8d
/home/aliha951/ipdps-artifact/gapbs-master/src/taskstats_helper.h:124
				n2 = (struct nlattr *) ((char*)n2 + step2);
  404d71:	48 98                	cltq   
  404d73:	48 01 c7             	add    %rax,%rdi
/home/aliha951/ipdps-artifact/gapbs-master/src/taskstats_helper.h:114
			while (aggr_len > 0 && n2->nla_len >= NLA_HDRLEN && aggr_len >= n2->nla_len) {
  404d76:	45 85 c0             	test   %r8d,%r8d
  404d79:	7e 9f                	jle    404d1a <_ZL21request_taskstats_pidiiiP9taskstatsPm+0x13a>
/home/aliha951/ipdps-artifact/gapbs-master/src/taskstats_helper.h:114 (discriminator 1)
  404d7b:	0f b7 07             	movzwl (%rdi),%eax
  404d7e:	66 83 f8 03          	cmp    $0x3,%ax
  404d82:	76 96                	jbe    404d1a <_ZL21request_taskstats_pidiiiP9taskstatsPm+0x13a>
/home/aliha951/ipdps-artifact/gapbs-master/src/taskstats_helper.h:114 (discriminator 2)
  404d84:	44 39 c0             	cmp    %r8d,%eax
  404d87:	7f 91                	jg     404d1a <_ZL21request_taskstats_pidiiiP9taskstatsPm+0x13a>
/home/aliha951/ipdps-artifact/gapbs-master/src/taskstats_helper.h:115
				if (n2->nla_type == TASKSTATS_TYPE_STATS) {
  404d89:	66 83 7f 02 03       	cmpw   $0x3,0x2(%rdi)
  404d8e:	75 d8                	jne    404d68 <_ZL21request_taskstats_pidiiiP9taskstatsPm+0x188>
/home/aliha951/ipdps-artifact/gapbs-master/src/taskstats_helper.h:116
					size_t payload = n2->nla_len - NLA_HDRLEN;
  404d90:	83 e8 04             	sub    $0x4,%eax
  404d93:	ba b0 01 00 00       	mov    $0x1b0,%edx
/home/aliha951/ipdps-artifact/gapbs-master/src/taskstats_helper.h:118
					memcpy(out_ts, NLA_DATA(n2), payload);
  404d98:	48 8d 77 04          	lea    0x4(%rdi),%rsi
/home/aliha951/ipdps-artifact/gapbs-master/src/taskstats_helper.h:116
					size_t payload = n2->nla_len - NLA_HDRLEN;
  404d9c:	48 98                	cltq   
/home/aliha951/ipdps-artifact/gapbs-master/src/taskstats_helper.h:117
					if (payload > sizeof(*out_ts)) payload = sizeof(*out_ts);
  404d9e:	48 3d b0 01 00 00    	cmp    $0x1b0,%rax
  404da4:	48 0f 47 c2          	cmova  %rdx,%rax
/usr/include/x86_64-linux-gnu/bits/string_fortified.h:34
  404da8:	83 f8 08             	cmp    $0x8,%eax
memcpy():
/usr/include/x86_64-linux-gnu/bits/string_fortified.h:34
  404dab:	72 6b                	jb     404e18 <_ZL21request_taskstats_pidiiiP9taskstatsPm+0x238>
  404dad:	48 8b 57 04          	mov    0x4(%rdi),%rdx
_ZL21request_taskstats_pidiiiP9taskstatsPm():
/usr/include/x86_64-linux-gnu/bits/string_fortified.h:34
  404db1:	49 89 14 24          	mov    %rdx,(%r12)
memcpy():
/usr/include/x86_64-linux-gnu/bits/string_fortified.h:34
  404db5:	89 c2                	mov    %eax,%edx
  404db7:	48 89 ef             	mov    %rbp,%rdi
  404dba:	48 8b 4c 16 f8       	mov    -0x8(%rsi,%rdx,1),%rcx
  404dbf:	48 83 e7 f8          	and    $0xfffffffffffffff8,%rdi
  404dc3:	49 89 4c 14 f8       	mov    %rcx,-0x8(%r12,%rdx,1)
  404dc8:	49 29 fc             	sub    %rdi,%r12
  404dcb:	4c 29 e6             	sub    %r12,%rsi
  404dce:	41 01 c4             	add    %eax,%r12d
  404dd1:	41 c1 ec 03          	shr    $0x3,%r12d
  404dd5:	44 89 e1             	mov    %r12d,%ecx
  404dd8:	f3 48 a5             	rep movsq %ds:(%rsi),%es:(%rdi)
_ZL21request_taskstats_pidiiiP9taskstatsPm():
/home/aliha951/ipdps-artifact/gapbs-master/src/taskstats_helper.h:130
			*out_len = payload;
  404ddb:	48 89 03             	mov    %rax,(%rbx)
/home/aliha951/ipdps-artifact/gapbs-master/src/taskstats_helper.h:131
			return 0;
  404dde:	31 c0                	xor    %eax,%eax
  404de0:	eb 0b                	jmp    404ded <_ZL21request_taskstats_pidiiiP9taskstatsPm+0x20d>
  404de2:	66 0f 1f 44 00 00    	nopw   0x0(%rax,%rax,1)
/home/aliha951/ipdps-artifact/gapbs-master/src/taskstats_helper.h:104
		return -1;
  404de8:	b8 ff ff ff ff       	mov    $0xffffffff,%eax
/home/aliha951/ipdps-artifact/gapbs-master/src/taskstats_helper.h:138
	}
	return -1; /* Not found */
}
  404ded:	48 8b 9c 24 38 04 00 	mov    0x438(%rsp),%rbx
  404df4:	00 
  404df5:	64 48 2b 1c 25 28 00 	sub    %fs:0x28,%rbx
  404dfc:	00 00 
  404dfe:	75 7c                	jne    404e7c <_ZL21request_taskstats_pidiiiP9taskstatsPm+0x29c>
  404e00:	48 81 c4 48 04 00 00 	add    $0x448,%rsp
  404e07:	5b                   	pop    %rbx
  404e08:	5d                   	pop    %rbp
  404e09:	41 5c                	pop    %r12
  404e0b:	41 5d                	pop    %r13
  404e0d:	41 5e                	pop    %r14
  404e0f:	41 5f                	pop    %r15
  404e11:	c3                   	retq   
  404e12:	66 0f 1f 44 00 00    	nopw   0x0(%rax,%rax,1)
memcpy():
/usr/include/x86_64-linux-gnu/bits/string_fortified.h:34
  404e18:	a8 04                	test   $0x4,%al
  404e1a:	75 4a                	jne    404e66 <_ZL21request_taskstats_pidiiiP9taskstatsPm+0x286>
  404e1c:	85 c0                	test   %eax,%eax
  404e1e:	74 bb                	je     404ddb <_ZL21request_taskstats_pidiiiP9taskstatsPm+0x1fb>
  404e20:	0f b6 16             	movzbl (%rsi),%edx
  404e23:	41 88 14 24          	mov    %dl,(%r12)
  404e27:	a8 02                	test   $0x2,%al
  404e29:	74 b0                	je     404ddb <_ZL21request_taskstats_pidiiiP9taskstatsPm+0x1fb>
  404e2b:	89 c2                	mov    %eax,%edx
  404e2d:	0f b7 4c 16 fe       	movzwl -0x2(%rsi,%rdx,1),%ecx
  404e32:	66 41 89 4c 14 fe    	mov    %cx,-0x2(%r12,%rdx,1)
  404e38:	eb a1                	jmp    404ddb <_ZL21request_taskstats_pidiiiP9taskstatsPm+0x1fb>
  404e3a:	66 0f 1f 44 00 00    	nopw   0x0(%rax,%rax,1)
_ZL21request_taskstats_pidiiiP9taskstatsPm():
/home/aliha951/ipdps-artifact/gapbs-master/src/taskstats_helper.h:127
			size_t payload = na->nla_len - NLA_HDRLEN;
  404e40:	8d 42 fc             	lea    -0x4(%rdx),%eax
  404e43:	ba b0 01 00 00       	mov    $0x1b0,%edx
/home/aliha951/ipdps-artifact/gapbs-master/src/taskstats_helper.h:129
			memcpy(out_ts, NLA_DATA(na), payload);
  404e48:	48 8d 71 04          	lea    0x4(%rcx),%rsi
/home/aliha951/ipdps-artifact/gapbs-master/src/taskstats_helper.h:127
			size_t payload = na->nla_len - NLA_HDRLEN;
  404e4c:	48 98                	cltq   
/home/aliha951/ipdps-artifact/gapbs-master/src/taskstats_helper.h:128
			if (payload > sizeof(*out_ts)) payload = sizeof(*out_ts);
  404e4e:	48 3d b0 01 00 00    	cmp    $0x1b0,%rax
  404e54:	48 0f 47 c2          	cmova  %rdx,%rax
memcpy():
/usr/include/x86_64-linux-gnu/bits/string_fortified.h:34
  404e58:	83 f8 08             	cmp    $0x8,%eax
  404e5b:	72 bb                	jb     404e18 <_ZL21request_taskstats_pidiiiP9taskstatsPm+0x238>
  404e5d:	48 8b 51 04          	mov    0x4(%rcx),%rdx
  404e61:	e9 4b ff ff ff       	jmpq   404db1 <_ZL21request_taskstats_pidiiiP9taskstatsPm+0x1d1>
  404e66:	8b 16                	mov    (%rsi),%edx
  404e68:	41 89 14 24          	mov    %edx,(%r12)
  404e6c:	89 c2                	mov    %eax,%edx
  404e6e:	8b 4c 16 fc          	mov    -0x4(%rsi,%rdx,1),%ecx
  404e72:	41 89 4c 14 fc       	mov    %ecx,-0x4(%r12,%rdx,1)
  404e77:	e9 5f ff ff ff       	jmpq   404ddb <_ZL21request_taskstats_pidiiiP9taskstatsPm+0x1fb>
_ZL21request_taskstats_pidiiiP9taskstatsPm():
/home/aliha951/ipdps-artifact/gapbs-master/src/taskstats_helper.h:138
}
  404e7c:	e8 df ea ff ff       	callq  403960 <__stack_chk_fail@plt>
  404e81:	66 66 2e 0f 1f 84 00 	data16 nopw %cs:0x0(%rax,%rax,1)
  404e88:	00 00 00 00 
  404e8c:	0f 1f 40 00          	nopl   0x0(%rax)

0000000000404e90 <_ZN7pvectorIiE4fillEi._omp_fn.0>:
_ZN7pvectorIiE4fillEi._omp_fn.0():
/home/aliha951/ipdps-artifact/gapbs-master/src/pvector.h:133
    *end_size_ = val;
    end_size_++;
  }

  void fill(T_ init_val) {
    #pragma omp parallel for
  404e90:	f3 0f 1e fa          	endbr64 
  404e94:	41 55                	push   %r13
  404e96:	41 54                	push   %r12
  404e98:	55                   	push   %rbp
  404e99:	53                   	push   %rbx
  404e9a:	48 83 ec 08          	sub    $0x8,%rsp
  404e9e:	48 8b 07             	mov    (%rdi),%rax
/home/aliha951/ipdps-artifact/gapbs-master/src/pvector.h:134
    for (T_* ptr=start_; ptr < end_size_; ptr++)
  404ea1:	48 8b 28             	mov    (%rax),%rbp
  404ea4:	4c 8b 68 08          	mov    0x8(%rax),%r13
  404ea8:	4c 39 ed             	cmp    %r13,%rbp
  404eab:	0f 83 dd 00 00 00    	jae    404f8e <_ZN7pvectorIiE4fillEi._omp_fn.0+0xfe>
  404eb1:	49 89 fc             	mov    %rdi,%r12
  404eb4:	e8 f7 eb ff ff       	callq  403ab0 <omp_get_num_threads@plt>
  404eb9:	48 63 d8             	movslq %eax,%rbx
  404ebc:	e8 cf ea ff ff       	callq  403990 <omp_get_thread_num@plt>
  404ec1:	48 63 c8             	movslq %eax,%rcx
  404ec4:	49 8d 45 03          	lea    0x3(%r13),%rax
  404ec8:	48 29 e8             	sub    %rbp,%rax
  404ecb:	48 89 c2             	mov    %rax,%rdx
  404ece:	48 8d 40 03          	lea    0x3(%rax),%rax
  404ed2:	48 0f 49 c2          	cmovns %rdx,%rax
  404ed6:	48 c1 f8 02          	sar    $0x2,%rax
  404eda:	48 99                	cqto   
  404edc:	48 f7 fb             	idiv   %rbx
  404edf:	48 39 d1             	cmp    %rdx,%rcx
  404ee2:	0f 8c b8 00 00 00    	jl     404fa0 <_ZN7pvectorIiE4fillEi._omp_fn.0+0x110>
  404ee8:	48 0f af c8          	imul   %rax,%rcx
  404eec:	48 01 ca             	add    %rcx,%rdx
  404eef:	48 01 d0             	add    %rdx,%rax
  404ef2:	48 39 c2             	cmp    %rax,%rdx
  404ef5:	0f 8d 93 00 00 00    	jge    404f8e <_ZN7pvectorIiE4fillEi._omp_fn.0+0xfe>
  404efb:	48 c1 e2 02          	shl    $0x2,%rdx
  404eff:	48 c1 e0 02          	shl    $0x2,%rax
/home/aliha951/ipdps-artifact/gapbs-master/src/pvector.h:133
    #pragma omp parallel for
  404f03:	41 8b 7c 24 08       	mov    0x8(%r12),%edi
  404f08:	48 8d 74 15 00       	lea    0x0(%rbp,%rdx,1),%rsi
  404f0d:	48 01 c5             	add    %rax,%rbp
  404f10:	48 29 d0             	sub    %rdx,%rax
  404f13:	48 83 e8 01          	sub    $0x1,%rax
  404f17:	4c 8d 46 01          	lea    0x1(%rsi),%r8
  404f1b:	48 89 f1             	mov    %rsi,%rcx
  404f1e:	48 89 c2             	mov    %rax,%rdx
  404f21:	48 c1 ea 02          	shr    $0x2,%rdx
  404f25:	48 83 c2 01          	add    $0x1,%rdx
  404f29:	4c 39 c5             	cmp    %r8,%rbp
  404f2c:	41 b8 01 00 00 00    	mov    $0x1,%r8d
  404f32:	49 0f 42 d0          	cmovb  %r8,%rdx
  404f36:	72 3c                	jb     404f74 <_ZN7pvectorIiE4fillEi._omp_fn.0+0xe4>
  404f38:	48 83 f8 0b          	cmp    $0xb,%rax
  404f3c:	76 36                	jbe    404f74 <_ZN7pvectorIiE4fillEi._omp_fn.0+0xe4>
  404f3e:	48 89 d0             	mov    %rdx,%rax
  404f41:	66 0f 6e cf          	movd   %edi,%xmm1
  404f45:	48 c1 e8 02          	shr    $0x2,%rax
  404f49:	66 0f 70 c1 00       	pshufd $0x0,%xmm1,%xmm0
  404f4e:	48 c1 e0 04          	shl    $0x4,%rax
  404f52:	48 01 f0             	add    %rsi,%rax
  404f55:	0f 1f 00             	nopl   (%rax)
/home/aliha951/ipdps-artifact/gapbs-master/src/pvector.h:135 (discriminator 1)
      *ptr = init_val;
  404f58:	0f 11 01             	movups %xmm0,(%rcx)
  404f5b:	48 83 c1 10          	add    $0x10,%rcx
  404f5f:	48 39 c1             	cmp    %rax,%rcx
  404f62:	75 f4                	jne    404f58 <_ZN7pvectorIiE4fillEi._omp_fn.0+0xc8>
  404f64:	48 89 d0             	mov    %rdx,%rax
  404f67:	48 83 e0 fc          	and    $0xfffffffffffffffc,%rax
  404f6b:	48 8d 34 86          	lea    (%rsi,%rax,4),%rsi
  404f6f:	48 39 c2             	cmp    %rax,%rdx
  404f72:	74 1a                	je     404f8e <_ZN7pvectorIiE4fillEi._omp_fn.0+0xfe>
  404f74:	48 8d 46 04          	lea    0x4(%rsi),%rax
/home/aliha951/ipdps-artifact/gapbs-master/src/pvector.h:135
  404f78:	89 3e                	mov    %edi,(%rsi)
  404f7a:	48 39 c5             	cmp    %rax,%rbp
  404f7d:	76 0f                	jbe    404f8e <_ZN7pvectorIiE4fillEi._omp_fn.0+0xfe>
  404f7f:	48 8d 46 08          	lea    0x8(%rsi),%rax
  404f83:	89 7e 04             	mov    %edi,0x4(%rsi)
  404f86:	48 39 c5             	cmp    %rax,%rbp
  404f89:	76 03                	jbe    404f8e <_ZN7pvectorIiE4fillEi._omp_fn.0+0xfe>
  404f8b:	89 7e 08             	mov    %edi,0x8(%rsi)
/home/aliha951/ipdps-artifact/gapbs-master/src/pvector.h:133
    #pragma omp parallel for
  404f8e:	48 83 c4 08          	add    $0x8,%rsp
  404f92:	5b                   	pop    %rbx
  404f93:	5d                   	pop    %rbp
  404f94:	41 5c                	pop    %r12
  404f96:	41 5d                	pop    %r13
  404f98:	c3                   	retq   
  404f99:	0f 1f 80 00 00 00 00 	nopl   0x0(%rax)
  404fa0:	48 83 c0 01          	add    $0x1,%rax
/home/aliha951/ipdps-artifact/gapbs-master/src/pvector.h:134
    for (T_* ptr=start_; ptr < end_size_; ptr++)
  404fa4:	31 d2                	xor    %edx,%edx
  404fa6:	e9 3d ff ff ff       	jmpq   404ee8 <_ZN7pvectorIiE4fillEi._omp_fn.0+0x58>
  404fab:	0f 1f 44 00 00       	nopl   0x0(%rax,%rax,1)

0000000000404fb0 <_Z7BrandesRK8CSRGraphIiiLb1EER12SourcePickerIS0_Eib._omp_fn.0>:
_Z7BrandesRK8CSRGraphIiiLb1EER12SourcePickerIS0_Eib._omp_fn.0():
/home/aliha951/ipdps-artifact/gapbs-master/src/bc.cc:124
      #pragma omp parallel for schedule(dynamic, 64)
  404fb0:	f3 0f 1e fa          	endbr64 
  404fb4:	41 57                	push   %r15
  404fb6:	b9 04 00 00 00       	mov    $0x4,%ecx
  404fbb:	41 b8 40 00 00 00    	mov    $0x40,%r8d
  404fc1:	41 56                	push   %r14
  404fc3:	49 89 fe             	mov    %rdi,%r14
  404fc6:	41 55                	push   %r13
  404fc8:	41 54                	push   %r12
  404fca:	55                   	push   %rbp
  404fcb:	53                   	push   %rbx
  404fcc:	48 83 ec 48          	sub    $0x48,%rsp
/home/aliha951/ipdps-artifact/gapbs-master/src/bc.cc:125
      for (auto it = depth_index[d]; it < depth_index[d+1]; it++) {
  404fd0:	48 63 57 38          	movslq 0x38(%rdi),%rdx
/home/aliha951/ipdps-artifact/gapbs-master/src/bc.cc:124
      #pragma omp parallel for schedule(dynamic, 64)
  404fd4:	48 8b 5f 28          	mov    0x28(%rdi),%rbx
  404fd8:	64 48 8b 04 25 28 00 	mov    %fs:0x28,%rax
  404fdf:	00 00 
  404fe1:	48 89 44 24 38       	mov    %rax,0x38(%rsp)
  404fe6:	31 c0                	xor    %eax,%eax
_ZNSt6vectorIPiSaIS0_EEixEm():
/usr/include/c++/10/bits/stl_vector.h:1046
       */
      reference
      operator[](size_type __n) _GLIBCXX_NOEXCEPT
      {
	__glibcxx_requires_subscript(__n);
	return *(this->_M_impl._M_start + __n);
  404fe8:	48 8b 47 20          	mov    0x20(%rdi),%rax
  404fec:	4c 8d 4c 24 28       	lea    0x28(%rsp),%r9
  404ff1:	48 83 ec 08          	sub    $0x8,%rsp
  404ff5:	4c 89 4c 24 18       	mov    %r9,0x18(%rsp)
  404ffa:	bf 01 00 00 00       	mov    $0x1,%edi
  404fff:	48 8b 00             	mov    (%rax),%rax
  405002:	4c 8b 54 d0 08       	mov    0x8(%rax,%rdx,8),%r10
  405007:	48 8b 34 d0          	mov    (%rax,%rdx,8),%rsi
  40500b:	48 8d 44 24 38       	lea    0x38(%rsp),%rax
  405010:	48 89 44 24 20       	mov    %rax,0x20(%rsp)
  405015:	50                   	push   %rax
  405016:	4c 89 d2             	mov    %r10,%rdx
  405019:	e8 a2 e6 ff ff       	callq  4036c0 <GOMP_loop_ull_nonmonotonic_dynamic_start@plt>
  40501e:	5a                   	pop    %rdx
  40501f:	59                   	pop    %rcx
  405020:	84 c0                	test   %al,%al
  405022:	0f 84 13 01 00 00    	je     40513b <_Z7BrandesRK8CSRGraphIiiLb1EER12SourcePickerIS0_Eib._omp_fn.0+0x18b>
_Z7BrandesRK8CSRGraphIiiLb1EER12SourcePickerIS0_Eib._omp_fn.0():
/home/aliha951/ipdps-artifact/gapbs-master/src/bc.cc:130
            delta_u += (path_counts[u] / path_counts[v]) * (1 + deltas[v]);
  405028:	f3 0f 10 1d bc 10 01 	movss  0x110bc(%rip),%xmm3        # 4160ec <_ZZNSt8__detail18__to_chars_10_implIjEEvPcjT_E8__digits+0xcc>
  40502f:	00 
  405030:	66 0f ef e4          	pxor   %xmm4,%xmm4
  405034:	0f 1f 40 00          	nopl   0x0(%rax)
_ZNK8CSRGraphIiiLb1EE9out_neighEim():
/home/aliha951/ipdps-artifact/gapbs-master/src/graph.h:215
    static_assert(MakeInverse, "Graph inversion disabled but reading inverse");
    return in_index_[v+1] - in_index_[v];
  }

  Neighborhood out_neigh(NodeID_ n, OffsetT start_offset = 0) const {
    return Neighborhood(n, out_index_, start_offset);
  405038:	49 8b 06             	mov    (%r14),%rax
  40503b:	48 8b 7c 24 30       	mov    0x30(%rsp),%rdi
_ZN7pvectorIfEixEm():
/home/aliha951/ipdps-artifact/gapbs-master/src/pvector.h:116
    return start_[n];
  405040:	4c 89 74 24 08       	mov    %r14,0x8(%rsp)
  405045:	4c 8b 5c 24 28       	mov    0x28(%rsp),%r11
_Z7BrandesRK8CSRGraphIiiLb1EER12SourcePickerIS0_Eib._omp_fn.0():
/home/aliha951/ipdps-artifact/gapbs-master/src/bc.cc:129
          if (succ.get_bit(&v - g_out_start)) {
  40504a:	4d 8b 7e 18          	mov    0x18(%r14),%r15
_ZNK8CSRGraphIiiLb1EE9out_neighEim():
/home/aliha951/ipdps-artifact/gapbs-master/src/graph.h:215
  40504e:	4c 8b 60 18          	mov    0x18(%rax),%r12
_ZN7pvectorIfEixEm():
/home/aliha951/ipdps-artifact/gapbs-master/src/pvector.h:116
  405052:	49 8b 46 08          	mov    0x8(%r14),%rax
_Z7BrandesRK8CSRGraphIiiLb1EER12SourcePickerIS0_Eib._omp_fn.0():
/home/aliha951/ipdps-artifact/gapbs-master/src/bc.cc:130
            delta_u += (path_counts[u] / path_counts[v]) * (1 + deltas[v]);
  405056:	4d 8b 56 10          	mov    0x10(%r14),%r10
_ZN7pvectorIfEixEm():
/home/aliha951/ipdps-artifact/gapbs-master/src/pvector.h:116
  40505a:	4c 8b 28             	mov    (%rax),%r13
  40505d:	49 8b 46 30          	mov    0x30(%r14),%rax
  405061:	49 89 fe             	mov    %rdi,%r14
  405064:	4c 8b 00             	mov    (%rax),%r8
  405067:	66 0f 1f 84 00 00 00 	nopw   0x0(%rax,%rax,1)
  40506e:	00 00 
_ZN8CSRGraphIiiLb1EE12Neighborhood3endEv():
/home/aliha951/ipdps-artifact/gapbs-master/src/graph.h:116 (discriminator 1)
    iterator end()   { return g_index_[n_+1]; }
  405070:	49 63 2b             	movslq (%r11),%rbp
  405073:	48 8d 55 01          	lea    0x1(%rbp),%rdx
  405077:	48 8d 04 d5 00 00 00 	lea    0x0(,%rdx,8),%rax
  40507e:	00 
  40507f:	49 8b 34 d4          	mov    (%r12,%rdx,8),%rsi
_ZN8CSRGraphIiiLb1EE12Neighborhood5beginEv():
/home/aliha951/ipdps-artifact/gapbs-master/src/graph.h:115 (discriminator 1)
    iterator begin() { return g_index_[n_] + start_offset_; }
  405083:	49 8b 54 04 f8       	mov    -0x8(%r12,%rax,1),%rdx
  405088:	4c 8d 48 f8          	lea    -0x8(%rax),%r9
_Z7BrandesRK8CSRGraphIiiLb1EER12SourcePickerIS0_Eib._omp_fn.0():
/home/aliha951/ipdps-artifact/gapbs-master/src/bc.cc:128 (discriminator 1)
        for (NodeID &v : g.out_neigh(u)) {
  40508c:	48 39 d6             	cmp    %rdx,%rsi
  40508f:	0f 84 cb 00 00 00    	je     405160 <_Z7BrandesRK8CSRGraphIiiLb1EER12SourcePickerIS0_Eib._omp_fn.0+0x1b0>
_ZNK6Bitmap7get_bitEm():
/home/aliha951/ipdps-artifact/gapbs-master/src/bitmap.h:52
      new_val = old_val | ((uint64_t) 1l << bit_offset(pos));
    } while (!compare_and_swap(start_[word_offset(pos)], old_val, new_val));
  }

  bool get_bit(size_t pos) const {
    return (start_[word_offset(pos)] >> bit_offset(pos)) & 1l;
  405095:	49 8b 3f             	mov    (%r15),%rdi
_Z7BrandesRK8CSRGraphIiiLb1EER12SourcePickerIS0_Eib._omp_fn.0():
/home/aliha951/ipdps-artifact/gapbs-master/src/bc.cc:127
        ScoreT delta_u = 0;
  405098:	0f 28 cc             	movaps %xmm4,%xmm1
  40509b:	0f 1f 44 00 00       	nopl   0x0(%rax,%rax,1)
/home/aliha951/ipdps-artifact/gapbs-master/src/bc.cc:129 (discriminator 2)
          if (succ.get_bit(&v - g_out_start)) {
  4050a0:	48 89 d0             	mov    %rdx,%rax
  4050a3:	48 29 d8             	sub    %rbx,%rax
  4050a6:	48 c1 f8 02          	sar    $0x2,%rax
_ZN6Bitmap11word_offsetEm():
/home/aliha951/ipdps-artifact/gapbs-master/src/bitmap.h:65 (discriminator 2)
 private:
  uint64_t *start_;
  uint64_t *end_;

  static const uint64_t kBitsPerWord = 64;
  static uint64_t word_offset(size_t n) { return n / kBitsPerWord; }
  4050aa:	48 89 c1             	mov    %rax,%rcx
  4050ad:	48 c1 e9 06          	shr    $0x6,%rcx
_ZNK6Bitmap7get_bitEm():
/home/aliha951/ipdps-artifact/gapbs-master/src/bitmap.h:52 (discriminator 2)
    return (start_[word_offset(pos)] >> bit_offset(pos)) & 1l;
  4050b1:	48 8b 0c cf          	mov    (%rdi,%rcx,8),%rcx
_Z7BrandesRK8CSRGraphIiiLb1EER12SourcePickerIS0_Eib._omp_fn.0():
/home/aliha951/ipdps-artifact/gapbs-master/src/bc.cc:129 (discriminator 2)
  4050b5:	48 0f a3 c1          	bt     %rax,%rcx
  4050b9:	73 2f                	jae    4050ea <_Z7BrandesRK8CSRGraphIiiLb1EER12SourcePickerIS0_Eib._omp_fn.0+0x13a>
/home/aliha951/ipdps-artifact/gapbs-master/src/bc.cc:130
            delta_u += (path_counts[u] / path_counts[v]) * (1 + deltas[v]);
  4050bb:	48 63 02             	movslq (%rdx),%rax
_ZN7pvectorIdEixEm():
/home/aliha951/ipdps-artifact/gapbs-master/src/pvector.h:116
  4050be:	49 8b 0a             	mov    (%r10),%rcx
_Z7BrandesRK8CSRGraphIiiLb1EER12SourcePickerIS0_Eib._omp_fn.0():
/home/aliha951/ipdps-artifact/gapbs-master/src/bc.cc:130
  4050c1:	f3 0f 5a c9          	cvtss2sd %xmm1,%xmm1
  4050c5:	f3 41 0f 10 14 80    	movss  (%r8,%rax,4),%xmm2
  4050cb:	f2 42 0f 10 04 09    	movsd  (%rcx,%r9,1),%xmm0
  4050d1:	f2 0f 5e 04 c1       	divsd  (%rcx,%rax,8),%xmm0
  4050d6:	f3 0f 58 d3          	addss  %xmm3,%xmm2
  4050da:	f3 0f 5a d2          	cvtss2sd %xmm2,%xmm2
  4050de:	f2 0f 59 c2          	mulsd  %xmm2,%xmm0
  4050e2:	f2 0f 58 c8          	addsd  %xmm0,%xmm1
  4050e6:	f2 0f 5a c9          	cvtsd2ss %xmm1,%xmm1
/home/aliha951/ipdps-artifact/gapbs-master/src/bc.cc:128 (discriminator 3)
        for (NodeID &v : g.out_neigh(u)) {
  4050ea:	48 83 c2 04          	add    $0x4,%rdx
  4050ee:	48 39 d6             	cmp    %rdx,%rsi
  4050f1:	75 ad                	jne    4050a0 <_Z7BrandesRK8CSRGraphIiiLb1EER12SourcePickerIS0_Eib._omp_fn.0+0xf0>
_ZN7pvectorIfEixEm():
/home/aliha951/ipdps-artifact/gapbs-master/src/pvector.h:116
  4050f3:	49 8d 44 ad 00       	lea    0x0(%r13,%rbp,4),%rax
_Z7BrandesRK8CSRGraphIiiLb1EER12SourcePickerIS0_Eib._omp_fn.0():
/home/aliha951/ipdps-artifact/gapbs-master/src/bc.cc:133
        deltas[u] = delta_u;
  4050f8:	f3 41 0f 11 0c a8    	movss  %xmm1,(%r8,%rbp,4)
_ZN7pvectorIfEixEm():
/home/aliha951/ipdps-artifact/gapbs-master/src/pvector.h:115
  T_& operator[](size_t n) {
  4050fe:	49 83 c3 04          	add    $0x4,%r11
_Z7BrandesRK8CSRGraphIiiLb1EER12SourcePickerIS0_Eib._omp_fn.0():
/home/aliha951/ipdps-artifact/gapbs-master/src/bc.cc:134
        scores[u] += delta_u;
  405102:	f3 0f 58 08          	addss  (%rax),%xmm1
  405106:	f3 0f 11 08          	movss  %xmm1,(%rax)
  40510a:	4d 39 de             	cmp    %r11,%r14
  40510d:	0f 87 5d ff ff ff    	ja     405070 <_Z7BrandesRK8CSRGraphIiiLb1EER12SourcePickerIS0_Eib._omp_fn.0+0xc0>
  405113:	48 8b 74 24 18       	mov    0x18(%rsp),%rsi
  405118:	48 8b 7c 24 10       	mov    0x10(%rsp),%rdi
  40511d:	4c 8b 74 24 08       	mov    0x8(%rsp),%r14
  405122:	e8 a9 ea ff ff       	callq  403bd0 <GOMP_loop_ull_nonmonotonic_dynamic_next@plt>
  405127:	f3 0f 10 1d bd 0f 01 	movss  0x10fbd(%rip),%xmm3        # 4160ec <_ZZNSt8__detail18__to_chars_10_implIjEEvPcjT_E8__digits+0xcc>
  40512e:	00 
  40512f:	66 0f ef e4          	pxor   %xmm4,%xmm4
  405133:	84 c0                	test   %al,%al
  405135:	0f 85 fd fe ff ff    	jne    405038 <_Z7BrandesRK8CSRGraphIiiLb1EER12SourcePickerIS0_Eib._omp_fn.0+0x88>
  40513b:	e8 30 e5 ff ff       	callq  403670 <GOMP_loop_end_nowait@plt>
/home/aliha951/ipdps-artifact/gapbs-master/src/bc.cc:124
      #pragma omp parallel for schedule(dynamic, 64)
  405140:	48 8b 44 24 38       	mov    0x38(%rsp),%rax
  405145:	64 48 2b 04 25 28 00 	sub    %fs:0x28,%rax
  40514c:	00 00 
  40514e:	75 15                	jne    405165 <_Z7BrandesRK8CSRGraphIiiLb1EER12SourcePickerIS0_Eib._omp_fn.0+0x1b5>
  405150:	48 83 c4 48          	add    $0x48,%rsp
  405154:	5b                   	pop    %rbx
  405155:	5d                   	pop    %rbp
  405156:	41 5c                	pop    %r12
  405158:	41 5d                	pop    %r13
  40515a:	41 5e                	pop    %r14
  40515c:	41 5f                	pop    %r15
  40515e:	c3                   	retq   
  40515f:	90                   	nop
/home/aliha951/ipdps-artifact/gapbs-master/src/bc.cc:127
        ScoreT delta_u = 0;
  405160:	0f 28 cc             	movaps %xmm4,%xmm1
  405163:	eb 8e                	jmp    4050f3 <_Z7BrandesRK8CSRGraphIiiLb1EER12SourcePickerIS0_Eib._omp_fn.0+0x143>
/home/aliha951/ipdps-artifact/gapbs-master/src/bc.cc:124
      #pragma omp parallel for schedule(dynamic, 64)
  405165:	e8 f6 e7 ff ff       	callq  403960 <__stack_chk_fail@plt>
  40516a:	66 0f 1f 44 00 00    	nopw   0x0(%rax,%rax,1)

0000000000405170 <_Z7BrandesRK8CSRGraphIiiLb1EER12SourcePickerIS0_Eib._omp_fn.2>:
_Z7BrandesRK8CSRGraphIiiLb1EER12SourcePickerIS0_Eib._omp_fn.2():
/home/aliha951/ipdps-artifact/gapbs-master/src/bc.cc:146
  #pragma omp parallel for
  405170:	f3 0f 1e fa          	endbr64 
  405174:	55                   	push   %rbp
  405175:	53                   	push   %rbx
  405176:	48 89 fb             	mov    %rdi,%rbx
  405179:	48 83 ec 08          	sub    $0x8,%rsp
  40517d:	e8 2e e9 ff ff       	callq  403ab0 <omp_get_num_threads@plt>
  405182:	89 c5                	mov    %eax,%ebp
  405184:	e8 07 e8 ff ff       	callq  403990 <omp_get_thread_num@plt>
  405189:	89 c1                	mov    %eax,%ecx
_ZNK8CSRGraphIiiLb1EE9num_nodesEv():
/home/aliha951/ipdps-artifact/gapbs-master/src/graph.h:194
    return num_nodes_;
  40518b:	48 8b 03             	mov    (%rbx),%rax
_Z7BrandesRK8CSRGraphIiiLb1EER12SourcePickerIS0_Eib._omp_fn.2():
/home/aliha951/ipdps-artifact/gapbs-master/src/bc.cc:147
  for (NodeID n=0; n < g.num_nodes(); n++)
  40518e:	48 8b 40 08          	mov    0x8(%rax),%rax
  405192:	99                   	cltd   
  405193:	f7 fd                	idiv   %ebp
  405195:	39 d1                	cmp    %edx,%ecx
  405197:	0f 8c e3 00 00 00    	jl     405280 <_Z7BrandesRK8CSRGraphIiiLb1EER12SourcePickerIS0_Eib._omp_fn.2+0x110>
  40519d:	0f af c8             	imul   %eax,%ecx
  4051a0:	01 ca                	add    %ecx,%edx
  4051a2:	44 8d 14 10          	lea    (%rax,%rdx,1),%r10d
  4051a6:	44 39 d2             	cmp    %r10d,%edx
  4051a9:	0f 8d c3 00 00 00    	jge    405272 <_Z7BrandesRK8CSRGraphIiiLb1EER12SourcePickerIS0_Eib._omp_fn.2+0x102>
_ZN7pvectorIfEixEm():
/home/aliha951/ipdps-artifact/gapbs-master/src/pvector.h:116
    return start_[n];
  4051af:	48 8b 4b 08          	mov    0x8(%rbx),%rcx
  4051b3:	48 63 fa             	movslq %edx,%rdi
_Z7BrandesRK8CSRGraphIiiLb1EER12SourcePickerIS0_Eib._omp_fn.2():
/home/aliha951/ipdps-artifact/gapbs-master/src/bc.cc:148
    scores[n] = scores[n] / biggest_score;
  4051b6:	4c 8b 43 10          	mov    0x10(%rbx),%r8
  4051ba:	44 8d 58 ff          	lea    -0x1(%rax),%r11d
_ZN7pvectorIfEixEm():
/home/aliha951/ipdps-artifact/gapbs-master/src/pvector.h:116
  4051be:	4c 8b 09             	mov    (%rcx),%r9
  4051c1:	89 c1                	mov    %eax,%ecx
  4051c3:	48 01 f9             	add    %rdi,%rcx
  4051c6:	49 8d 0c 89          	lea    (%r9,%rcx,4),%rcx
  4051ca:	49 8d 34 b9          	lea    (%r9,%rdi,4),%rsi
  4051ce:	49 39 c8             	cmp    %rcx,%r8
  4051d1:	49 8d 48 04          	lea    0x4(%r8),%rcx
  4051d5:	0f 93 c3             	setae  %bl
  4051d8:	48 39 ce             	cmp    %rcx,%rsi
  4051db:	0f 93 c1             	setae  %cl
  4051de:	08 cb                	or     %cl,%bl
  4051e0:	0f 84 aa 00 00 00    	je     405290 <_Z7BrandesRK8CSRGraphIiiLb1EER12SourcePickerIS0_Eib._omp_fn.2+0x120>
  4051e6:	41 83 fb 02          	cmp    $0x2,%r11d
  4051ea:	0f 86 a0 00 00 00    	jbe    405290 <_Z7BrandesRK8CSRGraphIiiLb1EER12SourcePickerIS0_Eib._omp_fn.2+0x120>
  4051f0:	89 c7                	mov    %eax,%edi
  4051f2:	f3 41 0f 10 08       	movss  (%r8),%xmm1
_Z7BrandesRK8CSRGraphIiiLb1EER12SourcePickerIS0_Eib._omp_fn.2():
/home/aliha951/ipdps-artifact/gapbs-master/src/bc.cc:148
  4051f7:	31 c9                	xor    %ecx,%ecx
  4051f9:	c1 ef 02             	shr    $0x2,%edi
  4051fc:	48 c1 e7 04          	shl    $0x4,%rdi
  405200:	0f c6 c9 00          	shufps $0x0,%xmm1,%xmm1
  405204:	0f 1f 40 00          	nopl   0x0(%rax)
/home/aliha951/ipdps-artifact/gapbs-master/src/bc.cc:148 (discriminator 6)
  405208:	0f 10 04 0e          	movups (%rsi,%rcx,1),%xmm0
  40520c:	0f 5e c1             	divps  %xmm1,%xmm0
  40520f:	0f 11 04 0e          	movups %xmm0,(%rsi,%rcx,1)
  405213:	48 83 c1 10          	add    $0x10,%rcx
  405217:	48 39 f9             	cmp    %rdi,%rcx
  40521a:	75 ec                	jne    405208 <_Z7BrandesRK8CSRGraphIiiLb1EER12SourcePickerIS0_Eib._omp_fn.2+0x98>
  40521c:	89 c1                	mov    %eax,%ecx
  40521e:	83 e1 fc             	and    $0xfffffffc,%ecx
  405221:	01 ca                	add    %ecx,%edx
  405223:	39 c8                	cmp    %ecx,%eax
  405225:	74 4b                	je     405272 <_Z7BrandesRK8CSRGraphIiiLb1EER12SourcePickerIS0_Eib._omp_fn.2+0x102>
/home/aliha951/ipdps-artifact/gapbs-master/src/bc.cc:148
  405227:	48 63 c2             	movslq %edx,%rax
_ZN7pvectorIfEixEm():
/home/aliha951/ipdps-artifact/gapbs-master/src/pvector.h:116
  40522a:	49 8d 04 81          	lea    (%r9,%rax,4),%rax
_Z7BrandesRK8CSRGraphIiiLb1EER12SourcePickerIS0_Eib._omp_fn.2():
/home/aliha951/ipdps-artifact/gapbs-master/src/bc.cc:148
  40522e:	f3 0f 10 00          	movss  (%rax),%xmm0
  405232:	f3 41 0f 5e 00       	divss  (%r8),%xmm0
  405237:	f3 0f 11 00          	movss  %xmm0,(%rax)
  40523b:	8d 42 01             	lea    0x1(%rdx),%eax
  40523e:	41 39 c2             	cmp    %eax,%r10d
  405241:	7e 2f                	jle    405272 <_Z7BrandesRK8CSRGraphIiiLb1EER12SourcePickerIS0_Eib._omp_fn.2+0x102>
  405243:	48 98                	cltq   
  405245:	83 c2 02             	add    $0x2,%edx
_ZN7pvectorIfEixEm():
/home/aliha951/ipdps-artifact/gapbs-master/src/pvector.h:116
  405248:	49 8d 04 81          	lea    (%r9,%rax,4),%rax
_Z7BrandesRK8CSRGraphIiiLb1EER12SourcePickerIS0_Eib._omp_fn.2():
/home/aliha951/ipdps-artifact/gapbs-master/src/bc.cc:148
  40524c:	f3 0f 10 00          	movss  (%rax),%xmm0
  405250:	f3 41 0f 5e 00       	divss  (%r8),%xmm0
  405255:	f3 0f 11 00          	movss  %xmm0,(%rax)
  405259:	41 39 d2             	cmp    %edx,%r10d
  40525c:	7e 14                	jle    405272 <_Z7BrandesRK8CSRGraphIiiLb1EER12SourcePickerIS0_Eib._omp_fn.2+0x102>
  40525e:	48 63 d2             	movslq %edx,%rdx
_ZN7pvectorIfEixEm():
/home/aliha951/ipdps-artifact/gapbs-master/src/pvector.h:116
  405261:	49 8d 04 91          	lea    (%r9,%rdx,4),%rax
_Z7BrandesRK8CSRGraphIiiLb1EER12SourcePickerIS0_Eib._omp_fn.2():
/home/aliha951/ipdps-artifact/gapbs-master/src/bc.cc:148
  405265:	f3 0f 10 00          	movss  (%rax),%xmm0
  405269:	f3 41 0f 5e 00       	divss  (%r8),%xmm0
  40526e:	f3 0f 11 00          	movss  %xmm0,(%rax)
/home/aliha951/ipdps-artifact/gapbs-master/src/bc.cc:146
  #pragma omp parallel for
  405272:	48 83 c4 08          	add    $0x8,%rsp
  405276:	5b                   	pop    %rbx
  405277:	5d                   	pop    %rbp
  405278:	c3                   	retq   
  405279:	0f 1f 80 00 00 00 00 	nopl   0x0(%rax)
  405280:	83 c0 01             	add    $0x1,%eax
/home/aliha951/ipdps-artifact/gapbs-master/src/bc.cc:147
  for (NodeID n=0; n < g.num_nodes(); n++)
  405283:	31 d2                	xor    %edx,%edx
  405285:	e9 13 ff ff ff       	jmpq   40519d <_Z7BrandesRK8CSRGraphIiiLb1EER12SourcePickerIS0_Eib._omp_fn.2+0x2d>
  40528a:	66 0f 1f 44 00 00    	nopw   0x0(%rax,%rax,1)
  405290:	4c 01 df             	add    %r11,%rdi
  405293:	49 8d 44 b9 04       	lea    0x4(%r9,%rdi,4),%rax
  405298:	0f 1f 84 00 00 00 00 	nopl   0x0(%rax,%rax,1)
  40529f:	00 
/home/aliha951/ipdps-artifact/gapbs-master/src/bc.cc:148
    scores[n] = scores[n] / biggest_score;
  4052a0:	f3 0f 10 06          	movss  (%rsi),%xmm0
  4052a4:	48 83 c6 04          	add    $0x4,%rsi
  4052a8:	f3 41 0f 5e 00       	divss  (%r8),%xmm0
  4052ad:	f3 0f 11 46 fc       	movss  %xmm0,-0x4(%rsi)
  4052b2:	48 39 c6             	cmp    %rax,%rsi
  4052b5:	75 e9                	jne    4052a0 <_Z7BrandesRK8CSRGraphIiiLb1EER12SourcePickerIS0_Eib._omp_fn.2+0x130>
  4052b7:	eb b9                	jmp    405272 <_Z7BrandesRK8CSRGraphIiiLb1EER12SourcePickerIS0_Eib._omp_fn.2+0x102>
  4052b9:	0f 1f 80 00 00 00 00 	nopl   0x0(%rax)

00000000004052c0 <_Z7BrandesRK8CSRGraphIiiLb1EER12SourcePickerIS0_Eib._omp_fn.1>:
_Z7BrandesRK8CSRGraphIiiLb1EER12SourcePickerIS0_Eib._omp_fn.1():
/home/aliha951/ipdps-artifact/gapbs-master/src/bc.cc:143
  #pragma omp parallel for reduction(max : biggest_score)
  4052c0:	f3 0f 1e fa          	endbr64 
  4052c4:	55                   	push   %rbp
  4052c5:	53                   	push   %rbx
  4052c6:	48 89 fb             	mov    %rdi,%rbx
  4052c9:	48 83 ec 08          	sub    $0x8,%rsp
  4052cd:	e8 de e7 ff ff       	callq  403ab0 <omp_get_num_threads@plt>
  4052d2:	89 c5                	mov    %eax,%ebp
  4052d4:	e8 b7 e6 ff ff       	callq  403990 <omp_get_thread_num@plt>
  4052d9:	89 c1                	mov    %eax,%ecx
_ZNK8CSRGraphIiiLb1EE9num_nodesEv():
/home/aliha951/ipdps-artifact/gapbs-master/src/graph.h:194
  4052db:	48 8b 03             	mov    (%rbx),%rax
_Z7BrandesRK8CSRGraphIiiLb1EER12SourcePickerIS0_Eib._omp_fn.1():
/home/aliha951/ipdps-artifact/gapbs-master/src/bc.cc:144
  for (NodeID n=0; n < g.num_nodes(); n++)
  4052de:	48 8b 40 08          	mov    0x8(%rax),%rax
  4052e2:	99                   	cltd   
  4052e3:	f7 fd                	idiv   %ebp
  4052e5:	39 d1                	cmp    %edx,%ecx
  4052e7:	7c 77                	jl     405360 <_Z7BrandesRK8CSRGraphIiiLb1EER12SourcePickerIS0_Eib._omp_fn.1+0xa0>
  4052e9:	0f af c8             	imul   %eax,%ecx
_ZSt3maxIfERKT_S2_S2_():
/usr/include/c++/10/bits/stl_algobase.h:259
    max(const _Tp& __a, const _Tp& __b)
    {
      // concept requirements
      __glibcxx_function_requires(_LessThanComparableConcept<_Tp>)
      //return  __a < __b ? __b : __a;
      if (__a < __b)
  4052ec:	f3 0f 10 05 fc 0d 01 	movss  0x10dfc(%rip),%xmm0        # 4160f0 <_ZZNSt8__detail18__to_chars_10_implIjEEvPcjT_E8__digits+0xd0>
  4052f3:	00 
  4052f4:	01 ca                	add    %ecx,%edx
  4052f6:	8d 0c 10             	lea    (%rax,%rdx,1),%ecx
  4052f9:	39 ca                	cmp    %ecx,%edx
  4052fb:	7d 37                	jge    405334 <_Z7BrandesRK8CSRGraphIiiLb1EER12SourcePickerIS0_Eib._omp_fn.1+0x74>
_ZN7pvectorIfEixEm():
/home/aliha951/ipdps-artifact/gapbs-master/src/pvector.h:116
  4052fd:	48 8b 4b 08          	mov    0x8(%rbx),%rcx
  405301:	83 e8 01             	sub    $0x1,%eax
  405304:	48 8b 31             	mov    (%rcx),%rsi
  405307:	48 63 ca             	movslq %edx,%rcx
  40530a:	48 8d 14 8e          	lea    (%rsi,%rcx,4),%rdx
  40530e:	48 01 c1             	add    %rax,%rcx
  405311:	48 8d 44 8e 04       	lea    0x4(%rsi,%rcx,4),%rax
  405316:	66 2e 0f 1f 84 00 00 	nopw   %cs:0x0(%rax,%rax,1)
  40531d:	00 00 00 
_ZSt3maxIfERKT_S2_S2_():
/usr/include/c++/10/bits/stl_algobase.h:259
  405320:	f3 0f 10 0a          	movss  (%rdx),%xmm1
  405324:	48 83 c2 04          	add    $0x4,%rdx
  405328:	f3 0f 5f c8          	maxss  %xmm0,%xmm1
  40532c:	0f 28 c1             	movaps %xmm1,%xmm0
  40532f:	48 39 d0             	cmp    %rdx,%rax
  405332:	75 ec                	jne    405320 <_Z7BrandesRK8CSRGraphIiiLb1EER12SourcePickerIS0_Eib._omp_fn.1+0x60>
  405334:	8b 53 10             	mov    0x10(%rbx),%edx
_Z7BrandesRK8CSRGraphIiiLb1EER12SourcePickerIS0_Eib._omp_fn.1():
/home/aliha951/ipdps-artifact/gapbs-master/src/bc.cc:143 (discriminator 5)
  #pragma omp parallel for reduction(max : biggest_score)
  405337:	48 8d 4b 10          	lea    0x10(%rbx),%rcx
  40533b:	66 0f 6e d2          	movd   %edx,%xmm2
  40533f:	89 d0                	mov    %edx,%eax
  405341:	f3 0f 5f d0          	maxss  %xmm0,%xmm2
  405345:	66 0f 7e d6          	movd   %xmm2,%esi
  405349:	f0 0f b1 31          	lock cmpxchg %esi,(%rcx)
  40534d:	39 c2                	cmp    %eax,%edx
  40534f:	75 16                	jne    405367 <_Z7BrandesRK8CSRGraphIiiLb1EER12SourcePickerIS0_Eib._omp_fn.1+0xa7>
/home/aliha951/ipdps-artifact/gapbs-master/src/bc.cc:143
  405351:	48 83 c4 08          	add    $0x8,%rsp
  405355:	5b                   	pop    %rbx
  405356:	5d                   	pop    %rbp
  405357:	c3                   	retq   
  405358:	0f 1f 84 00 00 00 00 	nopl   0x0(%rax,%rax,1)
  40535f:	00 
  405360:	83 c0 01             	add    $0x1,%eax
/home/aliha951/ipdps-artifact/gapbs-master/src/bc.cc:144
  for (NodeID n=0; n < g.num_nodes(); n++)
  405363:	31 d2                	xor    %edx,%edx
  405365:	eb 82                	jmp    4052e9 <_Z7BrandesRK8CSRGraphIiiLb1EER12SourcePickerIS0_Eib._omp_fn.1+0x29>
/home/aliha951/ipdps-artifact/gapbs-master/src/bc.cc:143
  #pragma omp parallel for reduction(max : biggest_score)
  405367:	89 c2                	mov    %eax,%edx
  405369:	eb d0                	jmp    40533b <_Z7BrandesRK8CSRGraphIiiLb1EER12SourcePickerIS0_Eib._omp_fn.1+0x7b>
  40536b:	0f 1f 44 00 00       	nopl   0x0(%rax,%rax,1)

0000000000405370 <_ZN7pvectorIdE4fillEd._omp_fn.0>:
_ZN7pvectorIdE4fillEd._omp_fn.0():
/home/aliha951/ipdps-artifact/gapbs-master/src/pvector.h:133
    #pragma omp parallel for
  405370:	f3 0f 1e fa          	endbr64 
  405374:	41 55                	push   %r13
  405376:	41 54                	push   %r12
  405378:	55                   	push   %rbp
  405379:	53                   	push   %rbx
  40537a:	48 83 ec 08          	sub    $0x8,%rsp
  40537e:	48 8b 07             	mov    (%rdi),%rax
/home/aliha951/ipdps-artifact/gapbs-master/src/pvector.h:134
    for (T_* ptr=start_; ptr < end_size_; ptr++)
  405381:	48 8b 28             	mov    (%rax),%rbp
  405384:	4c 8b 68 08          	mov    0x8(%rax),%r13
  405388:	4c 39 ed             	cmp    %r13,%rbp
  40538b:	0f 83 bf 00 00 00    	jae    405450 <_ZN7pvectorIdE4fillEd._omp_fn.0+0xe0>
  405391:	49 89 fc             	mov    %rdi,%r12
  405394:	e8 17 e7 ff ff       	callq  403ab0 <omp_get_num_threads@plt>
  405399:	48 63 d8             	movslq %eax,%rbx
  40539c:	e8 ef e5 ff ff       	callq  403990 <omp_get_thread_num@plt>
  4053a1:	48 63 c8             	movslq %eax,%rcx
  4053a4:	49 8d 45 07          	lea    0x7(%r13),%rax
  4053a8:	48 29 e8             	sub    %rbp,%rax
  4053ab:	48 89 c2             	mov    %rax,%rdx
  4053ae:	48 8d 40 07          	lea    0x7(%rax),%rax
  4053b2:	48 0f 49 c2          	cmovns %rdx,%rax
  4053b6:	48 c1 f8 03          	sar    $0x3,%rax
  4053ba:	48 99                	cqto   
  4053bc:	48 f7 fb             	idiv   %rbx
  4053bf:	48 39 d1             	cmp    %rdx,%rcx
  4053c2:	0f 8c 98 00 00 00    	jl     405460 <_ZN7pvectorIdE4fillEd._omp_fn.0+0xf0>
  4053c8:	48 0f af c8          	imul   %rax,%rcx
  4053cc:	48 01 ca             	add    %rcx,%rdx
  4053cf:	48 01 d0             	add    %rdx,%rax
  4053d2:	48 39 c2             	cmp    %rax,%rdx
  4053d5:	7d 79                	jge    405450 <_ZN7pvectorIdE4fillEd._omp_fn.0+0xe0>
  4053d7:	48 c1 e2 03          	shl    $0x3,%rdx
  4053db:	48 c1 e0 03          	shl    $0x3,%rax
/home/aliha951/ipdps-artifact/gapbs-master/src/pvector.h:133
    #pragma omp parallel for
  4053df:	f2 41 0f 10 44 24 08 	movsd  0x8(%r12),%xmm0
  4053e6:	48 8d 74 15 00       	lea    0x0(%rbp,%rdx,1),%rsi
  4053eb:	48 01 c5             	add    %rax,%rbp
  4053ee:	48 29 d0             	sub    %rdx,%rax
  4053f1:	48 83 e8 01          	sub    $0x1,%rax
  4053f5:	48 8d 7e 01          	lea    0x1(%rsi),%rdi
  4053f9:	48 89 f1             	mov    %rsi,%rcx
  4053fc:	48 89 c2             	mov    %rax,%rdx
  4053ff:	48 c1 ea 03          	shr    $0x3,%rdx
  405403:	48 83 c2 01          	add    $0x1,%rdx
  405407:	48 39 fd             	cmp    %rdi,%rbp
  40540a:	bf 01 00 00 00       	mov    $0x1,%edi
  40540f:	48 0f 42 d7          	cmovb  %rdi,%rdx
  405413:	72 37                	jb     40544c <_ZN7pvectorIdE4fillEd._omp_fn.0+0xdc>
  405415:	48 83 f8 07          	cmp    $0x7,%rax
  405419:	76 31                	jbe    40544c <_ZN7pvectorIdE4fillEd._omp_fn.0+0xdc>
  40541b:	48 89 d0             	mov    %rdx,%rax
  40541e:	66 0f 28 c8          	movapd %xmm0,%xmm1
  405422:	48 d1 e8             	shr    %rax
  405425:	66 0f 14 c9          	unpcklpd %xmm1,%xmm1
  405429:	48 c1 e0 04          	shl    $0x4,%rax
  40542d:	48 01 f0             	add    %rsi,%rax
/home/aliha951/ipdps-artifact/gapbs-master/src/pvector.h:135 (discriminator 1)
      *ptr = init_val;
  405430:	0f 11 09             	movups %xmm1,(%rcx)
  405433:	48 83 c1 10          	add    $0x10,%rcx
  405437:	48 39 c8             	cmp    %rcx,%rax
  40543a:	75 f4                	jne    405430 <_ZN7pvectorIdE4fillEd._omp_fn.0+0xc0>
  40543c:	48 89 d0             	mov    %rdx,%rax
  40543f:	48 83 e0 fe          	and    $0xfffffffffffffffe,%rax
  405443:	48 8d 34 c6          	lea    (%rsi,%rax,8),%rsi
  405447:	48 39 c2             	cmp    %rax,%rdx
  40544a:	74 04                	je     405450 <_ZN7pvectorIdE4fillEd._omp_fn.0+0xe0>
/home/aliha951/ipdps-artifact/gapbs-master/src/pvector.h:135
  40544c:	f2 0f 11 06          	movsd  %xmm0,(%rsi)
/home/aliha951/ipdps-artifact/gapbs-master/src/pvector.h:133
    #pragma omp parallel for
  405450:	48 83 c4 08          	add    $0x8,%rsp
  405454:	5b                   	pop    %rbx
  405455:	5d                   	pop    %rbp
  405456:	41 5c                	pop    %r12
  405458:	41 5d                	pop    %r13
  40545a:	c3                   	retq   
  40545b:	0f 1f 44 00 00       	nopl   0x0(%rax,%rax,1)
  405460:	48 83 c0 01          	add    $0x1,%rax
/home/aliha951/ipdps-artifact/gapbs-master/src/pvector.h:134
    for (T_* ptr=start_; ptr < end_size_; ptr++)
  405464:	31 d2                	xor    %edx,%edx
  405466:	e9 5d ff ff ff       	jmpq   4053c8 <_ZN7pvectorIdE4fillEd._omp_fn.0+0x58>
  40546b:	0f 1f 44 00 00       	nopl   0x0(%rax,%rax,1)

0000000000405470 <_ZN7pvectorIfE4fillEf._omp_fn.0>:
_ZN7pvectorIfE4fillEf._omp_fn.0():
/home/aliha951/ipdps-artifact/gapbs-master/src/pvector.h:133
    #pragma omp parallel for
  405470:	f3 0f 1e fa          	endbr64 
  405474:	41 55                	push   %r13
  405476:	41 54                	push   %r12
  405478:	55                   	push   %rbp
  405479:	53                   	push   %rbx
  40547a:	48 83 ec 08          	sub    $0x8,%rsp
  40547e:	48 8b 07             	mov    (%rdi),%rax
/home/aliha951/ipdps-artifact/gapbs-master/src/pvector.h:134
    for (T_* ptr=start_; ptr < end_size_; ptr++)
  405481:	48 8b 28             	mov    (%rax),%rbp
  405484:	4c 8b 68 08          	mov    0x8(%rax),%r13
  405488:	4c 39 ed             	cmp    %r13,%rbp
  40548b:	0f 83 e3 00 00 00    	jae    405574 <_ZN7pvectorIfE4fillEf._omp_fn.0+0x104>
  405491:	49 89 fc             	mov    %rdi,%r12
  405494:	e8 17 e6 ff ff       	callq  403ab0 <omp_get_num_threads@plt>
  405499:	48 63 d8             	movslq %eax,%rbx
  40549c:	e8 ef e4 ff ff       	callq  403990 <omp_get_thread_num@plt>
  4054a1:	48 63 c8             	movslq %eax,%rcx
  4054a4:	49 8d 45 03          	lea    0x3(%r13),%rax
  4054a8:	48 29 e8             	sub    %rbp,%rax
  4054ab:	48 89 c2             	mov    %rax,%rdx
  4054ae:	48 8d 40 03          	lea    0x3(%rax),%rax
  4054b2:	48 0f 49 c2          	cmovns %rdx,%rax
  4054b6:	48 c1 f8 02          	sar    $0x2,%rax
  4054ba:	48 99                	cqto   
  4054bc:	48 f7 fb             	idiv   %rbx
  4054bf:	48 39 d1             	cmp    %rdx,%rcx
  4054c2:	0f 8c b8 00 00 00    	jl     405580 <_ZN7pvectorIfE4fillEf._omp_fn.0+0x110>
  4054c8:	48 0f af c8          	imul   %rax,%rcx
  4054cc:	48 01 ca             	add    %rcx,%rdx
  4054cf:	48 01 d0             	add    %rdx,%rax
  4054d2:	48 39 c2             	cmp    %rax,%rdx
  4054d5:	0f 8d 99 00 00 00    	jge    405574 <_ZN7pvectorIfE4fillEf._omp_fn.0+0x104>
  4054db:	48 c1 e2 02          	shl    $0x2,%rdx
  4054df:	48 c1 e0 02          	shl    $0x2,%rax
/home/aliha951/ipdps-artifact/gapbs-master/src/pvector.h:133
    #pragma omp parallel for
  4054e3:	f3 41 0f 10 4c 24 08 	movss  0x8(%r12),%xmm1
  4054ea:	48 8d 74 15 00       	lea    0x0(%rbp,%rdx,1),%rsi
  4054ef:	48 01 c5             	add    %rax,%rbp
  4054f2:	48 29 d0             	sub    %rdx,%rax
  4054f5:	48 83 e8 01          	sub    $0x1,%rax
  4054f9:	48 8d 7e 01          	lea    0x1(%rsi),%rdi
  4054fd:	48 89 f1             	mov    %rsi,%rcx
  405500:	48 89 c2             	mov    %rax,%rdx
  405503:	48 c1 ea 02          	shr    $0x2,%rdx
  405507:	48 83 c2 01          	add    $0x1,%rdx
  40550b:	48 39 fd             	cmp    %rdi,%rbp
  40550e:	bf 01 00 00 00       	mov    $0x1,%edi
  405513:	48 0f 42 d7          	cmovb  %rdi,%rdx
  405517:	72 3b                	jb     405554 <_ZN7pvectorIfE4fillEf._omp_fn.0+0xe4>
  405519:	48 83 f8 0b          	cmp    $0xb,%rax
  40551d:	76 35                	jbe    405554 <_ZN7pvectorIfE4fillEf._omp_fn.0+0xe4>
  40551f:	48 89 d0             	mov    %rdx,%rax
  405522:	0f 28 c1             	movaps %xmm1,%xmm0
  405525:	48 c1 e8 02          	shr    $0x2,%rax
  405529:	0f c6 c0 00          	shufps $0x0,%xmm0,%xmm0
  40552d:	48 c1 e0 04          	shl    $0x4,%rax
  405531:	48 01 f0             	add    %rsi,%rax
  405534:	0f 1f 40 00          	nopl   0x0(%rax)
/home/aliha951/ipdps-artifact/gapbs-master/src/pvector.h:135 (discriminator 1)
      *ptr = init_val;
  405538:	0f 11 01             	movups %xmm0,(%rcx)
  40553b:	48 83 c1 10          	add    $0x10,%rcx
  40553f:	48 39 c1             	cmp    %rax,%rcx
  405542:	75 f4                	jne    405538 <_ZN7pvectorIfE4fillEf._omp_fn.0+0xc8>
  405544:	48 89 d0             	mov    %rdx,%rax
  405547:	48 83 e0 fc          	and    $0xfffffffffffffffc,%rax
  40554b:	48 8d 34 86          	lea    (%rsi,%rax,4),%rsi
  40554f:	48 39 c2             	cmp    %rax,%rdx
  405552:	74 20                	je     405574 <_ZN7pvectorIfE4fillEf._omp_fn.0+0x104>
  405554:	48 8d 46 04          	lea    0x4(%rsi),%rax
/home/aliha951/ipdps-artifact/gapbs-master/src/pvector.h:135
  405558:	f3 0f 11 0e          	movss  %xmm1,(%rsi)
  40555c:	48 39 c5             	cmp    %rax,%rbp
  40555f:	76 13                	jbe    405574 <_ZN7pvectorIfE4fillEf._omp_fn.0+0x104>
  405561:	48 8d 46 08          	lea    0x8(%rsi),%rax
  405565:	f3 0f 11 4e 04       	movss  %xmm1,0x4(%rsi)
  40556a:	48 39 c5             	cmp    %rax,%rbp
  40556d:	76 05                	jbe    405574 <_ZN7pvectorIfE4fillEf._omp_fn.0+0x104>
  40556f:	f3 0f 11 4e 08       	movss  %xmm1,0x8(%rsi)
/home/aliha951/ipdps-artifact/gapbs-master/src/pvector.h:133
    #pragma omp parallel for
  405574:	48 83 c4 08          	add    $0x8,%rsp
  405578:	5b                   	pop    %rbx
  405579:	5d                   	pop    %rbp
  40557a:	41 5c                	pop    %r12
  40557c:	41 5d                	pop    %r13
  40557e:	c3                   	retq   
  40557f:	90                   	nop
  405580:	48 83 c0 01          	add    $0x1,%rax
/home/aliha951/ipdps-artifact/gapbs-master/src/pvector.h:134
    for (T_* ptr=start_; ptr < end_size_; ptr++)
  405584:	31 d2                	xor    %edx,%edx
  405586:	e9 3d ff ff ff       	jmpq   4054c8 <_ZN7pvectorIfE4fillEf._omp_fn.0+0x58>
  40558b:	0f 1f 44 00 00       	nopl   0x0(%rax,%rax,1)

0000000000405590 <_ZN8CSRGraphIiiLb1EE8GenIndexERK7pvectorIlEPi._omp_fn.0>:
_ZN8CSRGraphIiiLb1EE8GenIndexERK7pvectorIlEPi._omp_fn.0():
/home/aliha951/ipdps-artifact/gapbs-master/src/graph.h:245
  }

  static DestID_** GenIndex(const pvector<SGOffset> &offsets, DestID_* neighs) {
    NodeID_ length = offsets.size();
    DestID_** index = new DestID_*[length];
    #pragma omp parallel for
  405590:	f3 0f 1e fa          	endbr64 
  405594:	55                   	push   %rbp
  405595:	53                   	push   %rbx
  405596:	48 89 fb             	mov    %rdi,%rbx
  405599:	48 83 ec 08          	sub    $0x8,%rsp
  40559d:	e8 0e e5 ff ff       	callq  403ab0 <omp_get_num_threads@plt>
  4055a2:	89 c5                	mov    %eax,%ebp
  4055a4:	e8 e7 e3 ff ff       	callq  403990 <omp_get_thread_num@plt>
  4055a9:	89 c1                	mov    %eax,%ecx
  4055ab:	8b 43 18             	mov    0x18(%rbx),%eax
  4055ae:	99                   	cltd   
  4055af:	f7 fd                	idiv   %ebp
  4055b1:	39 d1                	cmp    %edx,%ecx
  4055b3:	7c 43                	jl     4055f8 <_ZN8CSRGraphIiiLb1EE8GenIndexERK7pvectorIlEPi._omp_fn.0+0x68>
  4055b5:	0f af c8             	imul   %eax,%ecx
  4055b8:	01 ca                	add    %ecx,%edx
  4055ba:	01 d0                	add    %edx,%eax
  4055bc:	39 c2                	cmp    %eax,%edx
  4055be:	7d 2c                	jge    4055ec <_ZN8CSRGraphIiiLb1EE8GenIndexERK7pvectorIlEPi._omp_fn.0+0x5c>
_ZNK7pvectorIlEixEm():
/home/aliha951/ipdps-artifact/gapbs-master/src/pvector.h:120
    return start_[n];
  4055c0:	48 8b 0b             	mov    (%rbx),%rcx
_ZN8CSRGraphIiiLb1EE8GenIndexERK7pvectorIlEPi._omp_fn.0():
/home/aliha951/ipdps-artifact/gapbs-master/src/graph.h:245
  4055c3:	4c 8b 43 10          	mov    0x10(%rbx),%r8
  4055c7:	48 63 d2             	movslq %edx,%rdx
  4055ca:	48 8b 7b 08          	mov    0x8(%rbx),%rdi
_ZNK7pvectorIlEixEm():
/home/aliha951/ipdps-artifact/gapbs-master/src/pvector.h:120
  4055ce:	48 8b 31             	mov    (%rcx),%rsi
  4055d1:	0f 1f 80 00 00 00 00 	nopl   0x0(%rax)
_ZN8CSRGraphIiiLb1EE8GenIndexERK7pvectorIlEPi._omp_fn.0():
/home/aliha951/ipdps-artifact/gapbs-master/src/graph.h:247 (discriminator 1)
    for (NodeID_ n=0; n < length; n++)
      index[n] = neighs + offsets[n];
  4055d8:	48 8b 0c d6          	mov    (%rsi,%rdx,8),%rcx
  4055dc:	48 8d 0c 8f          	lea    (%rdi,%rcx,4),%rcx
  4055e0:	49 89 0c d0          	mov    %rcx,(%r8,%rdx,8)
  4055e4:	48 83 c2 01          	add    $0x1,%rdx
  4055e8:	39 d0                	cmp    %edx,%eax
  4055ea:	7f ec                	jg     4055d8 <_ZN8CSRGraphIiiLb1EE8GenIndexERK7pvectorIlEPi._omp_fn.0+0x48>
/home/aliha951/ipdps-artifact/gapbs-master/src/graph.h:245
    #pragma omp parallel for
  4055ec:	48 83 c4 08          	add    $0x8,%rsp
  4055f0:	5b                   	pop    %rbx
  4055f1:	5d                   	pop    %rbp
  4055f2:	c3                   	retq   
  4055f3:	0f 1f 44 00 00       	nopl   0x0(%rax,%rax,1)
  4055f8:	83 c0 01             	add    $0x1,%eax
  4055fb:	31 d2                	xor    %edx,%edx
  4055fd:	eb b6                	jmp    4055b5 <_ZN8CSRGraphIiiLb1EE8GenIndexERK7pvectorIlEPi._omp_fn.0+0x25>
  4055ff:	90                   	nop

0000000000405600 <_ZN7pvectorI8EdgePairIiiEE7reserveEm._omp_fn.0>:
_ZN7pvectorI8EdgePairIiiEE7reserveEm._omp_fn.0():
/home/aliha951/ipdps-artifact/gapbs-master/src/pvector.h:86
      #pragma omp parallel for
  405600:	f3 0f 1e fa          	endbr64 
  405604:	41 55                	push   %r13
  405606:	41 54                	push   %r12
  405608:	55                   	push   %rbp
  405609:	53                   	push   %rbx
  40560a:	48 83 ec 08          	sub    $0x8,%rsp
  40560e:	48 8b 07             	mov    (%rdi),%rax
_ZNK7pvectorI8EdgePairIiiEE4sizeEv():
/home/aliha951/ipdps-artifact/gapbs-master/src/pvector.h:143
  size_t capacity() const {
    return end_capacity_ - start_;
  }

  size_t size() const {
    return end_size_ - start_;
  405611:	4c 8b 20             	mov    (%rax),%r12
  405614:	48 8b 40 08          	mov    0x8(%rax),%rax
  405618:	4c 29 e0             	sub    %r12,%rax
  40561b:	48 c1 f8 03          	sar    $0x3,%rax
  40561f:	74 50                	je     405671 <_ZN7pvectorI8EdgePairIiiEE7reserveEm._omp_fn.0+0x71>
  405621:	49 89 fd             	mov    %rdi,%r13
  405624:	48 89 c3             	mov    %rax,%rbx
  405627:	e8 84 e4 ff ff       	callq  403ab0 <omp_get_num_threads@plt>
  40562c:	89 c5                	mov    %eax,%ebp
  40562e:	e8 5d e3 ff ff       	callq  403990 <omp_get_thread_num@plt>
  405633:	48 63 f5             	movslq %ebp,%rsi
  405636:	31 d2                	xor    %edx,%edx
  405638:	48 63 c8             	movslq %eax,%rcx
  40563b:	48 89 d8             	mov    %rbx,%rax
  40563e:	48 f7 f6             	div    %rsi
  405641:	48 39 d1             	cmp    %rdx,%rcx
  405644:	72 3a                	jb     405680 <_ZN7pvectorI8EdgePairIiiEE7reserveEm._omp_fn.0+0x80>
  405646:	48 0f af c8          	imul   %rax,%rcx
  40564a:	48 01 ca             	add    %rcx,%rdx
  40564d:	48 01 d0             	add    %rdx,%rax
  405650:	48 39 c2             	cmp    %rax,%rdx
  405653:	73 1c                	jae    405671 <_ZN7pvectorI8EdgePairIiiEE7reserveEm._omp_fn.0+0x71>
_ZN7pvectorI8EdgePairIiiEE7reserveEm._omp_fn.0():
/home/aliha951/ipdps-artifact/gapbs-master/src/pvector.h:86
      #pragma omp parallel for
  405655:	49 8b 75 08          	mov    0x8(%r13),%rsi
  405659:	0f 1f 80 00 00 00 00 	nopl   0x0(%rax)
/home/aliha951/ipdps-artifact/gapbs-master/src/pvector.h:88 (discriminator 1)
        new_range[i] = start_[i];
  405660:	49 8b 0c d4          	mov    (%r12,%rdx,8),%rcx
  405664:	48 89 0c d6          	mov    %rcx,(%rsi,%rdx,8)
  405668:	48 83 c2 01          	add    $0x1,%rdx
  40566c:	48 39 d0             	cmp    %rdx,%rax
  40566f:	75 ef                	jne    405660 <_ZN7pvectorI8EdgePairIiiEE7reserveEm._omp_fn.0+0x60>
/home/aliha951/ipdps-artifact/gapbs-master/src/pvector.h:86
      #pragma omp parallel for
  405671:	48 83 c4 08          	add    $0x8,%rsp
  405675:	5b                   	pop    %rbx
  405676:	5d                   	pop    %rbp
  405677:	41 5c                	pop    %r12
  405679:	41 5d                	pop    %r13
  40567b:	c3                   	retq   
  40567c:	0f 1f 40 00          	nopl   0x0(%rax)
  405680:	48 83 c0 01          	add    $0x1,%rax
_ZNK7pvectorI8EdgePairIiiEE4sizeEv():
/home/aliha951/ipdps-artifact/gapbs-master/src/pvector.h:143
    return end_size_ - start_;
  405684:	31 d2                	xor    %edx,%edx
  405686:	eb be                	jmp    405646 <_ZN7pvectorI8EdgePairIiiEE7reserveEm._omp_fn.0+0x46>
_ZN7pvectorI8EdgePairIiiEE7reserveEm._omp_fn.0():
/home/aliha951/ipdps-artifact/gapbs-master/src/pvector.h:143
  405688:	0f 1f 84 00 00 00 00 	nopl   0x0(%rax,%rax,1)
  40568f:	00 

0000000000405690 <_ZN11BuilderBaseIiiiLb1EE12CountDegreesERK7pvectorI8EdgePairIiiEEb._omp_fn.0>:
_ZN11BuilderBaseIiiiLb1EE12CountDegreesERK7pvectorI8EdgePairIiiEEb._omp_fn.0():
/home/aliha951/ipdps-artifact/gapbs-master/src/builder.h:82
    return max_seen;
  }

  pvector<NodeID_> CountDegrees(const EdgeList &el, bool transpose) {
    pvector<NodeID_> degrees(num_nodes_, 0);
    #pragma omp parallel for
  405690:	f3 0f 1e fa          	endbr64 
  405694:	41 55                	push   %r13
  405696:	41 54                	push   %r12
  405698:	55                   	push   %rbp
  405699:	53                   	push   %rbx
  40569a:	48 83 ec 08          	sub    $0x8,%rsp
/home/aliha951/ipdps-artifact/gapbs-master/src/builder.h:83
    for (auto it = el.begin(); it < el.end(); it++) {
  40569e:	48 8b 47 08          	mov    0x8(%rdi),%rax
_ZNK7pvectorI8EdgePairIiiEE5beginEv():
/home/aliha951/ipdps-artifact/gapbs-master/src/pvector.h:147
  }

  iterator begin() const {
    return start_;
  4056a2:	4c 8b 20             	mov    (%rax),%r12
_ZNK7pvectorI8EdgePairIiiEE3endEv():
/home/aliha951/ipdps-artifact/gapbs-master/src/pvector.h:151
  }

  iterator end() const {
    return end_size_;
  4056a5:	4c 8b 68 08          	mov    0x8(%rax),%r13
  4056a9:	4d 39 e5             	cmp    %r12,%r13
  4056ac:	0f 86 8a 00 00 00    	jbe    40573c <_ZN11BuilderBaseIiiiLb1EE12CountDegreesERK7pvectorI8EdgePairIiiEEb._omp_fn.0+0xac>
  4056b2:	48 89 fb             	mov    %rdi,%rbx
  4056b5:	e8 f6 e3 ff ff       	callq  403ab0 <omp_get_num_threads@plt>
  4056ba:	48 63 e8             	movslq %eax,%rbp
  4056bd:	e8 ce e2 ff ff       	callq  403990 <omp_get_thread_num@plt>
  4056c2:	48 63 c8             	movslq %eax,%rcx
  4056c5:	49 8d 45 07          	lea    0x7(%r13),%rax
  4056c9:	4c 29 e0             	sub    %r12,%rax
  4056cc:	48 89 c2             	mov    %rax,%rdx
  4056cf:	48 8d 40 07          	lea    0x7(%rax),%rax
  4056d3:	48 0f 49 c2          	cmovns %rdx,%rax
  4056d7:	48 c1 f8 03          	sar    $0x3,%rax
  4056db:	48 99                	cqto   
  4056dd:	48 f7 fd             	idiv   %rbp
  4056e0:	48 39 d1             	cmp    %rdx,%rcx
  4056e3:	7c 6b                	jl     405750 <_ZN11BuilderBaseIiiiLb1EE12CountDegreesERK7pvectorI8EdgePairIiiEEb._omp_fn.0+0xc0>
  4056e5:	48 0f af c8          	imul   %rax,%rcx
  4056e9:	48 01 ca             	add    %rcx,%rdx
  4056ec:	48 01 d0             	add    %rdx,%rax
  4056ef:	48 39 c2             	cmp    %rax,%rdx
  4056f2:	7d 48                	jge    40573c <_ZN11BuilderBaseIiiiLb1EE12CountDegreesERK7pvectorI8EdgePairIiiEEb._omp_fn.0+0xac>
  4056f4:	80 7b 18 00          	cmpb   $0x0,0x18(%rbx)
_ZN11BuilderBaseIiiiLb1EE12CountDegreesERK7pvectorI8EdgePairIiiEEb._omp_fn.0():
/home/aliha951/ipdps-artifact/gapbs-master/src/builder.h:82
    #pragma omp parallel for
  4056f8:	48 8b 3b             	mov    (%rbx),%rdi
  4056fb:	49 8d 14 d4          	lea    (%r12,%rdx,8),%rdx
  4056ff:	4d 8d 04 c4          	lea    (%r12,%rax,8),%r8
  405703:	75 53                	jne    405758 <_ZN11BuilderBaseIiiiLb1EE12CountDegreesERK7pvectorI8EdgePairIiiEEb._omp_fn.0+0xc8>
  405705:	0f 1f 00             	nopl   (%rax)
_ZN7pvectorIiEixEm():
/home/aliha951/ipdps-artifact/gapbs-master/src/pvector.h:116
    return start_[n];
  405708:	48 8b 4b 10          	mov    0x10(%rbx),%rcx
_ZN11BuilderBaseIiiiLb1EE12CountDegreesERK7pvectorI8EdgePairIiiEEb._omp_fn.0():
/home/aliha951/ipdps-artifact/gapbs-master/src/builder.h:84
      Edge e = *it;
  40570c:	48 63 42 04          	movslq 0x4(%rdx),%rax
/home/aliha951/ipdps-artifact/gapbs-master/src/builder.h:86
      if (symmetrize_ || (!symmetrize_ && !transpose))
        fetch_and_add(degrees[e.u], 1);
  405710:	48 63 32             	movslq (%rdx),%rsi
_Z13fetch_and_addIiiET_RS0_T0_():
/home/aliha951/ipdps-artifact/gapbs-master/src/platform_atomics.h:26

    // gcc/clang/icc instrinsics

    template<typename T, typename U>
    T fetch_and_add(T &x, U inc) {
      return __sync_fetch_and_add(&x, inc);
  405713:	48 8b 09             	mov    (%rcx),%rcx
  405716:	f0 83 04 b1 01       	lock addl $0x1,(%rcx,%rsi,4)
_ZN11BuilderBaseIiiiLb1EE12CountDegreesERK7pvectorI8EdgePairIiiEEb._omp_fn.0():
/home/aliha951/ipdps-artifact/gapbs-master/src/builder.h:87
      if ((symmetrize_ && !in_place_) || (!symmetrize_ && transpose))
  40571b:	80 7f 08 00          	cmpb   $0x0,0x8(%rdi)
  40571f:	74 12                	je     405733 <_ZN11BuilderBaseIiiiLb1EE12CountDegreesERK7pvectorI8EdgePairIiiEEb._omp_fn.0+0xa3>
  405721:	80 7f 0a 00          	cmpb   $0x0,0xa(%rdi)
  405725:	75 0c                	jne    405733 <_ZN11BuilderBaseIiiiLb1EE12CountDegreesERK7pvectorI8EdgePairIiiEEb._omp_fn.0+0xa3>
_ZN7pvectorIiEixEm():
/home/aliha951/ipdps-artifact/gapbs-master/src/pvector.h:116
  405727:	48 8b 4b 10          	mov    0x10(%rbx),%rcx
_Z13fetch_and_addIiiET_RS0_T0_():
/home/aliha951/ipdps-artifact/gapbs-master/src/platform_atomics.h:26
  40572b:	48 8b 09             	mov    (%rcx),%rcx
  40572e:	f0 83 04 81 01       	lock addl $0x1,(%rcx,%rax,4)
  405733:	48 83 c2 08          	add    $0x8,%rdx
  405737:	49 39 d0             	cmp    %rdx,%r8
  40573a:	77 cc                	ja     405708 <_ZN11BuilderBaseIiiiLb1EE12CountDegreesERK7pvectorI8EdgePairIiiEEb._omp_fn.0+0x78>
_ZN11BuilderBaseIiiiLb1EE12CountDegreesERK7pvectorI8EdgePairIiiEEb._omp_fn.0():
/home/aliha951/ipdps-artifact/gapbs-master/src/builder.h:82
    #pragma omp parallel for
  40573c:	48 83 c4 08          	add    $0x8,%rsp
  405740:	5b                   	pop    %rbx
  405741:	5d                   	pop    %rbp
  405742:	41 5c                	pop    %r12
  405744:	41 5d                	pop    %r13
  405746:	c3                   	retq   
  405747:	66 0f 1f 84 00 00 00 	nopw   0x0(%rax,%rax,1)
  40574e:	00 00 
  405750:	48 83 c0 01          	add    $0x1,%rax
_ZNK7pvectorI8EdgePairIiiEE3endEv():
/home/aliha951/ipdps-artifact/gapbs-master/src/pvector.h:151
    return end_size_;
  405754:	31 d2                	xor    %edx,%edx
  405756:	eb 8d                	jmp    4056e5 <_ZN11BuilderBaseIiiiLb1EE12CountDegreesERK7pvectorI8EdgePairIiiEEb._omp_fn.0+0x55>
_ZN11BuilderBaseIiiiLb1EE12CountDegreesERK7pvectorI8EdgePairIiiEEb._omp_fn.0():
/home/aliha951/ipdps-artifact/gapbs-master/src/builder.h:85
      if (symmetrize_ || (!symmetrize_ && !transpose))
  405758:	80 7f 08 00          	cmpb   $0x0,0x8(%rdi)
/home/aliha951/ipdps-artifact/gapbs-master/src/builder.h:84
      Edge e = *it;
  40575c:	48 63 42 04          	movslq 0x4(%rdx),%rax
/home/aliha951/ipdps-artifact/gapbs-master/src/builder.h:85
      if (symmetrize_ || (!symmetrize_ && !transpose))
  405760:	74 1b                	je     40577d <_ZN11BuilderBaseIiiiLb1EE12CountDegreesERK7pvectorI8EdgePairIiiEEb._omp_fn.0+0xed>
_ZN7pvectorIiEixEm():
/home/aliha951/ipdps-artifact/gapbs-master/src/pvector.h:116
    return start_[n];
  405762:	48 8b 4b 10          	mov    0x10(%rbx),%rcx
_ZN11BuilderBaseIiiiLb1EE12CountDegreesERK7pvectorI8EdgePairIiiEEb._omp_fn.0():
/home/aliha951/ipdps-artifact/gapbs-master/src/builder.h:86
        fetch_and_add(degrees[e.u], 1);
  405766:	48 63 32             	movslq (%rdx),%rsi
_Z13fetch_and_addIiiET_RS0_T0_():
/home/aliha951/ipdps-artifact/gapbs-master/src/platform_atomics.h:26
  405769:	48 8b 09             	mov    (%rcx),%rcx
  40576c:	f0 83 04 b1 01       	lock addl $0x1,(%rcx,%rsi,4)
_ZN11BuilderBaseIiiiLb1EE12CountDegreesERK7pvectorI8EdgePairIiiEEb._omp_fn.0():
/home/aliha951/ipdps-artifact/gapbs-master/src/builder.h:87
      if ((symmetrize_ && !in_place_) || (!symmetrize_ && transpose))
  405771:	80 7f 08 00          	cmpb   $0x0,0x8(%rdi)
  405775:	74 06                	je     40577d <_ZN11BuilderBaseIiiiLb1EE12CountDegreesERK7pvectorI8EdgePairIiiEEb._omp_fn.0+0xed>
/home/aliha951/ipdps-artifact/gapbs-master/src/builder.h:87 (discriminator 1)
  405777:	80 7f 0a 00          	cmpb   $0x0,0xa(%rdi)
  40577b:	75 0c                	jne    405789 <_ZN11BuilderBaseIiiiLb1EE12CountDegreesERK7pvectorI8EdgePairIiiEEb._omp_fn.0+0xf9>
_ZN7pvectorIiEixEm():
/home/aliha951/ipdps-artifact/gapbs-master/src/pvector.h:116
  40577d:	48 8b 4b 10          	mov    0x10(%rbx),%rcx
_Z13fetch_and_addIiiET_RS0_T0_():
/home/aliha951/ipdps-artifact/gapbs-master/src/platform_atomics.h:26
  405781:	48 8b 09             	mov    (%rcx),%rcx
  405784:	f0 83 04 81 01       	lock addl $0x1,(%rcx,%rax,4)
  405789:	48 83 c2 08          	add    $0x8,%rdx
  40578d:	49 39 d0             	cmp    %rdx,%r8
  405790:	77 c6                	ja     405758 <_ZN11BuilderBaseIiiiLb1EE12CountDegreesERK7pvectorI8EdgePairIiiEEb._omp_fn.0+0xc8>
  405792:	eb a8                	jmp    40573c <_ZN11BuilderBaseIiiiLb1EE12CountDegreesERK7pvectorI8EdgePairIiiEEb._omp_fn.0+0xac>
_ZN11BuilderBaseIiiiLb1EE12CountDegreesERK7pvectorI8EdgePairIiiEEb._omp_fn.0():
/home/aliha951/ipdps-artifact/gapbs-master/src/platform_atomics.h:26
  405794:	66 66 2e 0f 1f 84 00 	data16 nopw %cs:0x0(%rax,%rax,1)
  40579b:	00 00 00 00 
  40579f:	90                   	nop

00000000004057a0 <_ZN11BuilderBaseIiiiLb1EE17ParallelPrefixSumERK7pvectorIiE._omp_fn.0>:
_ZN11BuilderBaseIiiiLb1EE17ParallelPrefixSumERK7pvectorIiE._omp_fn.0():
/home/aliha951/ipdps-artifact/gapbs-master/src/builder.h:110
  static
  pvector<SGOffset> ParallelPrefixSum(const pvector<NodeID_> &degrees) {
    const size_t block_size = 1<<20;
    const size_t num_blocks = (degrees.size() + block_size - 1) / block_size;
    pvector<SGOffset> local_sums(num_blocks);
    #pragma omp parallel for
  4057a0:	f3 0f 1e fa          	endbr64 
  4057a4:	41 54                	push   %r12
  4057a6:	55                   	push   %rbp
  4057a7:	53                   	push   %rbx
  4057a8:	48 8b 5f 08          	mov    0x8(%rdi),%rbx
  4057ac:	48 85 db             	test   %rbx,%rbx
  4057af:	0f 84 4d 01 00 00    	je     405902 <_ZN11BuilderBaseIiiiLb1EE17ParallelPrefixSumERK7pvectorIiE._omp_fn.0+0x162>
  4057b5:	49 89 fc             	mov    %rdi,%r12
  4057b8:	e8 f3 e2 ff ff       	callq  403ab0 <omp_get_num_threads@plt>
  4057bd:	89 c5                	mov    %eax,%ebp
  4057bf:	e8 cc e1 ff ff       	callq  403990 <omp_get_thread_num@plt>
  4057c4:	48 63 cd             	movslq %ebp,%rcx
  4057c7:	31 d2                	xor    %edx,%edx
  4057c9:	48 63 f0             	movslq %eax,%rsi
  4057cc:	48 89 d8             	mov    %rbx,%rax
  4057cf:	48 f7 f1             	div    %rcx
  4057d2:	48 39 d6             	cmp    %rdx,%rsi
  4057d5:	0f 82 3d 01 00 00    	jb     405918 <_ZN11BuilderBaseIiiiLb1EE17ParallelPrefixSumERK7pvectorIiE._omp_fn.0+0x178>
  4057db:	48 0f af f0          	imul   %rax,%rsi
  4057df:	48 01 d6             	add    %rdx,%rsi
  4057e2:	48 01 f0             	add    %rsi,%rax
  4057e5:	48 39 c6             	cmp    %rax,%rsi
  4057e8:	0f 83 14 01 00 00    	jae    405902 <_ZN11BuilderBaseIiiiLb1EE17ParallelPrefixSumERK7pvectorIiE._omp_fn.0+0x162>
/home/aliha951/ipdps-artifact/gapbs-master/src/builder.h:113
    for (size_t block=0; block < num_blocks; block++) {
      SGOffset lsum = 0;
      size_t block_end = std::min((block + 1) * block_size, degrees.size());
  4057ee:	49 8b 14 24          	mov    (%r12),%rdx
  4057f2:	49 89 f0             	mov    %rsi,%r8
/home/aliha951/ipdps-artifact/gapbs-master/src/builder.h:115
      for (size_t i=block * block_size; i < block_end; i++)
        lsum += degrees[i];
  4057f5:	66 0f ef e4          	pxor   %xmm4,%xmm4
  4057f9:	49 c1 e0 14          	shl    $0x14,%r8
_ZNK7pvectorIiE4sizeEv():
/home/aliha951/ipdps-artifact/gapbs-master/src/pvector.h:143
    return end_size_ - start_;
  4057fd:	4c 8b 1a             	mov    (%rdx),%r11
  405800:	4c 8b 52 08          	mov    0x8(%rdx),%r10
_ZN7pvectorIlEixEm():
/home/aliha951/ipdps-artifact/gapbs-master/src/pvector.h:116
    return start_[n];
  405804:	49 8b 54 24 10       	mov    0x10(%r12),%rdx
_ZNK7pvectorIiE4sizeEv():
/home/aliha951/ipdps-artifact/gapbs-master/src/pvector.h:143
    return end_size_ - start_;
  405809:	4d 29 da             	sub    %r11,%r10
_ZN7pvectorIlEixEm():
/home/aliha951/ipdps-artifact/gapbs-master/src/pvector.h:116
    return start_[n];
  40580c:	48 8b 12             	mov    (%rdx),%rdx
_ZNK7pvectorIiE4sizeEv():
/home/aliha951/ipdps-artifact/gapbs-master/src/pvector.h:143
    return end_size_ - start_;
  40580f:	49 c1 fa 02          	sar    $0x2,%r10
  405813:	4c 8d 0c f2          	lea    (%rdx,%rsi,8),%r9
  405817:	48 c1 e6 16          	shl    $0x16,%rsi
  40581b:	48 8d 2c c2          	lea    (%rdx,%rax,8),%rbp
  40581f:	4c 01 de             	add    %r11,%rsi
  405822:	66 0f 1f 44 00 00    	nopw   0x0(%rax,%rax,1)
/home/aliha951/ipdps-artifact/gapbs-master/src/pvector.h:142
  size_t size() const {
  405828:	4c 89 c1             	mov    %r8,%rcx
_ZN11BuilderBaseIiiiLb1EE17ParallelPrefixSumERK7pvectorIiE._omp_fn.0():
/home/aliha951/ipdps-artifact/gapbs-master/src/builder.h:113
      size_t block_end = std::min((block + 1) * block_size, degrees.size());
  40582b:	49 81 c0 00 00 10 00 	add    $0x100000,%r8
  405832:	4c 89 d3             	mov    %r10,%rbx
  405835:	4d 39 d0             	cmp    %r10,%r8
  405838:	49 0f 46 d8          	cmovbe %r8,%rbx
/home/aliha951/ipdps-artifact/gapbs-master/src/builder.h:114
      for (size_t i=block * block_size; i < block_end; i++)
  40583c:	48 39 cb             	cmp    %rcx,%rbx
  40583f:	0f 86 cb 00 00 00    	jbe    405910 <_ZN11BuilderBaseIiiiLb1EE17ParallelPrefixSumERK7pvectorIiE._omp_fn.0+0x170>
  405845:	48 89 df             	mov    %rbx,%rdi
  405848:	48 29 cf             	sub    %rcx,%rdi
  40584b:	48 8d 47 ff          	lea    -0x1(%rdi),%rax
  40584f:	48 83 f8 02          	cmp    $0x2,%rax
  405853:	0f 86 bb 00 00 00    	jbe    405914 <_ZN11BuilderBaseIiiiLb1EE17ParallelPrefixSumERK7pvectorIiE._omp_fn.0+0x174>
  405859:	48 89 fa             	mov    %rdi,%rdx
  40585c:	48 89 f0             	mov    %rsi,%rax
  40585f:	66 0f ef c9          	pxor   %xmm1,%xmm1
  405863:	48 c1 ea 02          	shr    $0x2,%rdx
  405867:	48 c1 e2 04          	shl    $0x4,%rdx
  40586b:	48 01 f2             	add    %rsi,%rdx
  40586e:	66 90                	xchg   %ax,%ax
/home/aliha951/ipdps-artifact/gapbs-master/src/builder.h:115 (discriminator 2)
        lsum += degrees[i];
  405870:	f3 0f 6f 00          	movdqu (%rax),%xmm0
  405874:	66 0f 6f d4          	movdqa %xmm4,%xmm2
  405878:	48 83 c0 10          	add    $0x10,%rax
  40587c:	66 0f 66 d0          	pcmpgtd %xmm0,%xmm2
  405880:	66 0f 6f d8          	movdqa %xmm0,%xmm3
  405884:	66 0f 62 da          	punpckldq %xmm2,%xmm3
  405888:	66 0f 6a c2          	punpckhdq %xmm2,%xmm0
  40588c:	66 0f d4 cb          	paddq  %xmm3,%xmm1
  405890:	66 0f d4 c8          	paddq  %xmm0,%xmm1
/home/aliha951/ipdps-artifact/gapbs-master/src/builder.h:114 (discriminator 2)
      for (size_t i=block * block_size; i < block_end; i++)
  405894:	48 39 d0             	cmp    %rdx,%rax
  405897:	75 d7                	jne    405870 <_ZN11BuilderBaseIiiiLb1EE17ParallelPrefixSumERK7pvectorIiE._omp_fn.0+0xd0>
  405899:	66 0f 6f c1          	movdqa %xmm1,%xmm0
  40589d:	48 89 fa             	mov    %rdi,%rdx
  4058a0:	66 0f 73 d8 08       	psrldq $0x8,%xmm0
  4058a5:	48 83 e2 fc          	and    $0xfffffffffffffffc,%rdx
  4058a9:	66 0f d4 c1          	paddq  %xmm1,%xmm0
  4058ad:	48 01 d1             	add    %rdx,%rcx
  4058b0:	66 48 0f 7e c0       	movq   %xmm0,%rax
  4058b5:	48 39 fa             	cmp    %rdi,%rdx
  4058b8:	74 31                	je     4058eb <_ZN11BuilderBaseIiiiLb1EE17ParallelPrefixSumERK7pvectorIiE._omp_fn.0+0x14b>
/home/aliha951/ipdps-artifact/gapbs-master/src/builder.h:115
        lsum += degrees[i];
  4058ba:	49 63 3c 8b          	movslq (%r11,%rcx,4),%rdi
_ZNK7pvectorIiEixEm():
/home/aliha951/ipdps-artifact/gapbs-master/src/pvector.h:120
    return start_[n];
  4058be:	48 8d 14 8d 00 00 00 	lea    0x0(,%rcx,4),%rdx
  4058c5:	00 
_ZN11BuilderBaseIiiiLb1EE17ParallelPrefixSumERK7pvectorIiE._omp_fn.0():
/home/aliha951/ipdps-artifact/gapbs-master/src/builder.h:115
  4058c6:	48 01 f8             	add    %rdi,%rax
/home/aliha951/ipdps-artifact/gapbs-master/src/builder.h:114
      for (size_t i=block * block_size; i < block_end; i++)
  4058c9:	48 8d 79 01          	lea    0x1(%rcx),%rdi
  4058cd:	48 39 df             	cmp    %rbx,%rdi
  4058d0:	73 19                	jae    4058eb <_ZN11BuilderBaseIiiiLb1EE17ParallelPrefixSumERK7pvectorIiE._omp_fn.0+0x14b>
/home/aliha951/ipdps-artifact/gapbs-master/src/builder.h:115
        lsum += degrees[i];
  4058d2:	49 63 7c 13 04       	movslq 0x4(%r11,%rdx,1),%rdi
/home/aliha951/ipdps-artifact/gapbs-master/src/builder.h:114
      for (size_t i=block * block_size; i < block_end; i++)
  4058d7:	48 83 c1 02          	add    $0x2,%rcx
/home/aliha951/ipdps-artifact/gapbs-master/src/builder.h:115
        lsum += degrees[i];
  4058db:	48 01 f8             	add    %rdi,%rax
/home/aliha951/ipdps-artifact/gapbs-master/src/builder.h:114
      for (size_t i=block * block_size; i < block_end; i++)
  4058de:	48 39 cb             	cmp    %rcx,%rbx
  4058e1:	76 08                	jbe    4058eb <_ZN11BuilderBaseIiiiLb1EE17ParallelPrefixSumERK7pvectorIiE._omp_fn.0+0x14b>
/home/aliha951/ipdps-artifact/gapbs-master/src/builder.h:115
        lsum += degrees[i];
  4058e3:	49 63 54 13 08       	movslq 0x8(%r11,%rdx,1),%rdx
  4058e8:	48 01 d0             	add    %rdx,%rax
/home/aliha951/ipdps-artifact/gapbs-master/src/builder.h:116
      local_sums[block] = lsum;
  4058eb:	49 89 01             	mov    %rax,(%r9)
  4058ee:	49 83 c1 08          	add    $0x8,%r9
  4058f2:	48 81 c6 00 00 40 00 	add    $0x400000,%rsi
  4058f9:	49 39 e9             	cmp    %rbp,%r9
  4058fc:	0f 85 26 ff ff ff    	jne    405828 <_ZN11BuilderBaseIiiiLb1EE17ParallelPrefixSumERK7pvectorIiE._omp_fn.0+0x88>
/home/aliha951/ipdps-artifact/gapbs-master/src/builder.h:110
    #pragma omp parallel for
  405902:	5b                   	pop    %rbx
  405903:	5d                   	pop    %rbp
  405904:	41 5c                	pop    %r12
  405906:	c3                   	retq   
  405907:	66 0f 1f 84 00 00 00 	nopw   0x0(%rax,%rax,1)
  40590e:	00 00 
/home/aliha951/ipdps-artifact/gapbs-master/src/builder.h:112
      SGOffset lsum = 0;
  405910:	31 c0                	xor    %eax,%eax
  405912:	eb d7                	jmp    4058eb <_ZN11BuilderBaseIiiiLb1EE17ParallelPrefixSumERK7pvectorIiE._omp_fn.0+0x14b>
  405914:	31 c0                	xor    %eax,%eax
  405916:	eb a2                	jmp    4058ba <_ZN11BuilderBaseIiiiLb1EE17ParallelPrefixSumERK7pvectorIiE._omp_fn.0+0x11a>
  405918:	48 83 c0 01          	add    $0x1,%rax
/home/aliha951/ipdps-artifact/gapbs-master/src/builder.h:110
    #pragma omp parallel for
  40591c:	31 d2                	xor    %edx,%edx
  40591e:	e9 b8 fe ff ff       	jmpq   4057db <_ZN11BuilderBaseIiiiLb1EE17ParallelPrefixSumERK7pvectorIiE._omp_fn.0+0x3b>
  405923:	66 66 2e 0f 1f 84 00 	data16 nopw %cs:0x0(%rax,%rax,1)
  40592a:	00 00 00 00 
  40592e:	66 90                	xchg   %ax,%ax

0000000000405930 <_ZN11BuilderBaseIiiiLb1EE17ParallelPrefixSumERK7pvectorIiE._omp_fn.1>:
_ZN11BuilderBaseIiiiLb1EE17ParallelPrefixSumERK7pvectorIiE._omp_fn.1():
/home/aliha951/ipdps-artifact/gapbs-master/src/builder.h:126
      bulk_prefix[block] = total;
      total += local_sums[block];
    }
    bulk_prefix[num_blocks] = total;
    pvector<SGOffset> prefix(degrees.size() + 1);
    #pragma omp parallel for
  405930:	f3 0f 1e fa          	endbr64 
  405934:	41 54                	push   %r12
  405936:	55                   	push   %rbp
  405937:	53                   	push   %rbx
  405938:	48 8b 5f 10          	mov    0x10(%rdi),%rbx
  40593c:	48 85 db             	test   %rbx,%rbx
  40593f:	0f 84 98 00 00 00    	je     4059dd <_ZN11BuilderBaseIiiiLb1EE17ParallelPrefixSumERK7pvectorIiE._omp_fn.1+0xad>
  405945:	48 89 fd             	mov    %rdi,%rbp
  405948:	e8 63 e1 ff ff       	callq  403ab0 <omp_get_num_threads@plt>
  40594d:	41 89 c4             	mov    %eax,%r12d
  405950:	e8 3b e0 ff ff       	callq  403990 <omp_get_thread_num@plt>
  405955:	49 63 cc             	movslq %r12d,%rcx
  405958:	31 d2                	xor    %edx,%edx
  40595a:	4c 63 c8             	movslq %eax,%r9
  40595d:	48 89 d8             	mov    %rbx,%rax
  405960:	48 f7 f1             	div    %rcx
  405963:	49 39 d1             	cmp    %rdx,%r9
  405966:	72 7a                	jb     4059e2 <_ZN11BuilderBaseIiiiLb1EE17ParallelPrefixSumERK7pvectorIiE._omp_fn.1+0xb2>
  405968:	4c 0f af c8          	imul   %rax,%r9
  40596c:	49 01 d1             	add    %rdx,%r9
  40596f:	4c 01 c8             	add    %r9,%rax
  405972:	49 39 c1             	cmp    %rax,%r9
  405975:	73 66                	jae    4059dd <_ZN11BuilderBaseIiiiLb1EE17ParallelPrefixSumERK7pvectorIiE._omp_fn.1+0xad>
/home/aliha951/ipdps-artifact/gapbs-master/src/builder.h:129
    for (size_t block=0; block < num_blocks; block++) {
      SGOffset local_total = bulk_prefix[block];
      size_t block_end = std::min((block + 1) * block_size, degrees.size());
  405977:	48 8b 4d 00          	mov    0x0(%rbp),%rcx
_ZN7pvectorIlEixEm():
/home/aliha951/ipdps-artifact/gapbs-master/src/pvector.h:116
    return start_[n];
  40597b:	48 8b 55 18          	mov    0x18(%rbp),%rdx
_ZN11BuilderBaseIiiiLb1EE17ParallelPrefixSumERK7pvectorIiE._omp_fn.1():
/home/aliha951/ipdps-artifact/gapbs-master/src/builder.h:131
      for (size_t i=block * block_size; i < block_end; i++) {
        prefix[i] = local_total;
  40597f:	48 8b 6d 08          	mov    0x8(%rbp),%rbp
_ZNK7pvectorIiE4sizeEv():
/home/aliha951/ipdps-artifact/gapbs-master/src/pvector.h:143
    return end_size_ - start_;
  405983:	4c 8b 01             	mov    (%rcx),%r8
  405986:	4c 8b 59 08          	mov    0x8(%rcx),%r11
_ZN7pvectorIlEixEm():
/home/aliha951/ipdps-artifact/gapbs-master/src/pvector.h:116
    return start_[n];
  40598a:	48 8b 12             	mov    (%rdx),%rdx
_ZNK7pvectorIiE4sizeEv():
/home/aliha951/ipdps-artifact/gapbs-master/src/pvector.h:143
    return end_size_ - start_;
  40598d:	4d 29 c3             	sub    %r8,%r11
  405990:	4e 8d 14 ca          	lea    (%rdx,%r9,8),%r10
  405994:	49 c1 fb 02          	sar    $0x2,%r11
  405998:	49 c1 e1 14          	shl    $0x14,%r9
  40599c:	48 8d 1c c2          	lea    (%rdx,%rax,8),%rbx
_ZN7pvectorIlEixEm():
/home/aliha951/ipdps-artifact/gapbs-master/src/pvector.h:115
  T_& operator[](size_t n) {
  4059a0:	4c 89 c8             	mov    %r9,%rax
_ZN11BuilderBaseIiiiLb1EE17ParallelPrefixSumERK7pvectorIiE._omp_fn.1():
/home/aliha951/ipdps-artifact/gapbs-master/src/builder.h:129
      size_t block_end = std::min((block + 1) * block_size, degrees.size());
  4059a3:	49 81 c1 00 00 10 00 	add    $0x100000,%r9
  4059aa:	4c 89 de             	mov    %r11,%rsi
/home/aliha951/ipdps-artifact/gapbs-master/src/builder.h:128
      SGOffset local_total = bulk_prefix[block];
  4059ad:	49 8b 12             	mov    (%r10),%rdx
_ZNK7pvectorIiE4sizeEv():
/home/aliha951/ipdps-artifact/gapbs-master/src/pvector.h:142
  size_t size() const {
  4059b0:	4d 39 d9             	cmp    %r11,%r9
  4059b3:	49 0f 46 f1          	cmovbe %r9,%rsi
_ZN11BuilderBaseIiiiLb1EE17ParallelPrefixSumERK7pvectorIiE._omp_fn.1():
/home/aliha951/ipdps-artifact/gapbs-master/src/builder.h:130
      for (size_t i=block * block_size; i < block_end; i++) {
  4059b7:	48 39 c6             	cmp    %rax,%rsi
  4059ba:	76 18                	jbe    4059d4 <_ZN11BuilderBaseIiiiLb1EE17ParallelPrefixSumERK7pvectorIiE._omp_fn.1+0xa4>
_ZN7pvectorIlEixEm():
/home/aliha951/ipdps-artifact/gapbs-master/src/pvector.h:116
    return start_[n];
  4059bc:	48 8b 7d 00          	mov    0x0(%rbp),%rdi
_ZN11BuilderBaseIiiiLb1EE17ParallelPrefixSumERK7pvectorIiE._omp_fn.1():
/home/aliha951/ipdps-artifact/gapbs-master/src/builder.h:132 (discriminator 2)
        local_total += degrees[i];
  4059c0:	49 63 0c 80          	movslq (%r8,%rax,4),%rcx
/home/aliha951/ipdps-artifact/gapbs-master/src/builder.h:131 (discriminator 2)
        prefix[i] = local_total;
  4059c4:	48 89 14 c7          	mov    %rdx,(%rdi,%rax,8)
/home/aliha951/ipdps-artifact/gapbs-master/src/builder.h:130 (discriminator 2)
      for (size_t i=block * block_size; i < block_end; i++) {
  4059c8:	48 83 c0 01          	add    $0x1,%rax
/home/aliha951/ipdps-artifact/gapbs-master/src/builder.h:132 (discriminator 2)
        local_total += degrees[i];
  4059cc:	48 01 ca             	add    %rcx,%rdx
/home/aliha951/ipdps-artifact/gapbs-master/src/builder.h:130 (discriminator 2)
      for (size_t i=block * block_size; i < block_end; i++) {
  4059cf:	48 39 c6             	cmp    %rax,%rsi
  4059d2:	75 ec                	jne    4059c0 <_ZN11BuilderBaseIiiiLb1EE17ParallelPrefixSumERK7pvectorIiE._omp_fn.1+0x90>
  4059d4:	49 83 c2 08          	add    $0x8,%r10
  4059d8:	49 39 da             	cmp    %rbx,%r10
  4059db:	75 c3                	jne    4059a0 <_ZN11BuilderBaseIiiiLb1EE17ParallelPrefixSumERK7pvectorIiE._omp_fn.1+0x70>
/home/aliha951/ipdps-artifact/gapbs-master/src/builder.h:126
    #pragma omp parallel for
  4059dd:	5b                   	pop    %rbx
  4059de:	5d                   	pop    %rbp
  4059df:	41 5c                	pop    %r12
  4059e1:	c3                   	retq   
  4059e2:	48 83 c0 01          	add    $0x1,%rax
  4059e6:	31 d2                	xor    %edx,%edx
  4059e8:	e9 7b ff ff ff       	jmpq   405968 <_ZN11BuilderBaseIiiiLb1EE17ParallelPrefixSumERK7pvectorIiE._omp_fn.1+0x38>
  4059ed:	0f 1f 00             	nopl   (%rax)

00000000004059f0 <_ZN11BuilderBaseIiiiLb1EE7MakeCSRERK7pvectorI8EdgePairIiiEEbPPPiS8_._omp_fn.0>:
_ZN11BuilderBaseIiiiLb1EE7MakeCSRERK7pvectorI8EdgePairIiiEEbPPPiS8_._omp_fn.0():
/home/aliha951/ipdps-artifact/gapbs-master/src/builder.h:306
               DestID_** neighs) {
    pvector<NodeID_> degrees = CountDegrees(el, transpose);
    pvector<SGOffset> offsets = ParallelPrefixSum(degrees);
    *neighs = new DestID_[offsets[num_nodes_]];
    *index = CSRGraph<NodeID_, DestID_>::GenIndex(offsets, *neighs);
    #pragma omp parallel for
  4059f0:	f3 0f 1e fa          	endbr64 
  4059f4:	41 55                	push   %r13
  4059f6:	41 54                	push   %r12
  4059f8:	55                   	push   %rbp
  4059f9:	53                   	push   %rbx
  4059fa:	48 83 ec 08          	sub    $0x8,%rsp
/home/aliha951/ipdps-artifact/gapbs-master/src/builder.h:307
    for (auto it = el.begin(); it < el.end(); it++) {
  4059fe:	48 8b 47 08          	mov    0x8(%rdi),%rax
_ZNK7pvectorI8EdgePairIiiEE5beginEv():
/home/aliha951/ipdps-artifact/gapbs-master/src/pvector.h:147
    return start_;
  405a02:	4c 8b 20             	mov    (%rax),%r12
_ZNK7pvectorI8EdgePairIiiEE3endEv():
/home/aliha951/ipdps-artifact/gapbs-master/src/pvector.h:151
    return end_size_;
  405a05:	4c 8b 68 08          	mov    0x8(%rax),%r13
  405a09:	4d 39 e5             	cmp    %r12,%r13
  405a0c:	0f 86 c5 00 00 00    	jbe    405ad7 <_ZN11BuilderBaseIiiiLb1EE7MakeCSRERK7pvectorI8EdgePairIiiEEbPPPiS8_._omp_fn.0+0xe7>
  405a12:	48 89 fb             	mov    %rdi,%rbx
  405a15:	e8 96 e0 ff ff       	callq  403ab0 <omp_get_num_threads@plt>
  405a1a:	48 63 e8             	movslq %eax,%rbp
  405a1d:	e8 6e df ff ff       	callq  403990 <omp_get_thread_num@plt>
  405a22:	48 63 c8             	movslq %eax,%rcx
  405a25:	49 8d 45 07          	lea    0x7(%r13),%rax
  405a29:	4c 29 e0             	sub    %r12,%rax
  405a2c:	48 89 c2             	mov    %rax,%rdx
  405a2f:	48 8d 40 07          	lea    0x7(%rax),%rax
  405a33:	48 0f 49 c2          	cmovns %rdx,%rax
  405a37:	48 c1 f8 03          	sar    $0x3,%rax
  405a3b:	48 99                	cqto   
  405a3d:	48 f7 fd             	idiv   %rbp
  405a40:	48 39 d1             	cmp    %rdx,%rcx
  405a43:	0f 8c 9f 00 00 00    	jl     405ae8 <_ZN11BuilderBaseIiiiLb1EE7MakeCSRERK7pvectorI8EdgePairIiiEEbPPPiS8_._omp_fn.0+0xf8>
  405a49:	48 0f af c8          	imul   %rax,%rcx
  405a4d:	48 01 ca             	add    %rcx,%rdx
  405a50:	48 01 d0             	add    %rdx,%rax
  405a53:	48 39 c2             	cmp    %rax,%rdx
  405a56:	7d 7f                	jge    405ad7 <_ZN11BuilderBaseIiiiLb1EE7MakeCSRERK7pvectorI8EdgePairIiiEEbPPPiS8_._omp_fn.0+0xe7>
  405a58:	49 8d 14 d4          	lea    (%r12,%rdx,8),%rdx
_ZN11BuilderBaseIiiiLb1EE7MakeCSRERK7pvectorI8EdgePairIiiEEbPPPiS8_._omp_fn.0():
/home/aliha951/ipdps-artifact/gapbs-master/src/builder.h:306
    #pragma omp parallel for
  405a5c:	4c 8b 4b 10          	mov    0x10(%rbx),%r9
  405a60:	44 0f b6 53 20       	movzbl 0x20(%rbx),%r10d
  405a65:	4d 8d 24 c4          	lea    (%r12,%rax,8),%r12
  405a69:	4c 8b 03             	mov    (%rbx),%r8
  405a6c:	eb 2c                	jmp    405a9a <_ZN11BuilderBaseIiiiLb1EE7MakeCSRERK7pvectorI8EdgePairIiiEEbPPPiS8_._omp_fn.0+0xaa>
  405a6e:	66 90                	xchg   %ax,%ax
/home/aliha951/ipdps-artifact/gapbs-master/src/builder.h:309
      Edge e = *it;
      if (symmetrize_ || (!symmetrize_ && !transpose))
  405a70:	45 84 d2             	test   %r10b,%r10b
  405a73:	74 31                	je     405aa6 <_ZN11BuilderBaseIiiiLb1EE7MakeCSRERK7pvectorI8EdgePairIiiEEbPPPiS8_._omp_fn.0+0xb6>
_ZN7pvectorIlEixEm():
/home/aliha951/ipdps-artifact/gapbs-master/src/pvector.h:116
    return start_[n];
  405a75:	48 8b 43 18          	mov    0x18(%rbx),%rax
_ZN11BuilderBaseIiiiLb1EE7MakeCSRERK7pvectorI8EdgePairIiiEEbPPPiS8_._omp_fn.0():
/home/aliha951/ipdps-artifact/gapbs-master/src/builder.h:312
        (*neighs)[fetch_and_add(offsets[e.u], 1)] = e.v;
      if (symmetrize_ || (!symmetrize_ && transpose))
        (*neighs)[fetch_and_add(offsets[static_cast<NodeID_>(e.v)], 1)] =
  405a79:	4d 8b 19             	mov    (%r9),%r11
  405a7c:	48 63 ce             	movslq %esi,%rcx
_Z13fetch_and_addIliET_RS0_T0_():
/home/aliha951/ipdps-artifact/gapbs-master/src/platform_atomics.h:26
  405a7f:	be 01 00 00 00       	mov    $0x1,%esi
  405a84:	48 8b 00             	mov    (%rax),%rax
  405a87:	f0 48 0f c1 34 c8    	lock xadd %rsi,(%rax,%rcx,8)
  405a8d:	48 83 c2 08          	add    $0x8,%rdx
_ZN11BuilderBaseIiiiLb1EE7MakeCSRERK7pvectorI8EdgePairIiiEEbPPPiS8_._omp_fn.0():
/home/aliha951/ipdps-artifact/gapbs-master/src/builder.h:312
  405a91:	41 89 3c b3          	mov    %edi,(%r11,%rsi,4)
  405a95:	49 39 d4             	cmp    %rdx,%r12
  405a98:	76 3d                	jbe    405ad7 <_ZN11BuilderBaseIiiiLb1EE7MakeCSRERK7pvectorI8EdgePairIiiEEbPPPiS8_._omp_fn.0+0xe7>
/home/aliha951/ipdps-artifact/gapbs-master/src/builder.h:309
      if (symmetrize_ || (!symmetrize_ && !transpose))
  405a9a:	41 80 78 08 01       	cmpb   $0x1,0x8(%r8)
/home/aliha951/ipdps-artifact/gapbs-master/src/builder.h:308
      Edge e = *it;
  405a9f:	8b 3a                	mov    (%rdx),%edi
  405aa1:	8b 72 04             	mov    0x4(%rdx),%esi
/home/aliha951/ipdps-artifact/gapbs-master/src/builder.h:309
      if (symmetrize_ || (!symmetrize_ && !transpose))
