
../bc_batching_nopt:     file format elf64-x86-64


Disassembly of section .init:

0000000000403000 <_init>:
_init():
  403000:	f3 0f 1e fa          	endbr64 
  403004:	48 83 ec 08          	sub    $0x8,%rsp
  403008:	48 8b 05 e1 9f 01 00 	mov    0x19fe1(%rip),%rax        # 41cff0 <__gmon_start__>
  40300f:	48 85 c0             	test   %rax,%rax
  403012:	74 02                	je     403016 <_init+0x16>
  403014:	ff d0                	callq  *%rax
  403016:	48 83 c4 08          	add    $0x8,%rsp
  40301a:	c3                   	retq   

Disassembly of section .plt:

0000000000403020 <.plt>:
  403020:	ff 35 e2 9f 01 00    	pushq  0x19fe2(%rip)        # 41d008 <_GLOBAL_OFFSET_TABLE_+0x8>
  403026:	f2 ff 25 e3 9f 01 00 	bnd jmpq *0x19fe3(%rip)        # 41d010 <_GLOBAL_OFFSET_TABLE_+0x10>
  40302d:	0f 1f 00             	nopl   (%rax)
  403030:	f3 0f 1e fa          	endbr64 
  403034:	68 00 00 00 00       	pushq  $0x0
  403039:	f2 e9 e1 ff ff ff    	bnd jmpq 403020 <.plt>
  40303f:	90                   	nop
  403040:	f3 0f 1e fa          	endbr64 
  403044:	68 01 00 00 00       	pushq  $0x1
  403049:	f2 e9 d1 ff ff ff    	bnd jmpq 403020 <.plt>
  40304f:	90                   	nop
  403050:	f3 0f 1e fa          	endbr64 
  403054:	68 02 00 00 00       	pushq  $0x2
  403059:	f2 e9 c1 ff ff ff    	bnd jmpq 403020 <.plt>
  40305f:	90                   	nop
  403060:	f3 0f 1e fa          	endbr64 
  403064:	68 03 00 00 00       	pushq  $0x3
  403069:	f2 e9 b1 ff ff ff    	bnd jmpq 403020 <.plt>
  40306f:	90                   	nop
  403070:	f3 0f 1e fa          	endbr64 
  403074:	68 04 00 00 00       	pushq  $0x4
  403079:	f2 e9 a1 ff ff ff    	bnd jmpq 403020 <.plt>
  40307f:	90                   	nop
  403080:	f3 0f 1e fa          	endbr64 
  403084:	68 05 00 00 00       	pushq  $0x5
  403089:	f2 e9 91 ff ff ff    	bnd jmpq 403020 <.plt>
  40308f:	90                   	nop
  403090:	f3 0f 1e fa          	endbr64 
  403094:	68 06 00 00 00       	pushq  $0x6
  403099:	f2 e9 81 ff ff ff    	bnd jmpq 403020 <.plt>
  40309f:	90                   	nop
  4030a0:	f3 0f 1e fa          	endbr64 
  4030a4:	68 07 00 00 00       	pushq  $0x7
  4030a9:	f2 e9 71 ff ff ff    	bnd jmpq 403020 <.plt>
  4030af:	90                   	nop
  4030b0:	f3 0f 1e fa          	endbr64 
  4030b4:	68 08 00 00 00       	pushq  $0x8
  4030b9:	f2 e9 61 ff ff ff    	bnd jmpq 403020 <.plt>
  4030bf:	90                   	nop
  4030c0:	f3 0f 1e fa          	endbr64 
  4030c4:	68 09 00 00 00       	pushq  $0x9
  4030c9:	f2 e9 51 ff ff ff    	bnd jmpq 403020 <.plt>
  4030cf:	90                   	nop
  4030d0:	f3 0f 1e fa          	endbr64 
  4030d4:	68 0a 00 00 00       	pushq  $0xa
  4030d9:	f2 e9 41 ff ff ff    	bnd jmpq 403020 <.plt>
  4030df:	90                   	nop
  4030e0:	f3 0f 1e fa          	endbr64 
  4030e4:	68 0b 00 00 00       	pushq  $0xb
  4030e9:	f2 e9 31 ff ff ff    	bnd jmpq 403020 <.plt>
  4030ef:	90                   	nop
  4030f0:	f3 0f 1e fa          	endbr64 
  4030f4:	68 0c 00 00 00       	pushq  $0xc
  4030f9:	f2 e9 21 ff ff ff    	bnd jmpq 403020 <.plt>
  4030ff:	90                   	nop
  403100:	f3 0f 1e fa          	endbr64 
  403104:	68 0d 00 00 00       	pushq  $0xd
  403109:	f2 e9 11 ff ff ff    	bnd jmpq 403020 <.plt>
  40310f:	90                   	nop
  403110:	f3 0f 1e fa          	endbr64 
  403114:	68 0e 00 00 00       	pushq  $0xe
  403119:	f2 e9 01 ff ff ff    	bnd jmpq 403020 <.plt>
  40311f:	90                   	nop
  403120:	f3 0f 1e fa          	endbr64 
  403124:	68 0f 00 00 00       	pushq  $0xf
  403129:	f2 e9 f1 fe ff ff    	bnd jmpq 403020 <.plt>
  40312f:	90                   	nop
  403130:	f3 0f 1e fa          	endbr64 
  403134:	68 10 00 00 00       	pushq  $0x10
  403139:	f2 e9 e1 fe ff ff    	bnd jmpq 403020 <.plt>
  40313f:	90                   	nop
  403140:	f3 0f 1e fa          	endbr64 
  403144:	68 11 00 00 00       	pushq  $0x11
  403149:	f2 e9 d1 fe ff ff    	bnd jmpq 403020 <.plt>
  40314f:	90                   	nop
  403150:	f3 0f 1e fa          	endbr64 
  403154:	68 12 00 00 00       	pushq  $0x12
  403159:	f2 e9 c1 fe ff ff    	bnd jmpq 403020 <.plt>
  40315f:	90                   	nop
  403160:	f3 0f 1e fa          	endbr64 
  403164:	68 13 00 00 00       	pushq  $0x13
  403169:	f2 e9 b1 fe ff ff    	bnd jmpq 403020 <.plt>
  40316f:	90                   	nop
  403170:	f3 0f 1e fa          	endbr64 
  403174:	68 14 00 00 00       	pushq  $0x14
  403179:	f2 e9 a1 fe ff ff    	bnd jmpq 403020 <.plt>
  40317f:	90                   	nop
  403180:	f3 0f 1e fa          	endbr64 
  403184:	68 15 00 00 00       	pushq  $0x15
  403189:	f2 e9 91 fe ff ff    	bnd jmpq 403020 <.plt>
  40318f:	90                   	nop
  403190:	f3 0f 1e fa          	endbr64 
  403194:	68 16 00 00 00       	pushq  $0x16
  403199:	f2 e9 81 fe ff ff    	bnd jmpq 403020 <.plt>
  40319f:	90                   	nop
  4031a0:	f3 0f 1e fa          	endbr64 
  4031a4:	68 17 00 00 00       	pushq  $0x17
  4031a9:	f2 e9 71 fe ff ff    	bnd jmpq 403020 <.plt>
  4031af:	90                   	nop
  4031b0:	f3 0f 1e fa          	endbr64 
  4031b4:	68 18 00 00 00       	pushq  $0x18
  4031b9:	f2 e9 61 fe ff ff    	bnd jmpq 403020 <.plt>
  4031bf:	90                   	nop
  4031c0:	f3 0f 1e fa          	endbr64 
  4031c4:	68 19 00 00 00       	pushq  $0x19
  4031c9:	f2 e9 51 fe ff ff    	bnd jmpq 403020 <.plt>
  4031cf:	90                   	nop
  4031d0:	f3 0f 1e fa          	endbr64 
  4031d4:	68 1a 00 00 00       	pushq  $0x1a
  4031d9:	f2 e9 41 fe ff ff    	bnd jmpq 403020 <.plt>
  4031df:	90                   	nop
  4031e0:	f3 0f 1e fa          	endbr64 
  4031e4:	68 1b 00 00 00       	pushq  $0x1b
  4031e9:	f2 e9 31 fe ff ff    	bnd jmpq 403020 <.plt>
  4031ef:	90                   	nop
  4031f0:	f3 0f 1e fa          	endbr64 
  4031f4:	68 1c 00 00 00       	pushq  $0x1c
  4031f9:	f2 e9 21 fe ff ff    	bnd jmpq 403020 <.plt>
  4031ff:	90                   	nop
  403200:	f3 0f 1e fa          	endbr64 
  403204:	68 1d 00 00 00       	pushq  $0x1d
  403209:	f2 e9 11 fe ff ff    	bnd jmpq 403020 <.plt>
  40320f:	90                   	nop
  403210:	f3 0f 1e fa          	endbr64 
  403214:	68 1e 00 00 00       	pushq  $0x1e
  403219:	f2 e9 01 fe ff ff    	bnd jmpq 403020 <.plt>
  40321f:	90                   	nop
  403220:	f3 0f 1e fa          	endbr64 
  403224:	68 1f 00 00 00       	pushq  $0x1f
  403229:	f2 e9 f1 fd ff ff    	bnd jmpq 403020 <.plt>
  40322f:	90                   	nop
  403230:	f3 0f 1e fa          	endbr64 
  403234:	68 20 00 00 00       	pushq  $0x20
  403239:	f2 e9 e1 fd ff ff    	bnd jmpq 403020 <.plt>
  40323f:	90                   	nop
  403240:	f3 0f 1e fa          	endbr64 
  403244:	68 21 00 00 00       	pushq  $0x21
  403249:	f2 e9 d1 fd ff ff    	bnd jmpq 403020 <.plt>
  40324f:	90                   	nop
  403250:	f3 0f 1e fa          	endbr64 
  403254:	68 22 00 00 00       	pushq  $0x22
  403259:	f2 e9 c1 fd ff ff    	bnd jmpq 403020 <.plt>
  40325f:	90                   	nop
  403260:	f3 0f 1e fa          	endbr64 
  403264:	68 23 00 00 00       	pushq  $0x23
  403269:	f2 e9 b1 fd ff ff    	bnd jmpq 403020 <.plt>
  40326f:	90                   	nop
  403270:	f3 0f 1e fa          	endbr64 
  403274:	68 24 00 00 00       	pushq  $0x24
  403279:	f2 e9 a1 fd ff ff    	bnd jmpq 403020 <.plt>
  40327f:	90                   	nop
  403280:	f3 0f 1e fa          	endbr64 
  403284:	68 25 00 00 00       	pushq  $0x25
  403289:	f2 e9 91 fd ff ff    	bnd jmpq 403020 <.plt>
  40328f:	90                   	nop
  403290:	f3 0f 1e fa          	endbr64 
  403294:	68 26 00 00 00       	pushq  $0x26
  403299:	f2 e9 81 fd ff ff    	bnd jmpq 403020 <.plt>
  40329f:	90                   	nop
  4032a0:	f3 0f 1e fa          	endbr64 
  4032a4:	68 27 00 00 00       	pushq  $0x27
  4032a9:	f2 e9 71 fd ff ff    	bnd jmpq 403020 <.plt>
  4032af:	90                   	nop
  4032b0:	f3 0f 1e fa          	endbr64 
  4032b4:	68 28 00 00 00       	pushq  $0x28
  4032b9:	f2 e9 61 fd ff ff    	bnd jmpq 403020 <.plt>
  4032bf:	90                   	nop
  4032c0:	f3 0f 1e fa          	endbr64 
  4032c4:	68 29 00 00 00       	pushq  $0x29
  4032c9:	f2 e9 51 fd ff ff    	bnd jmpq 403020 <.plt>
  4032cf:	90                   	nop
  4032d0:	f3 0f 1e fa          	endbr64 
  4032d4:	68 2a 00 00 00       	pushq  $0x2a
  4032d9:	f2 e9 41 fd ff ff    	bnd jmpq 403020 <.plt>
  4032df:	90                   	nop
  4032e0:	f3 0f 1e fa          	endbr64 
  4032e4:	68 2b 00 00 00       	pushq  $0x2b
  4032e9:	f2 e9 31 fd ff ff    	bnd jmpq 403020 <.plt>
  4032ef:	90                   	nop
  4032f0:	f3 0f 1e fa          	endbr64 
  4032f4:	68 2c 00 00 00       	pushq  $0x2c
  4032f9:	f2 e9 21 fd ff ff    	bnd jmpq 403020 <.plt>
  4032ff:	90                   	nop
  403300:	f3 0f 1e fa          	endbr64 
  403304:	68 2d 00 00 00       	pushq  $0x2d
  403309:	f2 e9 11 fd ff ff    	bnd jmpq 403020 <.plt>
  40330f:	90                   	nop
  403310:	f3 0f 1e fa          	endbr64 
  403314:	68 2e 00 00 00       	pushq  $0x2e
  403319:	f2 e9 01 fd ff ff    	bnd jmpq 403020 <.plt>
  40331f:	90                   	nop
  403320:	f3 0f 1e fa          	endbr64 
  403324:	68 2f 00 00 00       	pushq  $0x2f
  403329:	f2 e9 f1 fc ff ff    	bnd jmpq 403020 <.plt>
  40332f:	90                   	nop
  403330:	f3 0f 1e fa          	endbr64 
  403334:	68 30 00 00 00       	pushq  $0x30
  403339:	f2 e9 e1 fc ff ff    	bnd jmpq 403020 <.plt>
  40333f:	90                   	nop
  403340:	f3 0f 1e fa          	endbr64 
  403344:	68 31 00 00 00       	pushq  $0x31
  403349:	f2 e9 d1 fc ff ff    	bnd jmpq 403020 <.plt>
  40334f:	90                   	nop
  403350:	f3 0f 1e fa          	endbr64 
  403354:	68 32 00 00 00       	pushq  $0x32
  403359:	f2 e9 c1 fc ff ff    	bnd jmpq 403020 <.plt>
  40335f:	90                   	nop
  403360:	f3 0f 1e fa          	endbr64 
  403364:	68 33 00 00 00       	pushq  $0x33
  403369:	f2 e9 b1 fc ff ff    	bnd jmpq 403020 <.plt>
  40336f:	90                   	nop
  403370:	f3 0f 1e fa          	endbr64 
  403374:	68 34 00 00 00       	pushq  $0x34
  403379:	f2 e9 a1 fc ff ff    	bnd jmpq 403020 <.plt>
  40337f:	90                   	nop
  403380:	f3 0f 1e fa          	endbr64 
  403384:	68 35 00 00 00       	pushq  $0x35
  403389:	f2 e9 91 fc ff ff    	bnd jmpq 403020 <.plt>
  40338f:	90                   	nop
  403390:	f3 0f 1e fa          	endbr64 
  403394:	68 36 00 00 00       	pushq  $0x36
  403399:	f2 e9 81 fc ff ff    	bnd jmpq 403020 <.plt>
  40339f:	90                   	nop
  4033a0:	f3 0f 1e fa          	endbr64 
  4033a4:	68 37 00 00 00       	pushq  $0x37
  4033a9:	f2 e9 71 fc ff ff    	bnd jmpq 403020 <.plt>
  4033af:	90                   	nop
  4033b0:	f3 0f 1e fa          	endbr64 
  4033b4:	68 38 00 00 00       	pushq  $0x38
  4033b9:	f2 e9 61 fc ff ff    	bnd jmpq 403020 <.plt>
  4033bf:	90                   	nop
  4033c0:	f3 0f 1e fa          	endbr64 
  4033c4:	68 39 00 00 00       	pushq  $0x39
  4033c9:	f2 e9 51 fc ff ff    	bnd jmpq 403020 <.plt>
  4033cf:	90                   	nop
  4033d0:	f3 0f 1e fa          	endbr64 
  4033d4:	68 3a 00 00 00       	pushq  $0x3a
  4033d9:	f2 e9 41 fc ff ff    	bnd jmpq 403020 <.plt>
  4033df:	90                   	nop
  4033e0:	f3 0f 1e fa          	endbr64 
  4033e4:	68 3b 00 00 00       	pushq  $0x3b
  4033e9:	f2 e9 31 fc ff ff    	bnd jmpq 403020 <.plt>
  4033ef:	90                   	nop
  4033f0:	f3 0f 1e fa          	endbr64 
  4033f4:	68 3c 00 00 00       	pushq  $0x3c
  4033f9:	f2 e9 21 fc ff ff    	bnd jmpq 403020 <.plt>
  4033ff:	90                   	nop
  403400:	f3 0f 1e fa          	endbr64 
  403404:	68 3d 00 00 00       	pushq  $0x3d
  403409:	f2 e9 11 fc ff ff    	bnd jmpq 403020 <.plt>
  40340f:	90                   	nop
  403410:	f3 0f 1e fa          	endbr64 
  403414:	68 3e 00 00 00       	pushq  $0x3e
  403419:	f2 e9 01 fc ff ff    	bnd jmpq 403020 <.plt>
  40341f:	90                   	nop
  403420:	f3 0f 1e fa          	endbr64 
  403424:	68 3f 00 00 00       	pushq  $0x3f
  403429:	f2 e9 f1 fb ff ff    	bnd jmpq 403020 <.plt>
  40342f:	90                   	nop
  403430:	f3 0f 1e fa          	endbr64 
  403434:	68 40 00 00 00       	pushq  $0x40
  403439:	f2 e9 e1 fb ff ff    	bnd jmpq 403020 <.plt>
  40343f:	90                   	nop
  403440:	f3 0f 1e fa          	endbr64 
  403444:	68 41 00 00 00       	pushq  $0x41
  403449:	f2 e9 d1 fb ff ff    	bnd jmpq 403020 <.plt>
  40344f:	90                   	nop
  403450:	f3 0f 1e fa          	endbr64 
  403454:	68 42 00 00 00       	pushq  $0x42
  403459:	f2 e9 c1 fb ff ff    	bnd jmpq 403020 <.plt>
  40345f:	90                   	nop
  403460:	f3 0f 1e fa          	endbr64 
  403464:	68 43 00 00 00       	pushq  $0x43
  403469:	f2 e9 b1 fb ff ff    	bnd jmpq 403020 <.plt>
  40346f:	90                   	nop
  403470:	f3 0f 1e fa          	endbr64 
  403474:	68 44 00 00 00       	pushq  $0x44
  403479:	f2 e9 a1 fb ff ff    	bnd jmpq 403020 <.plt>
  40347f:	90                   	nop
  403480:	f3 0f 1e fa          	endbr64 
  403484:	68 45 00 00 00       	pushq  $0x45
  403489:	f2 e9 91 fb ff ff    	bnd jmpq 403020 <.plt>
  40348f:	90                   	nop
  403490:	f3 0f 1e fa          	endbr64 
  403494:	68 46 00 00 00       	pushq  $0x46
  403499:	f2 e9 81 fb ff ff    	bnd jmpq 403020 <.plt>
  40349f:	90                   	nop
  4034a0:	f3 0f 1e fa          	endbr64 
  4034a4:	68 47 00 00 00       	pushq  $0x47
  4034a9:	f2 e9 71 fb ff ff    	bnd jmpq 403020 <.plt>
  4034af:	90                   	nop
  4034b0:	f3 0f 1e fa          	endbr64 
  4034b4:	68 48 00 00 00       	pushq  $0x48
  4034b9:	f2 e9 61 fb ff ff    	bnd jmpq 403020 <.plt>
  4034bf:	90                   	nop
  4034c0:	f3 0f 1e fa          	endbr64 
  4034c4:	68 49 00 00 00       	pushq  $0x49
  4034c9:	f2 e9 51 fb ff ff    	bnd jmpq 403020 <.plt>
  4034cf:	90                   	nop
  4034d0:	f3 0f 1e fa          	endbr64 
  4034d4:	68 4a 00 00 00       	pushq  $0x4a
  4034d9:	f2 e9 41 fb ff ff    	bnd jmpq 403020 <.plt>
  4034df:	90                   	nop
  4034e0:	f3 0f 1e fa          	endbr64 
  4034e4:	68 4b 00 00 00       	pushq  $0x4b
  4034e9:	f2 e9 31 fb ff ff    	bnd jmpq 403020 <.plt>
  4034ef:	90                   	nop
  4034f0:	f3 0f 1e fa          	endbr64 
  4034f4:	68 4c 00 00 00       	pushq  $0x4c
  4034f9:	f2 e9 21 fb ff ff    	bnd jmpq 403020 <.plt>
  4034ff:	90                   	nop
  403500:	f3 0f 1e fa          	endbr64 
  403504:	68 4d 00 00 00       	pushq  $0x4d
  403509:	f2 e9 11 fb ff ff    	bnd jmpq 403020 <.plt>
  40350f:	90                   	nop
  403510:	f3 0f 1e fa          	endbr64 
  403514:	68 4e 00 00 00       	pushq  $0x4e
  403519:	f2 e9 01 fb ff ff    	bnd jmpq 403020 <.plt>
  40351f:	90                   	nop
  403520:	f3 0f 1e fa          	endbr64 
  403524:	68 4f 00 00 00       	pushq  $0x4f
  403529:	f2 e9 f1 fa ff ff    	bnd jmpq 403020 <.plt>
  40352f:	90                   	nop
  403530:	f3 0f 1e fa          	endbr64 
  403534:	68 50 00 00 00       	pushq  $0x50
  403539:	f2 e9 e1 fa ff ff    	bnd jmpq 403020 <.plt>
  40353f:	90                   	nop
  403540:	f3 0f 1e fa          	endbr64 
  403544:	68 51 00 00 00       	pushq  $0x51
  403549:	f2 e9 d1 fa ff ff    	bnd jmpq 403020 <.plt>
  40354f:	90                   	nop
  403550:	f3 0f 1e fa          	endbr64 
  403554:	68 52 00 00 00       	pushq  $0x52
  403559:	f2 e9 c1 fa ff ff    	bnd jmpq 403020 <.plt>
  40355f:	90                   	nop
  403560:	f3 0f 1e fa          	endbr64 
  403564:	68 53 00 00 00       	pushq  $0x53
  403569:	f2 e9 b1 fa ff ff    	bnd jmpq 403020 <.plt>
  40356f:	90                   	nop
  403570:	f3 0f 1e fa          	endbr64 
  403574:	68 54 00 00 00       	pushq  $0x54
  403579:	f2 e9 a1 fa ff ff    	bnd jmpq 403020 <.plt>
  40357f:	90                   	nop
  403580:	f3 0f 1e fa          	endbr64 
  403584:	68 55 00 00 00       	pushq  $0x55
  403589:	f2 e9 91 fa ff ff    	bnd jmpq 403020 <.plt>
  40358f:	90                   	nop
  403590:	f3 0f 1e fa          	endbr64 
  403594:	68 56 00 00 00       	pushq  $0x56
  403599:	f2 e9 81 fa ff ff    	bnd jmpq 403020 <.plt>
  40359f:	90                   	nop
  4035a0:	f3 0f 1e fa          	endbr64 
  4035a4:	68 57 00 00 00       	pushq  $0x57
  4035a9:	f2 e9 71 fa ff ff    	bnd jmpq 403020 <.plt>
  4035af:	90                   	nop
  4035b0:	f3 0f 1e fa          	endbr64 
  4035b4:	68 58 00 00 00       	pushq  $0x58
  4035b9:	f2 e9 61 fa ff ff    	bnd jmpq 403020 <.plt>
  4035bf:	90                   	nop
  4035c0:	f3 0f 1e fa          	endbr64 
  4035c4:	68 59 00 00 00       	pushq  $0x59
  4035c9:	f2 e9 51 fa ff ff    	bnd jmpq 403020 <.plt>
  4035cf:	90                   	nop
  4035d0:	f3 0f 1e fa          	endbr64 
  4035d4:	68 5a 00 00 00       	pushq  $0x5a
  4035d9:	f2 e9 41 fa ff ff    	bnd jmpq 403020 <.plt>
  4035df:	90                   	nop
  4035e0:	f3 0f 1e fa          	endbr64 
  4035e4:	68 5b 00 00 00       	pushq  $0x5b
  4035e9:	f2 e9 31 fa ff ff    	bnd jmpq 403020 <.plt>
  4035ef:	90                   	nop
  4035f0:	f3 0f 1e fa          	endbr64 
  4035f4:	68 5c 00 00 00       	pushq  $0x5c
  4035f9:	f2 e9 21 fa ff ff    	bnd jmpq 403020 <.plt>
  4035ff:	90                   	nop
  403600:	f3 0f 1e fa          	endbr64 
  403604:	68 5d 00 00 00       	pushq  $0x5d
  403609:	f2 e9 11 fa ff ff    	bnd jmpq 403020 <.plt>
  40360f:	90                   	nop
  403610:	f3 0f 1e fa          	endbr64 
  403614:	68 5e 00 00 00       	pushq  $0x5e
  403619:	f2 e9 01 fa ff ff    	bnd jmpq 403020 <.plt>
  40361f:	90                   	nop
  403620:	f3 0f 1e fa          	endbr64 
  403624:	68 5f 00 00 00       	pushq  $0x5f
  403629:	f2 e9 f1 f9 ff ff    	bnd jmpq 403020 <.plt>
  40362f:	90                   	nop
  403630:	f3 0f 1e fa          	endbr64 
  403634:	68 60 00 00 00       	pushq  $0x60
  403639:	f2 e9 e1 f9 ff ff    	bnd jmpq 403020 <.plt>
  40363f:	90                   	nop
  403640:	f3 0f 1e fa          	endbr64 
  403644:	68 61 00 00 00       	pushq  $0x61
  403649:	f2 e9 d1 f9 ff ff    	bnd jmpq 403020 <.plt>
  40364f:	90                   	nop
  403650:	f3 0f 1e fa          	endbr64 
  403654:	68 62 00 00 00       	pushq  $0x62
  403659:	f2 e9 c1 f9 ff ff    	bnd jmpq 403020 <.plt>
  40365f:	90                   	nop
  403660:	f3 0f 1e fa          	endbr64 
  403664:	68 63 00 00 00       	pushq  $0x63
  403669:	f2 e9 b1 f9 ff ff    	bnd jmpq 403020 <.plt>
  40366f:	90                   	nop
  403670:	f3 0f 1e fa          	endbr64 
  403674:	68 64 00 00 00       	pushq  $0x64
  403679:	f2 e9 a1 f9 ff ff    	bnd jmpq 403020 <.plt>
  40367f:	90                   	nop
  403680:	f3 0f 1e fa          	endbr64 
  403684:	68 65 00 00 00       	pushq  $0x65
  403689:	f2 e9 91 f9 ff ff    	bnd jmpq 403020 <.plt>
  40368f:	90                   	nop
  403690:	f3 0f 1e fa          	endbr64 
  403694:	68 66 00 00 00       	pushq  $0x66
  403699:	f2 e9 81 f9 ff ff    	bnd jmpq 403020 <.plt>
  40369f:	90                   	nop
  4036a0:	f3 0f 1e fa          	endbr64 
  4036a4:	68 67 00 00 00       	pushq  $0x67
  4036a9:	f2 e9 71 f9 ff ff    	bnd jmpq 403020 <.plt>
  4036af:	90                   	nop

Disassembly of section .plt.sec:

00000000004036b0 <__printf_chk@plt>:
  4036b0:	f3 0f 1e fa          	endbr64 
  4036b4:	f2 ff 25 5d 99 01 00 	bnd jmpq *0x1995d(%rip)        # 41d018 <__printf_chk@GLIBC_2.3.4>
  4036bb:	0f 1f 44 00 00       	nopl   0x0(%rax,%rax,1)

00000000004036c0 <_Znam@plt>:
  4036c0:	f3 0f 1e fa          	endbr64 
  4036c4:	f2 ff 25 55 99 01 00 	bnd jmpq *0x19955(%rip)        # 41d020 <_Znam@GLIBCXX_3.4>
  4036cb:	0f 1f 44 00 00       	nopl   0x0(%rax,%rax,1)

00000000004036d0 <GOMP_loop_end_nowait@plt>:
  4036d0:	f3 0f 1e fa          	endbr64 
  4036d4:	f2 ff 25 4d 99 01 00 	bnd jmpq *0x1994d(%rip)        # 41d028 <GOMP_loop_end_nowait@VERSION>
  4036db:	0f 1f 44 00 00       	nopl   0x0(%rax,%rax,1)

00000000004036e0 <_ZNSo3putEc@plt>:
  4036e0:	f3 0f 1e fa          	endbr64 
  4036e4:	f2 ff 25 45 99 01 00 	bnd jmpq *0x19945(%rip)        # 41d030 <_ZNSo3putEc@GLIBCXX_3.4>
  4036eb:	0f 1f 44 00 00       	nopl   0x0(%rax,%rax,1)

00000000004036f0 <_ZNSt6chrono3_V212system_clock3nowEv@plt>:
  4036f0:	f3 0f 1e fa          	endbr64 
  4036f4:	f2 ff 25 3d 99 01 00 	bnd jmpq *0x1993d(%rip)        # 41d038 <_ZNSt6chrono3_V212system_clock3nowEv@GLIBCXX_3.4.19>
  4036fb:	0f 1f 44 00 00       	nopl   0x0(%rax,%rax,1)

0000000000403700 <syscall@plt>:
  403700:	f3 0f 1e fa          	endbr64 
  403704:	f2 ff 25 35 99 01 00 	bnd jmpq *0x19935(%rip)        # 41d040 <syscall@GLIBC_2.2.5>
  40370b:	0f 1f 44 00 00       	nopl   0x0(%rax,%rax,1)

0000000000403710 <bind@plt>:
  403710:	f3 0f 1e fa          	endbr64 
  403714:	f2 ff 25 2d 99 01 00 	bnd jmpq *0x1992d(%rip)        # 41d048 <bind@GLIBC_2.2.5>
  40371b:	0f 1f 44 00 00       	nopl   0x0(%rax,%rax,1)

0000000000403720 <GOMP_loop_ull_nonmonotonic_dynamic_start@plt>:
  403720:	f3 0f 1e fa          	endbr64 
  403724:	f2 ff 25 25 99 01 00 	bnd jmpq *0x19925(%rip)        # 41d050 <GOMP_loop_ull_nonmonotonic_dynamic_start@VERSION>
  40372b:	0f 1f 44 00 00       	nopl   0x0(%rax,%rax,1)

0000000000403730 <GOMP_single_start@plt>:
  403730:	f3 0f 1e fa          	endbr64 
  403734:	f2 ff 25 1d 99 01 00 	bnd jmpq *0x1991d(%rip)        # 41d058 <GOMP_single_start@VERSION>
  40373b:	0f 1f 44 00 00       	nopl   0x0(%rax,%rax,1)

0000000000403740 <strstr@plt>:
  403740:	f3 0f 1e fa          	endbr64 
  403744:	f2 ff 25 15 99 01 00 	bnd jmpq *0x19915(%rip)        # 41d060 <strstr@GLIBC_2.2.5>
  40374b:	0f 1f 44 00 00       	nopl   0x0(%rax,%rax,1)

0000000000403750 <_ZNSt13basic_filebufIcSt11char_traitsIcEE5closeEv@plt>:
  403750:	f3 0f 1e fa          	endbr64 
  403754:	f2 ff 25 0d 99 01 00 	bnd jmpq *0x1990d(%rip)        # 41d068 <_ZNSt13basic_filebufIcSt11char_traitsIcEE5closeEv@GLIBCXX_3.4>
  40375b:	0f 1f 44 00 00       	nopl   0x0(%rax,%rax,1)

0000000000403760 <getopt@plt>:
  403760:	f3 0f 1e fa          	endbr64 
  403764:	f2 ff 25 05 99 01 00 	bnd jmpq *0x19905(%rip)        # 41d070 <getopt@GLIBC_2.2.5>
  40376b:	0f 1f 44 00 00       	nopl   0x0(%rax,%rax,1)

0000000000403770 <_ZNKSt12__basic_fileIcE7is_openEv@plt>:
  403770:	f3 0f 1e fa          	endbr64 
  403774:	f2 ff 25 fd 98 01 00 	bnd jmpq *0x198fd(%rip)        # 41d078 <_ZNKSt12__basic_fileIcE7is_openEv@GLIBCXX_3.4>
  40377b:	0f 1f 44 00 00       	nopl   0x0(%rax,%rax,1)

0000000000403780 <socket@plt>:
  403780:	f3 0f 1e fa          	endbr64 
  403784:	f2 ff 25 f5 98 01 00 	bnd jmpq *0x198f5(%rip)        # 41d080 <socket@GLIBC_2.2.5>
  40378b:	0f 1f 44 00 00       	nopl   0x0(%rax,%rax,1)

0000000000403790 <_ZNSt14basic_ifstreamIcSt11char_traitsIcEED1Ev@plt>:
  403790:	f3 0f 1e fa          	endbr64 
  403794:	f2 ff 25 ed 98 01 00 	bnd jmpq *0x198ed(%rip)        # 41d088 <_ZNSt14basic_ifstreamIcSt11char_traitsIcEED1Ev@GLIBCXX_3.4>
  40379b:	0f 1f 44 00 00       	nopl   0x0(%rax,%rax,1)

00000000004037a0 <fork@plt>:
  4037a0:	f3 0f 1e fa          	endbr64 
  4037a4:	f2 ff 25 e5 98 01 00 	bnd jmpq *0x198e5(%rip)        # 41d090 <fork@GLIBC_2.2.5>
  4037ab:	0f 1f 44 00 00       	nopl   0x0(%rax,%rax,1)

00000000004037b0 <_ZNKSt7__cxx1112basic_stringIcSt11char_traitsIcESaIcEE7compareEPKc@plt>:
  4037b0:	f3 0f 1e fa          	endbr64 
  4037b4:	f2 ff 25 dd 98 01 00 	bnd jmpq *0x198dd(%rip)        # 41d098 <_ZNKSt7__cxx1112basic_stringIcSt11char_traitsIcESaIcEE7compareEPKc@GLIBCXX_3.4.21>
  4037bb:	0f 1f 44 00 00       	nopl   0x0(%rax,%rax,1)

00000000004037c0 <execlp@plt>:
  4037c0:	f3 0f 1e fa          	endbr64 
  4037c4:	f2 ff 25 d5 98 01 00 	bnd jmpq *0x198d5(%rip)        # 41d0a0 <execlp@GLIBC_2.2.5>
  4037cb:	0f 1f 44 00 00       	nopl   0x0(%rax,%rax,1)

00000000004037d0 <_ZNSt8ios_baseC2Ev@plt>:
  4037d0:	f3 0f 1e fa          	endbr64 
  4037d4:	f2 ff 25 cd 98 01 00 	bnd jmpq *0x198cd(%rip)        # 41d0a8 <_ZNSt8ios_baseC2Ev@GLIBCXX_3.4>
  4037db:	0f 1f 44 00 00       	nopl   0x0(%rax,%rax,1)

00000000004037e0 <_ZNSt7__cxx1112basic_stringIcSt11char_traitsIcESaIcEE9_M_appendEPKcm@plt>:
  4037e0:	f3 0f 1e fa          	endbr64 
  4037e4:	f2 ff 25 c5 98 01 00 	bnd jmpq *0x198c5(%rip)        # 41d0b0 <_ZNSt7__cxx1112basic_stringIcSt11char_traitsIcESaIcEE9_M_appendEPKcm@GLIBCXX_3.4.21>
  4037eb:	0f 1f 44 00 00       	nopl   0x0(%rax,%rax,1)

00000000004037f0 <recv@plt>:
  4037f0:	f3 0f 1e fa          	endbr64 
  4037f4:	f2 ff 25 bd 98 01 00 	bnd jmpq *0x198bd(%rip)        # 41d0b8 <recv@GLIBC_2.2.5>
  4037fb:	0f 1f 44 00 00       	nopl   0x0(%rax,%rax,1)

0000000000403800 <_ZNSt8ios_baseD2Ev@plt>:
  403800:	f3 0f 1e fa          	endbr64 
  403804:	f2 ff 25 b5 98 01 00 	bnd jmpq *0x198b5(%rip)        # 41d0c0 <_ZNSt8ios_baseD2Ev@GLIBCXX_3.4>
  40380b:	0f 1f 44 00 00       	nopl   0x0(%rax,%rax,1)

0000000000403810 <_ZNSi4peekEv@plt>:
  403810:	f3 0f 1e fa          	endbr64 
  403814:	f2 ff 25 ad 98 01 00 	bnd jmpq *0x198ad(%rip)        # 41d0c8 <_ZNSi4peekEv@GLIBCXX_3.4>
  40381b:	0f 1f 44 00 00       	nopl   0x0(%rax,%rax,1)

0000000000403820 <__cxa_begin_catch@plt>:
  403820:	f3 0f 1e fa          	endbr64 
  403824:	f2 ff 25 a5 98 01 00 	bnd jmpq *0x198a5(%rip)        # 41d0d0 <__cxa_begin_catch@CXXABI_1.3>
  40382b:	0f 1f 44 00 00       	nopl   0x0(%rax,%rax,1)

0000000000403830 <strlen@plt>:
  403830:	f3 0f 1e fa          	endbr64 
  403834:	f2 ff 25 9d 98 01 00 	bnd jmpq *0x1989d(%rip)        # 41d0d8 <strlen@GLIBC_2.2.5>
  40383b:	0f 1f 44 00 00       	nopl   0x0(%rax,%rax,1)

0000000000403840 <_ZNSt7__cxx1119basic_istringstreamIcSt11char_traitsIcESaIcEED1Ev@plt>:
  403840:	f3 0f 1e fa          	endbr64 
  403844:	f2 ff 25 95 98 01 00 	bnd jmpq *0x19895(%rip)        # 41d0e0 <_ZNSt7__cxx1119basic_istringstreamIcSt11char_traitsIcESaIcEED1Ev@GLIBCXX_3.4.21>
  40384b:	0f 1f 44 00 00       	nopl   0x0(%rax,%rax,1)

0000000000403850 <send@plt>:
  403850:	f3 0f 1e fa          	endbr64 
  403854:	f2 ff 25 8d 98 01 00 	bnd jmpq *0x1988d(%rip)        # 41d0e8 <send@GLIBC_2.2.5>
  40385b:	0f 1f 44 00 00       	nopl   0x0(%rax,%rax,1)

0000000000403860 <_ZSt20__throw_length_errorPKc@plt>:
  403860:	f3 0f 1e fa          	endbr64 
  403864:	f2 ff 25 85 98 01 00 	bnd jmpq *0x19885(%rip)        # 41d0f0 <_ZSt20__throw_length_errorPKc@GLIBCXX_3.4>
  40386b:	0f 1f 44 00 00       	nopl   0x0(%rax,%rax,1)

0000000000403870 <memset@plt>:
  403870:	f3 0f 1e fa          	endbr64 
  403874:	f2 ff 25 7d 98 01 00 	bnd jmpq *0x1987d(%rip)        # 41d0f8 <memset@GLIBC_2.2.5>
  40387b:	0f 1f 44 00 00       	nopl   0x0(%rax,%rax,1)

0000000000403880 <getrusage@plt>:
  403880:	f3 0f 1e fa          	endbr64 
  403884:	f2 ff 25 75 98 01 00 	bnd jmpq *0x19875(%rip)        # 41d100 <getrusage@GLIBC_2.2.5>
  40388b:	0f 1f 44 00 00       	nopl   0x0(%rax,%rax,1)

0000000000403890 <munmap@plt>:
  403890:	f3 0f 1e fa          	endbr64 
  403894:	f2 ff 25 6d 98 01 00 	bnd jmpq *0x1986d(%rip)        # 41d108 <munmap@GLIBC_2.2.5>
  40389b:	0f 1f 44 00 00       	nopl   0x0(%rax,%rax,1)

00000000004038a0 <__snprintf_chk@plt>:
  4038a0:	f3 0f 1e fa          	endbr64 
  4038a4:	f2 ff 25 65 98 01 00 	bnd jmpq *0x19865(%rip)        # 41d110 <__snprintf_chk@GLIBC_2.3.4>
  4038ab:	0f 1f 44 00 00       	nopl   0x0(%rax,%rax,1)

00000000004038b0 <_ZNSirsERi@plt>:
  4038b0:	f3 0f 1e fa          	endbr64 
  4038b4:	f2 ff 25 5d 98 01 00 	bnd jmpq *0x1985d(%rip)        # 41d118 <_ZNSirsERi@GLIBCXX_3.4>
  4038bb:	0f 1f 44 00 00       	nopl   0x0(%rax,%rax,1)

00000000004038c0 <_ZNSi6ignoreEli@plt>:
  4038c0:	f3 0f 1e fa          	endbr64 
  4038c4:	f2 ff 25 55 98 01 00 	bnd jmpq *0x19855(%rip)        # 41d120 <_ZNSi6ignoreEli@GLIBCXX_3.4>
  4038cb:	0f 1f 44 00 00       	nopl   0x0(%rax,%rax,1)

00000000004038d0 <_ZNSo5flushEv@plt>:
  4038d0:	f3 0f 1e fa          	endbr64 
  4038d4:	f2 ff 25 4d 98 01 00 	bnd jmpq *0x1984d(%rip)        # 41d128 <_ZNSo5flushEv@GLIBCXX_3.4>
  4038db:	0f 1f 44 00 00       	nopl   0x0(%rax,%rax,1)

00000000004038e0 <_ZSt19__throw_logic_errorPKc@plt>:
  4038e0:	f3 0f 1e fa          	endbr64 
  4038e4:	f2 ff 25 45 98 01 00 	bnd jmpq *0x19845(%rip)        # 41d130 <_ZSt19__throw_logic_errorPKc@GLIBCXX_3.4>
  4038eb:	0f 1f 44 00 00       	nopl   0x0(%rax,%rax,1)

00000000004038f0 <memcpy@plt>:
  4038f0:	f3 0f 1e fa          	endbr64 
  4038f4:	f2 ff 25 3d 98 01 00 	bnd jmpq *0x1983d(%rip)        # 41d138 <memcpy@GLIBC_2.14>
  4038fb:	0f 1f 44 00 00       	nopl   0x0(%rax,%rax,1)

0000000000403900 <perror@plt>:
  403900:	f3 0f 1e fa          	endbr64 
  403904:	f2 ff 25 35 98 01 00 	bnd jmpq *0x19835(%rip)        # 41d140 <perror@GLIBC_2.2.5>
  40390b:	0f 1f 44 00 00       	nopl   0x0(%rax,%rax,1)

0000000000403910 <_ZSt2wsIcSt11char_traitsIcEERSt13basic_istreamIT_T0_ES6_@plt>:
  403910:	f3 0f 1e fa          	endbr64 
  403914:	f2 ff 25 2d 98 01 00 	bnd jmpq *0x1982d(%rip)        # 41d148 <_ZSt2wsIcSt11char_traitsIcEERSt13basic_istreamIT_T0_ES6_@GLIBCXX_3.4>
  40391b:	0f 1f 44 00 00       	nopl   0x0(%rax,%rax,1)

0000000000403920 <system@plt>:
  403920:	f3 0f 1e fa          	endbr64 
  403924:	f2 ff 25 25 98 01 00 	bnd jmpq *0x19825(%rip)        # 41d150 <system@GLIBC_2.2.5>
  40392b:	0f 1f 44 00 00       	nopl   0x0(%rax,%rax,1)

0000000000403930 <__cxa_atexit@plt>:
  403930:	f3 0f 1e fa          	endbr64 
  403934:	f2 ff 25 1d 98 01 00 	bnd jmpq *0x1981d(%rip)        # 41d158 <__cxa_atexit@GLIBC_2.2.5>
  40393b:	0f 1f 44 00 00       	nopl   0x0(%rax,%rax,1)

0000000000403940 <_ZNSt13basic_filebufIcSt11char_traitsIcEE4openEPKcSt13_Ios_Openmode@plt>:
  403940:	f3 0f 1e fa          	endbr64 
  403944:	f2 ff 25 15 98 01 00 	bnd jmpq *0x19815(%rip)        # 41d160 <_ZNSt13basic_filebufIcSt11char_traitsIcEE4openEPKcSt13_Ios_Openmode@GLIBCXX_3.4>
  40394b:	0f 1f 44 00 00       	nopl   0x0(%rax,%rax,1)

0000000000403950 <clock_gettime@plt>:
  403950:	f3 0f 1e fa          	endbr64 
  403954:	f2 ff 25 0d 98 01 00 	bnd jmpq *0x1980d(%rip)        # 41d168 <clock_gettime@GLIBC_2.17>
  40395b:	0f 1f 44 00 00       	nopl   0x0(%rax,%rax,1)

0000000000403960 <_ZdlPv@plt>:
  403960:	f3 0f 1e fa          	endbr64 
  403964:	f2 ff 25 05 98 01 00 	bnd jmpq *0x19805(%rip)        # 41d170 <_ZdlPv@GLIBCXX_3.4>
  40396b:	0f 1f 44 00 00       	nopl   0x0(%rax,%rax,1)

0000000000403970 <_ZNSo9_M_insertIlEERSoT_@plt>:
  403970:	f3 0f 1e fa          	endbr64 
  403974:	f2 ff 25 fd 97 01 00 	bnd jmpq *0x197fd(%rip)        # 41d178 <_ZNSo9_M_insertIlEERSoT_@GLIBCXX_3.4.9>
  40397b:	0f 1f 44 00 00       	nopl   0x0(%rax,%rax,1)

0000000000403980 <__isoc99_sscanf@plt>:
  403980:	f3 0f 1e fa          	endbr64 
  403984:	f2 ff 25 f5 97 01 00 	bnd jmpq *0x197f5(%rip)        # 41d180 <__isoc99_sscanf@GLIBC_2.7>
  40398b:	0f 1f 44 00 00       	nopl   0x0(%rax,%rax,1)

0000000000403990 <fclose@plt>:
  403990:	f3 0f 1e fa          	endbr64 
  403994:	f2 ff 25 ed 97 01 00 	bnd jmpq *0x197ed(%rip)        # 41d188 <fclose@GLIBC_2.2.5>
  40399b:	0f 1f 44 00 00       	nopl   0x0(%rax,%rax,1)

00000000004039a0 <_Znwm@plt>:
  4039a0:	f3 0f 1e fa          	endbr64 
  4039a4:	f2 ff 25 e5 97 01 00 	bnd jmpq *0x197e5(%rip)        # 41d190 <_Znwm@GLIBCXX_3.4>
  4039ab:	0f 1f 44 00 00       	nopl   0x0(%rax,%rax,1)

00000000004039b0 <_ZNSi10_M_extractIlEERSiRT_@plt>:
  4039b0:	f3 0f 1e fa          	endbr64 
  4039b4:	f2 ff 25 dd 97 01 00 	bnd jmpq *0x197dd(%rip)        # 41d198 <_ZNSi10_M_extractIlEERSiRT_@GLIBCXX_3.4.9>
  4039bb:	0f 1f 44 00 00       	nopl   0x0(%rax,%rax,1)

00000000004039c0 <_ZNSt13basic_filebufIcSt11char_traitsIcEEC1Ev@plt>:
  4039c0:	f3 0f 1e fa          	endbr64 
  4039c4:	f2 ff 25 d5 97 01 00 	bnd jmpq *0x197d5(%rip)        # 41d1a0 <_ZNSt13basic_filebufIcSt11char_traitsIcEEC1Ev@GLIBCXX_3.4>
  4039cb:	0f 1f 44 00 00       	nopl   0x0(%rax,%rax,1)

00000000004039d0 <__stack_chk_fail@plt>:
  4039d0:	f3 0f 1e fa          	endbr64 
  4039d4:	f2 ff 25 cd 97 01 00 	bnd jmpq *0x197cd(%rip)        # 41d1a8 <__stack_chk_fail@GLIBC_2.4>
  4039db:	0f 1f 44 00 00       	nopl   0x0(%rax,%rax,1)

00000000004039e0 <_ZSt16__ostream_insertIcSt11char_traitsIcEERSt13basic_ostreamIT_T0_ES6_PKS3_l@plt>:
  4039e0:	f3 0f 1e fa          	endbr64 
  4039e4:	f2 ff 25 c5 97 01 00 	bnd jmpq *0x197c5(%rip)        # 41d1b0 <_ZSt16__ostream_insertIcSt11char_traitsIcEERSt13basic_ostreamIT_T0_ES6_PKS3_l@GLIBCXX_3.4.9>
  4039eb:	0f 1f 44 00 00       	nopl   0x0(%rax,%rax,1)

00000000004039f0 <_ZNKSt5ctypeIcE13_M_widen_initEv@plt>:
  4039f0:	f3 0f 1e fa          	endbr64 
  4039f4:	f2 ff 25 bd 97 01 00 	bnd jmpq *0x197bd(%rip)        # 41d1b8 <_ZNKSt5ctypeIcE13_M_widen_initEv@GLIBCXX_3.4.11>
  4039fb:	0f 1f 44 00 00       	nopl   0x0(%rax,%rax,1)

0000000000403a00 <omp_get_thread_num@plt>:
  403a00:	f3 0f 1e fa          	endbr64 
  403a04:	f2 ff 25 b5 97 01 00 	bnd jmpq *0x197b5(%rip)        # 41d1c0 <omp_get_thread_num@VERSION>
  403a0b:	0f 1f 44 00 00       	nopl   0x0(%rax,%rax,1)

0000000000403a10 <_ZNSt7__cxx1112basic_stringIcSt11char_traitsIcESaIcEE12_M_constructEmc@plt>:
  403a10:	f3 0f 1e fa          	endbr64 
  403a14:	f2 ff 25 ad 97 01 00 	bnd jmpq *0x197ad(%rip)        # 41d1c8 <_ZNSt7__cxx1112basic_stringIcSt11char_traitsIcESaIcEE12_M_constructEmc@GLIBCXX_3.4.21>
  403a1b:	0f 1f 44 00 00       	nopl   0x0(%rax,%rax,1)

0000000000403a20 <fopen@plt>:
  403a20:	f3 0f 1e fa          	endbr64 
  403a24:	f2 ff 25 a5 97 01 00 	bnd jmpq *0x197a5(%rip)        # 41d1d0 <fopen@GLIBC_2.2.5>
  403a2b:	0f 1f 44 00 00       	nopl   0x0(%rax,%rax,1)

0000000000403a30 <GOMP_barrier@plt>:
  403a30:	f3 0f 1e fa          	endbr64 
  403a34:	f2 ff 25 9d 97 01 00 	bnd jmpq *0x1979d(%rip)        # 41d1d8 <GOMP_barrier@VERSION>
  403a3b:	0f 1f 44 00 00       	nopl   0x0(%rax,%rax,1)

0000000000403a40 <exit@plt>:
  403a40:	f3 0f 1e fa          	endbr64 
  403a44:	f2 ff 25 95 97 01 00 	bnd jmpq *0x19795(%rip)        # 41d1e0 <exit@GLIBC_2.2.5>
  403a4b:	0f 1f 44 00 00       	nopl   0x0(%rax,%rax,1)

0000000000403a50 <getenv@plt>:
  403a50:	f3 0f 1e fa          	endbr64 
  403a54:	f2 ff 25 8d 97 01 00 	bnd jmpq *0x1978d(%rip)        # 41d1e8 <getenv@GLIBC_2.2.5>
  403a5b:	0f 1f 44 00 00       	nopl   0x0(%rax,%rax,1)

0000000000403a60 <_ZNSi4readEPcl@plt>:
  403a60:	f3 0f 1e fa          	endbr64 
  403a64:	f2 ff 25 85 97 01 00 	bnd jmpq *0x19785(%rip)        # 41d1f0 <_ZNSi4readEPcl@GLIBCXX_3.4>
  403a6b:	0f 1f 44 00 00       	nopl   0x0(%rax,%rax,1)

0000000000403a70 <_ZSt16__throw_bad_castv@plt>:
  403a70:	f3 0f 1e fa          	endbr64 
  403a74:	f2 ff 25 7d 97 01 00 	bnd jmpq *0x1977d(%rip)        # 41d1f8 <_ZSt16__throw_bad_castv@GLIBCXX_3.4>
  403a7b:	0f 1f 44 00 00       	nopl   0x0(%rax,%rax,1)

0000000000403a80 <_ZStrsIcSt11char_traitsIcESaIcEERSt13basic_istreamIT_T0_ES7_RNSt7__cxx1112basic_stringIS4_S5_T1_EE@plt>:
  403a80:	f3 0f 1e fa          	endbr64 
  403a84:	f2 ff 25 75 97 01 00 	bnd jmpq *0x19775(%rip)        # 41d200 <_ZStrsIcSt11char_traitsIcESaIcEERSt13basic_istreamIT_T0_ES7_RNSt7__cxx1112basic_stringIS4_S5_T1_EE@GLIBCXX_3.4.21>
  403a8b:	0f 1f 44 00 00       	nopl   0x0(%rax,%rax,1)

0000000000403a90 <_ZdaPv@plt>:
  403a90:	f3 0f 1e fa          	endbr64 
  403a94:	f2 ff 25 6d 97 01 00 	bnd jmpq *0x1976d(%rip)        # 41d208 <_ZdaPv@GLIBCXX_3.4>
  403a9b:	0f 1f 44 00 00       	nopl   0x0(%rax,%rax,1)

0000000000403aa0 <_ZNSt7__cxx1115basic_stringbufIcSt11char_traitsIcESaIcEE7_M_syncEPcmm@plt>:
  403aa0:	f3 0f 1e fa          	endbr64 
  403aa4:	f2 ff 25 65 97 01 00 	bnd jmpq *0x19765(%rip)        # 41d210 <_ZNSt7__cxx1115basic_stringbufIcSt11char_traitsIcESaIcEE7_M_syncEPcmm@GLIBCXX_3.4.21>
  403aab:	0f 1f 44 00 00       	nopl   0x0(%rax,%rax,1)

0000000000403ab0 <_ZStrsIcSt11char_traitsIcEERSt13basic_istreamIT_T0_ES6_RS3_@plt>:
  403ab0:	f3 0f 1e fa          	endbr64 
  403ab4:	f2 ff 25 5d 97 01 00 	bnd jmpq *0x1975d(%rip)        # 41d218 <_ZStrsIcSt11char_traitsIcEERSt13basic_istreamIT_T0_ES6_RS3_@GLIBCXX_3.4>
  403abb:	0f 1f 44 00 00       	nopl   0x0(%rax,%rax,1)

0000000000403ac0 <malloc@plt>:
  403ac0:	f3 0f 1e fa          	endbr64 
  403ac4:	f2 ff 25 55 97 01 00 	bnd jmpq *0x19755(%rip)        # 41d220 <malloc@GLIBC_2.2.5>
  403acb:	0f 1f 44 00 00       	nopl   0x0(%rax,%rax,1)

0000000000403ad0 <_ZNSt9basic_iosIcSt11char_traitsIcEE4initEPSt15basic_streambufIcS1_E@plt>:
  403ad0:	f3 0f 1e fa          	endbr64 
  403ad4:	f2 ff 25 4d 97 01 00 	bnd jmpq *0x1974d(%rip)        # 41d228 <_ZNSt9basic_iosIcSt11char_traitsIcEE4initEPSt15basic_streambufIcS1_E@GLIBCXX_3.4>
  403adb:	0f 1f 44 00 00       	nopl   0x0(%rax,%rax,1)

0000000000403ae0 <mlock@plt>:
  403ae0:	f3 0f 1e fa          	endbr64 
  403ae4:	f2 ff 25 45 97 01 00 	bnd jmpq *0x19745(%rip)        # 41d230 <mlock@GLIBC_2.2.5>
  403aeb:	0f 1f 44 00 00       	nopl   0x0(%rax,%rax,1)

0000000000403af0 <strtol@plt>:
  403af0:	f3 0f 1e fa          	endbr64 
  403af4:	f2 ff 25 3d 97 01 00 	bnd jmpq *0x1973d(%rip)        # 41d238 <strtol@GLIBC_2.2.5>
  403afb:	0f 1f 44 00 00       	nopl   0x0(%rax,%rax,1)

0000000000403b00 <ioctl@plt>:
  403b00:	f3 0f 1e fa          	endbr64 
  403b04:	f2 ff 25 35 97 01 00 	bnd jmpq *0x19735(%rip)        # 41d240 <ioctl@GLIBC_2.2.5>
  403b0b:	0f 1f 44 00 00       	nopl   0x0(%rax,%rax,1)

0000000000403b10 <_ZNSt6localeD1Ev@plt>:
  403b10:	f3 0f 1e fa          	endbr64 
  403b14:	f2 ff 25 2d 97 01 00 	bnd jmpq *0x1972d(%rip)        # 41d248 <_ZNSt6localeD1Ev@GLIBCXX_3.4>
  403b1b:	0f 1f 44 00 00       	nopl   0x0(%rax,%rax,1)

0000000000403b20 <__cxa_throw_bad_array_new_length@plt>:
  403b20:	f3 0f 1e fa          	endbr64 
  403b24:	f2 ff 25 25 97 01 00 	bnd jmpq *0x19725(%rip)        # 41d250 <__cxa_throw_bad_array_new_length@CXXABI_1.3.8>
  403b2b:	0f 1f 44 00 00       	nopl   0x0(%rax,%rax,1)

0000000000403b30 <read@plt>:
  403b30:	f3 0f 1e fa          	endbr64 
  403b34:	f2 ff 25 1d 97 01 00 	bnd jmpq *0x1971d(%rip)        # 41d258 <read@GLIBC_2.2.5>
  403b3b:	0f 1f 44 00 00       	nopl   0x0(%rax,%rax,1)

0000000000403b40 <omp_get_num_threads@plt>:
  403b40:	f3 0f 1e fa          	endbr64 
  403b44:	f2 ff 25 15 97 01 00 	bnd jmpq *0x19715(%rip)        # 41d260 <omp_get_num_threads@VERSION>
  403b4b:	0f 1f 44 00 00       	nopl   0x0(%rax,%rax,1)

0000000000403b50 <getpid@plt>:
  403b50:	f3 0f 1e fa          	endbr64 
  403b54:	f2 ff 25 0d 97 01 00 	bnd jmpq *0x1970d(%rip)        # 41d268 <getpid@GLIBC_2.2.5>
  403b5b:	0f 1f 44 00 00       	nopl   0x0(%rax,%rax,1)

0000000000403b60 <fread@plt>:
  403b60:	f3 0f 1e fa          	endbr64 
  403b64:	f2 ff 25 05 97 01 00 	bnd jmpq *0x19705(%rip)        # 41d270 <fread@GLIBC_2.2.5>
  403b6b:	0f 1f 44 00 00       	nopl   0x0(%rax,%rax,1)

0000000000403b70 <_ZSt24__throw_out_of_range_fmtPKcz@plt>:
  403b70:	f3 0f 1e fa          	endbr64 
  403b74:	f2 ff 25 fd 96 01 00 	bnd jmpq *0x196fd(%rip)        # 41d278 <_ZSt24__throw_out_of_range_fmtPKcz@GLIBCXX_3.4.20>
  403b7b:	0f 1f 44 00 00       	nopl   0x0(%rax,%rax,1)

0000000000403b80 <_ZNSt8ios_base4InitC1Ev@plt>:
  403b80:	f3 0f 1e fa          	endbr64 
  403b84:	f2 ff 25 f5 96 01 00 	bnd jmpq *0x196f5(%rip)        # 41d280 <_ZNSt8ios_base4InitC1Ev@GLIBCXX_3.4>
  403b8b:	0f 1f 44 00 00       	nopl   0x0(%rax,%rax,1)

0000000000403b90 <_ZNSt13basic_filebufIcSt11char_traitsIcEED1Ev@plt>:
  403b90:	f3 0f 1e fa          	endbr64 
  403b94:	f2 ff 25 ed 96 01 00 	bnd jmpq *0x196ed(%rip)        # 41d288 <_ZNSt13basic_filebufIcSt11char_traitsIcEED1Ev@GLIBCXX_3.4>
  403b9b:	0f 1f 44 00 00       	nopl   0x0(%rax,%rax,1)

0000000000403ba0 <_ZNSt7__cxx1112basic_stringIcSt11char_traitsIcESaIcEE7reserveEm@plt>:
  403ba0:	f3 0f 1e fa          	endbr64 
  403ba4:	f2 ff 25 e5 96 01 00 	bnd jmpq *0x196e5(%rip)        # 41d290 <_ZNSt7__cxx1112basic_stringIcSt11char_traitsIcESaIcEE7reserveEm@GLIBCXX_3.4.21>
  403bab:	0f 1f 44 00 00       	nopl   0x0(%rax,%rax,1)

0000000000403bb0 <fgets@plt>:
  403bb0:	f3 0f 1e fa          	endbr64 
  403bb4:	f2 ff 25 dd 96 01 00 	bnd jmpq *0x196dd(%rip)        # 41d298 <fgets@GLIBC_2.2.5>
  403bbb:	0f 1f 44 00 00       	nopl   0x0(%rax,%rax,1)

0000000000403bc0 <_ZNSo9_M_insertIdEERSoT_@plt>:
  403bc0:	f3 0f 1e fa          	endbr64 
  403bc4:	f2 ff 25 d5 96 01 00 	bnd jmpq *0x196d5(%rip)        # 41d2a0 <_ZNSo9_M_insertIdEERSoT_@GLIBCXX_3.4.9>
  403bcb:	0f 1f 44 00 00       	nopl   0x0(%rax,%rax,1)

0000000000403bd0 <gettimeofday@plt>:
  403bd0:	f3 0f 1e fa          	endbr64 
  403bd4:	f2 ff 25 cd 96 01 00 	bnd jmpq *0x196cd(%rip)        # 41d2a8 <gettimeofday@GLIBC_2.2.5>
  403bdb:	0f 1f 44 00 00       	nopl   0x0(%rax,%rax,1)

0000000000403be0 <memmove@plt>:
  403be0:	f3 0f 1e fa          	endbr64 
  403be4:	f2 ff 25 c5 96 01 00 	bnd jmpq *0x196c5(%rip)        # 41d2b0 <memmove@GLIBC_2.2.5>
  403beb:	0f 1f 44 00 00       	nopl   0x0(%rax,%rax,1)

0000000000403bf0 <__cxa_end_catch@plt>:
  403bf0:	f3 0f 1e fa          	endbr64 
  403bf4:	f2 ff 25 bd 96 01 00 	bnd jmpq *0x196bd(%rip)        # 41d2b8 <__cxa_end_catch@CXXABI_1.3>
  403bfb:	0f 1f 44 00 00       	nopl   0x0(%rax,%rax,1)

0000000000403c00 <realloc@plt>:
  403c00:	f3 0f 1e fa          	endbr64 
  403c04:	f2 ff 25 b5 96 01 00 	bnd jmpq *0x196b5(%rip)        # 41d2c0 <realloc@GLIBC_2.2.5>
  403c0b:	0f 1f 44 00 00       	nopl   0x0(%rax,%rax,1)

0000000000403c10 <__fprintf_chk@plt>:
  403c10:	f3 0f 1e fa          	endbr64 
  403c14:	f2 ff 25 ad 96 01 00 	bnd jmpq *0x196ad(%rip)        # 41d2c8 <__fprintf_chk@GLIBC_2.3.4>
  403c1b:	0f 1f 44 00 00       	nopl   0x0(%rax,%rax,1)

0000000000403c20 <_ZNSt7__cxx1119basic_istringstreamIcSt11char_traitsIcESaIcEEC1ERKNS_12basic_stringIcS2_S3_EESt13_Ios_Openmode@plt>:
  403c20:	f3 0f 1e fa          	endbr64 
  403c24:	f2 ff 25 a5 96 01 00 	bnd jmpq *0x196a5(%rip)        # 41d2d0 <_ZNSt7__cxx1119basic_istringstreamIcSt11char_traitsIcESaIcEEC1ERKNS_12basic_stringIcS2_S3_EESt13_Ios_Openmode@GLIBCXX_3.4.21>
  403c2b:	0f 1f 44 00 00       	nopl   0x0(%rax,%rax,1)

0000000000403c30 <_ZNSt9basic_iosIcSt11char_traitsIcEE5clearESt12_Ios_Iostate@plt>:
  403c30:	f3 0f 1e fa          	endbr64 
  403c34:	f2 ff 25 9d 96 01 00 	bnd jmpq *0x1969d(%rip)        # 41d2d8 <_ZNSt9basic_iosIcSt11char_traitsIcEE5clearESt12_Ios_Iostate@GLIBCXX_3.4>
  403c3b:	0f 1f 44 00 00       	nopl   0x0(%rax,%rax,1)

0000000000403c40 <_ZNSolsEi@plt>:
  403c40:	f3 0f 1e fa          	endbr64 
  403c44:	f2 ff 25 95 96 01 00 	bnd jmpq *0x19695(%rip)        # 41d2e0 <_ZNSolsEi@GLIBCXX_3.4>
  403c4b:	0f 1f 44 00 00       	nopl   0x0(%rax,%rax,1)

0000000000403c50 <GOMP_parallel@plt>:
  403c50:	f3 0f 1e fa          	endbr64 
  403c54:	f2 ff 25 8d 96 01 00 	bnd jmpq *0x1968d(%rip)        # 41d2e8 <GOMP_parallel@VERSION>
  403c5b:	0f 1f 44 00 00       	nopl   0x0(%rax,%rax,1)

0000000000403c60 <omp_get_max_threads@plt>:
  403c60:	f3 0f 1e fa          	endbr64 
  403c64:	f2 ff 25 85 96 01 00 	bnd jmpq *0x19685(%rip)        # 41d2f0 <omp_get_max_threads@VERSION>
  403c6b:	0f 1f 44 00 00       	nopl   0x0(%rax,%rax,1)

0000000000403c70 <GOMP_loop_ull_nonmonotonic_dynamic_next@plt>:
  403c70:	f3 0f 1e fa          	endbr64 
  403c74:	f2 ff 25 7d 96 01 00 	bnd jmpq *0x1967d(%rip)        # 41d2f8 <GOMP_loop_ull_nonmonotonic_dynamic_next@VERSION>
  403c7b:	0f 1f 44 00 00       	nopl   0x0(%rax,%rax,1)

0000000000403c80 <_Unwind_Resume@plt>:
  403c80:	f3 0f 1e fa          	endbr64 
  403c84:	f2 ff 25 75 96 01 00 	bnd jmpq *0x19675(%rip)        # 41d300 <_Unwind_Resume@GCC_3.0>
  403c8b:	0f 1f 44 00 00       	nopl   0x0(%rax,%rax,1)

0000000000403c90 <mmap@plt>:
  403c90:	f3 0f 1e fa          	endbr64 
  403c94:	f2 ff 25 6d 96 01 00 	bnd jmpq *0x1966d(%rip)        # 41d308 <mmap@GLIBC_2.2.5>
  403c9b:	0f 1f 44 00 00       	nopl   0x0(%rax,%rax,1)

0000000000403ca0 <_ZNSt7__cxx1112basic_stringIcSt11char_traitsIcESaIcEE9_M_createERmm@plt>:
  403ca0:	f3 0f 1e fa          	endbr64 
  403ca4:	f2 ff 25 65 96 01 00 	bnd jmpq *0x19665(%rip)        # 41d310 <_ZNSt7__cxx1112basic_stringIcSt11char_traitsIcESaIcEE9_M_createERmm@GLIBCXX_3.4.21>
  403cab:	0f 1f 44 00 00       	nopl   0x0(%rax,%rax,1)

0000000000403cb0 <__isoc99_fscanf@plt>:
  403cb0:	f3 0f 1e fa          	endbr64 
  403cb4:	f2 ff 25 5d 96 01 00 	bnd jmpq *0x1965d(%rip)        # 41d318 <__isoc99_fscanf@GLIBC_2.7>
  403cbb:	0f 1f 44 00 00       	nopl   0x0(%rax,%rax,1)

0000000000403cc0 <_ZSt7getlineIcSt11char_traitsIcESaIcEERSt13basic_istreamIT_T0_ES7_RNSt7__cxx1112basic_stringIS4_S5_T1_EES4_@plt>:
  403cc0:	f3 0f 1e fa          	endbr64 
  403cc4:	f2 ff 25 55 96 01 00 	bnd jmpq *0x19655(%rip)        # 41d320 <_ZSt7getlineIcSt11char_traitsIcESaIcEERSt13basic_istreamIT_T0_ES7_RNSt7__cxx1112basic_stringIS4_S5_T1_EES4_@GLIBCXX_3.4.21>
  403ccb:	0f 1f 44 00 00       	nopl   0x0(%rax,%rax,1)

0000000000403cd0 <_ZNSt12__basic_fileIcED1Ev@plt>:
  403cd0:	f3 0f 1e fa          	endbr64 
  403cd4:	f2 ff 25 4d 96 01 00 	bnd jmpq *0x1964d(%rip)        # 41d328 <_ZNSt12__basic_fileIcED1Ev@GLIBCXX_3.4>
  403cdb:	0f 1f 44 00 00       	nopl   0x0(%rax,%rax,1)

0000000000403ce0 <munlock@plt>:
  403ce0:	f3 0f 1e fa          	endbr64 
  403ce4:	f2 ff 25 45 96 01 00 	bnd jmpq *0x19645(%rip)        # 41d330 <munlock@GLIBC_2.2.5>
  403ceb:	0f 1f 44 00 00       	nopl   0x0(%rax,%rax,1)

0000000000403cf0 <fwrite@plt>:
  403cf0:	f3 0f 1e fa          	endbr64 
  403cf4:	f2 ff 25 3d 96 01 00 	bnd jmpq *0x1963d(%rip)        # 41d338 <fwrite@GLIBC_2.2.5>
  403cfb:	0f 1f 44 00 00       	nopl   0x0(%rax,%rax,1)

0000000000403d00 <close@plt>:
  403d00:	f3 0f 1e fa          	endbr64 
  403d04:	f2 ff 25 35 96 01 00 	bnd jmpq *0x19635(%rip)        # 41d340 <close@GLIBC_2.2.5>
  403d0b:	0f 1f 44 00 00       	nopl   0x0(%rax,%rax,1)

0000000000403d10 <_ZNKSt7__cxx1112basic_stringIcSt11char_traitsIcESaIcEE5rfindEcm@plt>:
  403d10:	f3 0f 1e fa          	endbr64 
  403d14:	f2 ff 25 2d 96 01 00 	bnd jmpq *0x1962d(%rip)        # 41d348 <_ZNKSt7__cxx1112basic_stringIcSt11char_traitsIcESaIcEE5rfindEcm@GLIBCXX_3.4.21>
  403d1b:	0f 1f 44 00 00       	nopl   0x0(%rax,%rax,1)

0000000000403d20 <_ZNSt6localeC1Ev@plt>:
  403d20:	f3 0f 1e fa          	endbr64 
  403d24:	f2 ff 25 25 96 01 00 	bnd jmpq *0x19625(%rip)        # 41d350 <_ZNSt6localeC1Ev@GLIBCXX_3.4>
  403d2b:	0f 1f 44 00 00       	nopl   0x0(%rax,%rax,1)

Disassembly of section .text:

0000000000403d30 <_Z10PrintLabelRKNSt7__cxx1112basic_stringIcSt11char_traitsIcESaIcEEES6_.cold>:
_ZNKSt7__cxx1112basic_stringIcSt11char_traitsIcESaIcEE7_M_dataEv():
/usr/include/c++/10/bits/basic_string.h:195 (discriminator 1)
      _M_length(size_type __length)
      { _M_string_length = __length; }

      pointer
      _M_data() const
      { return _M_dataplus._M_p; }
  403d30:	48 8b 7c 24 10       	mov    0x10(%rsp),%rdi
_ZNSt7__cxx1112basic_stringIcSt11char_traitsIcESaIcEE10_M_disposeEv():
/usr/include/c++/10/bits/basic_string.h:239 (discriminator 1)
      _M_create(size_type&, size_type);

      void
      _M_dispose()
      {
	if (!_M_is_local())
  403d35:	48 39 df             	cmp    %rbx,%rdi
  403d38:	74 05                	je     403d3f <_Z10PrintLabelRKNSt7__cxx1112basic_stringIcSt11char_traitsIcESaIcEEES6_.cold+0xf>
_ZN9__gnu_cxx13new_allocatorIcE10deallocateEPcm():
/usr/include/c++/10/ext/new_allocator.h:139
# endif
			      std::align_val_t(alignof(_Tp)));
	    return;
	  }
#endif
	::operator delete(__p
  403d3a:	e8 21 fc ff ff       	callq  403960 <_ZdlPv@plt>
_ZN9__gnu_cxx13new_allocatorIcED4Ev():
/usr/include/c++/10/ext/new_allocator.h:89
      ~new_allocator() _GLIBCXX_USE_NOEXCEPT { }
  403d3f:	48 89 ef             	mov    %rbp,%rdi
  403d42:	e8 39 ff ff ff       	callq  403c80 <_Unwind_Resume@plt>

0000000000403d47 <_Z9PrintTimeRKNSt7__cxx1112basic_stringIcSt11char_traitsIcESaIcEEEd.cold>:
_ZNKSt7__cxx1112basic_stringIcSt11char_traitsIcESaIcEE7_M_dataEv():
/usr/include/c++/10/bits/basic_string.h:195 (discriminator 1)
      { return _M_dataplus._M_p; }
  403d47:	48 8b 7c 24 10       	mov    0x10(%rsp),%rdi
_ZNSt7__cxx1112basic_stringIcSt11char_traitsIcESaIcEE10_M_disposeEv():
/usr/include/c++/10/bits/basic_string.h:239 (discriminator 1)
	if (!_M_is_local())
  403d4c:	48 39 df             	cmp    %rbx,%rdi
  403d4f:	74 05                	je     403d56 <_Z9PrintTimeRKNSt7__cxx1112basic_stringIcSt11char_traitsIcESaIcEEEd.cold+0xf>
_ZN9__gnu_cxx13new_allocatorIcE10deallocateEPcm():
/usr/include/c++/10/ext/new_allocator.h:139
	::operator delete(__p
  403d51:	e8 0a fc ff ff       	callq  403960 <_ZdlPv@plt>
_ZN9__gnu_cxx13new_allocatorIcED4Ev():
/usr/include/c++/10/ext/new_allocator.h:89
      ~new_allocator() _GLIBCXX_USE_NOEXCEPT { }
  403d56:	48 89 ef             	mov    %rbp,%rdi
  403d59:	e8 22 ff ff ff       	callq  403c80 <_Unwind_Resume@plt>

0000000000403d5e <_Z9PrintStepRKNSt7__cxx1112basic_stringIcSt11char_traitsIcESaIcEEEl.cold>:
_ZNKSt7__cxx1112basic_stringIcSt11char_traitsIcESaIcEE7_M_dataEv():
/usr/include/c++/10/bits/basic_string.h:195 (discriminator 1)
      { return _M_dataplus._M_p; }
  403d5e:	48 8b 7c 24 10       	mov    0x10(%rsp),%rdi
_ZNSt7__cxx1112basic_stringIcSt11char_traitsIcESaIcEE10_M_disposeEv():
/usr/include/c++/10/bits/basic_string.h:239 (discriminator 1)
	if (!_M_is_local())
  403d63:	48 39 df             	cmp    %rbx,%rdi
  403d66:	74 05                	je     403d6d <_Z9PrintStepRKNSt7__cxx1112basic_stringIcSt11char_traitsIcESaIcEEEl.cold+0xf>
_ZN9__gnu_cxx13new_allocatorIcE10deallocateEPcm():
/usr/include/c++/10/ext/new_allocator.h:139
	::operator delete(__p
  403d68:	e8 f3 fb ff ff       	callq  403960 <_ZdlPv@plt>
_ZN9__gnu_cxx13new_allocatorIcED4Ev():
/usr/include/c++/10/ext/new_allocator.h:89
      ~new_allocator() _GLIBCXX_USE_NOEXCEPT { }
  403d6d:	48 89 ef             	mov    %rbp,%rdi
  403d70:	e8 0b ff ff ff       	callq  403c80 <_Unwind_Resume@plt>

0000000000403d75 <_Z9PrintStepidl.cold>:
_ZNKSt7__cxx1112basic_stringIcSt11char_traitsIcESaIcEE7_M_dataEv():
/usr/include/c++/10/bits/basic_string.h:195 (discriminator 1)
      { return _M_dataplus._M_p; }
  403d75:	48 8b 7c 24 10       	mov    0x10(%rsp),%rdi
_ZNSt7__cxx1112basic_stringIcSt11char_traitsIcESaIcEE10_M_disposeEv():
/usr/include/c++/10/bits/basic_string.h:239 (discriminator 1)
	if (!_M_is_local())
  403d7a:	48 39 ef             	cmp    %rbp,%rdi
  403d7d:	74 05                	je     403d84 <_Z9PrintStepidl.cold+0xf>
_ZN9__gnu_cxx13new_allocatorIcE10deallocateEPcm():
/usr/include/c++/10/ext/new_allocator.h:139
	::operator delete(__p
  403d7f:	e8 dc fb ff ff       	callq  403960 <_ZdlPv@plt>
_ZN9__gnu_cxx13new_allocatorIcED4Ev():
/usr/include/c++/10/ext/new_allocator.h:89
      ~new_allocator() _GLIBCXX_USE_NOEXCEPT { }
  403d84:	4c 89 e7             	mov    %r12,%rdi
  403d87:	e8 f4 fe ff ff       	callq  403c80 <_Unwind_Resume@plt>

0000000000403d8c <_Z4PBFSRK8CSRGraphIiiLb1EEiR7pvectorIdER6BitmapRSt6vectorIPiSaIS9_EER12SlidingQueueIiE.cold>:
_ZN7pvectorIiEC4Em():
/home/aliha951/ipdps-artifact/gapbs-master/src/pvector.h:30
  typedef T_* iterator;

  pvector() : start_(nullptr), end_size_(nullptr), end_capacity_(nullptr) {}

  explicit pvector(size_t num_elements) {
    start_ = new T_[num_elements];
  403d8c:	e8 8f fd ff ff       	callq  403b20 <__cxa_throw_bad_array_new_length@plt>
_ZN7pvectorIiE16ReleaseResourcesEv():
/home/aliha951/ipdps-artifact/gapbs-master/src/pvector.h:73
    }
    return *this;
  }

  void ReleaseResources(){
    if (start_ != nullptr) {
  403d91:	48 8b 7c 24 10       	mov    0x10(%rsp),%rdi
  403d96:	48 85 ff             	test   %rdi,%rdi
  403d99:	74 05                	je     403da0 <_Z4PBFSRK8CSRGraphIiiLb1EEiR7pvectorIdER6BitmapRSt6vectorIPiSaIS9_EER12SlidingQueueIiE.cold+0x14>
/home/aliha951/ipdps-artifact/gapbs-master/src/pvector.h:74
      delete[] start_;
  403d9b:	e8 f0 fc ff ff       	callq  403a90 <_ZdaPv@plt>
  403da0:	48 89 ef             	mov    %rbp,%rdi
  403da3:	e8 d8 fe ff ff       	callq  403c80 <_Unwind_Resume@plt>

0000000000403da8 <_Z10BCVerifierRK8CSRGraphIiiLb1EER12SourcePickerIS0_EiRK7pvectorIfE.cold>:
_ZN7pvectorIfEC4Em():
/home/aliha951/ipdps-artifact/gapbs-master/src/pvector.h:30
    start_ = new T_[num_elements];
  403da8:	e8 73 fd ff ff       	callq  403b20 <__cxa_throw_bad_array_new_length@plt>
_ZNSt6vectorIiSaIiEED4Ev():
/usr/include/c++/10/bits/stl_vector.h:680
       *  not touched in any way.  Managing the pointer is the user's
       *  responsibility.
       */
      ~vector() _GLIBCXX_NOEXCEPT
      {
	std::_Destroy(this->_M_impl._M_start, this->_M_impl._M_finish,
  403dad:	49 8b 3c 24          	mov    (%r12),%rdi
_ZNSt12_Vector_baseIiSaIiEE13_M_deallocateEPim():
/usr/include/c++/10/bits/stl_vector.h:353
	if (__p)
  403db1:	48 85 ff             	test   %rdi,%rdi
  403db4:	74 05                	je     403dbb <_Z10BCVerifierRK8CSRGraphIiiLb1EER12SourcePickerIS0_EiRK7pvectorIfE.cold+0x13>
_ZN9__gnu_cxx13new_allocatorIiE10deallocateEPim():
/usr/include/c++/10/ext/new_allocator.h:139
	::operator delete(__p
  403db6:	e8 a5 fb ff ff       	callq  403960 <_ZdlPv@plt>
_ZNSt12_Destroy_auxILb0EE9__destroyIPSt6vectorIiSaIiEEEEvT_S6_():
/usr/include/c++/10/bits/stl_construct.h:151
    {
      template<typename _ForwardIterator>
	static _GLIBCXX20_CONSTEXPR void
	__destroy(_ForwardIterator __first, _ForwardIterator __last)
	{
	  for (; __first != __last; ++__first)
  403dbb:	49 83 c4 18          	add    $0x18,%r12
  403dbf:	4d 39 e5             	cmp    %r12,%r13
  403dc2:	75 e9                	jne    403dad <_Z10BCVerifierRK8CSRGraphIiiLb1EER12SourcePickerIS0_EiRK7pvectorIfE.cold+0x5>
_ZNSt12_Vector_baseISt6vectorIiSaIiEESaIS2_EED4Ev():
/usr/include/c++/10/bits/stl_vector.h:336
		      _M_impl._M_end_of_storage - _M_impl._M_start);
  403dc4:	48 8b bc 24 c0 00 00 	mov    0xc0(%rsp),%rdi
  403dcb:	00 
_ZNSt12_Vector_baseISt6vectorIiSaIiEESaIS2_EE13_M_deallocateEPS2_m():
/usr/include/c++/10/bits/stl_vector.h:353
	if (__p)
  403dcc:	48 85 ff             	test   %rdi,%rdi
  403dcf:	74 05                	je     403dd6 <_Z10BCVerifierRK8CSRGraphIiiLb1EER12SourcePickerIS0_EiRK7pvectorIfE.cold+0x2e>
_ZN9__gnu_cxx13new_allocatorISt6vectorIiSaIiEEE10deallocateEPS3_m():
/usr/include/c++/10/ext/new_allocator.h:139
  403dd1:	e8 8a fb ff ff       	callq  403960 <_ZdlPv@plt>
_ZNSt6vectorIiSaIiEED4Ev():
/usr/include/c++/10/bits/stl_vector.h:680
	std::_Destroy(this->_M_impl._M_start, this->_M_impl._M_finish,
  403dd6:	48 8b bc 24 a0 00 00 	mov    0xa0(%rsp),%rdi
  403ddd:	00 
_ZNSt12_Vector_baseIiSaIiEE13_M_deallocateEPim():
/usr/include/c++/10/bits/stl_vector.h:353
	if (__p)
  403dde:	48 85 ff             	test   %rdi,%rdi
  403de1:	74 05                	je     403de8 <_Z10BCVerifierRK8CSRGraphIiiLb1EER12SourcePickerIS0_EiRK7pvectorIfE.cold+0x40>
_ZN9__gnu_cxx13new_allocatorIiE10deallocateEPim():
/usr/include/c++/10/ext/new_allocator.h:139
  403de3:	e8 78 fb ff ff       	callq  403960 <_ZdlPv@plt>
_ZNSt12_Vector_baseIdSaIdEE13_M_deallocateEPdm():
/usr/include/c++/10/bits/stl_vector.h:353
  403de8:	48 85 ed             	test   %rbp,%rbp
  403deb:	74 08                	je     403df5 <_Z10BCVerifierRK8CSRGraphIiiLb1EER12SourcePickerIS0_EiRK7pvectorIfE.cold+0x4d>
_ZN9__gnu_cxx13new_allocatorIdE10deallocateEPdm():
/usr/include/c++/10/ext/new_allocator.h:139
  403ded:	48 89 ef             	mov    %rbp,%rdi
  403df0:	e8 6b fb ff ff       	callq  403960 <_ZdlPv@plt>
_ZN7pvectorIiE16ReleaseResourcesEv():
/home/aliha951/ipdps-artifact/gapbs-master/src/pvector.h:73
    if (start_ != nullptr) {
  403df5:	48 8b bc 24 80 00 00 	mov    0x80(%rsp),%rdi
  403dfc:	00 
  403dfd:	48 85 ff             	test   %rdi,%rdi
  403e00:	74 05                	je     403e07 <_Z10BCVerifierRK8CSRGraphIiiLb1EER12SourcePickerIS0_EiRK7pvectorIfE.cold+0x5f>
/home/aliha951/ipdps-artifact/gapbs-master/src/pvector.h:74
      delete[] start_;
  403e02:	e8 89 fc ff ff       	callq  403a90 <_ZdaPv@plt>
  403e07:	48 89 dd             	mov    %rbx,%rbp
_ZN7pvectorIfE16ReleaseResourcesEv():
/home/aliha951/ipdps-artifact/gapbs-master/src/pvector.h:73
    if (start_ != nullptr) {
  403e0a:	48 8b 7c 24 60       	mov    0x60(%rsp),%rdi
  403e0f:	48 85 ff             	test   %rdi,%rdi
  403e12:	74 05                	je     403e19 <_Z10BCVerifierRK8CSRGraphIiiLb1EER12SourcePickerIS0_EiRK7pvectorIfE.cold+0x71>
/home/aliha951/ipdps-artifact/gapbs-master/src/pvector.h:74
      delete[] start_;
  403e14:	e8 77 fc ff ff       	callq  403a90 <_ZdaPv@plt>
  403e19:	48 89 ef             	mov    %rbp,%rdi
  403e1c:	e8 5f fe ff ff       	callq  403c80 <_Unwind_Resume@plt>
_ZN7pvectorIfEC4Em():
/home/aliha951/ipdps-artifact/gapbs-master/src/pvector.h:30
    start_ = new T_[num_elements];
  403e21:	e8 fa fc ff ff       	callq  403b20 <__cxa_throw_bad_array_new_length@plt>
  403e26:	f3 0f 1e fa          	endbr64 
_ZNSt6vectorIS_IiSaIiEESaIS1_EED4Ev():
/usr/include/c++/10/bits/stl_vector.h:680
	std::_Destroy(this->_M_impl._M_start, this->_M_impl._M_finish,
  403e2a:	4c 8b ac 24 c8 00 00 	mov    0xc8(%rsp),%r13
  403e31:	00 
  403e32:	4c 8b a4 24 c0 00 00 	mov    0xc0(%rsp),%r12
  403e39:	00 
  403e3a:	48 89 c3             	mov    %rax,%rbx
_ZSt8_DestroyIPSt6vectorIiSaIiEES2_EvT_S4_RSaIT0_E():
/usr/include/c++/10/bits/alloc_traits.h:839
#endif
    }

  template<typename _ForwardIterator, typename _Tp>
    inline void
    _Destroy(_ForwardIterator __first, _ForwardIterator __last,
  403e3d:	eb 80                	jmp    403dbf <_Z10BCVerifierRK8CSRGraphIiiLb1EER12SourcePickerIS0_EiRK7pvectorIfE.cold+0x17>
_ZN7pvectorIiEC4Em():
/home/aliha951/ipdps-artifact/gapbs-master/src/pvector.h:30
  403e3f:	e8 dc fc ff ff       	callq  403b20 <__cxa_throw_bad_array_new_length@plt>
  403e44:	f3 0f 1e fa          	endbr64 
_ZN7pvectorIfE16ReleaseResourcesEv():
/home/aliha951/ipdps-artifact/gapbs-master/src/pvector.h:73
    if (start_ != nullptr) {
  403e48:	48 89 c5             	mov    %rax,%rbp
  403e4b:	eb bd                	jmp    403e0a <_Z10BCVerifierRK8CSRGraphIiiLb1EER12SourcePickerIS0_EiRK7pvectorIfE.cold+0x62>

0000000000403e4d <_Z7BrandesRK8CSRGraphIiiLb1EER12SourcePickerIS0_Eib.cold>:
_ZN7pvectorIfEC4Em():
/home/aliha951/ipdps-artifact/gapbs-master/src/pvector.h:30
    start_ = new T_[num_elements];
  403e4d:	e8 ce fc ff ff       	callq  403b20 <__cxa_throw_bad_array_new_length@plt>
_ZNKSt7__cxx1112basic_stringIcSt11char_traitsIcESaIcEE7_M_dataEv():
/usr/include/c++/10/bits/basic_string.h:195 (discriminator 4)
      { return _M_dataplus._M_p; }
  403e52:	48 8b bc 24 40 01 00 	mov    0x140(%rsp),%rdi
  403e59:	00 
_ZNSt7__cxx1112basic_stringIcSt11char_traitsIcESaIcEE10_M_disposeEv():
/usr/include/c++/10/bits/basic_string.h:239 (discriminator 4)
	if (!_M_is_local())
  403e5a:	48 39 df             	cmp    %rbx,%rdi
  403e5d:	74 05                	je     403e64 <_Z7BrandesRK8CSRGraphIiiLb1EER12SourcePickerIS0_Eib.cold+0x17>
_ZN9__gnu_cxx13new_allocatorIcE10deallocateEPcm():
/usr/include/c++/10/ext/new_allocator.h:139
  403e5f:	e8 fc fa ff ff       	callq  403960 <_ZdlPv@plt>
_ZN9__gnu_cxx13new_allocatorIcED4Ev():
/usr/include/c++/10/ext/new_allocator.h:89
      ~new_allocator() _GLIBCXX_USE_NOEXCEPT { }
  403e64:	48 89 eb             	mov    %rbp,%rbx
_ZN7pvectorIfE16ReleaseResourcesEv():
/home/aliha951/ipdps-artifact/gapbs-master/src/pvector.h:73
    if (start_ != nullptr) {
  403e67:	48 8b bc 24 c0 00 00 	mov    0xc0(%rsp),%rdi
  403e6e:	00 
  403e6f:	48 85 ff             	test   %rdi,%rdi
  403e72:	74 05                	je     403e79 <_Z7BrandesRK8CSRGraphIiiLb1EER12SourcePickerIS0_Eib.cold+0x2c>
/home/aliha951/ipdps-artifact/gapbs-master/src/pvector.h:74
      delete[] start_;
  403e74:	e8 17 fc ff ff       	callq  403a90 <_ZdaPv@plt>
_ZN12SlidingQueueIiED4Ev():
/home/aliha951/ipdps-artifact/gapbs-master/src/sliding_queue.h:41
    shared = new T[shared_size];
    reset();
  }

  ~SlidingQueue() {
    delete[] shared;
  403e79:	48 8b bc 24 e0 00 00 	mov    0xe0(%rsp),%rdi
  403e80:	00 
  403e81:	48 85 ff             	test   %rdi,%rdi
  403e84:	74 05                	je     403e8b <_Z7BrandesRK8CSRGraphIiiLb1EER12SourcePickerIS0_Eib.cold+0x3e>
  403e86:	e8 05 fc ff ff       	callq  403a90 <_ZdaPv@plt>
_ZNSt6vectorIPiSaIS0_EED4Ev():
/usr/include/c++/10/bits/stl_vector.h:680
  403e8b:	48 8b bc 24 a0 00 00 	mov    0xa0(%rsp),%rdi
  403e92:	00 
_ZNSt12_Vector_baseIPiSaIS0_EE13_M_deallocateEPS0_m():
/usr/include/c++/10/bits/stl_vector.h:353
	if (__p)
  403e93:	48 85 ff             	test   %rdi,%rdi
  403e96:	74 05                	je     403e9d <_Z7BrandesRK8CSRGraphIiiLb1EER12SourcePickerIS0_Eib.cold+0x50>
_ZN9__gnu_cxx13new_allocatorIPiE10deallocateEPS1_m():
/usr/include/c++/10/ext/new_allocator.h:139
	::operator delete(__p
  403e98:	e8 c3 fa ff ff       	callq  403960 <_ZdlPv@plt>
_ZN6BitmapD4Ev():
/home/aliha951/ipdps-artifact/gapbs-master/src/bitmap.h:32
    start_ = new uint64_t[num_words];
    end_ = start_ + num_words;
  }

  ~Bitmap() {
    delete[] start_;
  403e9d:	48 8b 7c 24 70       	mov    0x70(%rsp),%rdi
  403ea2:	48 85 ff             	test   %rdi,%rdi
  403ea5:	74 05                	je     403eac <_Z7BrandesRK8CSRGraphIiiLb1EER12SourcePickerIS0_Eib.cold+0x5f>
  403ea7:	e8 e4 fb ff ff       	callq  403a90 <_ZdaPv@plt>
_ZN7pvectorIdE16ReleaseResourcesEv():
/home/aliha951/ipdps-artifact/gapbs-master/src/pvector.h:73
    if (start_ != nullptr) {
  403eac:	48 8b bc 24 80 00 00 	mov    0x80(%rsp),%rdi
  403eb3:	00 
  403eb4:	48 85 ff             	test   %rdi,%rdi
  403eb7:	74 05                	je     403ebe <_Z7BrandesRK8CSRGraphIiiLb1EER12SourcePickerIS0_Eib.cold+0x71>
/home/aliha951/ipdps-artifact/gapbs-master/src/pvector.h:74
      delete[] start_;
  403eb9:	e8 d2 fb ff ff       	callq  403a90 <_ZdaPv@plt>
  403ebe:	48 89 dd             	mov    %rbx,%rbp
_ZN7pvectorIfE16ReleaseResourcesEv():
/home/aliha951/ipdps-artifact/gapbs-master/src/pvector.h:73
    if (start_ != nullptr) {
  403ec1:	48 8b 44 24 58       	mov    0x58(%rsp),%rax
  403ec6:	48 8b 38             	mov    (%rax),%rdi
  403ec9:	48 85 ff             	test   %rdi,%rdi
  403ecc:	74 05                	je     403ed3 <_Z7BrandesRK8CSRGraphIiiLb1EER12SourcePickerIS0_Eib.cold+0x86>
/home/aliha951/ipdps-artifact/gapbs-master/src/pvector.h:74
      delete[] start_;
  403ece:	e8 bd fb ff ff       	callq  403a90 <_ZdaPv@plt>
  403ed3:	48 89 ef             	mov    %rbp,%rdi
  403ed6:	e8 a5 fd ff ff       	callq  403c80 <_Unwind_Resume@plt>
_ZN7pvectorIdEC4Em():
/home/aliha951/ipdps-artifact/gapbs-master/src/pvector.h:30
    start_ = new T_[num_elements];
  403edb:	e8 40 fc ff ff       	callq  403b20 <__cxa_throw_bad_array_new_length@plt>
_ZNKSt7__cxx1112basic_stringIcSt11char_traitsIcESaIcEE7_M_dataEv():
/usr/include/c++/10/bits/basic_string.h:195 (discriminator 4)
      { return _M_dataplus._M_p; }
  403ee0:	48 8b bc 24 40 01 00 	mov    0x140(%rsp),%rdi
  403ee7:	00 
_ZNSt7__cxx1112basic_stringIcSt11char_traitsIcESaIcEE10_M_disposeEv():
/usr/include/c++/10/bits/basic_string.h:239 (discriminator 4)
	if (!_M_is_local())
  403ee8:	48 39 df             	cmp    %rbx,%rdi
  403eeb:	74 05                	je     403ef2 <_Z7BrandesRK8CSRGraphIiiLb1EER12SourcePickerIS0_Eib.cold+0xa5>
_ZN9__gnu_cxx13new_allocatorIcE10deallocateEPcm():
/usr/include/c++/10/ext/new_allocator.h:139
  403eed:	e8 6e fa ff ff       	callq  403960 <_ZdlPv@plt>
_ZN9__gnu_cxx13new_allocatorIcED4Ev():
/usr/include/c++/10/ext/new_allocator.h:89
      ~new_allocator() _GLIBCXX_USE_NOEXCEPT { }
  403ef2:	48 89 eb             	mov    %rbp,%rbx
  403ef5:	eb 82                	jmp    403e79 <_Z7BrandesRK8CSRGraphIiiLb1EER12SourcePickerIS0_Eib.cold+0x2c>
  403ef7:	f3 0f 1e fa          	endbr64 
_ZN7pvectorIfE16ReleaseResourcesEv():
/home/aliha951/ipdps-artifact/gapbs-master/src/pvector.h:73
    if (start_ != nullptr) {
  403efb:	48 89 c5             	mov    %rax,%rbp
  403efe:	eb c1                	jmp    403ec1 <_Z7BrandesRK8CSRGraphIiiLb1EER12SourcePickerIS0_Eib.cold+0x74>
_ZN7pvectorIfEC4Em():
/home/aliha951/ipdps-artifact/gapbs-master/src/pvector.h:30
    start_ = new T_[num_elements];
  403f00:	e8 1b fc ff ff       	callq  403b20 <__cxa_throw_bad_array_new_length@plt>
  403f05:	f3 0f 1e fa          	endbr64 
_ZN12SlidingQueueIiED4Ev():
/home/aliha951/ipdps-artifact/gapbs-master/src/sliding_queue.h:41
  403f09:	48 89 c3             	mov    %rax,%rbx
  403f0c:	e9 68 ff ff ff       	jmpq   403e79 <_Z7BrandesRK8CSRGraphIiiLb1EER12SourcePickerIS0_Eib.cold+0x2c>
  403f11:	f3 0f 1e fa          	endbr64 
_ZNSt6vectorIPiSaIS0_EED4Ev():
/usr/include/c++/10/bits/stl_vector.h:680
	std::_Destroy(this->_M_impl._M_start, this->_M_impl._M_finish,
  403f15:	48 89 c3             	mov    %rax,%rbx
  403f18:	e9 6e ff ff ff       	jmpq   403e8b <_Z7BrandesRK8CSRGraphIiiLb1EER12SourcePickerIS0_Eib.cold+0x3e>
_ZN12SlidingQueueIiEC4Em():
/home/aliha951/ipdps-artifact/gapbs-master/src/sliding_queue.h:36
    shared = new T[shared_size];
  403f1d:	e8 fe fb ff ff       	callq  403b20 <__cxa_throw_bad_array_new_length@plt>
_ZNKSt7__cxx1112basic_stringIcSt11char_traitsIcESaIcEE7_M_dataEv():
/usr/include/c++/10/bits/basic_string.h:195 (discriminator 4)
      { return _M_dataplus._M_p; }
  403f22:	48 8b bc 24 40 01 00 	mov    0x140(%rsp),%rdi
  403f29:	00 
_ZNSt7__cxx1112basic_stringIcSt11char_traitsIcESaIcEE10_M_disposeEv():
/usr/include/c++/10/bits/basic_string.h:239 (discriminator 4)
	if (!_M_is_local())
  403f2a:	48 8d 84 24 50 01 00 	lea    0x150(%rsp),%rax
  403f31:	00 
  403f32:	48 39 c7             	cmp    %rax,%rdi
  403f35:	0f 84 3e ff ff ff    	je     403e79 <_Z7BrandesRK8CSRGraphIiiLb1EER12SourcePickerIS0_Eib.cold+0x2c>
_ZN9__gnu_cxx13new_allocatorIcE10deallocateEPcm():
/usr/include/c++/10/ext/new_allocator.h:139
	::operator delete(__p
  403f3b:	e8 20 fa ff ff       	callq  403960 <_ZdlPv@plt>
_ZNSt7__cxx1112basic_stringIcSt11char_traitsIcESaIcEE10_M_destroyEm():
/usr/include/c++/10/bits/basic_string.h:245
	  _M_destroy(_M_allocated_capacity);
      }

      void
      _M_destroy(size_type __size) throw()
      { _Alloc_traits::deallocate(_M_get_allocator(), _M_data(), __size + 1); }
  403f40:	e9 34 ff ff ff       	jmpq   403e79 <_Z7BrandesRK8CSRGraphIiiLb1EER12SourcePickerIS0_Eib.cold+0x2c>

0000000000403f45 <_Z14PrintTopScoresRK8CSRGraphIiiLb1EERK7pvectorIfE.cold>:
_ZNSt6vectorISt4pairIfiESaIS1_EED4Ev():
/usr/include/c++/10/bits/stl_vector.h:680
  403f45:	48 8b 7c 24 20       	mov    0x20(%rsp),%rdi
_ZNSt12_Vector_baseISt4pairIfiESaIS1_EE13_M_deallocateEPS1_m():
/usr/include/c++/10/bits/stl_vector.h:353
	if (__p)
  403f4a:	48 85 ff             	test   %rdi,%rdi
  403f4d:	74 05                	je     403f54 <_Z14PrintTopScoresRK8CSRGraphIiiLb1EERK7pvectorIfE.cold+0xf>
_ZN9__gnu_cxx13new_allocatorISt4pairIfiEE10deallocateEPS2_m():
/usr/include/c++/10/ext/new_allocator.h:139
  403f4f:	e8 0c fa ff ff       	callq  403960 <_ZdlPv@plt>
_ZNSt6vectorISt4pairIifESaIS1_EED4Ev():
/usr/include/c++/10/bits/stl_vector.h:680
	std::_Destroy(this->_M_impl._M_start, this->_M_impl._M_finish,
  403f54:	48 8b 3c 24          	mov    (%rsp),%rdi
_ZNSt12_Vector_baseISt4pairIifESaIS1_EE13_M_deallocateEPS1_m():
/usr/include/c++/10/bits/stl_vector.h:353
	if (__p)
  403f58:	48 85 ff             	test   %rdi,%rdi
  403f5b:	74 05                	je     403f62 <_Z14PrintTopScoresRK8CSRGraphIiiLb1EERK7pvectorIfE.cold+0x1d>
_ZN9__gnu_cxx13new_allocatorISt4pairIifEE10deallocateEPS2_m():
/usr/include/c++/10/ext/new_allocator.h:139
  403f5d:	e8 fe f9 ff ff       	callq  403960 <_ZdlPv@plt>
_ZN9__gnu_cxx13new_allocatorISt4pairIifEED4Ev():
/usr/include/c++/10/ext/new_allocator.h:89
      ~new_allocator() _GLIBCXX_USE_NOEXCEPT { }
  403f62:	48 89 ef             	mov    %rbp,%rdi
  403f65:	e8 16 fd ff ff       	callq  403c80 <_Unwind_Resume@plt>

0000000000403f6a <main.cold>:
_ZNKSt7__cxx1112basic_stringIcSt11char_traitsIcESaIcEE7_M_dataEv():
/usr/include/c++/10/bits/basic_string.h:195
      { return _M_dataplus._M_p; }
  403f6a:	48 8b bc 24 f0 00 00 	mov    0xf0(%rsp),%rdi
  403f71:	00 
_ZNSt7__cxx1112basic_stringIcSt11char_traitsIcESaIcEE10_M_disposeEv():
/usr/include/c++/10/bits/basic_string.h:239
	if (!_M_is_local())
  403f72:	48 39 df             	cmp    %rbx,%rdi
  403f75:	74 05                	je     403f7c <main.cold+0x12>
_ZN9__gnu_cxx13new_allocatorIcE10deallocateEPcm():
/usr/include/c++/10/ext/new_allocator.h:139
	::operator delete(__p
  403f77:	e8 e4 f9 ff ff       	callq  403960 <_ZdlPv@plt>
_ZN7pvectorIfE16ReleaseResourcesEv():
/home/aliha951/ipdps-artifact/gapbs-master/src/pvector.h:73
    if (start_ != nullptr) {
  403f7c:	48 8b 7c 24 70       	mov    0x70(%rsp),%rdi
  403f81:	48 85 ff             	test   %rdi,%rdi
  403f84:	74 05                	je     403f8b <main.cold+0x21>
/home/aliha951/ipdps-artifact/gapbs-master/src/pvector.h:74
      delete[] start_;
  403f86:	e8 05 fb ff ff       	callq  403a90 <_ZdaPv@plt>
  403f8b:	48 89 eb             	mov    %rbp,%rbx
_ZN8CSRGraphIiiLb1EED4Ev():
/home/aliha951/ipdps-artifact/gapbs-master/src/graph.h:166
      other.in_index_ = nullptr;
      other.in_neighbors_ = nullptr;
  }

  ~CSRGraph() {
    ReleaseResources();
  403f8e:	4c 89 ef             	mov    %r13,%rdi
  403f91:	e8 7a 93 00 00       	callq  40d310 <_ZN8CSRGraphIiiLb1EE16ReleaseResourcesEv>
_ZN5CLAppD4Ev():
/home/aliha951/ipdps-artifact/gapbs-master/src/command_line.h:140
  int batching_mode() const { return batching_mode_; }
};



class CLApp : public CLBase {
  403f96:	48 8b 7c 24 28       	mov    0x28(%rsp),%rdi
  403f9b:	48 8d 05 56 8b 01 00 	lea    0x18b56(%rip),%rax        # 41caf8 <_ZTV5CLApp+0x10>
  403fa2:	48 89 84 24 10 01 00 	mov    %rax,0x110(%rsp)
  403fa9:	00 
  403faa:	e8 a1 83 00 00       	callq  40c350 <_ZN6CLBaseD1Ev>
  403faf:	48 89 df             	mov    %rbx,%rdi
  403fb2:	e8 c9 fc ff ff       	callq  403c80 <_Unwind_Resume@plt>
_ZNKSt7__cxx1112basic_stringIcSt11char_traitsIcESaIcEE7_M_dataEv():
/usr/include/c++/10/bits/basic_string.h:195
      { return _M_dataplus._M_p; }
  403fb7:	48 8b bc 24 f0 00 00 	mov    0xf0(%rsp),%rdi
  403fbe:	00 
_ZNSt7__cxx1112basic_stringIcSt11char_traitsIcESaIcEE10_M_disposeEv():
/usr/include/c++/10/bits/basic_string.h:239
	if (!_M_is_local())
  403fbf:	48 39 df             	cmp    %rbx,%rdi
  403fc2:	74 05                	je     403fc9 <main.cold+0x5f>
_ZN9__gnu_cxx13new_allocatorIcE10deallocateEPcm():
/usr/include/c++/10/ext/new_allocator.h:139
  403fc4:	e8 97 f9 ff ff       	callq  403960 <_ZdlPv@plt>
_ZNKSt7__cxx1112basic_stringIcSt11char_traitsIcESaIcEE7_M_dataEv():
/usr/include/c++/10/bits/basic_string.h:195
      { return _M_dataplus._M_p; }
  403fc9:	48 8b bc 24 d0 00 00 	mov    0xd0(%rsp),%rdi
  403fd0:	00 
_ZNSt7__cxx1112basic_stringIcSt11char_traitsIcESaIcEE10_M_disposeEv():
/usr/include/c++/10/bits/basic_string.h:239
	if (!_M_is_local())
  403fd1:	48 3b 7c 24 10       	cmp    0x10(%rsp),%rdi
  403fd6:	74 a4                	je     403f7c <main.cold+0x12>
_ZN9__gnu_cxx13new_allocatorIcE10deallocateEPcm():
/usr/include/c++/10/ext/new_allocator.h:139
  403fd8:	e8 83 f9 ff ff       	callq  403960 <_ZdlPv@plt>
_ZNSt7__cxx1112basic_stringIcSt11char_traitsIcESaIcEE10_M_destroyEm():
/usr/include/c++/10/bits/basic_string.h:245
      { _Alloc_traits::deallocate(_M_get_allocator(), _M_data(), __size + 1); }
  403fdd:	eb 9d                	jmp    403f7c <main.cold+0x12>
_ZNKSt7__cxx1112basic_stringIcSt11char_traitsIcESaIcEE7_M_dataEv():
/usr/include/c++/10/bits/basic_string.h:195
      { return _M_dataplus._M_p; }
  403fdf:	48 8b bc 24 f0 00 00 	mov    0xf0(%rsp),%rdi
  403fe6:	00 
_ZNSt7__cxx1112basic_stringIcSt11char_traitsIcESaIcEE10_M_disposeEv():
/usr/include/c++/10/bits/basic_string.h:239
	if (!_M_is_local())
  403fe7:	48 39 df             	cmp    %rbx,%rdi
  403fea:	74 90                	je     403f7c <main.cold+0x12>
_ZN9__gnu_cxx13new_allocatorIcE10deallocateEPcm():
/usr/include/c++/10/ext/new_allocator.h:139
  403fec:	e8 6f f9 ff ff       	callq  403960 <_ZdlPv@plt>
_ZNSt7__cxx1112basic_stringIcSt11char_traitsIcESaIcEE10_M_destroyEm():
/usr/include/c++/10/bits/basic_string.h:245
      { _Alloc_traits::deallocate(_M_get_allocator(), _M_data(), __size + 1); }
  403ff1:	eb 89                	jmp    403f7c <main.cold+0x12>
_ZNKSt7__cxx1112basic_stringIcSt11char_traitsIcESaIcEE7_M_dataEv():
/usr/include/c++/10/bits/basic_string.h:195
      { return _M_dataplus._M_p; }
  403ff3:	48 8b bc 24 d0 0b 00 	mov    0xbd0(%rsp),%rdi
  403ffa:	00 
_ZNSt7__cxx1112basic_stringIcSt11char_traitsIcESaIcEE10_M_disposeEv():
/usr/include/c++/10/bits/basic_string.h:239
	if (!_M_is_local())
  403ffb:	48 8d 84 24 e0 0b 00 	lea    0xbe0(%rsp),%rax
  404002:	00 
  404003:	48 39 c7             	cmp    %rax,%rdi
  404006:	74 05                	je     40400d <main.cold+0xa3>
_ZN9__gnu_cxx13new_allocatorIcE10deallocateEPcm():
/usr/include/c++/10/ext/new_allocator.h:139
  404008:	e8 53 f9 ff ff       	callq  403960 <_ZdlPv@plt>
_ZN9__gnu_cxx13new_allocatorIcED4Ev():
/usr/include/c++/10/ext/new_allocator.h:89
      ~new_allocator() _GLIBCXX_USE_NOEXCEPT { }
  40400d:	48 89 ef             	mov    %rbp,%rdi
  404010:	e8 6b fc ff ff       	callq  403c80 <_Unwind_Resume@plt>
_ZNKSt7__cxx1112basic_stringIcSt11char_traitsIcESaIcEE7_M_dataEv():
/usr/include/c++/10/bits/basic_string.h:195
      { return _M_dataplus._M_p; }
  404015:	48 8b bc 24 f0 00 00 	mov    0xf0(%rsp),%rdi
  40401c:	00 
_ZNSt7__cxx1112basic_stringIcSt11char_traitsIcESaIcEE10_M_disposeEv():
/usr/include/c++/10/bits/basic_string.h:239
	if (!_M_is_local())
  40401d:	48 8d 84 24 00 01 00 	lea    0x100(%rsp),%rax
  404024:	00 
  404025:	48 39 c7             	cmp    %rax,%rdi
  404028:	0f 84 60 ff ff ff    	je     403f8e <main.cold+0x24>
_ZN9__gnu_cxx13new_allocatorIcE10deallocateEPcm():
/usr/include/c++/10/ext/new_allocator.h:139
	::operator delete(__p
  40402e:	e8 2d f9 ff ff       	callq  403960 <_ZdlPv@plt>
_ZNSt7__cxx1112basic_stringIcSt11char_traitsIcESaIcEE10_M_destroyEm():
/usr/include/c++/10/bits/basic_string.h:245
      { _Alloc_traits::deallocate(_M_get_allocator(), _M_data(), __size + 1); }
  404033:	e9 56 ff ff ff       	jmpq   403f8e <main.cold+0x24>
main.cold():
  404038:	0f 1f 84 00 00 00 00 	nopl   0x0(%rax,%rax,1)
  40403f:	00 

0000000000404040 <main>:
main():
/home/aliha951/ipdps-artifact/gapbs-master/src/bc_batching_nopt.cc:314
  }
  return all_ok;
}


int main(int argc, char* argv[]) {
  404040:	f3 0f 1e fa          	endbr64 
  404044:	41 57                	push   %r15
  404046:	41 56                	push   %r14
  404048:	41 55                	push   %r13
  40404a:	41 54                	push   %r12
  40404c:	55                   	push   %rbp
  40404d:	53                   	push   %rbx
  40404e:	48 81 ec 00 10 00 00 	sub    $0x1000,%rsp
  404055:	48 83 0c 24 00       	orq    $0x0,(%rsp)
  40405a:	48 81 ec d8 06 00 00 	sub    $0x6d8,%rsp
  404061:	64 48 8b 04 25 28 00 	mov    %fs:0x28,%rax
  404068:	00 00 
  40406a:	48 89 84 24 c8 16 00 	mov    %rax,0x16c8(%rsp)
  404071:	00 
  404072:	31 c0                	xor    %eax,%eax
/home/aliha951/ipdps-artifact/gapbs-master/src/bc_batching_nopt.cc:316
  initialize_perf_measurements();
  CLIterApp cli(argc, argv, "betweenness-centrality", 1);
  404074:	48 8d 9c 24 d0 0b 00 	lea    0xbd0(%rsp),%rbx
  40407b:	00 
/home/aliha951/ipdps-artifact/gapbs-master/src/bc_batching_nopt.cc:314
int main(int argc, char* argv[]) {
  40407c:	89 fd                	mov    %edi,%ebp
  40407e:	49 89 f4             	mov    %rsi,%r12
_Z28initialize_perf_measurementsv():
/home/aliha951/ipdps-artifact/gapbs-master/src/profiling_utils.h:169

/* Setup counters before any threads are created by omp
 * Must be called at the begining of the program.
*/
void initialize_perf_measurements(){
  perf_ctrs = setup_counters();
  404081:	e8 5a 2e 00 00       	callq  406ee0 <_Z14setup_countersv>
main():
/home/aliha951/ipdps-artifact/gapbs-master/src/bc_batching_nopt.cc:316
  CLIterApp cli(argc, argv, "betweenness-centrality", 1);
  404086:	48 8d 35 4e 32 01 00 	lea    0x1324e(%rip),%rsi        # 4172db <_IO_stdin_used+0x2db>
  40408d:	48 89 df             	mov    %rbx,%rdi
  404090:	48 89 5c 24 20       	mov    %rbx,0x20(%rsp)
_Z28initialize_perf_measurementsv():
/home/aliha951/ipdps-artifact/gapbs-master/src/profiling_utils.h:169
  404095:	48 89 05 b4 e8 01 00 	mov    %rax,0x1e8b4(%rip)        # 422950 <perf_ctrs>
  40409c:	48 89 15 b5 e8 01 00 	mov    %rdx,0x1e8b5(%rip)        # 422958 <perf_ctrs+0x8>
main():
/home/aliha951/ipdps-artifact/gapbs-master/src/bc_batching_nopt.cc:316
  4040a3:	e8 78 21 00 00       	callq  406220 <_ZNSt7__cxx1112basic_stringIcSt11char_traitsIcESaIcEEC2EPKcRKS3_.constprop.0>
  4040a8:	41 b8 01 00 00 00    	mov    $0x1,%r8d
  4040ae:	48 89 d9             	mov    %rbx,%rcx
  4040b1:	89 ee                	mov    %ebp,%esi
  4040b3:	48 8d 84 24 10 01 00 	lea    0x110(%rsp),%rax
  4040ba:	00 
  4040bb:	4c 89 e2             	mov    %r12,%rdx
  4040be:	48 89 c7             	mov    %rax,%rdi
  4040c1:	48 89 44 24 28       	mov    %rax,0x28(%rsp)
  4040c6:	e8 75 b3 00 00       	callq  40f440 <_ZN9CLIterAppC1EiPPcNSt7__cxx1112basic_stringIcSt11char_traitsIcESaIcEEEi>
_ZNKSt7__cxx1112basic_stringIcSt11char_traitsIcESaIcEE7_M_dataEv():
/usr/include/c++/10/bits/basic_string.h:195
      { return _M_dataplus._M_p; }
  4040cb:	48 8b bc 24 d0 0b 00 	mov    0xbd0(%rsp),%rdi
  4040d2:	00 
_ZNSt7__cxx1112basic_stringIcSt11char_traitsIcESaIcEE10_M_disposeEv():
/usr/include/c++/10/bits/basic_string.h:239
	if (!_M_is_local())
  4040d3:	48 8d ac 24 e0 0b 00 	lea    0xbe0(%rsp),%rbp
  4040da:	00 
  4040db:	48 39 ef             	cmp    %rbp,%rdi
  4040de:	74 05                	je     4040e5 <main+0xa5>
_ZN9__gnu_cxx13new_allocatorIcE10deallocateEPcm():
/usr/include/c++/10/ext/new_allocator.h:139
  4040e0:	e8 7b f8 ff ff       	callq  403960 <_ZdlPv@plt>
_ZN6CLBase9HandleArgEaPc():
/home/aliha951/ipdps-artifact/gapbs-master/src/command_line.h:100
    switch (opt) {
  4040e5:	4c 8d 25 c8 3e 01 00 	lea    0x13ec8(%rip),%r12        # 417fb4 <_IO_stdin_used+0xfb4>
_ZNSt7__cxx1112basic_stringIcSt11char_traitsIcESaIcEEaSEOS4_():
/usr/include/c++/10/bits/basic_string.h:745
	    || _M_get_allocator() == __str._M_get_allocator())
	  {
	    // Just move the allocated pointer, our allocator can free it.
	    pointer __data = nullptr;
	    size_type __capacity;
	    if (!_M_is_local())
  4040ec:	4c 8d ac 24 98 01 00 	lea    0x198(%rsp),%r13
  4040f3:	00 
_ZN5CLApp9HandleArgEaPc():
/home/aliha951/ipdps-artifact/gapbs-master/src/command_line.h:165
    AddHelpLine('p', "", "partial execution", "false");
    AddHelpLine('z', "", "pin vertex array in memory", "false");
  }

  void HandleArg(signed char opt, char* opt_arg) override {
    switch (opt) {
  4040f4:	48 8d 1d 51 3e 01 00 	lea    0x13e51(%rip),%rbx        # 417f4c <_IO_stdin_used+0xf4c>
  4040fb:	0f 1f 44 00 00       	nopl   0x0(%rax,%rax,1)
_ZN6CLBase9ParseArgsEv():
/home/aliha951/ipdps-artifact/gapbs-master/src/command_line.h:87
    while ((c_opt = getopt(argc_, argv_, get_args_.c_str())) != -1) {
  404100:	48 8b 94 24 48 01 00 	mov    0x148(%rsp),%rdx
  404107:	00 
  404108:	48 8b b4 24 20 01 00 	mov    0x120(%rsp),%rsi
  40410f:	00 
  404110:	8b bc 24 18 01 00 00 	mov    0x118(%rsp),%edi
  404117:	e8 44 f6 ff ff       	callq  403760 <getopt@plt>
  40411c:	3c ff                	cmp    $0xff,%al
  40411e:	0f 84 ec 00 00 00    	je     404210 <main+0x1d0>
/home/aliha951/ipdps-artifact/gapbs-master/src/command_line.h:88
      HandleArg(c_opt, optarg);
  404124:	48 8b 3d 95 92 01 00 	mov    0x19295(%rip),%rdi        # 41d3c0 <optarg@@GLIBC_2.2.5>
_ZN9CLIterApp9HandleArgEaPc():
/home/aliha951/ipdps-artifact/gapbs-master/src/command_line.h:203
    get_args_ += "i:";
    AddHelpLine('i', "i", "perform i iterations", std::to_string(num_iters_));
  }

  void HandleArg(signed char opt, char* opt_arg) override {
    switch (opt) {
  40412b:	3c 69                	cmp    $0x69,%al
  40412d:	0f 84 bd 00 00 00    	je     4041f0 <main+0x1b0>
_ZN5CLApp9HandleArgEaPc():
/home/aliha951/ipdps-artifact/gapbs-master/src/command_line.h:165
    switch (opt) {
  404133:	8d 50 9f             	lea    -0x61(%rax),%edx
  404136:	80 fa 19             	cmp    $0x19,%dl
  404139:	77 15                	ja     404150 <main+0x110>
  40413b:	0f b6 d2             	movzbl %dl,%edx
  40413e:	48 63 14 93          	movslq (%rbx,%rdx,4),%rdx
  404142:	48 01 da             	add    %rbx,%rdx
  404145:	3e ff e2             	notrack jmpq *%rdx
  404148:	0f 1f 84 00 00 00 00 	nopl   0x0(%rax,%rax,1)
  40414f:	00 
_ZN6CLBase9HandleArgEaPc():
/home/aliha951/ipdps-artifact/gapbs-master/src/command_line.h:100
    switch (opt) {
  404150:	83 e8 66             	sub    $0x66,%eax
  404153:	3c 13                	cmp    $0x13,%al
  404155:	77 a9                	ja     404100 <main+0xc0>
  404157:	0f b6 c0             	movzbl %al,%eax
  40415a:	49 63 04 84          	movslq (%r12,%rax,4),%rax
  40415e:	4c 01 e0             	add    %r12,%rax
  404161:	3e ff e0             	notrack jmpq *%rax
  404164:	0f 1f 40 00          	nopl   0x0(%rax)
_ZN5CLApp9HandleArgEaPc():
/home/aliha951/ipdps-artifact/gapbs-master/src/command_line.h:174
      case 'z': pin_vertices_ = true;                 	break;
  404168:	c6 84 24 d3 01 00 00 	movb   $0x1,0x1d3(%rsp)
  40416f:	01 
  404170:	eb 8e                	jmp    404100 <main+0xc0>
  404172:	66 0f 1f 44 00 00    	nopw   0x0(%rax,%rax,1)
/home/aliha951/ipdps-artifact/gapbs-master/src/command_line.h:169
      case 'v': do_verify_ = true;                      break;
  404178:	c6 84 24 d0 01 00 00 	movb   $0x1,0x1d0(%rsp)
  40417f:	01 
  404180:	e9 7b ff ff ff       	jmpq   404100 <main+0xc0>
  404185:	0f 1f 00             	nopl   (%rax)
main():
/usr/include/stdlib.h:368
  return (int) strtol (__nptr, (char **) NULL, 10);
}
__extern_inline long int
__NTH (atol (const char *__nptr))
{
  return strtol (__nptr, (char **) NULL, 10);
  404188:	ba 0a 00 00 00       	mov    $0xa,%edx
atol():
/usr/include/stdlib.h:368
  40418d:	31 f6                	xor    %esi,%esi
  40418f:	e8 5c f9 ff ff       	callq  403af0 <strtol@plt>
_ZN5CLApp9HandleArgEaPc():
/home/aliha951/ipdps-artifact/gapbs-master/src/command_line.h:168
      case 'r': start_vertex_ = atol(opt_arg);          break;
  404194:	48 89 84 24 c8 01 00 	mov    %rax,0x1c8(%rsp)
  40419b:	00 
  40419c:	e9 5f ff ff ff       	jmpq   404100 <main+0xc0>
  4041a1:	0f 1f 80 00 00 00 00 	nopl   0x0(%rax)
/home/aliha951/ipdps-artifact/gapbs-master/src/command_line.h:173
      case 'p': partial_execution_ = true;              break;
  4041a8:	c6 84 24 d2 01 00 00 	movb   $0x1,0x1d2(%rsp)
  4041af:	01 
  4041b0:	e9 4b ff ff ff       	jmpq   404100 <main+0xc0>
  4041b5:	0f 1f 00             	nopl   (%rax)
main():
/usr/include/stdlib.h:363
  return (int) strtol (__nptr, (char **) NULL, 10);
  4041b8:	ba 0a 00 00 00       	mov    $0xa,%edx
atoi():
/usr/include/stdlib.h:363
  4041bd:	31 f6                	xor    %esi,%esi
  4041bf:	e8 2c f9 ff ff       	callq  403af0 <strtol@plt>
  4041c4:	89 84 24 c4 01 00 00 	mov    %eax,0x1c4(%rsp)
_ZN5CLApp9HandleArgEaPc():
/home/aliha951/ipdps-artifact/gapbs-master/src/command_line.h:167
      case 'n': num_trials_ = atoi(opt_arg);            break;
  4041cb:	e9 30 ff ff ff       	jmpq   404100 <main+0xc0>
/home/aliha951/ipdps-artifact/gapbs-master/src/command_line.h:170
      case 'l': enable_logging_ = true;                 break;
  4041d0:	c6 84 24 d1 01 00 00 	movb   $0x1,0x1d1(%rsp)
  4041d7:	01 
  4041d8:	e9 23 ff ff ff       	jmpq   404100 <main+0xc0>
  4041dd:	0f 1f 00             	nopl   (%rax)
/home/aliha951/ipdps-artifact/gapbs-master/src/command_line.h:166
      case 'a': do_analysis_ = true;                    break;
  4041e0:	c6 84 24 c0 01 00 00 	movb   $0x1,0x1c0(%rsp)
  4041e7:	01 
  4041e8:	e9 13 ff ff ff       	jmpq   404100 <main+0xc0>
  4041ed:	0f 1f 00             	nopl   (%rax)
main():
/usr/include/stdlib.h:363
  4041f0:	ba 0a 00 00 00       	mov    $0xa,%edx
atoi():
/usr/include/stdlib.h:363
  4041f5:	31 f6                	xor    %esi,%esi
  4041f7:	e8 f4 f8 ff ff       	callq  403af0 <strtol@plt>
  4041fc:	89 84 24 d4 01 00 00 	mov    %eax,0x1d4(%rsp)
_ZN9CLIterApp9HandleArgEaPc():
/home/aliha951/ipdps-artifact/gapbs-master/src/command_line.h:204
      case 'i': num_iters_ = atoi(opt_arg);            break;
  404203:	e9 f8 fe ff ff       	jmpq   404100 <main+0xc0>
  404208:	0f 1f 84 00 00 00 00 	nopl   0x0(%rax,%rax,1)
  40420f:	00 
_ZSteqIcSt11char_traitsIcESaIcEEbRKNSt7__cxx1112basic_stringIT_T0_T1_EEPKS5_():
/usr/include/c++/10/bits/basic_string.h:6199
   */
  template<typename _CharT, typename _Traits, typename _Alloc>
    inline bool
    operator==(const basic_string<_CharT, _Traits, _Alloc>& __lhs,
	       const _CharT* __rhs)
    { return __lhs.compare(__rhs) == 0; }
  404210:	48 8d bc 24 88 01 00 	lea    0x188(%rsp),%rdi
  404217:	00 
  404218:	48 8d 35 2c 30 01 00 	lea    0x1302c(%rip),%rsi        # 41724b <_IO_stdin_used+0x24b>
  40421f:	e8 8c f5 ff ff       	callq  4037b0 <_ZNKSt7__cxx1112basic_stringIcSt11char_traitsIcESaIcEE7compareEPKc@plt>
_ZN6CLBase9ParseArgsEv():
/home/aliha951/ipdps-artifact/gapbs-master/src/command_line.h:90
    if ((filename_ == "") && (scale_ == -1)) {
  404224:	85 c0                	test   %eax,%eax
  404226:	0f 84 a9 05 00 00    	je     4047d5 <main+0x795>
/home/aliha951/ipdps-artifact/gapbs-master/src/command_line.h:94
    if (scale_ != -1)
  40422c:	83 bc 24 80 01 00 00 	cmpl   $0xffffffff,0x180(%rsp)
  404233:	ff 
  404234:	0f 85 ad 05 00 00    	jne    4047e7 <main+0x7a7>
main():
/home/aliha951/ipdps-artifact/gapbs-master/src/bc_batching_nopt.cc:319
  if (!cli.ParseArgs())
    return -1;
  if (cli.num_iters() > 1 && cli.start_vertex() != -1)
  40423a:	83 bc 24 d4 01 00 00 	cmpl   $0x1,0x1d4(%rsp)
  404241:	01 
  404242:	7e 2f                	jle    404273 <main+0x233>
  404244:	48 83 bc 24 c8 01 00 	cmpq   $0xffffffffffffffff,0x1c8(%rsp)
  40424b:	00 ff 
  40424d:	74 24                	je     404273 <main+0x233>
_ZStlsISt11char_traitsIcEERSt13basic_ostreamIcT_ES5_PKc():
/usr/include/c++/10/ostream:611
    operator<<(basic_ostream<char, _Traits>& __out, const char* __s)
    {
      if (!__s)
	__out.setstate(ios_base::badbit);
      else
	__ostream_insert(__out, __s,
  40424f:	ba 2d 00 00 00       	mov    $0x2d,%edx
  404254:	48 8d 35 65 35 01 00 	lea    0x13565(%rip),%rsi        # 4177c0 <_IO_stdin_used+0x7c0>
  40425b:	48 8d 3d 9e 91 01 00 	lea    0x1919e(%rip),%rdi        # 41d400 <_ZSt4cout@@GLIBCXX_3.4>
  404262:	e8 79 f7 ff ff       	callq  4039e0 <_ZSt16__ostream_insertIcSt11char_traitsIcEERSt13basic_ostreamIT_T0_ES6_PKS3_l@plt>
_ZNSolsEPFRSoS_E():
/usr/include/c++/10/ostream:113
	return __pf(*this);
  404267:	48 8d 3d 92 91 01 00 	lea    0x19192(%rip),%rdi        # 41d400 <_ZSt4cout@@GLIBCXX_3.4>
  40426e:	e8 2d 1f 00 00       	callq  4061a0 <_ZSt4endlIcSt11char_traitsIcEERSt13basic_ostreamIT_T0_ES6_.isra.0>
_ZN11BuilderBaseIiiiLb1EEC4ERK6CLBase():
/home/aliha951/ipdps-artifact/gapbs-master/src/builder.h:50
  bool needs_weights_;
  bool in_place_ = false;
  int64_t num_nodes_ = -1;

 public:
  explicit BuilderBase(const CLBase &cli) : cli_(cli) {
  404273:	48 8b 44 24 28       	mov    0x28(%rsp),%rax
main():
/home/aliha951/ipdps-artifact/gapbs-master/src/bc_batching_nopt.cc:327
  if(cli.batching()){
    
  }

  Builder b(cli);
  Graph g = b.MakeGraph();
  404278:	48 8d 74 24 50       	lea    0x50(%rsp),%rsi
  40427d:	4c 8d ac 24 90 00 00 	lea    0x90(%rsp),%r13
  404284:	00 
_ZN11BuilderBaseIiiiLb1EEC4ERK6CLBase():
/home/aliha951/ipdps-artifact/gapbs-master/src/builder.h:50
  404285:	48 c7 44 24 60 ff ff 	movq   $0xffffffffffffffff,0x60(%rsp)
  40428c:	ff ff 
main():
/home/aliha951/ipdps-artifact/gapbs-master/src/bc_batching_nopt.cc:327
  40428e:	4c 89 ef             	mov    %r13,%rdi
_ZN11BuilderBaseIiiiLb1EEC4ERK6CLBase():
/home/aliha951/ipdps-artifact/gapbs-master/src/builder.h:52
    symmetrize_ = cli_.symmetrize();
    needs_weights_ = !std::is_same<NodeID_, DestID_>::value;
  404291:	c6 44 24 59 00       	movb   $0x0,0x59(%rsp)
/home/aliha951/ipdps-artifact/gapbs-master/src/builder.h:50
  explicit BuilderBase(const CLBase &cli) : cli_(cli) {
  404296:	48 89 44 24 50       	mov    %rax,0x50(%rsp)
/home/aliha951/ipdps-artifact/gapbs-master/src/builder.h:51
    symmetrize_ = cli_.symmetrize();
  40429b:	0f b6 84 24 a8 01 00 	movzbl 0x1a8(%rsp),%eax
  4042a2:	00 
  4042a3:	88 44 24 58          	mov    %al,0x58(%rsp)
/home/aliha951/ipdps-artifact/gapbs-master/src/builder.h:53
    in_place_ = cli_.in_place();
  4042a7:	0f b6 84 24 aa 01 00 	movzbl 0x1aa(%rsp),%eax
  4042ae:	00 
  4042af:	88 44 24 5a          	mov    %al,0x5a(%rsp)
main():
/home/aliha951/ipdps-artifact/gapbs-master/src/bc_batching_nopt.cc:327
  4042b3:	e8 78 0f 01 00       	callq  415230 <_ZN11BuilderBaseIiiiLb1EE9MakeGraphEv>
/home/aliha951/ipdps-artifact/gapbs-master/src/bc_batching_nopt.cc:328
  SourcePicker<Graph> sp(g, cli.start_vertex());
  4042b8:	8b 94 24 c8 01 00 00 	mov    0x1c8(%rsp),%edx
  4042bf:	4c 8d bc 24 e0 01 00 	lea    0x1e0(%rsp),%r15
  4042c6:	00 
  4042c7:	4c 89 ee             	mov    %r13,%rsi
  4042ca:	4c 89 ff             	mov    %r15,%rdi
  4042cd:	e8 de 87 00 00       	callq  40cab0 <_ZN12SourcePickerI8CSRGraphIiiLb1EEEC1ERKS1_i>
/home/aliha951/ipdps-artifact/gapbs-master/src/bc_batching_nopt.cc:332
  auto BCBound = [&sp, &cli] (const Graph &g) {
    return Brandes(g, sp, cli.num_iters(), cli.logging_en());
  };
  SourcePicker<Graph> vsp(g, cli.start_vertex());
  4042d2:	8b 94 24 c8 01 00 00 	mov    0x1c8(%rsp),%edx
  4042d9:	48 8b 7c 24 20       	mov    0x20(%rsp),%rdi
  4042de:	4c 89 ee             	mov    %r13,%rsi
  4042e1:	e8 ca 87 00 00       	callq  40cab0 <_ZN12SourcePickerI8CSRGraphIiiLb1EEEC1ERKS1_i>
/home/aliha951/ipdps-artifact/gapbs-master/src/bc_batching_nopt.cc:338
  auto VerifierBound = [&vsp, &cli] (const Graph &g,
                                     const pvector<ScoreT> &scores) {
    return BCVerifier(g, vsp, cli.num_iters(), scores);
  };

  if(cli.batching()){
  4042e6:	80 bc 24 ab 01 00 00 	cmpb   $0x0,0x1ab(%rsp)
  4042ed:	00 
  4042ee:	0f 84 bb 00 00 00    	je     4043af <main+0x36f>
/home/aliha951/ipdps-artifact/gapbs-master/src/bc_batching_nopt.cc:339
    pagefault_queue_size = cli.queue_size();
  4042f4:	48 63 84 24 b0 01 00 	movslq 0x1b0(%rsp),%rax
  4042fb:	00 
  4042fc:	48 89 05 6d 90 01 00 	mov    %rax,0x1906d(%rip)        # 41d370 <pagefault_queue_size>
/home/aliha951/ipdps-artifact/gapbs-master/src/bc_batching_nopt.cc:340
    batching_mode = cli.batching_mode();
  404303:	8b 84 24 bc 01 00 00 	mov    0x1bc(%rsp),%eax
  40430a:	89 05 5c 90 01 00    	mov    %eax,0x1905c(%rip)        # 41d36c <batching_mode>
/home/aliha951/ipdps-artifact/gapbs-master/src/bc_batching_nopt.cc:341
    allocate_pf_status_array();
  404310:	e8 eb 86 00 00       	callq  40ca00 <_Z24allocate_pf_status_arrayv>
_Z16prepare_pmadvisev():
/home/aliha951/ipdps-artifact/gapbs-master/src/libpfq_bc.h:314
  touch_pages(pf_status_array, 32*1024*sizeof(int));
}

// Get file descriptor required for process_madvise and store it in pidfd
inline void prepare_pmadvise(){
  if(batching_mode == P_MADVISE){
  404315:	83 3d 50 90 01 00 01 	cmpl   $0x1,0x19050(%rip)        # 41d36c <batching_mode>
  40431c:	0f 84 ef 06 00 00    	je     404a11 <main+0x9d1>
_Z24register_pf_status_arrayv():
/home/aliha951/ipdps-artifact/gapbs-master/src/libpfq_bc.h:322
  }
}

// syscall to register the page fault status array with the kernel
inline void register_pf_status_array(){
  syscall(550,pf_status_array,32*1024);
  404322:	48 8b 35 8f e2 01 00 	mov    0x1e28f(%rip),%rsi        # 4225b8 <pf_status_array>
  404329:	ba 00 80 00 00       	mov    $0x8000,%edx
  40432e:	bf 26 02 00 00       	mov    $0x226,%edi
  404333:	31 c0                	xor    %eax,%eax
  404335:	e8 c6 f3 ff ff       	callq  403700 <syscall@plt>
main():
/home/aliha951/ipdps-artifact/gapbs-master/src/bc_batching_nopt.cc:344
    prepare_pmadvise();
    register_pf_status_array();
    ips = (unsigned long *)malloc(2 * sizeof(unsigned long));
  40433a:	bf 10 00 00 00       	mov    $0x10,%edi
  40433f:	e8 7c f7 ff ff       	callq  403ac0 <malloc@plt>
/home/aliha951/ipdps-artifact/gapbs-master/src/bc_batching_nopt.cc:345
    ret_ips = (unsigned long *)malloc(2 * sizeof(unsigned long));
  404344:	bf 10 00 00 00       	mov    $0x10,%edi
/home/aliha951/ipdps-artifact/gapbs-master/src/bc_batching_nopt.cc:344
    ips = (unsigned long *)malloc(2 * sizeof(unsigned long));
  404349:	48 89 c5             	mov    %rax,%rbp
  40434c:	48 89 05 f5 91 01 00 	mov    %rax,0x191f5(%rip)        # 41d548 <ips>
/home/aliha951/ipdps-artifact/gapbs-master/src/bc_batching_nopt.cc:345
    ret_ips = (unsigned long *)malloc(2 * sizeof(unsigned long));
  404353:	e8 68 f7 ff ff       	callq  403ac0 <malloc@plt>
/home/aliha951/ipdps-artifact/gapbs-master/src/bc_batching_nopt.cc:346
    ips[0] = 0x40883e;  // pbfs t maker
  404358:	66 0f 6f 05 40 3f 01 	movdqa 0x13f40(%rip),%xmm0        # 4182a0 <_ZZNSt8__detail18__to_chars_10_implIjEEvPcjT_E8__digits+0x260>
  40435f:	00 
_Z23register_ips_and_retipsPmS_i():
/home/aliha951/ipdps-artifact/gapbs-master/src/libpfq_bc.h:327
}

// syscall to register the special PCs (ips) and their return PCs (ret_ips) with the kernel
inline void register_ips_and_retips(unsigned long *ips, unsigned long *ret_ips, int size){
  syscall(548, ips, ret_ips, size);
  404360:	b9 02 00 00 00       	mov    $0x2,%ecx
  404365:	48 89 ee             	mov    %rbp,%rsi
main():
/home/aliha951/ipdps-artifact/gapbs-master/src/bc_batching_nopt.cc:345
    ret_ips = (unsigned long *)malloc(2 * sizeof(unsigned long));
  404368:	48 89 c2             	mov    %rax,%rdx
  40436b:	48 89 05 ce 91 01 00 	mov    %rax,0x191ce(%rip)        # 41d540 <ret_ips>
_Z23register_ips_and_retipsPmS_i():
/home/aliha951/ipdps-artifact/gapbs-master/src/libpfq_bc.h:327
  404372:	bf 24 02 00 00       	mov    $0x224,%edi
main():
/home/aliha951/ipdps-artifact/gapbs-master/src/bc_batching_nopt.cc:346
    ips[0] = 0x40883e;  // pbfs t maker
  404377:	0f 11 45 00          	movups %xmm0,0x0(%rbp)
/home/aliha951/ipdps-artifact/gapbs-master/src/bc_batching_nopt.cc:347
    ret_ips[0] = 0x3;
  40437b:	66 0f 6f 05 2d 3f 01 	movdqa 0x13f2d(%rip),%xmm0        # 4182b0 <_ZZNSt8__detail18__to_chars_10_implIjEEvPcjT_E8__digits+0x270>
  404382:	00 
  404383:	0f 11 00             	movups %xmm0,(%rax)
_Z23register_ips_and_retipsPmS_i():
/home/aliha951/ipdps-artifact/gapbs-master/src/libpfq_bc.h:327
  404386:	31 c0                	xor    %eax,%eax
  404388:	e8 73 f3 ff ff       	callq  403700 <syscall@plt>
_Z11touch_pagesPVim():
/home/aliha951/ipdps-artifact/gapbs-master/src/libpfq_bc.h:294
    for (size_t i = 0; i < num_ints; i += 32) {
  40438d:	48 8b 05 24 e2 01 00 	mov    0x1e224(%rip),%rax        # 4225b8 <pf_status_array>
  404394:	48 8d 90 00 00 02 00 	lea    0x20000(%rax),%rdx
  40439b:	0f 1f 44 00 00       	nopl   0x0(%rax,%rax,1)
/home/aliha951/ipdps-artifact/gapbs-master/src/libpfq_bc.h:295
      address[i] = 0;
  4043a0:	c7 00 00 00 00 00    	movl   $0x0,(%rax)
/home/aliha951/ipdps-artifact/gapbs-master/src/libpfq_bc.h:294
    for (size_t i = 0; i < num_ints; i += 32) {
  4043a6:	48 83 e8 80          	sub    $0xffffffffffffff80,%rax
  4043aa:	48 39 c2             	cmp    %rax,%rdx
  4043ad:	75 f1                	jne    4043a0 <main+0x360>
main():
/home/aliha951/ipdps-artifact/gapbs-master/src/benchmark.h:107
template<typename GraphT_, typename GraphFunc, typename AnalysisFunc,
         typename VerifierFunc>
void BenchmarkKernel(const CLApp &cli, const GraphT_ &g,
                     GraphFunc kernel, AnalysisFunc stats,
                     VerifierFunc verify) {
  g.PrintStats();
  4043af:	4c 89 ef             	mov    %r13,%rdi
BenchmarkKernel<CSRGraph<int>, main(int, char**)::<lambda(const Graph&)>, void (*)(const CSRGraph<int>&, const pvector<float>&), main(int, char**)::<lambda(const Graph&, const pvector<float>&)> >():
/home/aliha951/ipdps-artifact/gapbs-master/src/benchmark.h:107
  4043b2:	e8 b9 8f 00 00       	callq  40d370 <_ZNK8CSRGraphIiiLb1EE10PrintStatsEv>
_Z16start_disk_statsPKc():
/home/aliha951/ipdps-artifact/gapbs-master/src/profiling_utils.h:300
	fprintf(f, "%d", pid);
	fclose(f);
}

inline void start_disk_stats(const char* result_file_name){
  pid_t pid = fork();
  4043b7:	e8 e4 f3 ff ff       	callq  4037a0 <fork@plt>
/home/aliha951/ipdps-artifact/gapbs-master/src/profiling_utils.h:301
  if (pid < 0) {
  4043bc:	85 c0                	test   %eax,%eax
  4043be:	0f 88 1b 07 00 00    	js     404adf <main+0xa9f>
/home/aliha951/ipdps-artifact/gapbs-master/src/profiling_utils.h:304
    perror("fork failed");
    exit(EXIT_FAILURE);
  } else if (pid == 0) { // Child process
  4043c4:	0f 84 2b 07 00 00    	je     404af5 <main+0xab5>
/home/aliha951/ipdps-artifact/gapbs-master/src/profiling_utils.h:312
    execlp("/home/aliha951/ipdps-gapbs/gather_diskstats.sh", "/home/aliha951/ipdps-gapbs/gather_diskstats.sh", result_file_name, NULL);
    perror("execlp failed");
    exit(EXIT_FAILURE);
  }
  // Parent process continues
  diskstat_pid = pid;
  4043ca:	89 05 ac 8f 01 00    	mov    %eax,0x18fac(%rip)        # 41d37c <diskstat_pid>
BenchmarkKernel<CSRGraph<int>, main(int, char**)::<lambda(const Graph&)>, void (*)(const CSRGraph<int>&, const pvector<float>&), main(int, char**)::<lambda(const Graph&, const pvector<float>&)> >():
/home/aliha951/ipdps-artifact/gapbs-master/src/benchmark.h:114
  
  // adding profiling markers and rusage counters for performance analysis
  long long user_instructions, kernel_instructions,
              user_time, kernel_time;
  start_disk_stats("disk.stats");
  start_taskstats();                    
  4043d0:	e8 2b 34 00 00       	callq  407800 <_Z15start_taskstatsv>
/home/aliha951/ipdps-artifact/gapbs-master/src/benchmark.h:115
  snapshot_proc_pid(BEGIN);
  4043d5:	31 ff                	xor    %edi,%edi
  4043d7:	e8 24 80 00 00       	callq  40c400 <_Z17snapshot_proc_pid13SnapshotPoint>
/home/aliha951/ipdps-artifact/gapbs-master/src/benchmark.h:116
  snapshot_proc_stat(BEGIN);
  4043dc:	31 ff                	xor    %edi,%edi
  4043de:	e8 4d 83 00 00       	callq  40c730 <_Z18snapshot_proc_stat13SnapshotPoint>
/home/aliha951/ipdps-artifact/gapbs-master/src/benchmark.h:117
  start_counters(&perf_ctrs);
  4043e3:	48 8d 3d 66 e5 01 00 	lea    0x1e566(%rip),%rdi        # 422950 <perf_ctrs>
  4043ea:	e8 f1 2c 00 00       	callq  4070e0 <_Z14start_countersP13perf_counters>
/home/aliha951/ipdps-artifact/gapbs-master/src/benchmark.h:118
  trace_marker("BenchmarkKernel_Start");
  4043ef:	48 8d 3d 37 2f 01 00 	lea    0x12f37(%rip),%rdi        # 41732d <_IO_stdin_used+0x32d>
  4043f6:	e8 15 2a 00 00       	callq  406e10 <_Z12trace_markerPKc>
/home/aliha951/ipdps-artifact/gapbs-master/src/benchmark.h:119
  start_time_stats();
  4043fb:	e8 c0 27 00 00       	callq  406bc0 <_Z16start_time_statsv>
_Z19ompt_mark_roi_startv():
/home/aliha951/ipdps-artifact/gapbs-master/src/../omp_runtime_visualizer/include/runtime_visualizer_utils.h:52
  printf("[OMPT_annotation] Thread %d Annotation at %.3f ms: %s\n", 
         thread_id, timestamp / 1000.0, annotation);
}

inline void ompt_mark_roi_start() {
  ompt_annotate("ROI_START");
  404400:	48 8d 3d 3c 2f 01 00 	lea    0x12f3c(%rip),%rdi        # 417343 <_IO_stdin_used+0x343>
  404407:	e8 94 36 00 00       	callq  407aa0 <_Z13ompt_annotatePKc>
BenchmarkKernel<CSRGraph<int>, main(int, char**)::<lambda(const Graph&)>, void (*)(const CSRGraph<int>&, const pvector<float>&), main(int, char**)::<lambda(const Graph&, const pvector<float>&)> >():
/home/aliha951/ipdps-artifact/gapbs-master/src/benchmark.h:123
  ompt_mark_roi_start();

  Timer trial_timer;
  for (int iter=0; iter < cli.num_trials(); iter++) {
  40440c:	8b 8c 24 c4 01 00 00 	mov    0x1c4(%rsp),%ecx
  404413:	85 c9                	test   %ecx,%ecx
  404415:	0f 8e e7 05 00 00    	jle    404a02 <main+0x9c2>
/home/aliha951/ipdps-artifact/gapbs-master/src/benchmark.h:108
  double total_seconds = 0;
  40441b:	66 0f ef e4          	pxor   %xmm4,%xmm4
/home/aliha951/ipdps-artifact/gapbs-master/src/benchmark.h:123
  for (int iter=0; iter < cli.num_trials(); iter++) {
  40441f:	31 ed                	xor    %ebp,%ebp
  404421:	4c 8d 74 24 70       	lea    0x70(%rsp),%r14
/home/aliha951/ipdps-artifact/gapbs-master/src/benchmark.h:108
  double total_seconds = 0;
  404426:	f2 0f 11 64 24 08    	movsd  %xmm4,0x8(%rsp)
_ZNSt7__cxx1112basic_stringIcSt11char_traitsIcESaIcEE12_Alloc_hiderC4EPcRKS3_():
/usr/include/c++/10/bits/basic_string.h:165
	: allocator_type(__a), _M_p(__dat) { }
  40442c:	4c 8d a4 24 f0 00 00 	lea    0xf0(%rsp),%r12
  404433:	00 
  404434:	0f 1f 40 00          	nopl   0x0(%rax)
_ZN5Timer5StartEv():
/home/aliha951/ipdps-artifact/gapbs-master/src/timer.h:23
class Timer {
 public:
  Timer() {}

  void Start() {
    elapsed_time_ = start_time_ = std::chrono::high_resolution_clock::now();
  404438:	e8 b3 f2 ff ff       	callq  4036f0 <_ZNSt6chrono3_V212system_clock3nowEv@plt>
main():
/home/aliha951/ipdps-artifact/gapbs-master/src/bc_batching_nopt.cc:330
    return Brandes(g, sp, cli.num_iters(), cli.logging_en());
  40443d:	4c 89 fa             	mov    %r15,%rdx
operator()():
/home/aliha951/ipdps-artifact/gapbs-master/src/bc_batching_nopt.cc:330
  404440:	4c 89 ee             	mov    %r13,%rsi
  404443:	4c 89 f7             	mov    %r14,%rdi
  404446:	44 0f b6 84 24 d1 01 	movzbl 0x1d1(%rsp),%r8d
  40444d:	00 00 
  40444f:	8b 8c 24 d4 01 00 00 	mov    0x1d4(%rsp),%ecx
_ZN5Timer5StartEv():
/home/aliha951/ipdps-artifact/gapbs-master/src/timer.h:23
  404456:	48 89 c3             	mov    %rax,%rbx
operator()():
/home/aliha951/ipdps-artifact/gapbs-master/src/bc_batching_nopt.cc:330
  404459:	e8 b2 59 00 00       	callq  409e10 <_Z7BrandesRK8CSRGraphIiiLb1EER12SourcePickerIS0_Eib>
_ZN5Timer4StopEv():
/home/aliha951/ipdps-artifact/gapbs-master/src/timer.h:27
  }

  void Stop() {
    elapsed_time_ = std::chrono::high_resolution_clock::now();
  40445e:	e8 8d f2 ff ff       	callq  4036f0 <_ZNSt6chrono3_V212system_clock3nowEv@plt>
_ZNSt6chrono20__duration_cast_implINS_8durationIdSt5ratioILl1ELl1EEEES2_ILl1ELl1000000000EEdLb1ELb0EE6__castIlS5_EES4_RKNS1_IT_T0_EE():
/usr/include/c++/10/chrono:214
	  static constexpr _ToDur
	  __cast(const duration<_Rep, _Period>& __d)
	  {
	    typedef typename _ToDur::rep			__to_rep;
	    return _ToDur(static_cast<__to_rep>(
	      static_cast<_CR>(__d.count()) / static_cast<_CR>(_CF::den)));
  404463:	66 0f ef c0          	pxor   %xmm0,%xmm0
BenchmarkKernel<CSRGraph<int>, main(int, char**)::<lambda(const Graph&)>, void (*)(const CSRGraph<int>&, const pvector<float>&), main(int, char**)::<lambda(const Graph&, const pvector<float>&)> >():
/home/aliha951/ipdps-artifact/gapbs-master/src/benchmark.h:127
    trial_timer.Start();
    auto result = kernel(g);
    trial_timer.Stop();
    PrintTime("Trial Time", trial_timer.Seconds());
  404467:	4c 89 e7             	mov    %r12,%rdi
_ZNSt11char_traitsIcE4copyEPcPKcm():
/usr/include/c++/10/bits/char_traits.h:437
	  return __s1;
#ifdef __cpp_lib_is_constant_evaluated
	if (std::is_constant_evaluated())
	  return __gnu_cxx::char_traits<char_type>::copy(__s1, __s2, __n);
#endif
	return static_cast<char_type*>(__builtin_memcpy(__s1, __s2, __n));
  40446a:	ba 6d 65 00 00       	mov    $0x656d,%edx
_ZNSt6chronomiIlSt5ratioILl1ELl1000000000EElS2_EENSt11common_typeIJNS_8durationIT_T0_EENS4_IT1_T2_EEEE4typeERKS7_RKSA_():
/usr/include/c++/10/chrono:614
		const duration<_Rep2, _Period2>& __rhs)
      {
	typedef duration<_Rep1, _Period1>			__dur1;
	typedef duration<_Rep2, _Period2>			__dur2;
	typedef typename common_type<__dur1,__dur2>::type	__cd;
	return __cd(__cd(__lhs).count() - __cd(__rhs).count());
  40446f:	48 29 d8             	sub    %rbx,%rax
_ZNSt7__cxx1112basic_stringIcSt11char_traitsIcESaIcEE12_Alloc_hiderC4EPcRKS3_():
/usr/include/c++/10/bits/basic_string.h:165
  404472:	48 8d 9c 24 00 01 00 	lea    0x100(%rsp),%rbx
  404479:	00 
_ZNSt11char_traitsIcE4copyEPcPKcm():
/usr/include/c++/10/bits/char_traits.h:437
  40447a:	66 89 94 24 08 01 00 	mov    %dx,0x108(%rsp)
  404481:	00 
_ZNSt6chrono20__duration_cast_implINS_8durationIdSt5ratioILl1ELl1EEEES2_ILl1ELl1000000000EEdLb1ELb0EE6__castIlS5_EES4_RKNS1_IT_T0_EE():
/usr/include/c++/10/chrono:214
	      static_cast<_CR>(__d.count()) / static_cast<_CR>(_CF::den)));
  404482:	f2 48 0f 2a c0       	cvtsi2sd %rax,%xmm0
_ZNSt7__cxx1112basic_stringIcSt11char_traitsIcESaIcEE12_Alloc_hiderC4EPcRKS3_():
/usr/include/c++/10/bits/basic_string.h:165
  404487:	48 89 9c 24 f0 00 00 	mov    %rbx,0xf0(%rsp)
  40448e:	00 
_ZNSt11char_traitsIcE4copyEPcPKcm():
/usr/include/c++/10/bits/char_traits.h:437
  40448f:	48 b8 54 72 69 61 6c 	movabs $0x6954206c61697254,%rax
  404496:	20 54 69 
_ZNSt6chrono20__duration_cast_implINS_8durationIdSt5ratioILl1ELl1EEEES2_ILl1ELl1000000000EEdLb1ELb0EE6__castIlS5_EES4_RKNS1_IT_T0_EE():
/usr/include/c++/10/chrono:214
  404499:	f2 0f 5e 05 6f 3e 01 	divsd  0x13e6f(%rip),%xmm0        # 418310 <_ZZNSt8__detail18__to_chars_10_implIjEEvPcjT_E8__digits+0x2d0>
  4044a0:	00 
_ZNSt11char_traitsIcE4copyEPcPKcm():
/usr/include/c++/10/bits/char_traits.h:437
  4044a1:	48 89 84 24 00 01 00 	mov    %rax,0x100(%rsp)
  4044a8:	00 
_ZNSt7__cxx1112basic_stringIcSt11char_traitsIcESaIcEE9_M_lengthEm():
/usr/include/c++/10/bits/basic_string.h:191
      { _M_string_length = __length; }
  4044a9:	48 c7 84 24 f8 00 00 	movq   $0xa,0xf8(%rsp)
  4044b0:	00 0a 00 00 00 
_ZNSt11char_traitsIcE6assignERcRKc():
/usr/include/c++/10/bits/char_traits.h:357
      { __c1 = __c2; }
  4044b5:	c6 84 24 0a 01 00 00 	movb   $0x0,0x10a(%rsp)
  4044bc:	00 
_ZNSt6chrono20__duration_cast_implINS_8durationIdSt5ratioILl1ELl1EEEES2_ILl1ELl1000000000EEdLb1ELb0EE6__castIlS5_EES4_RKNS1_IT_T0_EE():
/usr/include/c++/10/chrono:214
  4044bd:	f2 0f 11 44 24 10    	movsd  %xmm0,0x10(%rsp)
BenchmarkKernel<CSRGraph<int>, main(int, char**)::<lambda(const Graph&)>, void (*)(const CSRGraph<int>&, const pvector<float>&), main(int, char**)::<lambda(const Graph&, const pvector<float>&)> >():
/home/aliha951/ipdps-artifact/gapbs-master/src/benchmark.h:127
  4044c3:	e8 58 20 00 00       	callq  406520 <_Z9PrintTimeRKNSt7__cxx1112basic_stringIcSt11char_traitsIcESaIcEEEd>
_ZNKSt7__cxx1112basic_stringIcSt11char_traitsIcESaIcEE7_M_dataEv():
/usr/include/c++/10/bits/basic_string.h:195
      { return _M_dataplus._M_p; }
  4044c8:	48 8b bc 24 f0 00 00 	mov    0xf0(%rsp),%rdi
  4044cf:	00 
_ZNSt7__cxx1112basic_stringIcSt11char_traitsIcESaIcEE10_M_disposeEv():
/usr/include/c++/10/bits/basic_string.h:239
	if (!_M_is_local())
  4044d0:	48 39 df             	cmp    %rbx,%rdi
  4044d3:	74 05                	je     4044da <main+0x49a>
_ZN9__gnu_cxx13new_allocatorIcE10deallocateEPcm():
/usr/include/c++/10/ext/new_allocator.h:139
  4044d5:	e8 86 f4 ff ff       	callq  403960 <_ZdlPv@plt>
BenchmarkKernel<CSRGraph<int>, main(int, char**)::<lambda(const Graph&)>, void (*)(const CSRGraph<int>&, const pvector<float>&), main(int, char**)::<lambda(const Graph&, const pvector<float>&)> >():
/home/aliha951/ipdps-artifact/gapbs-master/src/benchmark.h:128
    total_seconds += trial_timer.Seconds();
  4044da:	f2 0f 10 4c 24 08    	movsd  0x8(%rsp),%xmm1
  4044e0:	f2 0f 58 4c 24 10    	addsd  0x10(%rsp),%xmm1
/home/aliha951/ipdps-artifact/gapbs-master/src/benchmark.h:129
    if (cli.do_analysis() && (iter == (cli.num_trials()-1)))
  4044e6:	80 bc 24 c0 01 00 00 	cmpb   $0x0,0x1c0(%rsp)
  4044ed:	00 
/home/aliha951/ipdps-artifact/gapbs-master/src/benchmark.h:128
    total_seconds += trial_timer.Seconds();
  4044ee:	f2 0f 11 4c 24 08    	movsd  %xmm1,0x8(%rsp)
/home/aliha951/ipdps-artifact/gapbs-master/src/benchmark.h:129
    if (cli.do_analysis() && (iter == (cli.num_trials()-1)))
  4044f4:	74 12                	je     404508 <main+0x4c8>
  4044f6:	8b 84 24 c4 01 00 00 	mov    0x1c4(%rsp),%eax
  4044fd:	83 e8 01             	sub    $0x1,%eax
  404500:	39 e8                	cmp    %ebp,%eax
  404502:	0f 84 08 03 00 00    	je     404810 <main+0x7d0>
/home/aliha951/ipdps-artifact/gapbs-master/src/benchmark.h:131
      stats(g, result);
    if (cli.do_verify()) {
  404508:	80 bc 24 d0 01 00 00 	cmpb   $0x0,0x1d0(%rsp)
  40450f:	00 
  404510:	0f 84 63 01 00 00    	je     404679 <main+0x639>
_ZN5Timer5StartEv():
/home/aliha951/ipdps-artifact/gapbs-master/src/timer.h:23
    elapsed_time_ = start_time_ = std::chrono::high_resolution_clock::now();
  404516:	e8 d5 f1 ff ff       	callq  4036f0 <_ZNSt6chrono3_V212system_clock3nowEv@plt>
main():
/home/aliha951/ipdps-artifact/gapbs-master/src/bc_batching_nopt.cc:335
    return BCVerifier(g, vsp, cli.num_iters(), scores);
  40451b:	48 8b 74 24 20       	mov    0x20(%rsp),%rsi
operator()():
/home/aliha951/ipdps-artifact/gapbs-master/src/bc_batching_nopt.cc:335
  404520:	4c 89 f1             	mov    %r14,%rcx
  404523:	4c 89 ef             	mov    %r13,%rdi
  404526:	8b 94 24 d4 01 00 00 	mov    0x1d4(%rsp),%edx
_ZN5Timer5StartEv():
/home/aliha951/ipdps-artifact/gapbs-master/src/timer.h:23
  40452d:	48 89 44 24 18       	mov    %rax,0x18(%rsp)
operator()():
/home/aliha951/ipdps-artifact/gapbs-master/src/bc_batching_nopt.cc:335
  404532:	e8 f9 4c 00 00       	callq  409230 <_Z10BCVerifierRK8CSRGraphIiiLb1EER12SourcePickerIS0_EiRK7pvectorIfE>
BenchmarkKernel<CSRGraph<int>, main(int, char**)::<lambda(const Graph&)>, void (*)(const CSRGraph<int>&, const pvector<float>&), main(int, char**)::<lambda(const Graph&, const pvector<float>&)> >():
/home/aliha951/ipdps-artifact/gapbs-master/src/benchmark.h:133
      trial_timer.Start();
      PrintLabel("Verification",
  404537:	3c 01                	cmp    $0x1,%al
_ZNSt7__cxx1112basic_stringIcSt11char_traitsIcESaIcEE12_Alloc_hiderC4EPcRKS3_():
/usr/include/c++/10/bits/basic_string.h:165
	: allocator_type(__a), _M_p(__dat) { }
  404539:	48 89 9c 24 f0 00 00 	mov    %rbx,0xf0(%rsp)
  404540:	00 
BenchmarkKernel<CSRGraph<int>, main(int, char**)::<lambda(const Graph&)>, void (*)(const CSRGraph<int>&, const pvector<float>&), main(int, char**)::<lambda(const Graph&, const pvector<float>&)> >():
/home/aliha951/ipdps-artifact/gapbs-master/src/benchmark.h:133
  404541:	4c 89 e7             	mov    %r12,%rdi
_ZNSt7__cxx1112basic_stringIcSt11char_traitsIcESaIcEE12_Alloc_hiderC4EPcRKS3_():
/usr/include/c++/10/bits/basic_string.h:165
  404544:	48 8d 8c 24 e0 00 00 	lea    0xe0(%rsp),%rcx
  40454b:	00 
BenchmarkKernel<CSRGraph<int>, main(int, char**)::<lambda(const Graph&)>, void (*)(const CSRGraph<int>&, const pvector<float>&), main(int, char**)::<lambda(const Graph&, const pvector<float>&)> >():
/home/aliha951/ipdps-artifact/gapbs-master/src/benchmark.h:133
  40454c:	19 c0                	sbb    %eax,%eax
_ZNSt11char_traitsIcE4copyEPcPKcm():
/usr/include/c++/10/bits/char_traits.h:437
	return static_cast<char_type*>(__builtin_memcpy(__s1, __s2, __n));
  40454e:	c7 43 08 74 69 6f 6e 	movl   $0x6e6f6974,0x8(%rbx)
_ZNSt7__cxx1112basic_stringIcSt11char_traitsIcESaIcEE12_Alloc_hiderC4EPcRKS3_():
/usr/include/c++/10/bits/basic_string.h:165
  404555:	48 8d b4 24 d0 00 00 	lea    0xd0(%rsp),%rsi
  40455c:	00 
BenchmarkKernel<CSRGraph<int>, main(int, char**)::<lambda(const Graph&)>, void (*)(const CSRGraph<int>&, const pvector<float>&), main(int, char**)::<lambda(const Graph&, const pvector<float>&)> >():
/home/aliha951/ipdps-artifact/gapbs-master/src/benchmark.h:133
  40455d:	25 f6 ff f5 f8       	and    $0xf8f5fff6,%eax
_ZNSt7__cxx1112basic_stringIcSt11char_traitsIcESaIcEE12_Alloc_hiderC4EPcRKS3_():
/usr/include/c++/10/bits/basic_string.h:165
  404562:	48 89 4c 24 10       	mov    %rcx,0x10(%rsp)
BenchmarkKernel<CSRGraph<int>, main(int, char**)::<lambda(const Graph&)>, void (*)(const CSRGraph<int>&, const pvector<float>&), main(int, char**)::<lambda(const Graph&, const pvector<float>&)> >():
/home/aliha951/ipdps-artifact/gapbs-master/src/benchmark.h:133
  404567:	05 50 41 53 53       	add    $0x53534150,%eax
_ZNSt7__cxx1112basic_stringIcSt11char_traitsIcESaIcEE12_Alloc_hiderC4EPcRKS3_():
/usr/include/c++/10/bits/basic_string.h:165
  40456c:	48 89 8c 24 d0 00 00 	mov    %rcx,0xd0(%rsp)
  404573:	00 
_ZNSt11char_traitsIcE4copyEPcPKcm():
/usr/include/c++/10/bits/char_traits.h:437
  404574:	89 84 24 e0 00 00 00 	mov    %eax,0xe0(%rsp)
  40457b:	48 b8 56 65 72 69 66 	movabs $0x6163696669726556,%rax
  404582:	69 63 61 
  404585:	48 89 03             	mov    %rax,(%rbx)
_ZNSt7__cxx1112basic_stringIcSt11char_traitsIcESaIcEE9_M_lengthEm():
/usr/include/c++/10/bits/basic_string.h:191
      { _M_string_length = __length; }
  404588:	48 c7 84 24 d8 00 00 	movq   $0x4,0xd8(%rsp)
  40458f:	00 04 00 00 00 
_ZNSt11char_traitsIcE6assignERcRKc():
/usr/include/c++/10/bits/char_traits.h:357
      { __c1 = __c2; }
  404594:	c6 84 24 e4 00 00 00 	movb   $0x0,0xe4(%rsp)
  40459b:	00 
_ZNSt7__cxx1112basic_stringIcSt11char_traitsIcESaIcEE9_M_lengthEm():
/usr/include/c++/10/bits/basic_string.h:191
  40459c:	48 c7 84 24 f8 00 00 	movq   $0xc,0xf8(%rsp)
  4045a3:	00 0c 00 00 00 
_ZNSt11char_traitsIcE6assignERcRKc():
/usr/include/c++/10/bits/char_traits.h:357
  4045a8:	c6 84 24 0c 01 00 00 	movb   $0x0,0x10c(%rsp)
  4045af:	00 
BenchmarkKernel<CSRGraph<int>, main(int, char**)::<lambda(const Graph&)>, void (*)(const CSRGraph<int>&, const pvector<float>&), main(int, char**)::<lambda(const Graph&, const pvector<float>&)> >():
/home/aliha951/ipdps-artifact/gapbs-master/src/benchmark.h:133
  4045b0:	e8 fb 1d 00 00       	callq  4063b0 <_Z10PrintLabelRKNSt7__cxx1112basic_stringIcSt11char_traitsIcESaIcEEES6_>
_ZNKSt7__cxx1112basic_stringIcSt11char_traitsIcESaIcEE7_M_dataEv():
/usr/include/c++/10/bits/basic_string.h:195
      { return _M_dataplus._M_p; }
  4045b5:	48 8b bc 24 f0 00 00 	mov    0xf0(%rsp),%rdi
  4045bc:	00 
_ZNSt7__cxx1112basic_stringIcSt11char_traitsIcESaIcEE10_M_disposeEv():
/usr/include/c++/10/bits/basic_string.h:239
	if (!_M_is_local())
  4045bd:	48 39 df             	cmp    %rbx,%rdi
  4045c0:	74 05                	je     4045c7 <main+0x587>
_ZN9__gnu_cxx13new_allocatorIcE10deallocateEPcm():
/usr/include/c++/10/ext/new_allocator.h:139
  4045c2:	e8 99 f3 ff ff       	callq  403960 <_ZdlPv@plt>
_ZNKSt7__cxx1112basic_stringIcSt11char_traitsIcESaIcEE7_M_dataEv():
/usr/include/c++/10/bits/basic_string.h:195
      { return _M_dataplus._M_p; }
  4045c7:	48 8b bc 24 d0 00 00 	mov    0xd0(%rsp),%rdi
  4045ce:	00 
_ZNSt7__cxx1112basic_stringIcSt11char_traitsIcESaIcEE10_M_disposeEv():
/usr/include/c++/10/bits/basic_string.h:239
	if (!_M_is_local())
  4045cf:	48 3b 7c 24 10       	cmp    0x10(%rsp),%rdi
  4045d4:	74 05                	je     4045db <main+0x59b>
_ZN9__gnu_cxx13new_allocatorIcE10deallocateEPcm():
/usr/include/c++/10/ext/new_allocator.h:139
  4045d6:	e8 85 f3 ff ff       	callq  403960 <_ZdlPv@plt>
_ZN5Timer4StopEv():
/home/aliha951/ipdps-artifact/gapbs-master/src/timer.h:27
    elapsed_time_ = std::chrono::high_resolution_clock::now();
  4045db:	e8 10 f1 ff ff       	callq  4036f0 <_ZNSt6chrono3_V212system_clock3nowEv@plt>
_ZNSt6chrono20__duration_cast_implINS_8durationIdSt5ratioILl1ELl1EEEES2_ILl1ELl1000000000EEdLb1ELb0EE6__castIlS5_EES4_RKNS1_IT_T0_EE():
/usr/include/c++/10/chrono:214
  4045e0:	66 0f ef c0          	pxor   %xmm0,%xmm0
_ZNSt6chronomiIlSt5ratioILl1ELl1000000000EElS2_EENSt11common_typeIJNS_8durationIT_T0_EENS4_IT1_T2_EEEE4typeERKS7_RKSA_():
/usr/include/c++/10/chrono:614
	return __cd(__cd(__lhs).count() - __cd(__rhs).count());
  4045e4:	48 2b 44 24 18       	sub    0x18(%rsp),%rax
_ZNSt7__cxx1112basic_stringIcSt11char_traitsIcESaIcEE12_M_constructIPKcEEvT_S8_St20forward_iterator_tag():
/usr/include/c++/10/bits/basic_string.tcc:219

	size_type __dnew = static_cast<size_type>(std::distance(__beg, __end));

	if (__dnew > size_type(_S_local_capacity))
	  {
	    _M_data(_M_create(__dnew, size_type(0)));
  4045e9:	31 d2                	xor    %edx,%edx
  4045eb:	48 8d 74 24 48       	lea    0x48(%rsp),%rsi
  4045f0:	4c 89 e7             	mov    %r12,%rdi
_ZNSt7__cxx1112basic_stringIcSt11char_traitsIcESaIcEE12_Alloc_hiderC4EPcRKS3_():
/usr/include/c++/10/bits/basic_string.h:165
	: allocator_type(__a), _M_p(__dat) { }
  4045f3:	48 89 9c 24 f0 00 00 	mov    %rbx,0xf0(%rsp)
  4045fa:	00 
_ZNSt7__cxx1112basic_stringIcSt11char_traitsIcESaIcEE12_M_constructIPKcEEvT_S8_St20forward_iterator_tag():
/usr/include/c++/10/bits/basic_string.tcc:215
	size_type __dnew = static_cast<size_type>(std::distance(__beg, __end));
  4045fb:	48 c7 44 24 48 11 00 	movq   $0x11,0x48(%rsp)
  404602:	00 00 
_ZNSt6chrono20__duration_cast_implINS_8durationIdSt5ratioILl1ELl1EEEES2_ILl1ELl1000000000EEdLb1ELb0EE6__castIlS5_EES4_RKNS1_IT_T0_EE():
/usr/include/c++/10/chrono:214
	      static_cast<_CR>(__d.count()) / static_cast<_CR>(_CF::den)));
  404604:	f2 48 0f 2a c0       	cvtsi2sd %rax,%xmm0
  404609:	f2 0f 5e 05 ff 3c 01 	divsd  0x13cff(%rip),%xmm0        # 418310 <_ZZNSt8__detail18__to_chars_10_implIjEEvPcjT_E8__digits+0x2d0>
  404610:	00 
  404611:	f2 0f 11 44 24 10    	movsd  %xmm0,0x10(%rsp)
_ZNSt7__cxx1112basic_stringIcSt11char_traitsIcESaIcEE12_M_constructIPKcEEvT_S8_St20forward_iterator_tag():
/usr/include/c++/10/bits/basic_string.tcc:219
	    _M_data(_M_create(__dnew, size_type(0)));
  404617:	e8 84 f6 ff ff       	callq  403ca0 <_ZNSt7__cxx1112basic_stringIcSt11char_traitsIcESaIcEE9_M_createERmm@plt>
_ZNSt7__cxx1112basic_stringIcSt11char_traitsIcESaIcEE11_M_capacityEm():
/usr/include/c++/10/bits/basic_string.h:219
      { _M_allocated_capacity = __capacity; }
  40461c:	48 8b 54 24 48       	mov    0x48(%rsp),%rdx
_ZNSt11char_traitsIcE4copyEPcPKcm():
/usr/include/c++/10/bits/char_traits.h:437
	return static_cast<char_type*>(__builtin_memcpy(__s1, __s2, __n));
  404621:	66 0f 6f 05 97 3c 01 	movdqa 0x13c97(%rip),%xmm0        # 4182c0 <_ZZNSt8__detail18__to_chars_10_implIjEEvPcjT_E8__digits+0x280>
  404628:	00 
_ZNSt7__cxx1112basic_stringIcSt11char_traitsIcESaIcEE7_M_dataEPc():
/usr/include/c++/10/bits/basic_string.h:187
      { _M_dataplus._M_p = __p; }
  404629:	48 89 84 24 f0 00 00 	mov    %rax,0xf0(%rsp)
  404630:	00 
BenchmarkKernel<CSRGraph<int>, main(int, char**)::<lambda(const Graph&)>, void (*)(const CSRGraph<int>&, const pvector<float>&), main(int, char**)::<lambda(const Graph&, const pvector<float>&)> >():
/home/aliha951/ipdps-artifact/gapbs-master/src/benchmark.h:136
                 verify(std::ref(g), std::ref(result)) ? "PASS" : "FAIL");
      trial_timer.Stop();
      PrintTime("Verification Time", trial_timer.Seconds());
  404631:	4c 89 e7             	mov    %r12,%rdi
_ZNSt7__cxx1112basic_stringIcSt11char_traitsIcESaIcEE11_M_capacityEm():
/usr/include/c++/10/bits/basic_string.h:219
      { _M_allocated_capacity = __capacity; }
  404634:	48 89 94 24 00 01 00 	mov    %rdx,0x100(%rsp)
  40463b:	00 
_ZNSt11char_traitsIcE4copyEPcPKcm():
/usr/include/c++/10/bits/char_traits.h:437
  40463c:	0f 11 00             	movups %xmm0,(%rax)
BenchmarkKernel<CSRGraph<int>, main(int, char**)::<lambda(const Graph&)>, void (*)(const CSRGraph<int>&, const pvector<float>&), main(int, char**)::<lambda(const Graph&, const pvector<float>&)> >():
/home/aliha951/ipdps-artifact/gapbs-master/src/benchmark.h:136
  40463f:	f2 0f 10 44 24 10    	movsd  0x10(%rsp),%xmm0
_ZNSt11char_traitsIcE4copyEPcPKcm():
/usr/include/c++/10/bits/char_traits.h:437
  404645:	c6 40 10 65          	movb   $0x65,0x10(%rax)
_ZNSt7__cxx1112basic_stringIcSt11char_traitsIcESaIcEE12_M_constructIPKcEEvT_S8_St20forward_iterator_tag():
/usr/include/c++/10/bits/basic_string.tcc:232
	  {
	    _M_dispose();
	    __throw_exception_again;
	  }

	_M_set_length(__dnew);
  404649:	48 8b 44 24 48       	mov    0x48(%rsp),%rax
_ZNSt11char_traitsIcE6assignERcRKc():
/usr/include/c++/10/bits/char_traits.h:357
      { __c1 = __c2; }
  40464e:	48 8b 94 24 f0 00 00 	mov    0xf0(%rsp),%rdx
  404655:	00 
_ZNSt7__cxx1112basic_stringIcSt11char_traitsIcESaIcEE9_M_lengthEm():
/usr/include/c++/10/bits/basic_string.h:191
      { _M_string_length = __length; }
  404656:	48 89 84 24 f8 00 00 	mov    %rax,0xf8(%rsp)
  40465d:	00 
_ZNSt11char_traitsIcE6assignERcRKc():
/usr/include/c++/10/bits/char_traits.h:357
  40465e:	c6 04 02 00          	movb   $0x0,(%rdx,%rax,1)
BenchmarkKernel<CSRGraph<int>, main(int, char**)::<lambda(const Graph&)>, void (*)(const CSRGraph<int>&, const pvector<float>&), main(int, char**)::<lambda(const Graph&, const pvector<float>&)> >():
/home/aliha951/ipdps-artifact/gapbs-master/src/benchmark.h:136
  404662:	e8 b9 1e 00 00       	callq  406520 <_Z9PrintTimeRKNSt7__cxx1112basic_stringIcSt11char_traitsIcESaIcEEEd>
_ZNKSt7__cxx1112basic_stringIcSt11char_traitsIcESaIcEE7_M_dataEv():
/usr/include/c++/10/bits/basic_string.h:195
      { return _M_dataplus._M_p; }
  404667:	48 8b bc 24 f0 00 00 	mov    0xf0(%rsp),%rdi
  40466e:	00 
_ZNSt7__cxx1112basic_stringIcSt11char_traitsIcESaIcEE10_M_disposeEv():
/usr/include/c++/10/bits/basic_string.h:239
	if (!_M_is_local())
  40466f:	48 39 df             	cmp    %rbx,%rdi
  404672:	74 05                	je     404679 <main+0x639>
_ZN9__gnu_cxx13new_allocatorIcE10deallocateEPcm():
/usr/include/c++/10/ext/new_allocator.h:139
  404674:	e8 e7 f2 ff ff       	callq  403960 <_ZdlPv@plt>
BenchmarkKernel<CSRGraph<int>, main(int, char**)::<lambda(const Graph&)>, void (*)(const CSRGraph<int>&, const pvector<float>&), main(int, char**)::<lambda(const Graph&, const pvector<float>&)> >():
/home/aliha951/ipdps-artifact/gapbs-master/src/benchmark.h:138
    }
    ompt_annotate("Trial End");
  404679:	48 8d 3d cd 2c 01 00 	lea    0x12ccd(%rip),%rdi        # 41734d <_IO_stdin_used+0x34d>
  404680:	e8 1b 34 00 00       	callq  407aa0 <_Z13ompt_annotatePKc>
_ZN7pvectorIfE16ReleaseResourcesEv():
/home/aliha951/ipdps-artifact/gapbs-master/src/pvector.h:73
    if (start_ != nullptr) {
  404685:	48 8b 7c 24 70       	mov    0x70(%rsp),%rdi
  40468a:	48 85 ff             	test   %rdi,%rdi
  40468d:	0f 84 65 01 00 00    	je     4047f8 <main+0x7b8>
/home/aliha951/ipdps-artifact/gapbs-master/src/pvector.h:74
      delete[] start_;
  404693:	e8 f8 f3 ff ff       	callq  403a90 <_ZdaPv@plt>
BenchmarkKernel<CSRGraph<int>, main(int, char**)::<lambda(const Graph&)>, void (*)(const CSRGraph<int>&, const pvector<float>&), main(int, char**)::<lambda(const Graph&, const pvector<float>&)> >():
/home/aliha951/ipdps-artifact/gapbs-master/src/benchmark.h:123
  for (int iter=0; iter < cli.num_trials(); iter++) {
  404698:	83 c5 01             	add    $0x1,%ebp
  40469b:	3b ac 24 c4 01 00 00 	cmp    0x1c4(%rsp),%ebp
  4046a2:	0f 8c 90 fd ff ff    	jl     404438 <main+0x3f8>
_Z17ompt_mark_roi_endv():
/home/aliha951/ipdps-artifact/gapbs-master/src/../omp_runtime_visualizer/include/runtime_visualizer_utils.h:56
}

inline void ompt_mark_roi_end() {
  ompt_annotate("ROI_END");
  4046a8:	48 8d 3d a8 2c 01 00 	lea    0x12ca8(%rip),%rdi        # 417357 <_IO_stdin_used+0x357>
  4046af:	e8 ec 33 00 00       	callq  407aa0 <_Z13ompt_annotatePKc>
BenchmarkKernel<CSRGraph<int>, main(int, char**)::<lambda(const Graph&)>, void (*)(const CSRGraph<int>&, const pvector<float>&), main(int, char**)::<lambda(const Graph&, const pvector<float>&)> >():
/home/aliha951/ipdps-artifact/gapbs-master/src/benchmark.h:143
  }
  
  // adding profiling markers and rusage counters for performance analysis
  ompt_mark_roi_end();
  stop_time_stats();
  4046b4:	e8 37 25 00 00       	callq  406bf0 <_Z15stop_time_statsv>
/home/aliha951/ipdps-artifact/gapbs-master/src/benchmark.h:144
  trace_marker("BenchmarkKernel_End");
  4046b9:	48 8d 3d 9f 2c 01 00 	lea    0x12c9f(%rip),%rdi        # 41735f <_IO_stdin_used+0x35f>
  4046c0:	e8 4b 27 00 00       	callq  406e10 <_Z12trace_markerPKc>
/home/aliha951/ipdps-artifact/gapbs-master/src/benchmark.h:145
  stop_counters(&perf_ctrs, &user_time, &kernel_time ,&user_instructions, &kernel_instructions);
  4046c5:	48 8d 4c 24 38       	lea    0x38(%rsp),%rcx
  4046ca:	48 8d 54 24 70       	lea    0x70(%rsp),%rdx
  4046cf:	48 8d 74 24 48       	lea    0x48(%rsp),%rsi
  4046d4:	4c 8d 44 24 40       	lea    0x40(%rsp),%r8
  4046d9:	48 8d 3d 70 e2 01 00 	lea    0x1e270(%rip),%rdi        # 422950 <perf_ctrs>
  4046e0:	e8 8b 2b 00 00       	callq  407270 <_Z13stop_countersP13perf_countersPxS1_S1_S1_>
/home/aliha951/ipdps-artifact/gapbs-master/src/benchmark.h:146
  snapshot_proc_stat(END);
  4046e5:	bf 01 00 00 00       	mov    $0x1,%edi
  4046ea:	e8 41 80 00 00       	callq  40c730 <_Z18snapshot_proc_stat13SnapshotPoint>
/home/aliha951/ipdps-artifact/gapbs-master/src/benchmark.h:147
  snapshot_proc_pid(END);
  4046ef:	bf 01 00 00 00       	mov    $0x1,%edi
  4046f4:	e8 07 7d 00 00       	callq  40c400 <_Z17snapshot_proc_pid13SnapshotPoint>
/home/aliha951/ipdps-artifact/gapbs-master/src/benchmark.h:148
  stop_taskstats();
  4046f9:	e8 42 31 00 00       	callq  407840 <_Z14stop_taskstatsv>
_Z15stop_disk_statsv():
/home/aliha951/ipdps-artifact/gapbs-master/src/profiling_utils.h:316
}

inline void stop_disk_stats() {
  if (diskstat_pid > 0) {
  4046fe:	8b 05 78 8c 01 00    	mov    0x18c78(%rip),%eax        # 41d37c <diskstat_pid>
  404704:	85 c0                	test   %eax,%eax
  404706:	0f 8f 14 01 00 00    	jg     404820 <main+0x7e0>
BenchmarkKernel<CSRGraph<int>, main(int, char**)::<lambda(const Graph&)>, void (*)(const CSRGraph<int>&, const pvector<float>&), main(int, char**)::<lambda(const Graph&, const pvector<float>&)> >():
/home/aliha951/ipdps-artifact/gapbs-master/src/benchmark.h:150
  stop_disk_stats();
  cleanup_counters(&perf_ctrs);
  40470c:	48 8d 3d 3d e2 01 00 	lea    0x1e23d(%rip),%rdi        # 422950 <perf_ctrs>
  404713:	e8 98 2d 00 00       	callq  4074b0 <_Z16cleanup_countersP13perf_counters>
/home/aliha951/ipdps-artifact/gapbs-master/src/benchmark.h:151
  measure_time_stats();
  404718:	e8 03 25 00 00       	callq  406c20 <_Z18measure_time_statsv>
/home/aliha951/ipdps-artifact/gapbs-master/src/benchmark.h:153

  PrintTime("Average Time", total_seconds / cli.num_trials());
  40471d:	66 0f ef c0          	pxor   %xmm0,%xmm0
  404721:	f2 0f 10 5c 24 08    	movsd  0x8(%rsp),%xmm3
  404727:	48 8d ac 24 f0 00 00 	lea    0xf0(%rsp),%rbp
  40472e:	00 
  40472f:	48 8d 35 3d 2c 01 00 	lea    0x12c3d(%rip),%rsi        # 417373 <_IO_stdin_used+0x373>
  404736:	f2 0f 2a 84 24 c4 01 	cvtsi2sdl 0x1c4(%rsp),%xmm0
  40473d:	00 00 
  40473f:	48 89 ef             	mov    %rbp,%rdi
  404742:	f2 0f 5e d8          	divsd  %xmm0,%xmm3
  404746:	66 48 0f 7e db       	movq   %xmm3,%rbx
  40474b:	e8 d0 1a 00 00       	callq  406220 <_ZNSt7__cxx1112basic_stringIcSt11char_traitsIcESaIcEEC2EPKcRKS3_.constprop.0>
  404750:	66 48 0f 6e c3       	movq   %rbx,%xmm0
  404755:	48 89 ef             	mov    %rbp,%rdi
  404758:	e8 c3 1d 00 00       	callq  406520 <_Z9PrintTimeRKNSt7__cxx1112basic_stringIcSt11char_traitsIcESaIcEEEd>
_ZNKSt7__cxx1112basic_stringIcSt11char_traitsIcESaIcEE7_M_dataEv():
/usr/include/c++/10/bits/basic_string.h:195
      { return _M_dataplus._M_p; }
  40475d:	48 8b bc 24 f0 00 00 	mov    0xf0(%rsp),%rdi
  404764:	00 
_ZNSt7__cxx1112basic_stringIcSt11char_traitsIcESaIcEE10_M_disposeEv():
/usr/include/c++/10/bits/basic_string.h:239
	if (!_M_is_local())
  404765:	48 8d 84 24 00 01 00 	lea    0x100(%rsp),%rax
  40476c:	00 
  40476d:	48 39 c7             	cmp    %rax,%rdi
  404770:	74 05                	je     404777 <main+0x737>
_ZN9__gnu_cxx13new_allocatorIcE10deallocateEPcm():
/usr/include/c++/10/ext/new_allocator.h:139
  404772:	e8 e9 f1 ff ff       	callq  403960 <_ZdlPv@plt>
main():
/home/aliha951/ipdps-artifact/gapbs-master/src/bc_batching_nopt.cc:358
    touch_ips(ips, ret_ips, 2);
  }

  BenchmarkKernel(cli, g, BCBound, PrintTopScores, VerifierBound);

  if(cli.batching()){
  404777:	80 bc 24 ab 01 00 00 	cmpb   $0x0,0x1ab(%rsp)
  40477e:	00 
  40477f:	0f 85 e2 00 00 00    	jne    404867 <main+0x827>
_ZN8CSRGraphIiiLb1EED4Ev():
/home/aliha951/ipdps-artifact/gapbs-master/src/graph.h:166
  404785:	4c 89 ef             	mov    %r13,%rdi
main():
/home/aliha951/ipdps-artifact/gapbs-master/src/bc_batching_nopt.cc:362
    unregister_and_free_arrays();
  }

  return 0;
  404788:	45 31 e4             	xor    %r12d,%r12d
_ZN8CSRGraphIiiLb1EED4Ev():
/home/aliha951/ipdps-artifact/gapbs-master/src/graph.h:166
  40478b:	e8 80 8b 00 00       	callq  40d310 <_ZN8CSRGraphIiiLb1EE16ReleaseResourcesEv>
_ZN5CLAppD4Ev():
/home/aliha951/ipdps-artifact/gapbs-master/src/command_line.h:140
class CLApp : public CLBase {
  404790:	48 8b 7c 24 28       	mov    0x28(%rsp),%rdi
  404795:	48 8d 05 5c 83 01 00 	lea    0x1835c(%rip),%rax        # 41caf8 <_ZTV5CLApp+0x10>
  40479c:	48 89 84 24 10 01 00 	mov    %rax,0x110(%rsp)
  4047a3:	00 
  4047a4:	e8 a7 7b 00 00       	callq  40c350 <_ZN6CLBaseD1Ev>
main():
/home/aliha951/ipdps-artifact/gapbs-master/src/bc_batching_nopt.cc:363
}
  4047a9:	48 8b 84 24 c8 16 00 	mov    0x16c8(%rsp),%rax
  4047b0:	00 
  4047b1:	64 48 2b 04 25 28 00 	sub    %fs:0x28,%rax
  4047b8:	00 00 
  4047ba:	0f 85 70 03 00 00    	jne    404b30 <main+0xaf0>
  4047c0:	48 81 c4 d8 16 00 00 	add    $0x16d8,%rsp
  4047c7:	44 89 e0             	mov    %r12d,%eax
  4047ca:	5b                   	pop    %rbx
  4047cb:	5d                   	pop    %rbp
  4047cc:	41 5c                	pop    %r12
  4047ce:	41 5d                	pop    %r13
  4047d0:	41 5e                	pop    %r14
  4047d2:	41 5f                	pop    %r15
  4047d4:	c3                   	retq   
_ZN6CLBase9ParseArgsEv():
/home/aliha951/ipdps-artifact/gapbs-master/src/command_line.h:90
    if ((filename_ == "") && (scale_ == -1)) {
  4047d5:	44 8b a4 24 80 01 00 	mov    0x180(%rsp),%r12d
  4047dc:	00 
  4047dd:	41 83 fc ff          	cmp    $0xffffffff,%r12d
  4047e1:	0f 84 4a 02 00 00    	je     404a31 <main+0x9f1>
/home/aliha951/ipdps-artifact/gapbs-master/src/command_line.h:95
      symmetrize_ = true;
  4047e7:	c6 84 24 a8 01 00 00 	movb   $0x1,0x1a8(%rsp)
  4047ee:	01 
/home/aliha951/ipdps-artifact/gapbs-master/src/command_line.h:92
      return false;
  4047ef:	e9 46 fa ff ff       	jmpq   40423a <main+0x1fa>
  4047f4:	0f 1f 40 00          	nopl   0x0(%rax)
BenchmarkKernel<CSRGraph<int>, main(int, char**)::<lambda(const Graph&)>, void (*)(const CSRGraph<int>&, const pvector<float>&), main(int, char**)::<lambda(const Graph&, const pvector<float>&)> >():
/home/aliha951/ipdps-artifact/gapbs-master/src/benchmark.h:123
  for (int iter=0; iter < cli.num_trials(); iter++) {
  4047f8:	83 c5 01             	add    $0x1,%ebp
  4047fb:	39 ac 24 c4 01 00 00 	cmp    %ebp,0x1c4(%rsp)
  404802:	0f 8f 30 fc ff ff    	jg     404438 <main+0x3f8>
  404808:	e9 9b fe ff ff       	jmpq   4046a8 <main+0x668>
  40480d:	0f 1f 00             	nopl   (%rax)
/home/aliha951/ipdps-artifact/gapbs-master/src/benchmark.h:130
      stats(g, result);
  404810:	4c 89 f6             	mov    %r14,%rsi
  404813:	4c 89 ef             	mov    %r13,%rdi
  404816:	e8 35 5f 00 00       	callq  40a750 <_Z14PrintTopScoresRK8CSRGraphIiiLb1EERK7pvectorIfE>
  40481b:	e9 e8 fc ff ff       	jmpq   404508 <main+0x4c8>
main():
/usr/include/x86_64-linux-gnu/bits/stdio2.h:67
# ifdef __va_arg_pack
__fortify_function int
__NTH (snprintf (char *__restrict __s, size_t __n,
		 const char *__restrict __fmt, ...))
{
  return __builtin___snprintf_chk (__s, __n, __USE_FORTIFY_LEVEL - 1,
  404820:	4c 8d 84 24 c0 15 00 	lea    0x15c0(%rsp),%r8
  404827:	00 
snprintf():
/usr/include/x86_64-linux-gnu/bits/stdio2.h:67
  404828:	48 8d 35 f1 2f 01 00 	lea    0x12ff1(%rip),%rsi        # 417820 <_IO_stdin_used+0x820>
  40482f:	b9 09 00 00 00       	mov    $0x9,%ecx
  404834:	4c 89 c7             	mov    %r8,%rdi
  404837:	f3 a5                	rep movsl %ds:(%rsi),%es:(%rdi)
_Z15stop_disk_statsv():
/home/aliha951/ipdps-artifact/gapbs-master/src/profiling_utils.h:319
    char command[256];
    snprintf(command, sizeof(command), "sudo pkill -f 'gather_diskstats.sh'");
    int ret = system(command);
  404839:	4c 89 c7             	mov    %r8,%rdi
  40483c:	e8 df f0 ff ff       	callq  403920 <system@plt>
/home/aliha951/ipdps-artifact/gapbs-master/src/profiling_utils.h:320
    if (ret==-1)	std::cout << "could not stop diskstat gathering\n";
  404841:	83 c0 01             	add    $0x1,%eax
  404844:	0f 85 c2 fe ff ff    	jne    40470c <main+0x6cc>
_ZStlsISt11char_traitsIcEERSt13basic_ostreamIcT_ES5_PKc():
/usr/include/c++/10/ostream:611
	__ostream_insert(__out, __s,
  40484a:	ba 22 00 00 00       	mov    $0x22,%edx
  40484f:	48 8d 35 f2 2f 01 00 	lea    0x12ff2(%rip),%rsi        # 417848 <_IO_stdin_used+0x848>
  404856:	48 8d 3d a3 8b 01 00 	lea    0x18ba3(%rip),%rdi        # 41d400 <_ZSt4cout@@GLIBCXX_3.4>
  40485d:	e8 7e f1 ff ff       	callq  4039e0 <_ZSt16__ostream_insertIcSt11char_traitsIcEERSt13basic_ostreamIT_T0_ES6_PKS3_l@plt>
  404862:	e9 a5 fe ff ff       	jmpq   40470c <main+0x6cc>
_Z26unregister_and_free_arraysv():
/home/aliha951/ipdps-artifact/gapbs-master/src/libpfq_bc.h:332
}

// syscall to unregister the page fault status array, as well as ips and ret_ips, and free the allocated memory
inline void unregister_and_free_arrays(){
  syscall(548, NULL, NULL, 0);
  404867:	31 c9                	xor    %ecx,%ecx
  404869:	31 d2                	xor    %edx,%edx
  40486b:	31 f6                	xor    %esi,%esi
  40486d:	bf 24 02 00 00       	mov    $0x224,%edi
  404872:	31 c0                	xor    %eax,%eax
  404874:	e8 87 ee ff ff       	callq  403700 <syscall@plt>
/home/aliha951/ipdps-artifact/gapbs-master/src/libpfq_bc.h:333
  syscall(550, NULL, 0);
  404879:	31 d2                	xor    %edx,%edx
  40487b:	31 f6                	xor    %esi,%esi
  40487d:	bf 26 02 00 00       	mov    $0x226,%edi
  404882:	31 c0                	xor    %eax,%eax
  404884:	e8 77 ee ff ff       	callq  403700 <syscall@plt>
/home/aliha951/ipdps-artifact/gapbs-master/src/libpfq_bc.h:334
  munlock(ptr, 32*1024*sizeof(int));
  404889:	48 8b 3d 30 dd 01 00 	mov    0x1dd30(%rip),%rdi        # 4225c0 <ptr>
  404890:	be 00 00 02 00       	mov    $0x20000,%esi
  404895:	e8 46 f4 ff ff       	callq  403ce0 <munlock@plt>
/home/aliha951/ipdps-artifact/gapbs-master/src/libpfq_bc.h:335
  munmap(ptr, 32*1024*sizeof(int));
  40489a:	48 8b 3d 1f dd 01 00 	mov    0x1dd1f(%rip),%rdi        # 4225c0 <ptr>
  4048a1:	be 00 00 02 00       	mov    $0x20000,%esi
  4048a6:	e8 e5 ef ff ff       	callq  403890 <munmap@plt>
/home/aliha951/ipdps-artifact/gapbs-master/src/libpfq_bc.h:336
}
  4048ab:	e9 d5 fe ff ff       	jmpq   404785 <main+0x745>
_ZN6CLBase9HandleArgEaPc():
/home/aliha951/ipdps-artifact/gapbs-master/src/command_line.h:106
      case 'u': uniform_ = true; scale_ = atoi(opt_arg);                break;
  4048b0:	c6 84 24 a9 01 00 00 	movb   $0x1,0x1a9(%rsp)
  4048b7:	01 
main():
/usr/include/stdlib.h:363
  4048b8:	ba 0a 00 00 00       	mov    $0xa,%edx
atoi():
/usr/include/stdlib.h:363
  4048bd:	31 f6                	xor    %esi,%esi
  4048bf:	e8 2c f2 ff ff       	callq  403af0 <strtol@plt>
  4048c4:	89 84 24 80 01 00 00 	mov    %eax,0x180(%rsp)
_ZN6CLBase9HandleArgEaPc():
/home/aliha951/ipdps-artifact/gapbs-master/src/command_line.h:106
  4048cb:	e9 30 f8 ff ff       	jmpq   404100 <main+0xc0>
/home/aliha951/ipdps-artifact/gapbs-master/src/command_line.h:101
      case 'f': filename_ = std::string(opt_arg);                       break;
  4048d0:	48 89 fe             	mov    %rdi,%rsi
  4048d3:	48 8b 7c 24 20       	mov    0x20(%rsp),%rdi
  4048d8:	e8 43 19 00 00       	callq  406220 <_ZNSt7__cxx1112basic_stringIcSt11char_traitsIcESaIcEEC2EPKcRKS3_.constprop.0>
_ZNKSt7__cxx1112basic_stringIcSt11char_traitsIcESaIcEE7_M_dataEv():
/usr/include/c++/10/bits/basic_string.h:195
      { return _M_dataplus._M_p; }
  4048dd:	48 8b 84 24 d0 0b 00 	mov    0xbd0(%rsp),%rax
  4048e4:	00 
  4048e5:	48 8b bc 24 88 01 00 	mov    0x188(%rsp),%rdi
  4048ec:	00 
_ZNKSt7__cxx1112basic_stringIcSt11char_traitsIcESaIcEE4sizeEv():
/usr/include/c++/10/bits/basic_string.h:915
      { return _M_string_length; }
  4048ed:	48 8b 94 24 d8 0b 00 	mov    0xbd8(%rsp),%rdx
  4048f4:	00 
_ZNSt7__cxx1112basic_stringIcSt11char_traitsIcESaIcEEaSEOS4_():
/usr/include/c++/10/bits/basic_string.h:731
	if (__str._M_is_local())
  4048f5:	48 39 e8             	cmp    %rbp,%rax
  4048f8:	0f 84 66 01 00 00    	je     404a64 <main+0xa24>
/usr/include/c++/10/bits/basic_string.h:759
	    _M_capacity(__str._M_allocated_capacity);
  4048fe:	48 8b 8c 24 e0 0b 00 	mov    0xbe0(%rsp),%rcx
  404905:	00 
/usr/include/c++/10/bits/basic_string.h:745
	    if (!_M_is_local())
  404906:	4c 39 ef             	cmp    %r13,%rdi
  404909:	0f 84 89 01 00 00    	je     404a98 <main+0xa58>
_ZNSt7__cxx1112basic_stringIcSt11char_traitsIcESaIcEE9_M_lengthEm():
/usr/include/c++/10/bits/basic_string.h:191
      { _M_string_length = __length; }
  40490f:	66 48 0f 6e c2       	movq   %rdx,%xmm0
  404914:	66 48 0f 6e f1       	movq   %rcx,%xmm6
_ZNSt7__cxx1112basic_stringIcSt11char_traitsIcESaIcEEaSEOS4_():
/usr/include/c++/10/bits/basic_string.h:751
		    __capacity = _M_allocated_capacity;
  404919:	48 8b b4 24 98 01 00 	mov    0x198(%rsp),%rsi
  404920:	00 
_ZNSt7__cxx1112basic_stringIcSt11char_traitsIcESaIcEE7_M_dataEPc():
/usr/include/c++/10/bits/basic_string.h:187
      { _M_dataplus._M_p = __p; }
  404921:	48 89 84 24 88 01 00 	mov    %rax,0x188(%rsp)
  404928:	00 
_ZNSt7__cxx1112basic_stringIcSt11char_traitsIcESaIcEE9_M_lengthEm():
/usr/include/c++/10/bits/basic_string.h:191
      { _M_string_length = __length; }
  404929:	66 0f 6c c6          	punpcklqdq %xmm6,%xmm0
  40492d:	0f 29 84 24 90 01 00 	movaps %xmm0,0x190(%rsp)
  404934:	00 
_ZNSt7__cxx1112basic_stringIcSt11char_traitsIcESaIcEEaSEOS4_():
/usr/include/c++/10/bits/basic_string.h:760
	    if (__data)
  404935:	48 85 ff             	test   %rdi,%rdi
  404938:	0f 84 78 01 00 00    	je     404ab6 <main+0xa76>
_ZNSt7__cxx1112basic_stringIcSt11char_traitsIcESaIcEE7_M_dataEPc():
/usr/include/c++/10/bits/basic_string.h:187
      { _M_dataplus._M_p = __p; }
  40493e:	48 89 bc 24 d0 0b 00 	mov    %rdi,0xbd0(%rsp)
  404945:	00 
_ZNSt7__cxx1112basic_stringIcSt11char_traitsIcESaIcEE11_M_capacityEm():
/usr/include/c++/10/bits/basic_string.h:219
      { _M_allocated_capacity = __capacity; }
  404946:	48 89 b4 24 e0 0b 00 	mov    %rsi,0xbe0(%rsp)
  40494d:	00 
_ZNKSt7__cxx1112basic_stringIcSt11char_traitsIcESaIcEE7_M_dataEv():
/usr/include/c++/10/bits/basic_string.h:195
      { return _M_dataplus._M_p; }
  40494e:	48 8b 84 24 d0 0b 00 	mov    0xbd0(%rsp),%rax
  404955:	00 
_ZNSt7__cxx1112basic_stringIcSt11char_traitsIcESaIcEE9_M_lengthEm():
/usr/include/c++/10/bits/basic_string.h:191
      { _M_string_length = __length; }
  404956:	48 c7 84 24 d8 0b 00 	movq   $0x0,0xbd8(%rsp)
  40495d:	00 00 00 00 00 
_ZNSt11char_traitsIcE6assignERcRKc():
/usr/include/c++/10/bits/char_traits.h:357
  404962:	c6 00 00             	movb   $0x0,(%rax)
_ZNKSt7__cxx1112basic_stringIcSt11char_traitsIcESaIcEE7_M_dataEv():
/usr/include/c++/10/bits/basic_string.h:195
      { return _M_dataplus._M_p; }
  404965:	48 8b bc 24 d0 0b 00 	mov    0xbd0(%rsp),%rdi
  40496c:	00 
_ZNSt7__cxx1112basic_stringIcSt11char_traitsIcESaIcEE10_M_disposeEv():
/usr/include/c++/10/bits/basic_string.h:239
	if (!_M_is_local())
  40496d:	48 39 ef             	cmp    %rbp,%rdi
  404970:	0f 84 8a f7 ff ff    	je     404100 <main+0xc0>
_ZN9__gnu_cxx13new_allocatorIcE10deallocateEPcm():
/usr/include/c++/10/ext/new_allocator.h:139
  404976:	e8 e5 ef ff ff       	callq  403960 <_ZdlPv@plt>
_ZN6CLBase9HandleArgEaPc():
/home/aliha951/ipdps-artifact/gapbs-master/src/command_line.h:114
  }
  40497b:	e9 80 f7 ff ff       	jmpq   404100 <main+0xc0>
main():
/usr/include/stdlib.h:363
  404980:	ba 0a 00 00 00       	mov    $0xa,%edx
atoi():
/usr/include/stdlib.h:363
  404985:	31 f6                	xor    %esi,%esi
  404987:	e8 64 f1 ff ff       	callq  403af0 <strtol@plt>
  40498c:	89 84 24 84 01 00 00 	mov    %eax,0x184(%rsp)
_ZN6CLBase9HandleArgEaPc():
/home/aliha951/ipdps-artifact/gapbs-master/src/command_line.h:104
      case 'k': degree_ = atoi(opt_arg);                                break;
  404993:	e9 68 f7 ff ff       	jmpq   404100 <main+0xc0>
/home/aliha951/ipdps-artifact/gapbs-master/src/command_line.h:107
      case 'm': in_place_ = true;                                       break;
  404998:	c6 84 24 aa 01 00 00 	movb   $0x1,0x1aa(%rsp)
  40499f:	01 
  4049a0:	e9 5b f7 ff ff       	jmpq   404100 <main+0xc0>
/home/aliha951/ipdps-artifact/gapbs-master/src/command_line.h:112
      case 'o': batching_mode_ = MADVISE;                               break;
  4049a5:	c7 84 24 bc 01 00 00 	movl   $0x2,0x1bc(%rsp)
  4049ac:	02 00 00 00 
  4049b0:	e9 4b f7 ff ff       	jmpq   404100 <main+0xc0>
/home/aliha951/ipdps-artifact/gapbs-master/src/command_line.h:109
      case 'q': batching_ = true;                                       break;
  4049b5:	c6 84 24 ab 01 00 00 	movb   $0x1,0x1ab(%rsp)
  4049bc:	01 
  4049bd:	e9 3e f7 ff ff       	jmpq   404100 <main+0xc0>
/home/aliha951/ipdps-artifact/gapbs-master/src/command_line.h:105
      case 's': symmetrize_ = true;                                     break;
  4049c2:	c6 84 24 a8 01 00 00 	movb   $0x1,0x1a8(%rsp)
  4049c9:	01 
  4049ca:	e9 31 f7 ff ff       	jmpq   404100 <main+0xc0>
main():
/usr/include/stdlib.h:363
  4049cf:	ba 0a 00 00 00       	mov    $0xa,%edx
atoi():
/usr/include/stdlib.h:363
  4049d4:	31 f6                	xor    %esi,%esi
  4049d6:	e8 15 f1 ff ff       	callq  403af0 <strtol@plt>
  4049db:	89 84 24 b8 01 00 00 	mov    %eax,0x1b8(%rsp)
_ZN6CLBase9HandleArgEaPc():
/home/aliha951/ipdps-artifact/gapbs-master/src/command_line.h:111
      case 'x': readahead_size_ = atoi(opt_arg);                        break;
  4049e2:	e9 19 f7 ff ff       	jmpq   404100 <main+0xc0>
main():
/usr/include/stdlib.h:363
  4049e7:	ba 0a 00 00 00       	mov    $0xa,%edx
atoi():
/usr/include/stdlib.h:363
  4049ec:	31 f6                	xor    %esi,%esi
  4049ee:	e8 fd f0 ff ff       	callq  403af0 <strtol@plt>
_ZN6CLBase9HandleArgEaPc():
/home/aliha951/ipdps-artifact/gapbs-master/src/command_line.h:110
      case 'y': queue_size_ = (long unsigned int) atoi(opt_arg);        break;
  4049f3:	48 98                	cltq   
  4049f5:	48 89 84 24 b0 01 00 	mov    %rax,0x1b0(%rsp)
  4049fc:	00 
  4049fd:	e9 fe f6 ff ff       	jmpq   404100 <main+0xc0>
BenchmarkKernel<CSRGraph<int>, main(int, char**)::<lambda(const Graph&)>, void (*)(const CSRGraph<int>&, const pvector<float>&), main(int, char**)::<lambda(const Graph&, const pvector<float>&)> >():
/home/aliha951/ipdps-artifact/gapbs-master/src/benchmark.h:108
  double total_seconds = 0;
  404a02:	66 0f ef ed          	pxor   %xmm5,%xmm5
  404a06:	f2 0f 11 6c 24 08    	movsd  %xmm5,0x8(%rsp)
  404a0c:	e9 97 fc ff ff       	jmpq   4046a8 <main+0x668>
_Z16prepare_pmadvisev():
/home/aliha951/ipdps-artifact/gapbs-master/src/libpfq_bc.h:315
    pid_t pid = getpid();
  404a11:	e8 3a f1 ff ff       	callq  403b50 <getpid@plt>
/home/aliha951/ipdps-artifact/gapbs-master/src/libpfq_bc.h:316
    pidfd = syscall(SYS_pidfd_open, pid, 0); // this is necessary for process_madvise
  404a16:	31 d2                	xor    %edx,%edx
  404a18:	bf b2 01 00 00       	mov    $0x1b2,%edi
/home/aliha951/ipdps-artifact/gapbs-master/src/libpfq_bc.h:315
    pid_t pid = getpid();
  404a1d:	89 c6                	mov    %eax,%esi
/home/aliha951/ipdps-artifact/gapbs-master/src/libpfq_bc.h:316
    pidfd = syscall(SYS_pidfd_open, pid, 0); // this is necessary for process_madvise
  404a1f:	31 c0                	xor    %eax,%eax
  404a21:	e8 da ec ff ff       	callq  403700 <syscall@plt>
  404a26:	89 05 74 db 01 00    	mov    %eax,0x1db74(%rip)        # 4225a0 <pidfd>
/home/aliha951/ipdps-artifact/gapbs-master/src/libpfq_bc.h:318
}
  404a2c:	e9 f1 f8 ff ff       	jmpq   404322 <main+0x2e2>
_ZStlsISt11char_traitsIcEERSt13basic_ostreamIcT_ES5_PKc():
/usr/include/c++/10/ostream:611
  404a31:	ba 2b 00 00 00       	mov    $0x2b,%edx
  404a36:	48 8d 35 53 2d 01 00 	lea    0x12d53(%rip),%rsi        # 417790 <_IO_stdin_used+0x790>
  404a3d:	48 8d 3d bc 89 01 00 	lea    0x189bc(%rip),%rdi        # 41d400 <_ZSt4cout@@GLIBCXX_3.4>
  404a44:	e8 97 ef ff ff       	callq  4039e0 <_ZSt16__ostream_insertIcSt11char_traitsIcEERSt13basic_ostreamIT_T0_ES6_PKS3_l@plt>
_ZNSolsEPFRSoS_E():
/usr/include/c++/10/ostream:113
	return __pf(*this);
  404a49:	48 8d 3d b0 89 01 00 	lea    0x189b0(%rip),%rdi        # 41d400 <_ZSt4cout@@GLIBCXX_3.4>
  404a50:	e8 4b 17 00 00       	callq  4061a0 <_ZSt4endlIcSt11char_traitsIcEERSt13basic_ostreamIT_T0_ES6_.isra.0>
  404a55:	e9 36 fd ff ff       	jmpq   404790 <main+0x750>
_ZN6CLBase9HandleArgEaPc():
/home/aliha951/ipdps-artifact/gapbs-master/src/command_line.h:103
      case 'h': PrintUsage();                                           break;
  404a5a:	48 8b 7c 24 28       	mov    0x28(%rsp),%rdi
  404a5f:	e8 4c 71 00 00       	callq  40bbb0 <_ZN6CLBase10PrintUsageEv>
_ZNSt7__cxx1112basic_stringIcSt11char_traitsIcESaIcEEaSEOS4_():
/usr/include/c++/10/bits/basic_string.h:734
	    if (__str.size())
  404a64:	48 85 d2             	test   %rdx,%rdx
  404a67:	74 1e                	je     404a87 <main+0xa47>
_ZNSt7__cxx1112basic_stringIcSt11char_traitsIcESaIcEE7_S_copyEPcPKcm():
/usr/include/c++/10/bits/basic_string.h:356
	if (__n == 1)
  404a69:	48 83 fa 01          	cmp    $0x1,%rdx
  404a6d:	74 54                	je     404ac3 <main+0xa83>
_ZNSt11char_traitsIcE4copyEPcPKcm():
/usr/include/c++/10/bits/char_traits.h:437
	return static_cast<char_type*>(__builtin_memcpy(__s1, __s2, __n));
  404a6f:	48 89 ee             	mov    %rbp,%rsi
  404a72:	e8 79 ee ff ff       	callq  4038f0 <memcpy@plt>
  404a77:	48 8b bc 24 88 01 00 	mov    0x188(%rsp),%rdi
  404a7e:	00 
  404a7f:	48 8b 94 24 d8 0b 00 	mov    0xbd8(%rsp),%rdx
  404a86:	00 
_ZNSt7__cxx1112basic_stringIcSt11char_traitsIcESaIcEE9_M_lengthEm():
/usr/include/c++/10/bits/basic_string.h:191
      { _M_string_length = __length; }
  404a87:	48 89 94 24 90 01 00 	mov    %rdx,0x190(%rsp)
  404a8e:	00 
_ZNSt11char_traitsIcE6assignERcRKc():
/usr/include/c++/10/bits/char_traits.h:357
      { __c1 = __c2; }
  404a8f:	c6 04 17 00          	movb   $0x0,(%rdi,%rdx,1)
_ZNSt7__cxx1112basic_stringIcSt11char_traitsIcESaIcEE13_M_set_lengthEm():
/usr/include/c++/10/bits/basic_string.h:226
      }
  404a93:	e9 b6 fe ff ff       	jmpq   40494e <main+0x90e>
_ZNSt7__cxx1112basic_stringIcSt11char_traitsIcESaIcEE9_M_lengthEm():
/usr/include/c++/10/bits/basic_string.h:191
      { _M_string_length = __length; }
  404a98:	66 48 0f 6e c2       	movq   %rdx,%xmm0
  404a9d:	66 48 0f 6e f9       	movq   %rcx,%xmm7
_ZNSt7__cxx1112basic_stringIcSt11char_traitsIcESaIcEE7_M_dataEPc():
/usr/include/c++/10/bits/basic_string.h:187
      { _M_dataplus._M_p = __p; }
  404aa2:	48 89 84 24 88 01 00 	mov    %rax,0x188(%rsp)
  404aa9:	00 
_ZNSt7__cxx1112basic_stringIcSt11char_traitsIcESaIcEE9_M_lengthEm():
/usr/include/c++/10/bits/basic_string.h:191
      { _M_string_length = __length; }
  404aaa:	66 0f 6c c7          	punpcklqdq %xmm7,%xmm0
  404aae:	0f 29 84 24 90 01 00 	movaps %xmm0,0x190(%rsp)
  404ab5:	00 
_ZNSt7__cxx1112basic_stringIcSt11char_traitsIcESaIcEE7_M_dataEPc():
/usr/include/c++/10/bits/basic_string.h:187
      { _M_dataplus._M_p = __p; }
  404ab6:	48 89 ac 24 d0 0b 00 	mov    %rbp,0xbd0(%rsp)
  404abd:	00 
  404abe:	e9 8b fe ff ff       	jmpq   40494e <main+0x90e>
_ZNSt11char_traitsIcE6assignERcRKc():
/usr/include/c++/10/bits/char_traits.h:357
  404ac3:	0f b6 84 24 e0 0b 00 	movzbl 0xbe0(%rsp),%eax
  404aca:	00 
  404acb:	88 07                	mov    %al,(%rdi)
  404acd:	48 8b bc 24 88 01 00 	mov    0x188(%rsp),%rdi
  404ad4:	00 
  404ad5:	48 8b 94 24 d8 0b 00 	mov    0xbd8(%rsp),%rdx
  404adc:	00 
  404add:	eb a8                	jmp    404a87 <main+0xa47>
_Z16start_disk_statsPKc():
/home/aliha951/ipdps-artifact/gapbs-master/src/profiling_utils.h:302
    perror("fork failed");
  404adf:	48 8d 3d 0c 28 01 00 	lea    0x1280c(%rip),%rdi        # 4172f2 <_IO_stdin_used+0x2f2>
  404ae6:	e8 15 ee ff ff       	callq  403900 <perror@plt>
/home/aliha951/ipdps-artifact/gapbs-master/src/profiling_utils.h:303
    exit(EXIT_FAILURE);
  404aeb:	bf 01 00 00 00       	mov    $0x1,%edi
  404af0:	e8 4b ef ff ff       	callq  403a40 <exit@plt>
/home/aliha951/ipdps-artifact/gapbs-master/src/profiling_utils.h:306
	  move_to_cgroup(root_cgroup, getpid());
  404af5:	e8 56 f0 ff ff       	callq  403b50 <getpid@plt>
  404afa:	48 8d 3d fd 27 01 00 	lea    0x127fd(%rip),%rdi        # 4172fe <_IO_stdin_used+0x2fe>
  404b01:	89 c6                	mov    %eax,%esi
  404b03:	e8 d8 29 00 00       	callq  4074e0 <_Z14move_to_cgroupPKci>
/home/aliha951/ipdps-artifact/gapbs-master/src/profiling_utils.h:307
    execlp("/home/aliha951/ipdps-gapbs/gather_diskstats.sh", "/home/aliha951/ipdps-gapbs/gather_diskstats.sh", result_file_name, NULL);
  404b08:	48 8d 35 e1 2c 01 00 	lea    0x12ce1(%rip),%rsi        # 4177f0 <_IO_stdin_used+0x7f0>
  404b0f:	31 c9                	xor    %ecx,%ecx
  404b11:	48 8d 15 fc 27 01 00 	lea    0x127fc(%rip),%rdx        # 417314 <_IO_stdin_used+0x314>
  404b18:	31 c0                	xor    %eax,%eax
  404b1a:	48 89 f7             	mov    %rsi,%rdi
  404b1d:	e8 9e ec ff ff       	callq  4037c0 <execlp@plt>
/home/aliha951/ipdps-artifact/gapbs-master/src/profiling_utils.h:308
    perror("execlp failed");
  404b22:	48 8d 3d f6 27 01 00 	lea    0x127f6(%rip),%rdi        # 41731f <_IO_stdin_used+0x31f>
  404b29:	e8 d2 ed ff ff       	callq  403900 <perror@plt>
  404b2e:	eb bb                	jmp    404aeb <main+0xaab>
main():
/home/aliha951/ipdps-artifact/gapbs-master/src/bc_batching_nopt.cc:363
  404b30:	e8 9b ee ff ff       	callq  4039d0 <__stack_chk_fail@plt>
  404b35:	f3 0f 1e fa          	endbr64 
_ZNKSt7__cxx1112basic_stringIcSt11char_traitsIcESaIcEE7_M_dataEv():
/usr/include/c++/10/bits/basic_string.h:195
      { return _M_dataplus._M_p; }
  404b39:	48 89 c5             	mov    %rax,%rbp
  404b3c:	e9 29 f4 ff ff       	jmpq   403f6a <main.cold>
  404b41:	f3 0f 1e fa          	endbr64 
_ZN7pvectorIfE16ReleaseResourcesEv():
/home/aliha951/ipdps-artifact/gapbs-master/src/pvector.h:73
    if (start_ != nullptr) {
  404b45:	48 89 c5             	mov    %rax,%rbp
  404b48:	e9 2f f4 ff ff       	jmpq   403f7c <main.cold+0x12>
  404b4d:	f3 0f 1e fa          	endbr64 
_ZNKSt7__cxx1112basic_stringIcSt11char_traitsIcESaIcEE7_M_dataEv():
/usr/include/c++/10/bits/basic_string.h:195
  404b51:	48 89 c5             	mov    %rax,%rbp
  404b54:	e9 5e f4 ff ff       	jmpq   403fb7 <main.cold+0x4d>
  404b59:	f3 0f 1e fa          	endbr64 
  404b5d:	48 89 c5             	mov    %rax,%rbp
  404b60:	e9 7a f4 ff ff       	jmpq   403fdf <main.cold+0x75>
  404b65:	f3 0f 1e fa          	endbr64 
  404b69:	48 89 c5             	mov    %rax,%rbp
  404b6c:	e9 82 f4 ff ff       	jmpq   403ff3 <main.cold+0x89>
  404b71:	f3 0f 1e fa          	endbr64 
_ZN5CLAppD4Ev():
/home/aliha951/ipdps-artifact/gapbs-master/src/command_line.h:140
class CLApp : public CLBase {
  404b75:	48 89 c3             	mov    %rax,%rbx
  404b78:	e9 19 f4 ff ff       	jmpq   403f96 <main.cold+0x2c>
  404b7d:	f3 0f 1e fa          	endbr64 
  404b81:	48 89 c3             	mov    %rax,%rbx
  404b84:	e9 05 f4 ff ff       	jmpq   403f8e <main.cold+0x24>
  404b89:	f3 0f 1e fa          	endbr64 
_ZNKSt7__cxx1112basic_stringIcSt11char_traitsIcESaIcEE7_M_dataEv():
/usr/include/c++/10/bits/basic_string.h:195
  404b8d:	48 89 c3             	mov    %rax,%rbx
  404b90:	e9 80 f4 ff ff       	jmpq   404015 <main.cold+0xab>
main():
/usr/include/c++/10/bits/basic_string.h:195
  404b95:	66 66 2e 0f 1f 84 00 	data16 nopw %cs:0x0(%rax,%rax,1)
  404b9c:	00 00 00 00 

0000000000404ba0 <_GLOBAL__sub_I__Z10PrintLabelRKNSt7__cxx1112basic_stringIcSt11char_traitsIcESaIcEEES6_>:
_GLOBAL__sub_I__Z10PrintLabelRKNSt7__cxx1112basic_stringIcSt11char_traitsIcESaIcEEES6_():
/home/aliha951/ipdps-artifact/gapbs-master/src/bc_batching_nopt.cc:363
  404ba0:	f3 0f 1e fa          	endbr64 
  404ba4:	48 83 ec 08          	sub    $0x8,%rsp
/usr/include/c++/10/iostream:74
  extern wostream wclog;	/// Linked to standard error (buffered)
#endif
  ///@}

  // For construction of filebuffers for cout, cin, cerr, clog et. al.
  static ios_base::Init __ioinit;
  404ba8:	48 8d 3d 01 df 01 00 	lea    0x1df01(%rip),%rdi        # 422ab0 <_ZStL8__ioinit>
__static_initialization_and_destruction_0():
/usr/include/c++/10/iostream:74
  404baf:	e8 cc ef ff ff       	callq  403b80 <_ZNSt8ios_base4InitC1Ev@plt>
  404bb4:	48 8b 3d 3d 84 01 00 	mov    0x1843d(%rip),%rdi        # 41cff8 <_ZNSt8ios_base4InitD1Ev@GLIBCXX_3.4>
  404bbb:	48 8d 15 9e 87 01 00 	lea    0x1879e(%rip),%rdx        # 41d360 <__dso_handle>
  404bc2:	48 8d 35 e7 de 01 00 	lea    0x1dee7(%rip),%rsi        # 422ab0 <_ZStL8__ioinit>
  404bc9:	e8 62 ed ff ff       	callq  403930 <__cxa_atexit@plt>
/home/aliha951/ipdps-artifact/gapbs-master/src/libpfq_bc.h:185
vector<state> curr_queue[NR_THREADS];
  404bce:	48 8d 05 8b b9 01 00 	lea    0x1b98b(%rip),%rax        # 420560 <curr_queue>
_ZNSt12_Vector_baseI5stateSaIS0_EE17_Vector_impl_dataC4Ev():
/usr/include/c++/10/bits/stl_vector.h:98
	: _M_start(), _M_finish(), _M_end_of_storage()
  404bd5:	66 0f ef c0          	pxor   %xmm0,%xmm0
  404bd9:	48 8d 90 00 18 00 00 	lea    0x1800(%rax),%rdx
  404be0:	0f 29 00             	movaps %xmm0,(%rax)
  404be3:	48 83 c0 30          	add    $0x30,%rax
  404be7:	0f 29 40 e0          	movaps %xmm0,-0x20(%rax)
  404beb:	0f 29 40 f0          	movaps %xmm0,-0x10(%rax)
__static_initialization_and_destruction_0():
/home/aliha951/ipdps-artifact/gapbs-master/src/libpfq_bc.h:185
  404bef:	48 39 d0             	cmp    %rdx,%rax
  404bf2:	75 ec                	jne    404be0 <_GLOBAL__sub_I__Z10PrintLabelRKNSt7__cxx1112basic_stringIcSt11char_traitsIcESaIcEEES6_+0x40>
  404bf4:	48 8d 15 65 87 01 00 	lea    0x18765(%rip),%rdx        # 41d360 <__dso_handle>
  404bfb:	31 f6                	xor    %esi,%esi
  404bfd:	48 8d 3d 1c 02 00 00 	lea    0x21c(%rip),%rdi        # 404e20 <__tcf_0>
  404c04:	e8 27 ed ff ff       	callq  403930 <__cxa_atexit@plt>
/home/aliha951/ipdps-artifact/gapbs-master/src/libpfq_bc.h:186
vector<state> shipped_queue[NR_THREADS];
  404c09:	48 8d 05 50 a1 01 00 	lea    0x1a150(%rip),%rax        # 41ed60 <shipped_queue>
_ZNSt12_Vector_baseI5stateSaIS0_EE17_Vector_impl_dataC4Ev():
/usr/include/c++/10/bits/stl_vector.h:98
  404c10:	66 0f ef c0          	pxor   %xmm0,%xmm0
  404c14:	48 8d 90 00 18 00 00 	lea    0x1800(%rax),%rdx
  404c1b:	0f 1f 44 00 00       	nopl   0x0(%rax,%rax,1)
  404c20:	0f 29 00             	movaps %xmm0,(%rax)
  404c23:	48 83 c0 30          	add    $0x30,%rax
  404c27:	0f 29 40 e0          	movaps %xmm0,-0x20(%rax)
  404c2b:	0f 29 40 f0          	movaps %xmm0,-0x10(%rax)
__static_initialization_and_destruction_0():
/home/aliha951/ipdps-artifact/gapbs-master/src/libpfq_bc.h:186
  404c2f:	48 39 d0             	cmp    %rdx,%rax
  404c32:	75 ec                	jne    404c20 <_GLOBAL__sub_I__Z10PrintLabelRKNSt7__cxx1112basic_stringIcSt11char_traitsIcESaIcEEES6_+0x80>
  404c34:	48 8d 15 25 87 01 00 	lea    0x18725(%rip),%rdx        # 41d360 <__dso_handle>
  404c3b:	31 f6                	xor    %esi,%esi
  404c3d:	48 8d 3d 8c 01 00 00 	lea    0x18c(%rip),%rdi        # 404dd0 <__tcf_1>
  404c44:	e8 e7 ec ff ff       	callq  403930 <__cxa_atexit@plt>
/home/aliha951/ipdps-artifact/gapbs-master/src/libpfq_bc.h:187
vector<state> ready_queue[NR_THREADS];
  404c49:	48 8d 05 10 89 01 00 	lea    0x18910(%rip),%rax        # 41d560 <ready_queue>
_ZNSt12_Vector_baseI5stateSaIS0_EE17_Vector_impl_dataC4Ev():
/usr/include/c++/10/bits/stl_vector.h:98
  404c50:	66 0f ef c0          	pxor   %xmm0,%xmm0
  404c54:	48 8d 90 00 18 00 00 	lea    0x1800(%rax),%rdx
  404c5b:	0f 1f 44 00 00       	nopl   0x0(%rax,%rax,1)
  404c60:	0f 29 00             	movaps %xmm0,(%rax)
  404c63:	48 83 c0 30          	add    $0x30,%rax
  404c67:	0f 29 40 e0          	movaps %xmm0,-0x20(%rax)
  404c6b:	0f 29 40 f0          	movaps %xmm0,-0x10(%rax)
__static_initialization_and_destruction_0():
/home/aliha951/ipdps-artifact/gapbs-master/src/libpfq_bc.h:187
  404c6f:	48 39 d0             	cmp    %rdx,%rax
  404c72:	75 ec                	jne    404c60 <_GLOBAL__sub_I__Z10PrintLabelRKNSt7__cxx1112basic_stringIcSt11char_traitsIcESaIcEEES6_+0xc0>
  404c74:	48 8d 15 e5 86 01 00 	lea    0x186e5(%rip),%rdx        # 41d360 <__dso_handle>
  404c7b:	31 f6                	xor    %esi,%esi
  404c7d:	48 8d 3d fc 00 00 00 	lea    0xfc(%rip),%rdi        # 404d80 <__tcf_2>
_GLOBAL__sub_I__Z10PrintLabelRKNSt7__cxx1112basic_stringIcSt11char_traitsIcESaIcEEES6_():
/home/aliha951/ipdps-artifact/gapbs-master/src/bc_batching_nopt.cc:363
  404c84:	48 83 c4 08          	add    $0x8,%rsp
__static_initialization_and_destruction_0():
/home/aliha951/ipdps-artifact/gapbs-master/src/libpfq_bc.h:187
  404c88:	e9 a3 ec ff ff       	jmpq   403930 <__cxa_atexit@plt>
_GLOBAL__sub_I__Z10PrintLabelRKNSt7__cxx1112basic_stringIcSt11char_traitsIcESaIcEEES6_():
  404c8d:	0f 1f 00             	nopl   (%rax)

0000000000404c90 <_start>:
_start():
  404c90:	f3 0f 1e fa          	endbr64 
  404c94:	31 ed                	xor    %ebp,%ebp
  404c96:	49 89 d1             	mov    %rdx,%r9
  404c99:	5e                   	pop    %rsi
  404c9a:	48 89 e2             	mov    %rsp,%rdx
  404c9d:	48 83 e4 f0          	and    $0xfffffffffffffff0,%rsp
  404ca1:	50                   	push   %rax
  404ca2:	54                   	push   %rsp
  404ca3:	49 c7 c0 b0 67 41 00 	mov    $0x4167b0,%r8
  404caa:	48 c7 c1 40 67 41 00 	mov    $0x416740,%rcx
  404cb1:	48 c7 c7 40 40 40 00 	mov    $0x404040,%rdi
  404cb8:	ff 15 2a 83 01 00    	callq  *0x1832a(%rip)        # 41cfe8 <__libc_start_main@GLIBC_2.2.5>
  404cbe:	f4                   	hlt    
  404cbf:	90                   	nop

0000000000404cc0 <_dl_relocate_static_pie>:
_dl_relocate_static_pie():
  404cc0:	f3 0f 1e fa          	endbr64 
  404cc4:	c3                   	retq   
  404cc5:	66 2e 0f 1f 84 00 00 	nopw   %cs:0x0(%rax,%rax,1)
  404ccc:	00 00 00 
  404ccf:	90                   	nop

0000000000404cd0 <deregister_tm_clones>:
deregister_tm_clones():
  404cd0:	b8 88 d3 41 00       	mov    $0x41d388,%eax
  404cd5:	48 3d 88 d3 41 00    	cmp    $0x41d388,%rax
  404cdb:	74 13                	je     404cf0 <deregister_tm_clones+0x20>
  404cdd:	b8 00 00 00 00       	mov    $0x0,%eax
  404ce2:	48 85 c0             	test   %rax,%rax
  404ce5:	74 09                	je     404cf0 <deregister_tm_clones+0x20>
  404ce7:	bf 88 d3 41 00       	mov    $0x41d388,%edi
  404cec:	ff e0                	jmpq   *%rax
  404cee:	66 90                	xchg   %ax,%ax
  404cf0:	c3                   	retq   
  404cf1:	66 66 2e 0f 1f 84 00 	data16 nopw %cs:0x0(%rax,%rax,1)
  404cf8:	00 00 00 00 
  404cfc:	0f 1f 40 00          	nopl   0x0(%rax)

0000000000404d00 <register_tm_clones>:
register_tm_clones():
  404d00:	be 88 d3 41 00       	mov    $0x41d388,%esi
  404d05:	48 81 ee 88 d3 41 00 	sub    $0x41d388,%rsi
  404d0c:	48 89 f0             	mov    %rsi,%rax
  404d0f:	48 c1 ee 3f          	shr    $0x3f,%rsi
  404d13:	48 c1 f8 03          	sar    $0x3,%rax
  404d17:	48 01 c6             	add    %rax,%rsi
  404d1a:	48 d1 fe             	sar    %rsi
  404d1d:	74 11                	je     404d30 <register_tm_clones+0x30>
  404d1f:	b8 00 00 00 00       	mov    $0x0,%eax
  404d24:	48 85 c0             	test   %rax,%rax
  404d27:	74 07                	je     404d30 <register_tm_clones+0x30>
  404d29:	bf 88 d3 41 00       	mov    $0x41d388,%edi
  404d2e:	ff e0                	jmpq   *%rax
  404d30:	c3                   	retq   
  404d31:	66 66 2e 0f 1f 84 00 	data16 nopw %cs:0x0(%rax,%rax,1)
  404d38:	00 00 00 00 
  404d3c:	0f 1f 40 00          	nopl   0x0(%rax)

0000000000404d40 <__do_global_dtors_aux>:
__do_global_dtors_aux():
  404d40:	f3 0f 1e fa          	endbr64 
  404d44:	80 3d dd 87 01 00 00 	cmpb   $0x0,0x187dd(%rip)        # 41d528 <completed.0>
  404d4b:	75 13                	jne    404d60 <__do_global_dtors_aux+0x20>
  404d4d:	55                   	push   %rbp
  404d4e:	48 89 e5             	mov    %rsp,%rbp
  404d51:	e8 7a ff ff ff       	callq  404cd0 <deregister_tm_clones>
  404d56:	c6 05 cb 87 01 00 01 	movb   $0x1,0x187cb(%rip)        # 41d528 <completed.0>
  404d5d:	5d                   	pop    %rbp
  404d5e:	c3                   	retq   
  404d5f:	90                   	nop
  404d60:	c3                   	retq   
  404d61:	66 66 2e 0f 1f 84 00 	data16 nopw %cs:0x0(%rax,%rax,1)
  404d68:	00 00 00 00 
  404d6c:	0f 1f 40 00          	nopl   0x0(%rax)

0000000000404d70 <frame_dummy>:
frame_dummy():
  404d70:	f3 0f 1e fa          	endbr64 
  404d74:	eb 8a                	jmp    404d00 <register_tm_clones>
  404d76:	66 2e 0f 1f 84 00 00 	nopw   %cs:0x0(%rax,%rax,1)
  404d7d:	00 00 00 

0000000000404d80 <__tcf_2>:
__tcf_2():
/home/aliha951/ipdps-artifact/gapbs-master/src/libpfq_bc.h:187
  404d80:	f3 0f 1e fa          	endbr64 
  404d84:	55                   	push   %rbp
  404d85:	53                   	push   %rbx
  404d86:	48 8d 1d bb 9f 01 00 	lea    0x19fbb(%rip),%rbx        # 41ed48 <ready_queue+0x17e8>
  404d8d:	48 8d ab 18 e8 ff ff 	lea    -0x17e8(%rbx),%rbp
  404d94:	48 83 ec 08          	sub    $0x8,%rsp
  404d98:	eb 17                	jmp    404db1 <__tcf_2+0x31>
  404d9a:	66 0f 1f 44 00 00    	nopw   0x0(%rax,%rax,1)
_ZN9__gnu_cxx13new_allocatorI5stateE10deallocateEPS1_m():
/usr/include/c++/10/ext/new_allocator.h:139
  404da0:	e8 bb eb ff ff       	callq  403960 <_ZdlPv@plt>
__tcf_2():
/home/aliha951/ipdps-artifact/gapbs-master/src/libpfq_bc.h:187
  404da5:	48 8d 43 e8          	lea    -0x18(%rbx),%rax
  404da9:	48 39 eb             	cmp    %rbp,%rbx
  404dac:	74 14                	je     404dc2 <__tcf_2+0x42>
  404dae:	48 89 c3             	mov    %rax,%rbx
_ZNSt6vectorI5stateSaIS0_EED4Ev():
/usr/include/c++/10/bits/stl_vector.h:680 (discriminator 3)
	std::_Destroy(this->_M_impl._M_start, this->_M_impl._M_finish,
  404db1:	48 8b 3b             	mov    (%rbx),%rdi
_ZNSt12_Vector_baseI5stateSaIS0_EE13_M_deallocateEPS0_m():
/usr/include/c++/10/bits/stl_vector.h:353 (discriminator 3)
	if (__p)
  404db4:	48 85 ff             	test   %rdi,%rdi
  404db7:	75 e7                	jne    404da0 <__tcf_2+0x20>
__tcf_2():
/home/aliha951/ipdps-artifact/gapbs-master/src/libpfq_bc.h:187
  404db9:	48 8d 43 e8          	lea    -0x18(%rbx),%rax
  404dbd:	48 39 eb             	cmp    %rbp,%rbx
  404dc0:	75 ec                	jne    404dae <__tcf_2+0x2e>
  404dc2:	48 83 c4 08          	add    $0x8,%rsp
  404dc6:	5b                   	pop    %rbx
  404dc7:	5d                   	pop    %rbp
  404dc8:	c3                   	retq   
  404dc9:	0f 1f 80 00 00 00 00 	nopl   0x0(%rax)

0000000000404dd0 <__tcf_1>:
__tcf_1():
/home/aliha951/ipdps-artifact/gapbs-master/src/libpfq_bc.h:186
vector<state> shipped_queue[NR_THREADS];
  404dd0:	f3 0f 1e fa          	endbr64 
  404dd4:	55                   	push   %rbp
  404dd5:	53                   	push   %rbx
  404dd6:	48 8d 1d 6b b7 01 00 	lea    0x1b76b(%rip),%rbx        # 420548 <shipped_queue+0x17e8>
  404ddd:	48 8d ab 18 e8 ff ff 	lea    -0x17e8(%rbx),%rbp
  404de4:	48 83 ec 08          	sub    $0x8,%rsp
  404de8:	eb 17                	jmp    404e01 <__tcf_1+0x31>
  404dea:	66 0f 1f 44 00 00    	nopw   0x0(%rax,%rax,1)
_ZN9__gnu_cxx13new_allocatorI5stateE10deallocateEPS1_m():
/usr/include/c++/10/ext/new_allocator.h:139
  404df0:	e8 6b eb ff ff       	callq  403960 <_ZdlPv@plt>
__tcf_1():
/home/aliha951/ipdps-artifact/gapbs-master/src/libpfq_bc.h:186
  404df5:	48 8d 43 e8          	lea    -0x18(%rbx),%rax
  404df9:	48 39 eb             	cmp    %rbp,%rbx
  404dfc:	74 14                	je     404e12 <__tcf_1+0x42>
  404dfe:	48 89 c3             	mov    %rax,%rbx
_ZNSt6vectorI5stateSaIS0_EED4Ev():
/usr/include/c++/10/bits/stl_vector.h:680 (discriminator 3)
	std::_Destroy(this->_M_impl._M_start, this->_M_impl._M_finish,
  404e01:	48 8b 3b             	mov    (%rbx),%rdi
_ZNSt12_Vector_baseI5stateSaIS0_EE13_M_deallocateEPS0_m():
/usr/include/c++/10/bits/stl_vector.h:353 (discriminator 3)
	if (__p)
  404e04:	48 85 ff             	test   %rdi,%rdi
  404e07:	75 e7                	jne    404df0 <__tcf_1+0x20>
__tcf_1():
/home/aliha951/ipdps-artifact/gapbs-master/src/libpfq_bc.h:186
  404e09:	48 8d 43 e8          	lea    -0x18(%rbx),%rax
  404e0d:	48 39 eb             	cmp    %rbp,%rbx
  404e10:	75 ec                	jne    404dfe <__tcf_1+0x2e>
  404e12:	48 83 c4 08          	add    $0x8,%rsp
  404e16:	5b                   	pop    %rbx
  404e17:	5d                   	pop    %rbp
  404e18:	c3                   	retq   
  404e19:	0f 1f 80 00 00 00 00 	nopl   0x0(%rax)

0000000000404e20 <__tcf_0>:
__tcf_0():
/home/aliha951/ipdps-artifact/gapbs-master/src/libpfq_bc.h:185
vector<state> curr_queue[NR_THREADS];
  404e20:	f3 0f 1e fa          	endbr64 
  404e24:	55                   	push   %rbp
  404e25:	53                   	push   %rbx
  404e26:	48 8d 1d 1b cf 01 00 	lea    0x1cf1b(%rip),%rbx        # 421d48 <curr_queue+0x17e8>
  404e2d:	48 8d ab 18 e8 ff ff 	lea    -0x17e8(%rbx),%rbp
  404e34:	48 83 ec 08          	sub    $0x8,%rsp
  404e38:	eb 17                	jmp    404e51 <__tcf_0+0x31>
  404e3a:	66 0f 1f 44 00 00    	nopw   0x0(%rax,%rax,1)
_ZN9__gnu_cxx13new_allocatorI5stateE10deallocateEPS1_m():
/usr/include/c++/10/ext/new_allocator.h:139
  404e40:	e8 1b eb ff ff       	callq  403960 <_ZdlPv@plt>
__tcf_0():
/home/aliha951/ipdps-artifact/gapbs-master/src/libpfq_bc.h:185
  404e45:	48 8d 43 e8          	lea    -0x18(%rbx),%rax
  404e49:	48 39 eb             	cmp    %rbp,%rbx
  404e4c:	74 14                	je     404e62 <__tcf_0+0x42>
  404e4e:	48 89 c3             	mov    %rax,%rbx
_ZNSt6vectorI5stateSaIS0_EED4Ev():
/usr/include/c++/10/bits/stl_vector.h:680 (discriminator 3)
	std::_Destroy(this->_M_impl._M_start, this->_M_impl._M_finish,
  404e51:	48 8b 3b             	mov    (%rbx),%rdi
_ZNSt12_Vector_baseI5stateSaIS0_EE13_M_deallocateEPS0_m():
/usr/include/c++/10/bits/stl_vector.h:353 (discriminator 3)
	if (__p)
  404e54:	48 85 ff             	test   %rdi,%rdi
  404e57:	75 e7                	jne    404e40 <__tcf_0+0x20>
__tcf_0():
/home/aliha951/ipdps-artifact/gapbs-master/src/libpfq_bc.h:185
  404e59:	48 8d 43 e8          	lea    -0x18(%rbx),%rax
  404e5d:	48 39 eb             	cmp    %rbp,%rbx
  404e60:	75 ec                	jne    404e4e <__tcf_0+0x2e>
  404e62:	48 83 c4 08          	add    $0x8,%rsp
  404e66:	5b                   	pop    %rbx
  404e67:	5d                   	pop    %rbp
  404e68:	c3                   	retq   
  404e69:	0f 1f 80 00 00 00 00 	nopl   0x0(%rax)

0000000000404e70 <_ZL13get_family_idi>:
_ZL13get_family_idi():
/home/aliha951/ipdps-artifact/gapbs-master/src/taskstats_helper.h:30
	struct genlmsghdr g;
	char buf[512];
};

/* Ask generic netlink for the family id of TASKSTATS */
static int get_family_id(int sd) {
  404e70:	41 54                	push   %r12
/home/aliha951/ipdps-artifact/gapbs-master/src/taskstats_helper.h:32
	struct msgtemplate req = {0};
	struct msgtemplate ans = {0};
  404e72:	b9 42 00 00 00       	mov    $0x42,%ecx
/home/aliha951/ipdps-artifact/gapbs-master/src/taskstats_helper.h:30
static int get_family_id(int sd) {
  404e77:	55                   	push   %rbp
  404e78:	89 fd                	mov    %edi,%ebp
  404e7a:	48 81 ec 48 04 00 00 	sub    $0x448,%rsp
  404e81:	64 48 8b 04 25 28 00 	mov    %fs:0x28,%rax
  404e88:	00 00 
  404e8a:	48 89 84 24 38 04 00 	mov    %rax,0x438(%rsp)
  404e91:	00 
  404e92:	31 c0                	xor    %eax,%eax
/home/aliha951/ipdps-artifact/gapbs-master/src/taskstats_helper.h:32
	struct msgtemplate ans = {0};
  404e94:	4c 8d a4 24 20 02 00 	lea    0x220(%rsp),%r12
  404e9b:	00 
  404e9c:	4c 89 e7             	mov    %r12,%rdi
  404e9f:	f3 48 ab             	rep stos %rax,%es:(%rdi)
/home/aliha951/ipdps-artifact/gapbs-master/src/taskstats_helper.h:31
	struct msgtemplate req = {0};
  404ea2:	b9 42 00 00 00       	mov    $0x42,%ecx
/home/aliha951/ipdps-artifact/gapbs-master/src/taskstats_helper.h:32
	struct msgtemplate ans = {0};
  404ea7:	c7 07 00 00 00 00    	movl   $0x0,(%rdi)
/home/aliha951/ipdps-artifact/gapbs-master/src/taskstats_helper.h:31
	struct msgtemplate req = {0};
  404ead:	48 89 e7             	mov    %rsp,%rdi
  404eb0:	f3 48 ab             	rep stos %rax,%es:(%rdi)
/home/aliha951/ipdps-artifact/gapbs-master/src/taskstats_helper.h:36
	struct nlattr *na;
	int rep_len;

	req.n.nlmsg_len = NLMSG_LENGTH(GENL_HDRLEN);
  404eb3:	48 b8 14 00 00 00 10 	movabs $0x1001000000014,%rax
  404eba:	00 01 00 
  404ebd:	48 89 04 24          	mov    %rax,(%rsp)
/home/aliha951/ipdps-artifact/gapbs-master/src/taskstats_helper.h:31
	struct msgtemplate req = {0};
  404ec1:	c7 07 00 00 00 00    	movl   $0x0,(%rdi)
/home/aliha951/ipdps-artifact/gapbs-master/src/taskstats_helper.h:40
	req.n.nlmsg_type = GENL_ID_CTRL;
	req.n.nlmsg_flags = NLM_F_REQUEST;
	req.n.nlmsg_seq = 0;
	req.n.nlmsg_pid = getpid();
  404ec7:	e8 84 ec ff ff       	callq  403b50 <getpid@plt>
/usr/include/x86_64-linux-gnu/bits/string_fortified.h:34

__fortify_function void *
__NTH (memcpy (void *__restrict __dest, const void *__restrict __src,
	       size_t __len))
{
  return __builtin___memcpy_chk (__dest, __src, __len, __bos0 (__dest));
  404ecc:	ba 53 00 00 00       	mov    $0x53,%edx
/home/aliha951/ipdps-artifact/gapbs-master/src/taskstats_helper.h:50
	na->nla_type = CTRL_ATTR_FAMILY_NAME;
	na->nla_len = NLA_HDRLEN + strlen(TASKSTATS_GENL_NAME) + 1;
	memcpy(NLA_DATA(na), TASKSTATS_GENL_NAME, strlen(TASKSTATS_GENL_NAME) + 1);
	req.n.nlmsg_len += NLMSG_ALIGN(na->nla_len);

	if (send(sd, &req, req.n.nlmsg_len, 0) < 0)
  404ed1:	31 c9                	xor    %ecx,%ecx
memcpy():
/usr/include/x86_64-linux-gnu/bits/string_fortified.h:34
  404ed3:	48 89 e6             	mov    %rsp,%rsi
_ZL13get_family_idi():
/home/aliha951/ipdps-artifact/gapbs-master/src/taskstats_helper.h:40
	req.n.nlmsg_pid = getpid();
  404ed6:	89 44 24 0c          	mov    %eax,0xc(%rsp)
/home/aliha951/ipdps-artifact/gapbs-master/src/taskstats_helper.h:41
	req.g.cmd = CTRL_CMD_GETFAMILY;
  404eda:	b8 03 01 00 00       	mov    $0x103,%eax
/home/aliha951/ipdps-artifact/gapbs-master/src/taskstats_helper.h:50
	if (send(sd, &req, req.n.nlmsg_len, 0) < 0)
  404edf:	89 ef                	mov    %ebp,%edi
/home/aliha951/ipdps-artifact/gapbs-master/src/taskstats_helper.h:41
	req.g.cmd = CTRL_CMD_GETFAMILY;
  404ee1:	66 89 44 24 10       	mov    %ax,0x10(%rsp)
memcpy():
/usr/include/x86_64-linux-gnu/bits/string_fortified.h:34
  404ee6:	48 b8 54 41 53 4b 53 	movabs $0x544154534b534154,%rax
  404eed:	54 41 54 
  404ef0:	48 89 44 24 18       	mov    %rax,0x18(%rsp)
_ZL13get_family_idi():
/home/aliha951/ipdps-artifact/gapbs-master/src/taskstats_helper.h:48
	req.n.nlmsg_len += NLMSG_ALIGN(na->nla_len);
  404ef5:	8b 04 24             	mov    (%rsp),%eax
memcpy():
/usr/include/x86_64-linux-gnu/bits/string_fortified.h:34
  404ef8:	66 89 54 24 20       	mov    %dx,0x20(%rsp)
_ZL13get_family_idi():
/home/aliha951/ipdps-artifact/gapbs-master/src/taskstats_helper.h:48
  404efd:	8d 50 10             	lea    0x10(%rax),%edx
/home/aliha951/ipdps-artifact/gapbs-master/src/taskstats_helper.h:46
	na->nla_len = NLA_HDRLEN + strlen(TASKSTATS_GENL_NAME) + 1;
  404f00:	c7 44 24 14 0e 00 02 	movl   $0x2000e,0x14(%rsp)
  404f07:	00 
/home/aliha951/ipdps-artifact/gapbs-master/src/taskstats_helper.h:48
	req.n.nlmsg_len += NLMSG_ALIGN(na->nla_len);
  404f08:	89 14 24             	mov    %edx,(%rsp)
/home/aliha951/ipdps-artifact/gapbs-master/src/taskstats_helper.h:50
	if (send(sd, &req, req.n.nlmsg_len, 0) < 0)
  404f0b:	e8 40 e9 ff ff       	callq  403850 <send@plt>
  404f10:	48 85 c0             	test   %rax,%rax
  404f13:	78 6b                	js     404f80 <_ZL13get_family_idi+0x110>
/usr/include/x86_64-linux-gnu/bits/socket2.h:44
	return __recv_chk (__fd, __buf, __n, __bos0 (__buf), __flags);

      if (__n > __bos0 (__buf))
	return __recv_chk_warn (__fd, __buf, __n, __bos0 (__buf), __flags);
    }
  return __recv_alias (__fd, __buf, __n, __flags);
  404f15:	31 c9                	xor    %ecx,%ecx
recv():
/usr/include/x86_64-linux-gnu/bits/socket2.h:44
  404f17:	ba 14 02 00 00       	mov    $0x214,%edx
  404f1c:	4c 89 e6             	mov    %r12,%rsi
  404f1f:	89 ef                	mov    %ebp,%edi
  404f21:	e8 ca e8 ff ff       	callq  4037f0 <recv@plt>
_ZL13get_family_idi():
/home/aliha951/ipdps-artifact/gapbs-master/src/taskstats_helper.h:54
		return -1;

	rep_len = recv(sd, &ans, sizeof(ans), 0);
	if (rep_len < 0 || ans.n.nlmsg_type == NLMSG_ERROR)
  404f26:	85 c0                	test   %eax,%eax
  404f28:	78 56                	js     404f80 <_ZL13get_family_idi+0x110>
/home/aliha951/ipdps-artifact/gapbs-master/src/taskstats_helper.h:54 (discriminator 1)
  404f2a:	66 83 bc 24 24 02 00 	cmpw   $0x2,0x224(%rsp)
  404f31:	00 02 
  404f33:	74 4b                	je     404f80 <_ZL13get_family_idi+0x110>
/home/aliha951/ipdps-artifact/gapbs-master/src/taskstats_helper.h:59
		return -1;

	/* First attr is family name we sent, second should be ID */
	na = (struct nlattr *) GENLMSG_DATA(&ans.n);
	na = (struct nlattr *) ((char*)na + NLA_ALIGN(na->nla_len));
  404f35:	0f b7 84 24 34 02 00 	movzwl 0x234(%rsp),%eax
  404f3c:	00 
  404f3d:	83 c0 03             	add    $0x3,%eax
  404f40:	25 fc ff 01 00       	and    $0x1fffc,%eax
  404f45:	48 8d 84 04 34 02 00 	lea    0x234(%rsp,%rax,1),%rax
  404f4c:	00 
/home/aliha951/ipdps-artifact/gapbs-master/src/taskstats_helper.h:60
	if (na->nla_type == CTRL_ATTR_FAMILY_ID)
  404f4d:	66 83 78 02 01       	cmpw   $0x1,0x2(%rax)
  404f52:	75 2c                	jne    404f80 <_ZL13get_family_idi+0x110>
/home/aliha951/ipdps-artifact/gapbs-master/src/taskstats_helper.h:61
		return *(__u16 *) NLA_DATA(na);
  404f54:	0f b7 40 04          	movzwl 0x4(%rax),%eax
/home/aliha951/ipdps-artifact/gapbs-master/src/taskstats_helper.h:63
	return -1;
}
  404f58:	48 8b b4 24 38 04 00 	mov    0x438(%rsp),%rsi
  404f5f:	00 
  404f60:	64 48 2b 34 25 28 00 	sub    %fs:0x28,%rsi
  404f67:	00 00 
  404f69:	75 1c                	jne    404f87 <_ZL13get_family_idi+0x117>
  404f6b:	48 81 c4 48 04 00 00 	add    $0x448,%rsp
  404f72:	5d                   	pop    %rbp
  404f73:	41 5c                	pop    %r12
  404f75:	c3                   	retq   
  404f76:	66 2e 0f 1f 84 00 00 	nopw   %cs:0x0(%rax,%rax,1)
  404f7d:	00 00 00 
/home/aliha951/ipdps-artifact/gapbs-master/src/taskstats_helper.h:51
		return -1;
  404f80:	b8 ff ff ff ff       	mov    $0xffffffff,%eax
  404f85:	eb d1                	jmp    404f58 <_ZL13get_family_idi+0xe8>
/home/aliha951/ipdps-artifact/gapbs-master/src/taskstats_helper.h:63
}
  404f87:	e8 44 ea ff ff       	callq  4039d0 <__stack_chk_fail@plt>
  404f8c:	0f 1f 40 00          	nopl   0x0(%rax)

0000000000404f90 <_ZL21request_taskstats_pidiiiP9taskstatsPm>:
_ZL21request_taskstats_pidiiiP9taskstatsPm():
/home/aliha951/ipdps-artifact/gapbs-master/src/taskstats_helper.h:80
		return -1;
	}
	return sd;
}

static int request_taskstats_pid(int sd, int family_id, pid_t pid, struct taskstats *out_ts, size_t *out_len) {
  404f90:	41 57                	push   %r15
  404f92:	41 89 d7             	mov    %edx,%r15d
  404f95:	41 56                	push   %r14
  404f97:	41 55                	push   %r13
  404f99:	41 89 fd             	mov    %edi,%r13d
  404f9c:	41 54                	push   %r12
  404f9e:	49 89 cc             	mov    %rcx,%r12
/home/aliha951/ipdps-artifact/gapbs-master/src/taskstats_helper.h:81
	struct msgtemplate req = {0};
  404fa1:	b9 42 00 00 00       	mov    $0x42,%ecx
/home/aliha951/ipdps-artifact/gapbs-master/src/taskstats_helper.h:80
static int request_taskstats_pid(int sd, int family_id, pid_t pid, struct taskstats *out_ts, size_t *out_len) {
  404fa6:	55                   	push   %rbp
/usr/include/x86_64-linux-gnu/bits/string_fortified.h:71
    {
      __warn_memset_zero_len ();
      return __dest;
    }
#endif
  return __builtin___memset_chk (__dest, __ch, __len, __bos0 (__dest));
  404fa7:	49 8d 6c 24 08       	lea    0x8(%r12),%rbp
/home/aliha951/ipdps-artifact/gapbs-master/src/taskstats_helper.h:80
  404fac:	53                   	push   %rbx
  404fad:	4c 89 c3             	mov    %r8,%rbx
  404fb0:	48 81 ec 48 04 00 00 	sub    $0x448,%rsp
  404fb7:	64 48 8b 04 25 28 00 	mov    %fs:0x28,%rax
  404fbe:	00 00 
  404fc0:	48 89 84 24 38 04 00 	mov    %rax,0x438(%rsp)
  404fc7:	00 
  404fc8:	31 c0                	xor    %eax,%eax
/home/aliha951/ipdps-artifact/gapbs-master/src/taskstats_helper.h:81
	struct msgtemplate req = {0};
  404fca:	48 89 e7             	mov    %rsp,%rdi
/home/aliha951/ipdps-artifact/gapbs-master/src/taskstats_helper.h:85
	struct msgtemplate rep = {0};
	struct nlattr *na;

	*out_len = 0;
  404fcd:	49 c7 00 00 00 00 00 	movq   $0x0,(%r8)
/home/aliha951/ipdps-artifact/gapbs-master/src/taskstats_helper.h:82
	struct msgtemplate rep = {0};
  404fd4:	4c 8d b4 24 20 02 00 	lea    0x220(%rsp),%r14
  404fdb:	00 
/home/aliha951/ipdps-artifact/gapbs-master/src/taskstats_helper.h:81
	struct msgtemplate req = {0};
  404fdc:	f3 48 ab             	rep stos %rax,%es:(%rdi)
/home/aliha951/ipdps-artifact/gapbs-master/src/taskstats_helper.h:82
	struct msgtemplate rep = {0};
  404fdf:	b9 42 00 00 00       	mov    $0x42,%ecx
/home/aliha951/ipdps-artifact/gapbs-master/src/taskstats_helper.h:81
	struct msgtemplate req = {0};
  404fe4:	c7 07 00 00 00 00    	movl   $0x0,(%rdi)
/home/aliha951/ipdps-artifact/gapbs-master/src/taskstats_helper.h:82
	struct msgtemplate rep = {0};
  404fea:	4c 89 f7             	mov    %r14,%rdi
  404fed:	f3 48 ab             	rep stos %rax,%es:(%rdi)
memset():
/usr/include/x86_64-linux-gnu/bits/string_fortified.h:71
  404ff0:	4c 89 e1             	mov    %r12,%rcx
_ZL21request_taskstats_pidiiiP9taskstatsPm():
/home/aliha951/ipdps-artifact/gapbs-master/src/taskstats_helper.h:82
  404ff3:	c7 07 00 00 00 00    	movl   $0x0,(%rdi)
memset():
/usr/include/x86_64-linux-gnu/bits/string_fortified.h:71
  404ff9:	48 89 ef             	mov    %rbp,%rdi
  404ffc:	48 83 e7 f8          	and    $0xfffffffffffffff8,%rdi
  405000:	49 c7 04 24 00 00 00 	movq   $0x0,(%r12)
  405007:	00 
  405008:	49 c7 84 24 a8 01 00 	movq   $0x0,0x1a8(%r12)
  40500f:	00 00 00 00 00 
  405014:	48 29 f9             	sub    %rdi,%rcx
  405017:	81 c1 b0 01 00 00    	add    $0x1b0,%ecx
  40501d:	c1 e9 03             	shr    $0x3,%ecx
  405020:	f3 48 ab             	rep stos %rax,%es:(%rdi)
_ZL21request_taskstats_pidiiiP9taskstatsPm():
/home/aliha951/ipdps-artifact/gapbs-master/src/taskstats_helper.h:90
	memset(out_ts, 0, sizeof(*out_ts));

	req.n.nlmsg_len = NLMSG_LENGTH(GENL_HDRLEN);
	req.n.nlmsg_type = family_id;
	req.n.nlmsg_flags = NLM_F_REQUEST;
  405023:	b8 01 00 00 00       	mov    $0x1,%eax
/home/aliha951/ipdps-artifact/gapbs-master/src/taskstats_helper.h:89
	req.n.nlmsg_type = family_id;
  405028:	66 89 74 24 04       	mov    %si,0x4(%rsp)
/home/aliha951/ipdps-artifact/gapbs-master/src/taskstats_helper.h:88
	req.n.nlmsg_len = NLMSG_LENGTH(GENL_HDRLEN);
  40502d:	c7 04 24 14 00 00 00 	movl   $0x14,(%rsp)
/home/aliha951/ipdps-artifact/gapbs-master/src/taskstats_helper.h:90
	req.n.nlmsg_flags = NLM_F_REQUEST;
  405034:	66 89 44 24 06       	mov    %ax,0x6(%rsp)
/home/aliha951/ipdps-artifact/gapbs-master/src/taskstats_helper.h:91
	req.n.nlmsg_seq = 1;
  405039:	c7 44 24 08 01 00 00 	movl   $0x1,0x8(%rsp)
  405040:	00 
/home/aliha951/ipdps-artifact/gapbs-master/src/taskstats_helper.h:92
	req.n.nlmsg_pid = getpid();
  405041:	e8 0a eb ff ff       	callq  403b50 <getpid@plt>
/home/aliha951/ipdps-artifact/gapbs-master/src/taskstats_helper.h:93
	req.g.cmd = TASKSTATS_CMD_GET;
  405046:	ba 01 0e 00 00       	mov    $0xe01,%edx
/home/aliha951/ipdps-artifact/gapbs-master/src/taskstats_helper.h:103
  na->nla_type = TASKSTATS_CMD_ATTR_TGID; // Use TGID to get stats for thread group (process) instead of single thread
	na->nla_len = NLA_HDRLEN + sizeof(pid);
	memcpy(NLA_DATA(na), &pid, sizeof(pid));
	req.n.nlmsg_len += NLMSG_ALIGN(na->nla_len);

	if (send(sd, &req, req.n.nlmsg_len, 0) < 0)
  40504b:	31 c9                	xor    %ecx,%ecx
  40504d:	48 89 e6             	mov    %rsp,%rsi
/home/aliha951/ipdps-artifact/gapbs-master/src/taskstats_helper.h:92
	req.n.nlmsg_pid = getpid();
  405050:	89 44 24 0c          	mov    %eax,0xc(%rsp)
/home/aliha951/ipdps-artifact/gapbs-master/src/taskstats_helper.h:101
	req.n.nlmsg_len += NLMSG_ALIGN(na->nla_len);
  405054:	8b 04 24             	mov    (%rsp),%eax
/home/aliha951/ipdps-artifact/gapbs-master/src/taskstats_helper.h:103
	if (send(sd, &req, req.n.nlmsg_len, 0) < 0)
  405057:	44 89 ef             	mov    %r13d,%edi
/home/aliha951/ipdps-artifact/gapbs-master/src/taskstats_helper.h:93
	req.g.cmd = TASKSTATS_CMD_GET;
  40505a:	66 89 54 24 10       	mov    %dx,0x10(%rsp)
/home/aliha951/ipdps-artifact/gapbs-master/src/taskstats_helper.h:101
	req.n.nlmsg_len += NLMSG_ALIGN(na->nla_len);
  40505f:	8d 50 08             	lea    0x8(%rax),%edx
/home/aliha951/ipdps-artifact/gapbs-master/src/taskstats_helper.h:99
	na->nla_len = NLA_HDRLEN + sizeof(pid);
  405062:	c7 44 24 14 08 00 02 	movl   $0x20008,0x14(%rsp)
  405069:	00 
/usr/include/x86_64-linux-gnu/bits/string_fortified.h:34
  return __builtin___memcpy_chk (__dest, __src, __len, __bos0 (__dest));
  40506a:	44 89 7c 24 18       	mov    %r15d,0x18(%rsp)
/home/aliha951/ipdps-artifact/gapbs-master/src/taskstats_helper.h:101
	req.n.nlmsg_len += NLMSG_ALIGN(na->nla_len);
  40506f:	89 14 24             	mov    %edx,(%rsp)
/home/aliha951/ipdps-artifact/gapbs-master/src/taskstats_helper.h:103
	if (send(sd, &req, req.n.nlmsg_len, 0) < 0)
  405072:	e8 d9 e7 ff ff       	callq  403850 <send@plt>
  405077:	48 85 c0             	test   %rax,%rax
  40507a:	0f 88 18 01 00 00    	js     405198 <_ZL21request_taskstats_pidiiiP9taskstatsPm+0x208>
/usr/include/x86_64-linux-gnu/bits/socket2.h:44
  405080:	31 c9                	xor    %ecx,%ecx
recv():
/usr/include/x86_64-linux-gnu/bits/socket2.h:44
  405082:	ba 14 02 00 00       	mov    $0x214,%edx
  405087:	4c 89 f6             	mov    %r14,%rsi
  40508a:	44 89 ef             	mov    %r13d,%edi
  40508d:	e8 5e e7 ff ff       	callq  4037f0 <recv@plt>
_ZL21request_taskstats_pidiiiP9taskstatsPm():
/home/aliha951/ipdps-artifact/gapbs-master/src/taskstats_helper.h:105
		return -1;
	if (recv(sd, &rep, sizeof(rep), 0) < 0)
  405092:	48 85 c0             	test   %rax,%rax
  405095:	0f 88 fd 00 00 00    	js     405198 <_ZL21request_taskstats_pidiiiP9taskstatsPm+0x208>
/home/aliha951/ipdps-artifact/gapbs-master/src/taskstats_helper.h:109
		return -1;

	na = (struct nlattr *) GENLMSG_DATA(&rep.n);
	int rem = rep.n.nlmsg_len - NLMSG_LENGTH(GENL_HDRLEN);
  40509b:	8b 84 24 20 02 00 00 	mov    0x220(%rsp),%eax
  4050a2:	8d 70 ec             	lea    -0x14(%rax),%esi
/home/aliha951/ipdps-artifact/gapbs-master/src/taskstats_helper.h:110
	while (rem > 0 && na->nla_len >= NLA_HDRLEN && rem >= na->nla_len) {
  4050a5:	85 f6                	test   %esi,%esi
  4050a7:	0f 8e eb 00 00 00    	jle    405198 <_ZL21request_taskstats_pidiiiP9taskstatsPm+0x208>
/home/aliha951/ipdps-artifact/gapbs-master/src/taskstats_helper.h:108
	na = (struct nlattr *) GENLMSG_DATA(&rep.n);
  4050ad:	48 8d 8c 24 34 02 00 	lea    0x234(%rsp),%rcx
  4050b4:	00 
  4050b5:	eb 29                	jmp    4050e0 <_ZL21request_taskstats_pidiiiP9taskstatsPm+0x150>
  4050b7:	66 0f 1f 84 00 00 00 	nopw   0x0(%rax,%rax,1)
  4050be:	00 00 
/home/aliha951/ipdps-artifact/gapbs-master/src/taskstats_helper.h:126
				}
				int step2 = NLA_ALIGN(n2->nla_len);
				aggr_len -= step2;
				n2 = (struct nlattr *) ((char*)n2 + step2);
			}
		} else if (na->nla_type == TASKSTATS_TYPE_STATS) {
  4050c0:	66 83 f8 03          	cmp    $0x3,%ax
  4050c4:	0f 84 26 01 00 00    	je     4051f0 <_ZL21request_taskstats_pidiiiP9taskstatsPm+0x260>
/home/aliha951/ipdps-artifact/gapbs-master/src/taskstats_helper.h:133
			if (payload > sizeof(*out_ts)) payload = sizeof(*out_ts);
			memcpy(out_ts, NLA_DATA(na), payload);
			*out_len = payload;
			return 0;
		}
		int step = NLA_ALIGN(na->nla_len);
  4050ca:	83 c2 03             	add    $0x3,%edx
  4050cd:	83 e2 fc             	and    $0xfffffffc,%edx
/home/aliha951/ipdps-artifact/gapbs-master/src/taskstats_helper.h:134
		rem -= step;
  4050d0:	29 d6                	sub    %edx,%esi
/home/aliha951/ipdps-artifact/gapbs-master/src/taskstats_helper.h:135
		na = (struct nlattr *) ((char*)na + step);
  4050d2:	48 63 d2             	movslq %edx,%rdx
  4050d5:	48 01 d1             	add    %rdx,%rcx
/home/aliha951/ipdps-artifact/gapbs-master/src/taskstats_helper.h:110
	while (rem > 0 && na->nla_len >= NLA_HDRLEN && rem >= na->nla_len) {
  4050d8:	85 f6                	test   %esi,%esi
  4050da:	0f 8e b8 00 00 00    	jle    405198 <_ZL21request_taskstats_pidiiiP9taskstatsPm+0x208>
/home/aliha951/ipdps-artifact/gapbs-master/src/taskstats_helper.h:110 (discriminator 1)
  4050e0:	0f b7 11             	movzwl (%rcx),%edx
  4050e3:	66 83 fa 03          	cmp    $0x3,%dx
  4050e7:	0f 86 ab 00 00 00    	jbe    405198 <_ZL21request_taskstats_pidiiiP9taskstatsPm+0x208>
/home/aliha951/ipdps-artifact/gapbs-master/src/taskstats_helper.h:110 (discriminator 2)
  4050ed:	39 f2                	cmp    %esi,%edx
  4050ef:	0f 8f a3 00 00 00    	jg     405198 <_ZL21request_taskstats_pidiiiP9taskstatsPm+0x208>
/home/aliha951/ipdps-artifact/gapbs-master/src/taskstats_helper.h:111
		if (na->nla_type == TASKSTATS_TYPE_AGGR_PID || na->nla_type == TASKSTATS_TYPE_AGGR_TGID) {
  4050f5:	0f b7 41 02          	movzwl 0x2(%rcx),%eax
  4050f9:	8d 78 fc             	lea    -0x4(%rax),%edi
  4050fc:	66 83 ff 01          	cmp    $0x1,%di
  405100:	77 be                	ja     4050c0 <_ZL21request_taskstats_pidiiiP9taskstatsPm+0x130>
/home/aliha951/ipdps-artifact/gapbs-master/src/taskstats_helper.h:114
			while (aggr_len > 0 && n2->nla_len >= NLA_HDRLEN && aggr_len >= n2->nla_len) {
  405102:	41 89 d0             	mov    %edx,%r8d
/home/aliha951/ipdps-artifact/gapbs-master/src/taskstats_helper.h:113
			struct nlattr *n2 = (struct nlattr *) NLA_DATA(na);
  405105:	48 8d 79 04          	lea    0x4(%rcx),%rdi
/home/aliha951/ipdps-artifact/gapbs-master/src/taskstats_helper.h:114
			while (aggr_len > 0 && n2->nla_len >= NLA_HDRLEN && aggr_len >= n2->nla_len) {
  405109:	41 83 e8 04          	sub    $0x4,%r8d
  40510d:	75 1c                	jne    40512b <_ZL21request_taskstats_pidiiiP9taskstatsPm+0x19b>
  40510f:	eb b9                	jmp    4050ca <_ZL21request_taskstats_pidiiiP9taskstatsPm+0x13a>
  405111:	0f 1f 80 00 00 00 00 	nopl   0x0(%rax)
/home/aliha951/ipdps-artifact/gapbs-master/src/taskstats_helper.h:122
				int step2 = NLA_ALIGN(n2->nla_len);
  405118:	83 c0 03             	add    $0x3,%eax
  40511b:	83 e0 fc             	and    $0xfffffffc,%eax
/home/aliha951/ipdps-artifact/gapbs-master/src/taskstats_helper.h:123
				aggr_len -= step2;
  40511e:	41 29 c0             	sub    %eax,%r8d
/home/aliha951/ipdps-artifact/gapbs-master/src/taskstats_helper.h:124
				n2 = (struct nlattr *) ((char*)n2 + step2);
  405121:	48 98                	cltq   
  405123:	48 01 c7             	add    %rax,%rdi
/home/aliha951/ipdps-artifact/gapbs-master/src/taskstats_helper.h:114
			while (aggr_len > 0 && n2->nla_len >= NLA_HDRLEN && aggr_len >= n2->nla_len) {
  405126:	45 85 c0             	test   %r8d,%r8d
  405129:	7e 9f                	jle    4050ca <_ZL21request_taskstats_pidiiiP9taskstatsPm+0x13a>
/home/aliha951/ipdps-artifact/gapbs-master/src/taskstats_helper.h:114 (discriminator 1)
  40512b:	0f b7 07             	movzwl (%rdi),%eax
  40512e:	66 83 f8 03          	cmp    $0x3,%ax
  405132:	76 96                	jbe    4050ca <_ZL21request_taskstats_pidiiiP9taskstatsPm+0x13a>
/home/aliha951/ipdps-artifact/gapbs-master/src/taskstats_helper.h:114 (discriminator 2)
  405134:	44 39 c0             	cmp    %r8d,%eax
  405137:	7f 91                	jg     4050ca <_ZL21request_taskstats_pidiiiP9taskstatsPm+0x13a>
/home/aliha951/ipdps-artifact/gapbs-master/src/taskstats_helper.h:115
				if (n2->nla_type == TASKSTATS_TYPE_STATS) {
  405139:	66 83 7f 02 03       	cmpw   $0x3,0x2(%rdi)
  40513e:	75 d8                	jne    405118 <_ZL21request_taskstats_pidiiiP9taskstatsPm+0x188>
/home/aliha951/ipdps-artifact/gapbs-master/src/taskstats_helper.h:116
					size_t payload = n2->nla_len - NLA_HDRLEN;
  405140:	83 e8 04             	sub    $0x4,%eax
  405143:	ba b0 01 00 00       	mov    $0x1b0,%edx
/home/aliha951/ipdps-artifact/gapbs-master/src/taskstats_helper.h:118
					memcpy(out_ts, NLA_DATA(n2), payload);
  405148:	48 8d 77 04          	lea    0x4(%rdi),%rsi
/home/aliha951/ipdps-artifact/gapbs-master/src/taskstats_helper.h:116
					size_t payload = n2->nla_len - NLA_HDRLEN;
  40514c:	48 98                	cltq   
/home/aliha951/ipdps-artifact/gapbs-master/src/taskstats_helper.h:117
					if (payload > sizeof(*out_ts)) payload = sizeof(*out_ts);
  40514e:	48 3d b0 01 00 00    	cmp    $0x1b0,%rax
  405154:	48 0f 47 c2          	cmova  %rdx,%rax
/usr/include/x86_64-linux-gnu/bits/string_fortified.h:34
  405158:	83 f8 08             	cmp    $0x8,%eax
memcpy():
/usr/include/x86_64-linux-gnu/bits/string_fortified.h:34
  40515b:	72 6b                	jb     4051c8 <_ZL21request_taskstats_pidiiiP9taskstatsPm+0x238>
  40515d:	48 8b 57 04          	mov    0x4(%rdi),%rdx
_ZL21request_taskstats_pidiiiP9taskstatsPm():
/usr/include/x86_64-linux-gnu/bits/string_fortified.h:34
  405161:	49 89 14 24          	mov    %rdx,(%r12)
memcpy():
/usr/include/x86_64-linux-gnu/bits/string_fortified.h:34
  405165:	89 c2                	mov    %eax,%edx
  405167:	48 89 ef             	mov    %rbp,%rdi
  40516a:	48 8b 4c 16 f8       	mov    -0x8(%rsi,%rdx,1),%rcx
  40516f:	48 83 e7 f8          	and    $0xfffffffffffffff8,%rdi
  405173:	49 89 4c 14 f8       	mov    %rcx,-0x8(%r12,%rdx,1)
  405178:	49 29 fc             	sub    %rdi,%r12
  40517b:	4c 29 e6             	sub    %r12,%rsi
  40517e:	41 01 c4             	add    %eax,%r12d
  405181:	41 c1 ec 03          	shr    $0x3,%r12d
  405185:	44 89 e1             	mov    %r12d,%ecx
  405188:	f3 48 a5             	rep movsq %ds:(%rsi),%es:(%rdi)
_ZL21request_taskstats_pidiiiP9taskstatsPm():
/home/aliha951/ipdps-artifact/gapbs-master/src/taskstats_helper.h:130
			*out_len = payload;
  40518b:	48 89 03             	mov    %rax,(%rbx)
/home/aliha951/ipdps-artifact/gapbs-master/src/taskstats_helper.h:131
			return 0;
  40518e:	31 c0                	xor    %eax,%eax
  405190:	eb 0b                	jmp    40519d <_ZL21request_taskstats_pidiiiP9taskstatsPm+0x20d>
  405192:	66 0f 1f 44 00 00    	nopw   0x0(%rax,%rax,1)
/home/aliha951/ipdps-artifact/gapbs-master/src/taskstats_helper.h:104
		return -1;
  405198:	b8 ff ff ff ff       	mov    $0xffffffff,%eax
/home/aliha951/ipdps-artifact/gapbs-master/src/taskstats_helper.h:138
	}
	return -1; /* Not found */
}
  40519d:	48 8b 9c 24 38 04 00 	mov    0x438(%rsp),%rbx
  4051a4:	00 
  4051a5:	64 48 2b 1c 25 28 00 	sub    %fs:0x28,%rbx
  4051ac:	00 00 
  4051ae:	75 7c                	jne    40522c <_ZL21request_taskstats_pidiiiP9taskstatsPm+0x29c>
  4051b0:	48 81 c4 48 04 00 00 	add    $0x448,%rsp
  4051b7:	5b                   	pop    %rbx
  4051b8:	5d                   	pop    %rbp
  4051b9:	41 5c                	pop    %r12
  4051bb:	41 5d                	pop    %r13
  4051bd:	41 5e                	pop    %r14
  4051bf:	41 5f                	pop    %r15
  4051c1:	c3                   	retq   
  4051c2:	66 0f 1f 44 00 00    	nopw   0x0(%rax,%rax,1)
memcpy():
/usr/include/x86_64-linux-gnu/bits/string_fortified.h:34
  4051c8:	a8 04                	test   $0x4,%al
  4051ca:	75 4a                	jne    405216 <_ZL21request_taskstats_pidiiiP9taskstatsPm+0x286>
  4051cc:	85 c0                	test   %eax,%eax
  4051ce:	74 bb                	je     40518b <_ZL21request_taskstats_pidiiiP9taskstatsPm+0x1fb>
  4051d0:	0f b6 16             	movzbl (%rsi),%edx
  4051d3:	41 88 14 24          	mov    %dl,(%r12)
  4051d7:	a8 02                	test   $0x2,%al
  4051d9:	74 b0                	je     40518b <_ZL21request_taskstats_pidiiiP9taskstatsPm+0x1fb>
  4051db:	89 c2                	mov    %eax,%edx
  4051dd:	0f b7 4c 16 fe       	movzwl -0x2(%rsi,%rdx,1),%ecx
  4051e2:	66 41 89 4c 14 fe    	mov    %cx,-0x2(%r12,%rdx,1)
  4051e8:	eb a1                	jmp    40518b <_ZL21request_taskstats_pidiiiP9taskstatsPm+0x1fb>
  4051ea:	66 0f 1f 44 00 00    	nopw   0x0(%rax,%rax,1)
_ZL21request_taskstats_pidiiiP9taskstatsPm():
/home/aliha951/ipdps-artifact/gapbs-master/src/taskstats_helper.h:127
			size_t payload = na->nla_len - NLA_HDRLEN;
  4051f0:	8d 42 fc             	lea    -0x4(%rdx),%eax
  4051f3:	ba b0 01 00 00       	mov    $0x1b0,%edx
/home/aliha951/ipdps-artifact/gapbs-master/src/taskstats_helper.h:129
			memcpy(out_ts, NLA_DATA(na), payload);
  4051f8:	48 8d 71 04          	lea    0x4(%rcx),%rsi
/home/aliha951/ipdps-artifact/gapbs-master/src/taskstats_helper.h:127
			size_t payload = na->nla_len - NLA_HDRLEN;
  4051fc:	48 98                	cltq   
/home/aliha951/ipdps-artifact/gapbs-master/src/taskstats_helper.h:128
			if (payload > sizeof(*out_ts)) payload = sizeof(*out_ts);
  4051fe:	48 3d b0 01 00 00    	cmp    $0x1b0,%rax
  405204:	48 0f 47 c2          	cmova  %rdx,%rax
memcpy():
/usr/include/x86_64-linux-gnu/bits/string_fortified.h:34
  405208:	83 f8 08             	cmp    $0x8,%eax
  40520b:	72 bb                	jb     4051c8 <_ZL21request_taskstats_pidiiiP9taskstatsPm+0x238>
  40520d:	48 8b 51 04          	mov    0x4(%rcx),%rdx
  405211:	e9 4b ff ff ff       	jmpq   405161 <_ZL21request_taskstats_pidiiiP9taskstatsPm+0x1d1>
  405216:	8b 16                	mov    (%rsi),%edx
  405218:	41 89 14 24          	mov    %edx,(%r12)
  40521c:	89 c2                	mov    %eax,%edx
  40521e:	8b 4c 16 fc          	mov    -0x4(%rsi,%rdx,1),%ecx
  405222:	41 89 4c 14 fc       	mov    %ecx,-0x4(%r12,%rdx,1)
  405227:	e9 5f ff ff ff       	jmpq   40518b <_ZL21request_taskstats_pidiiiP9taskstatsPm+0x1fb>
_ZL21request_taskstats_pidiiiP9taskstatsPm():
/home/aliha951/ipdps-artifact/gapbs-master/src/taskstats_helper.h:138
}
  40522c:	e8 9f e7 ff ff       	callq  4039d0 <__stack_chk_fail@plt>
  405231:	66 66 2e 0f 1f 84 00 	data16 nopw %cs:0x0(%rax,%rax,1)
  405238:	00 00 00 00 
  40523c:	0f 1f 40 00          	nopl   0x0(%rax)

0000000000405240 <_Z12clear_queuesPFvR5stateE._omp_fn.1>:
_Z12clear_queuesPFvR5stateE._omp_fn.1():
/home/aliha951/ipdps-artifact/gapbs-master/src/libpfq_bc.h:242
  #pragma omp parallel for
  405240:	f3 0f 1e fa          	endbr64 
  405244:	41 56                	push   %r14
  405246:	41 55                	push   %r13
  405248:	41 54                	push   %r12
  40524a:	55                   	push   %rbp
  40524b:	48 89 fd             	mov    %rdi,%rbp
  40524e:	53                   	push   %rbx
  40524f:	e8 ec e8 ff ff       	callq  403b40 <omp_get_num_threads@plt>
  405254:	89 c3                	mov    %eax,%ebx
  405256:	e8 a5 e7 ff ff       	callq  403a00 <omp_get_thread_num@plt>
  40525b:	89 c1                	mov    %eax,%ecx
  40525d:	8b 45 08             	mov    0x8(%rbp),%eax
  405260:	99                   	cltd   
  405261:	f7 fb                	idiv   %ebx
  405263:	39 d1                	cmp    %edx,%ecx
  405265:	0f 8c c0 00 00 00    	jl     40532b <_Z12clear_queuesPFvR5stateE._omp_fn.1+0xeb>
  40526b:	0f af c8             	imul   %eax,%ecx
  40526e:	01 ca                	add    %ecx,%edx
  405270:	8d 0c 10             	lea    (%rax,%rdx,1),%ecx
  405273:	39 ca                	cmp    %ecx,%edx
  405275:	0f 8d a7 00 00 00    	jge    405322 <_Z12clear_queuesPFvR5stateE._omp_fn.1+0xe2>
  40527b:	48 63 d2             	movslq %edx,%rdx
  40527e:	83 e8 01             	sub    $0x1,%eax
  405281:	48 8b 6d 00          	mov    0x0(%rbp),%rbp
  405285:	4c 8d 25 d4 9a 01 00 	lea    0x19ad4(%rip),%r12        # 41ed60 <shipped_queue>
  40528c:	4c 8d 2c 52          	lea    (%rdx,%rdx,2),%r13
  405290:	48 01 c2             	add    %rax,%rdx
  405293:	48 8d 0d c6 b2 01 00 	lea    0x1b2c6(%rip),%rcx        # 420560 <curr_queue>
  40529a:	49 c1 e5 03          	shl    $0x3,%r13
  40529e:	48 8d 14 52          	lea    (%rdx,%rdx,2),%rdx
  4052a2:	48 8d 05 cf 9a 01 00 	lea    0x19acf(%rip),%rax        # 41ed78 <shipped_queue+0x18>
  4052a9:	4d 01 ec             	add    %r13,%r12
  4052ac:	4c 8d 34 d0          	lea    (%rax,%rdx,8),%r14
  4052b0:	49 01 cd             	add    %rcx,%r13
  4052b3:	0f 1f 44 00 00       	nopl   0x0(%rax,%rax,1)
_ZN9__gnu_cxx17__normal_iteratorIP5stateSt6vectorIS1_SaIS1_EEEC4ERKS2_():
/usr/include/c++/10/bits/stl_iterator.h:996 (discriminator 5)
      _GLIBCXX_CONSTEXPR __normal_iterator() _GLIBCXX_NOEXCEPT
      : _M_current(_Iterator()) { }

      explicit _GLIBCXX20_CONSTEXPR
      __normal_iterator(const _Iterator& __i) _GLIBCXX_NOEXCEPT
      : _M_current(__i) { }
  4052b8:	49 8b 1c 24          	mov    (%r12),%rbx
_Z12resume_queueRSt6vectorI5stateSaIS0_EEPFvRS0_E():
/home/aliha951/ipdps-artifact/gapbs-master/src/libpfq_bc.h:225 (discriminator 5)
  for (auto rq_it = queue.begin(); rq_it != queue.end(); ++rq_it)
  4052bc:	49 3b 5c 24 08       	cmp    0x8(%r12),%rbx
  4052c1:	74 15                	je     4052d8 <_Z12clear_queuesPFvR5stateE._omp_fn.1+0x98>
  4052c3:	0f 1f 44 00 00       	nopl   0x0(%rax,%rax,1)
/home/aliha951/ipdps-artifact/gapbs-master/src/libpfq_bc.h:227
    func(*rq_it);
  4052c8:	48 89 df             	mov    %rbx,%rdi
/home/aliha951/ipdps-artifact/gapbs-master/src/libpfq_bc.h:225
  for (auto rq_it = queue.begin(); rq_it != queue.end(); ++rq_it)
  4052cb:	48 83 c3 20          	add    $0x20,%rbx
/home/aliha951/ipdps-artifact/gapbs-master/src/libpfq_bc.h:227
    func(*rq_it);
  4052cf:	ff d5                	callq  *%rbp
/home/aliha951/ipdps-artifact/gapbs-master/src/libpfq_bc.h:225
  for (auto rq_it = queue.begin(); rq_it != queue.end(); ++rq_it)
  4052d1:	49 39 5c 24 08       	cmp    %rbx,0x8(%r12)
  4052d6:	75 f0                	jne    4052c8 <_Z12clear_queuesPFvR5stateE._omp_fn.1+0x88>
_ZN9__gnu_cxx17__normal_iteratorIP5stateSt6vectorIS1_SaIS1_EEEC4ERKS2_():
/usr/include/c++/10/bits/stl_iterator.h:996
  4052d8:	49 8b 5d 00          	mov    0x0(%r13),%rbx
_Z12resume_queueRSt6vectorI5stateSaIS0_EEPFvRS0_E():
/home/aliha951/ipdps-artifact/gapbs-master/src/libpfq_bc.h:225
  4052dc:	49 3b 5d 08          	cmp    0x8(%r13),%rbx
  4052e0:	74 15                	je     4052f7 <_Z12clear_queuesPFvR5stateE._omp_fn.1+0xb7>
  4052e2:	66 0f 1f 44 00 00    	nopw   0x0(%rax,%rax,1)
/home/aliha951/ipdps-artifact/gapbs-master/src/libpfq_bc.h:227
    func(*rq_it);
  4052e8:	48 89 df             	mov    %rbx,%rdi
/home/aliha951/ipdps-artifact/gapbs-master/src/libpfq_bc.h:225
  for (auto rq_it = queue.begin(); rq_it != queue.end(); ++rq_it)
  4052eb:	48 83 c3 20          	add    $0x20,%rbx
/home/aliha951/ipdps-artifact/gapbs-master/src/libpfq_bc.h:227
    func(*rq_it);
  4052ef:	ff d5                	callq  *%rbp
/home/aliha951/ipdps-artifact/gapbs-master/src/libpfq_bc.h:225
  for (auto rq_it = queue.begin(); rq_it != queue.end(); ++rq_it)
  4052f1:	49 39 5d 08          	cmp    %rbx,0x8(%r13)
  4052f5:	75 f1                	jne    4052e8 <_Z12clear_queuesPFvR5stateE._omp_fn.1+0xa8>
_ZNSt6vectorI5stateSaIS0_EE5clearEv():
/usr/include/c++/10/bits/stl_vector.h:1499
       *  pointed-to memory is not touched in any way.  Managing the pointer is
       *  the user's responsibility.
       */
      void
      clear() _GLIBCXX_NOEXCEPT
      { _M_erase_at_end(this->_M_impl._M_start); }
  4052f7:	49 8b 45 00          	mov    0x0(%r13),%rax
_ZNSt6vectorI5stateSaIS0_EE15_M_erase_at_endEPS0_():
/usr/include/c++/10/bits/stl_vector.h:1794
      // Called by erase(q1,q2), clear(), resize(), _M_fill_assign,
      // _M_assign_aux.
      void
      _M_erase_at_end(pointer __pos) _GLIBCXX_NOEXCEPT
      {
	if (size_type __n = this->_M_impl._M_finish - __pos)
  4052fb:	49 3b 45 08          	cmp    0x8(%r13),%rax
  4052ff:	74 04                	je     405305 <_Z12clear_queuesPFvR5stateE._omp_fn.1+0xc5>
/usr/include/c++/10/bits/stl_vector.h:1798
	  {
	    std::_Destroy(__pos, this->_M_impl._M_finish,
			  _M_get_Tp_allocator());
	    this->_M_impl._M_finish = __pos;
  405301:	49 89 45 08          	mov    %rax,0x8(%r13)
_ZNSt6vectorI5stateSaIS0_EE5clearEv():
/usr/include/c++/10/bits/stl_vector.h:1499
      { _M_erase_at_end(this->_M_impl._M_start); }
  405305:	49 8b 04 24          	mov    (%r12),%rax
_ZNSt6vectorI5stateSaIS0_EE15_M_erase_at_endEPS0_():
/usr/include/c++/10/bits/stl_vector.h:1794
	if (size_type __n = this->_M_impl._M_finish - __pos)
  405309:	49 3b 44 24 08       	cmp    0x8(%r12),%rax
  40530e:	74 05                	je     405315 <_Z12clear_queuesPFvR5stateE._omp_fn.1+0xd5>
/usr/include/c++/10/bits/stl_vector.h:1798
	    this->_M_impl._M_finish = __pos;
  405310:	49 89 44 24 08       	mov    %rax,0x8(%r12)
  405315:	49 83 c4 18          	add    $0x18,%r12
  405319:	49 83 c5 18          	add    $0x18,%r13
  40531d:	4d 39 f4             	cmp    %r14,%r12
  405320:	75 96                	jne    4052b8 <_Z12clear_queuesPFvR5stateE._omp_fn.1+0x78>
_Z12clear_queuesPFvR5stateE._omp_fn.1():
/home/aliha951/ipdps-artifact/gapbs-master/src/libpfq_bc.h:242
  #pragma omp parallel for
  405322:	5b                   	pop    %rbx
  405323:	5d                   	pop    %rbp
  405324:	41 5c                	pop    %r12
  405326:	41 5d                	pop    %r13
  405328:	41 5e                	pop    %r14
  40532a:	c3                   	retq   
  40532b:	83 c0 01             	add    $0x1,%eax
  40532e:	31 d2                	xor    %edx,%edx
  405330:	e9 36 ff ff ff       	jmpq   40526b <_Z12clear_queuesPFvR5stateE._omp_fn.1+0x2b>
  405335:	66 66 2e 0f 1f 84 00 	data16 nopw %cs:0x0(%rax,%rax,1)
  40533c:	00 00 00 00 

0000000000405340 <_ZN7pvectorIiE4fillEi._omp_fn.0>:
_ZN7pvectorIiE4fillEi._omp_fn.0():
/home/aliha951/ipdps-artifact/gapbs-master/src/pvector.h:133
    *end_size_ = val;
    end_size_++;
  }

  void fill(T_ init_val) {
    #pragma omp parallel for
  405340:	f3 0f 1e fa          	endbr64 
  405344:	41 55                	push   %r13
  405346:	41 54                	push   %r12
  405348:	55                   	push   %rbp
  405349:	53                   	push   %rbx
  40534a:	48 83 ec 08          	sub    $0x8,%rsp
  40534e:	48 8b 07             	mov    (%rdi),%rax
/home/aliha951/ipdps-artifact/gapbs-master/src/pvector.h:134
    for (T_* ptr=start_; ptr < end_size_; ptr++)
  405351:	48 8b 28             	mov    (%rax),%rbp
  405354:	4c 8b 68 08          	mov    0x8(%rax),%r13
  405358:	4c 39 ed             	cmp    %r13,%rbp
  40535b:	0f 83 dd 00 00 00    	jae    40543e <_ZN7pvectorIiE4fillEi._omp_fn.0+0xfe>
  405361:	49 89 fc             	mov    %rdi,%r12
  405364:	e8 d7 e7 ff ff       	callq  403b40 <omp_get_num_threads@plt>
  405369:	48 63 d8             	movslq %eax,%rbx
  40536c:	e8 8f e6 ff ff       	callq  403a00 <omp_get_thread_num@plt>
  405371:	48 63 c8             	movslq %eax,%rcx
  405374:	49 8d 45 03          	lea    0x3(%r13),%rax
  405378:	48 29 e8             	sub    %rbp,%rax
  40537b:	48 89 c2             	mov    %rax,%rdx
  40537e:	48 8d 40 03          	lea    0x3(%rax),%rax
  405382:	48 0f 49 c2          	cmovns %rdx,%rax
  405386:	48 c1 f8 02          	sar    $0x2,%rax
  40538a:	48 99                	cqto   
  40538c:	48 f7 fb             	idiv   %rbx
  40538f:	48 39 d1             	cmp    %rdx,%rcx
  405392:	0f 8c b8 00 00 00    	jl     405450 <_ZN7pvectorIiE4fillEi._omp_fn.0+0x110>
  405398:	48 0f af c8          	imul   %rax,%rcx
  40539c:	48 01 ca             	add    %rcx,%rdx
  40539f:	48 01 d0             	add    %rdx,%rax
  4053a2:	48 39 c2             	cmp    %rax,%rdx
  4053a5:	0f 8d 93 00 00 00    	jge    40543e <_ZN7pvectorIiE4fillEi._omp_fn.0+0xfe>
  4053ab:	48 c1 e2 02          	shl    $0x2,%rdx
  4053af:	48 c1 e0 02          	shl    $0x2,%rax
/home/aliha951/ipdps-artifact/gapbs-master/src/pvector.h:133
    #pragma omp parallel for
  4053b3:	41 8b 7c 24 08       	mov    0x8(%r12),%edi
  4053b8:	48 8d 74 15 00       	lea    0x0(%rbp,%rdx,1),%rsi
  4053bd:	48 01 c5             	add    %rax,%rbp
  4053c0:	48 29 d0             	sub    %rdx,%rax
  4053c3:	48 83 e8 01          	sub    $0x1,%rax
  4053c7:	4c 8d 46 01          	lea    0x1(%rsi),%r8
  4053cb:	48 89 f1             	mov    %rsi,%rcx
  4053ce:	48 89 c2             	mov    %rax,%rdx
  4053d1:	48 c1 ea 02          	shr    $0x2,%rdx
  4053d5:	48 83 c2 01          	add    $0x1,%rdx
  4053d9:	4c 39 c5             	cmp    %r8,%rbp
  4053dc:	41 b8 01 00 00 00    	mov    $0x1,%r8d
  4053e2:	49 0f 42 d0          	cmovb  %r8,%rdx
  4053e6:	72 3c                	jb     405424 <_ZN7pvectorIiE4fillEi._omp_fn.0+0xe4>
  4053e8:	48 83 f8 0b          	cmp    $0xb,%rax
  4053ec:	76 36                	jbe    405424 <_ZN7pvectorIiE4fillEi._omp_fn.0+0xe4>
  4053ee:	48 89 d0             	mov    %rdx,%rax
  4053f1:	66 0f 6e cf          	movd   %edi,%xmm1
  4053f5:	48 c1 e8 02          	shr    $0x2,%rax
  4053f9:	66 0f 70 c1 00       	pshufd $0x0,%xmm1,%xmm0
  4053fe:	48 c1 e0 04          	shl    $0x4,%rax
  405402:	48 01 f0             	add    %rsi,%rax
  405405:	0f 1f 00             	nopl   (%rax)
/home/aliha951/ipdps-artifact/gapbs-master/src/pvector.h:135 (discriminator 1)
      *ptr = init_val;
  405408:	0f 11 01             	movups %xmm0,(%rcx)
  40540b:	48 83 c1 10          	add    $0x10,%rcx
  40540f:	48 39 c1             	cmp    %rax,%rcx
  405412:	75 f4                	jne    405408 <_ZN7pvectorIiE4fillEi._omp_fn.0+0xc8>
  405414:	48 89 d0             	mov    %rdx,%rax
  405417:	48 83 e0 fc          	and    $0xfffffffffffffffc,%rax
  40541b:	48 8d 34 86          	lea    (%rsi,%rax,4),%rsi
  40541f:	48 39 c2             	cmp    %rax,%rdx
  405422:	74 1a                	je     40543e <_ZN7pvectorIiE4fillEi._omp_fn.0+0xfe>
  405424:	48 8d 46 04          	lea    0x4(%rsi),%rax
/home/aliha951/ipdps-artifact/gapbs-master/src/pvector.h:135
  405428:	89 3e                	mov    %edi,(%rsi)
  40542a:	48 39 c5             	cmp    %rax,%rbp
  40542d:	76 0f                	jbe    40543e <_ZN7pvectorIiE4fillEi._omp_fn.0+0xfe>
  40542f:	48 8d 46 08          	lea    0x8(%rsi),%rax
  405433:	89 7e 04             	mov    %edi,0x4(%rsi)
  405436:	48 39 c5             	cmp    %rax,%rbp
  405439:	76 03                	jbe    40543e <_ZN7pvectorIiE4fillEi._omp_fn.0+0xfe>
  40543b:	89 7e 08             	mov    %edi,0x8(%rsi)
/home/aliha951/ipdps-artifact/gapbs-master/src/pvector.h:133
    #pragma omp parallel for
  40543e:	48 83 c4 08          	add    $0x8,%rsp
  405442:	5b                   	pop    %rbx
  405443:	5d                   	pop    %rbp
  405444:	41 5c                	pop    %r12
  405446:	41 5d                	pop    %r13
  405448:	c3                   	retq   
  405449:	0f 1f 80 00 00 00 00 	nopl   0x0(%rax)
  405450:	48 83 c0 01          	add    $0x1,%rax
/home/aliha951/ipdps-artifact/gapbs-master/src/pvector.h:134
    for (T_* ptr=start_; ptr < end_size_; ptr++)
  405454:	31 d2                	xor    %edx,%edx
  405456:	e9 3d ff ff ff       	jmpq   405398 <_ZN7pvectorIiE4fillEi._omp_fn.0+0x58>
  40545b:	0f 1f 44 00 00       	nopl   0x0(%rax,%rax,1)

0000000000405460 <_Z7BrandesRK8CSRGraphIiiLb1EER12SourcePickerIS0_Eib._omp_fn.2>:
_Z7BrandesRK8CSRGraphIiiLb1EER12SourcePickerIS0_Eib._omp_fn.2():
/home/aliha951/ipdps-artifact/gapbs-master/src/bc_batching_nopt.cc:227
  #pragma omp parallel for
  405460:	f3 0f 1e fa          	endbr64 
  405464:	55                   	push   %rbp
  405465:	53                   	push   %rbx
  405466:	48 89 fb             	mov    %rdi,%rbx
  405469:	48 83 ec 08          	sub    $0x8,%rsp
  40546d:	e8 ce e6 ff ff       	callq  403b40 <omp_get_num_threads@plt>
  405472:	89 c5                	mov    %eax,%ebp
  405474:	e8 87 e5 ff ff       	callq  403a00 <omp_get_thread_num@plt>
  405479:	89 c1                	mov    %eax,%ecx
_ZNK8CSRGraphIiiLb1EE9num_nodesEv():
/home/aliha951/ipdps-artifact/gapbs-master/src/graph.h:194
  bool directed() const {
    return directed_;
  }

  int64_t num_nodes() const {
    return num_nodes_;
  40547b:	48 8b 03             	mov    (%rbx),%rax
_Z7BrandesRK8CSRGraphIiiLb1EER12SourcePickerIS0_Eib._omp_fn.2():
/home/aliha951/ipdps-artifact/gapbs-master/src/bc_batching_nopt.cc:228
  for (NodeID n=0; n < g.num_nodes(); n++)
  40547e:	48 8b 40 08          	mov    0x8(%rax),%rax
  405482:	99                   	cltd   
  405483:	f7 fd                	idiv   %ebp
  405485:	39 d1                	cmp    %edx,%ecx
  405487:	0f 8c e3 00 00 00    	jl     405570 <_Z7BrandesRK8CSRGraphIiiLb1EER12SourcePickerIS0_Eib._omp_fn.2+0x110>
  40548d:	0f af c8             	imul   %eax,%ecx
  405490:	01 ca                	add    %ecx,%edx
  405492:	44 8d 14 10          	lea    (%rax,%rdx,1),%r10d
  405496:	44 39 d2             	cmp    %r10d,%edx
  405499:	0f 8d c3 00 00 00    	jge    405562 <_Z7BrandesRK8CSRGraphIiiLb1EER12SourcePickerIS0_Eib._omp_fn.2+0x102>
_ZN7pvectorIfEixEm():
/home/aliha951/ipdps-artifact/gapbs-master/src/pvector.h:116
    return start_[n];
  40549f:	48 8b 4b 08          	mov    0x8(%rbx),%rcx
  4054a3:	48 63 fa             	movslq %edx,%rdi
_Z7BrandesRK8CSRGraphIiiLb1EER12SourcePickerIS0_Eib._omp_fn.2():
/home/aliha951/ipdps-artifact/gapbs-master/src/bc_batching_nopt.cc:229
    scores[n] = scores[n] / biggest_score;
  4054a6:	4c 8b 43 10          	mov    0x10(%rbx),%r8
  4054aa:	44 8d 58 ff          	lea    -0x1(%rax),%r11d
_ZN7pvectorIfEixEm():
/home/aliha951/ipdps-artifact/gapbs-master/src/pvector.h:116
  4054ae:	4c 8b 09             	mov    (%rcx),%r9
  4054b1:	89 c1                	mov    %eax,%ecx
  4054b3:	48 01 f9             	add    %rdi,%rcx
  4054b6:	49 8d 0c 89          	lea    (%r9,%rcx,4),%rcx
  4054ba:	49 8d 34 b9          	lea    (%r9,%rdi,4),%rsi
  4054be:	49 39 c8             	cmp    %rcx,%r8
  4054c1:	49 8d 48 04          	lea    0x4(%r8),%rcx
  4054c5:	0f 93 c3             	setae  %bl
  4054c8:	48 39 ce             	cmp    %rcx,%rsi
  4054cb:	0f 93 c1             	setae  %cl
  4054ce:	08 cb                	or     %cl,%bl
  4054d0:	0f 84 aa 00 00 00    	je     405580 <_Z7BrandesRK8CSRGraphIiiLb1EER12SourcePickerIS0_Eib._omp_fn.2+0x120>
  4054d6:	41 83 fb 02          	cmp    $0x2,%r11d
  4054da:	0f 86 a0 00 00 00    	jbe    405580 <_Z7BrandesRK8CSRGraphIiiLb1EER12SourcePickerIS0_Eib._omp_fn.2+0x120>
  4054e0:	89 c7                	mov    %eax,%edi
  4054e2:	f3 41 0f 10 08       	movss  (%r8),%xmm1
_Z7BrandesRK8CSRGraphIiiLb1EER12SourcePickerIS0_Eib._omp_fn.2():
/home/aliha951/ipdps-artifact/gapbs-master/src/bc_batching_nopt.cc:229
  4054e7:	31 c9                	xor    %ecx,%ecx
  4054e9:	c1 ef 02             	shr    $0x2,%edi
  4054ec:	48 c1 e7 04          	shl    $0x4,%rdi
  4054f0:	0f c6 c9 00          	shufps $0x0,%xmm1,%xmm1
  4054f4:	0f 1f 40 00          	nopl   0x0(%rax)
/home/aliha951/ipdps-artifact/gapbs-master/src/bc_batching_nopt.cc:229 (discriminator 5)
  4054f8:	0f 10 04 0e          	movups (%rsi,%rcx,1),%xmm0
  4054fc:	0f 5e c1             	divps  %xmm1,%xmm0
  4054ff:	0f 11 04 0e          	movups %xmm0,(%rsi,%rcx,1)
  405503:	48 83 c1 10          	add    $0x10,%rcx
  405507:	48 39 f9             	cmp    %rdi,%rcx
  40550a:	75 ec                	jne    4054f8 <_Z7BrandesRK8CSRGraphIiiLb1EER12SourcePickerIS0_Eib._omp_fn.2+0x98>
  40550c:	89 c1                	mov    %eax,%ecx
  40550e:	83 e1 fc             	and    $0xfffffffc,%ecx
  405511:	01 ca                	add    %ecx,%edx
  405513:	39 c8                	cmp    %ecx,%eax
  405515:	74 4b                	je     405562 <_Z7BrandesRK8CSRGraphIiiLb1EER12SourcePickerIS0_Eib._omp_fn.2+0x102>
/home/aliha951/ipdps-artifact/gapbs-master/src/bc_batching_nopt.cc:229
  405517:	48 63 c2             	movslq %edx,%rax
_ZN7pvectorIfEixEm():
/home/aliha951/ipdps-artifact/gapbs-master/src/pvector.h:116
  40551a:	49 8d 04 81          	lea    (%r9,%rax,4),%rax
_Z7BrandesRK8CSRGraphIiiLb1EER12SourcePickerIS0_Eib._omp_fn.2():
/home/aliha951/ipdps-artifact/gapbs-master/src/bc_batching_nopt.cc:229
  40551e:	f3 0f 10 00          	movss  (%rax),%xmm0
  405522:	f3 41 0f 5e 00       	divss  (%r8),%xmm0
  405527:	f3 0f 11 00          	movss  %xmm0,(%rax)
  40552b:	8d 42 01             	lea    0x1(%rdx),%eax
  40552e:	41 39 c2             	cmp    %eax,%r10d
  405531:	7e 2f                	jle    405562 <_Z7BrandesRK8CSRGraphIiiLb1EER12SourcePickerIS0_Eib._omp_fn.2+0x102>
  405533:	48 98                	cltq   
  405535:	83 c2 02             	add    $0x2,%edx
_ZN7pvectorIfEixEm():
/home/aliha951/ipdps-artifact/gapbs-master/src/pvector.h:116
  405538:	49 8d 04 81          	lea    (%r9,%rax,4),%rax
_Z7BrandesRK8CSRGraphIiiLb1EER12SourcePickerIS0_Eib._omp_fn.2():
/home/aliha951/ipdps-artifact/gapbs-master/src/bc_batching_nopt.cc:229
  40553c:	f3 0f 10 00          	movss  (%rax),%xmm0
  405540:	f3 41 0f 5e 00       	divss  (%r8),%xmm0
  405545:	f3 0f 11 00          	movss  %xmm0,(%rax)
  405549:	41 39 d2             	cmp    %edx,%r10d
  40554c:	7e 14                	jle    405562 <_Z7BrandesRK8CSRGraphIiiLb1EER12SourcePickerIS0_Eib._omp_fn.2+0x102>
  40554e:	48 63 d2             	movslq %edx,%rdx
_ZN7pvectorIfEixEm():
/home/aliha951/ipdps-artifact/gapbs-master/src/pvector.h:116
  405551:	49 8d 04 91          	lea    (%r9,%rdx,4),%rax
_Z7BrandesRK8CSRGraphIiiLb1EER12SourcePickerIS0_Eib._omp_fn.2():
/home/aliha951/ipdps-artifact/gapbs-master/src/bc_batching_nopt.cc:229
  405555:	f3 0f 10 00          	movss  (%rax),%xmm0
  405559:	f3 41 0f 5e 00       	divss  (%r8),%xmm0
  40555e:	f3 0f 11 00          	movss  %xmm0,(%rax)
/home/aliha951/ipdps-artifact/gapbs-master/src/bc_batching_nopt.cc:227
  #pragma omp parallel for
  405562:	48 83 c4 08          	add    $0x8,%rsp
  405566:	5b                   	pop    %rbx
  405567:	5d                   	pop    %rbp
  405568:	c3                   	retq   
  405569:	0f 1f 80 00 00 00 00 	nopl   0x0(%rax)
  405570:	83 c0 01             	add    $0x1,%eax
/home/aliha951/ipdps-artifact/gapbs-master/src/bc_batching_nopt.cc:228
  for (NodeID n=0; n < g.num_nodes(); n++)
  405573:	31 d2                	xor    %edx,%edx
  405575:	e9 13 ff ff ff       	jmpq   40548d <_Z7BrandesRK8CSRGraphIiiLb1EER12SourcePickerIS0_Eib._omp_fn.2+0x2d>
  40557a:	66 0f 1f 44 00 00    	nopw   0x0(%rax,%rax,1)
  405580:	4c 01 df             	add    %r11,%rdi
  405583:	49 8d 44 b9 04       	lea    0x4(%r9,%rdi,4),%rax
  405588:	0f 1f 84 00 00 00 00 	nopl   0x0(%rax,%rax,1)
  40558f:	00 
/home/aliha951/ipdps-artifact/gapbs-master/src/bc_batching_nopt.cc:229
    scores[n] = scores[n] / biggest_score;
  405590:	f3 0f 10 06          	movss  (%rsi),%xmm0
  405594:	48 83 c6 04          	add    $0x4,%rsi
  405598:	f3 41 0f 5e 00       	divss  (%r8),%xmm0
  40559d:	f3 0f 11 46 fc       	movss  %xmm0,-0x4(%rsi)
  4055a2:	48 39 c6             	cmp    %rax,%rsi
  4055a5:	75 e9                	jne    405590 <_Z7BrandesRK8CSRGraphIiiLb1EER12SourcePickerIS0_Eib._omp_fn.2+0x130>
  4055a7:	eb b9                	jmp    405562 <_Z7BrandesRK8CSRGraphIiiLb1EER12SourcePickerIS0_Eib._omp_fn.2+0x102>
  4055a9:	0f 1f 80 00 00 00 00 	nopl   0x0(%rax)

00000000004055b0 <_Z7BrandesRK8CSRGraphIiiLb1EER12SourcePickerIS0_Eib._omp_fn.1>:
_Z7BrandesRK8CSRGraphIiiLb1EER12SourcePickerIS0_Eib._omp_fn.1():
/home/aliha951/ipdps-artifact/gapbs-master/src/bc_batching_nopt.cc:224
  #pragma omp parallel for reduction(max : biggest_score)
  4055b0:	f3 0f 1e fa          	endbr64 
  4055b4:	55                   	push   %rbp
  4055b5:	53                   	push   %rbx
  4055b6:	48 89 fb             	mov    %rdi,%rbx
  4055b9:	48 83 ec 08          	sub    $0x8,%rsp
  4055bd:	e8 7e e5 ff ff       	callq  403b40 <omp_get_num_threads@plt>
  4055c2:	89 c5                	mov    %eax,%ebp
  4055c4:	e8 37 e4 ff ff       	callq  403a00 <omp_get_thread_num@plt>
  4055c9:	89 c1                	mov    %eax,%ecx
_ZNK8CSRGraphIiiLb1EE9num_nodesEv():
/home/aliha951/ipdps-artifact/gapbs-master/src/graph.h:194
  4055cb:	48 8b 03             	mov    (%rbx),%rax
_Z7BrandesRK8CSRGraphIiiLb1EER12SourcePickerIS0_Eib._omp_fn.1():
/home/aliha951/ipdps-artifact/gapbs-master/src/bc_batching_nopt.cc:225
  for (NodeID n=0; n < g.num_nodes(); n++)
  4055ce:	48 8b 40 08          	mov    0x8(%rax),%rax
  4055d2:	99                   	cltd   
  4055d3:	f7 fd                	idiv   %ebp
  4055d5:	39 d1                	cmp    %edx,%ecx
  4055d7:	7c 77                	jl     405650 <_Z7BrandesRK8CSRGraphIiiLb1EER12SourcePickerIS0_Eib._omp_fn.1+0xa0>
  4055d9:	0f af c8             	imul   %eax,%ecx
_ZSt3maxIfERKT_S2_S2_():
/usr/include/c++/10/bits/stl_algobase.h:259
    max(const _Tp& __a, const _Tp& __b)
    {
      // concept requirements
      __glibcxx_function_requires(_LessThanComparableConcept<_Tp>)
      //return  __a < __b ? __b : __a;
      if (__a < __b)
  4055dc:	f3 0f 10 05 2c 2b 01 	movss  0x12b2c(%rip),%xmm0        # 418110 <_ZZNSt8__detail18__to_chars_10_implIjEEvPcjT_E8__digits+0xd0>
  4055e3:	00 
  4055e4:	01 ca                	add    %ecx,%edx
  4055e6:	8d 0c 10             	lea    (%rax,%rdx,1),%ecx
  4055e9:	39 ca                	cmp    %ecx,%edx
  4055eb:	7d 37                	jge    405624 <_Z7BrandesRK8CSRGraphIiiLb1EER12SourcePickerIS0_Eib._omp_fn.1+0x74>
_ZN7pvectorIfEixEm():
/home/aliha951/ipdps-artifact/gapbs-master/src/pvector.h:116
  4055ed:	48 8b 4b 08          	mov    0x8(%rbx),%rcx
  4055f1:	83 e8 01             	sub    $0x1,%eax
  4055f4:	48 8b 31             	mov    (%rcx),%rsi
  4055f7:	48 63 ca             	movslq %edx,%rcx
  4055fa:	48 8d 14 8e          	lea    (%rsi,%rcx,4),%rdx
  4055fe:	48 01 c1             	add    %rax,%rcx
  405601:	48 8d 44 8e 04       	lea    0x4(%rsi,%rcx,4),%rax
  405606:	66 2e 0f 1f 84 00 00 	nopw   %cs:0x0(%rax,%rax,1)
  40560d:	00 00 00 
_ZSt3maxIfERKT_S2_S2_():
/usr/include/c++/10/bits/stl_algobase.h:259
  405610:	f3 0f 10 0a          	movss  (%rdx),%xmm1
  405614:	48 83 c2 04          	add    $0x4,%rdx
  405618:	f3 0f 5f c8          	maxss  %xmm0,%xmm1
  40561c:	0f 28 c1             	movaps %xmm1,%xmm0
  40561f:	48 39 d0             	cmp    %rdx,%rax
  405622:	75 ec                	jne    405610 <_Z7BrandesRK8CSRGraphIiiLb1EER12SourcePickerIS0_Eib._omp_fn.1+0x60>
  405624:	8b 53 10             	mov    0x10(%rbx),%edx
_Z7BrandesRK8CSRGraphIiiLb1EER12SourcePickerIS0_Eib._omp_fn.1():
/home/aliha951/ipdps-artifact/gapbs-master/src/bc_batching_nopt.cc:224 (discriminator 4)
  #pragma omp parallel for reduction(max : biggest_score)
  405627:	48 8d 4b 10          	lea    0x10(%rbx),%rcx
  40562b:	66 0f 6e d2          	movd   %edx,%xmm2
  40562f:	89 d0                	mov    %edx,%eax
  405631:	f3 0f 5f d0          	maxss  %xmm0,%xmm2
  405635:	66 0f 7e d6          	movd   %xmm2,%esi
  405639:	f0 0f b1 31          	lock cmpxchg %esi,(%rcx)
  40563d:	39 c2                	cmp    %eax,%edx
  40563f:	75 16                	jne    405657 <_Z7BrandesRK8CSRGraphIiiLb1EER12SourcePickerIS0_Eib._omp_fn.1+0xa7>
/home/aliha951/ipdps-artifact/gapbs-master/src/bc_batching_nopt.cc:224
  405641:	48 83 c4 08          	add    $0x8,%rsp
  405645:	5b                   	pop    %rbx
  405646:	5d                   	pop    %rbp
  405647:	c3                   	retq   
  405648:	0f 1f 84 00 00 00 00 	nopl   0x0(%rax,%rax,1)
  40564f:	00 
  405650:	83 c0 01             	add    $0x1,%eax
/home/aliha951/ipdps-artifact/gapbs-master/src/bc_batching_nopt.cc:225
  for (NodeID n=0; n < g.num_nodes(); n++)
  405653:	31 d2                	xor    %edx,%edx
  405655:	eb 82                	jmp    4055d9 <_Z7BrandesRK8CSRGraphIiiLb1EER12SourcePickerIS0_Eib._omp_fn.1+0x29>
/home/aliha951/ipdps-artifact/gapbs-master/src/bc_batching_nopt.cc:224
  #pragma omp parallel for reduction(max : biggest_score)
  405657:	89 c2                	mov    %eax,%edx
  405659:	eb d0                	jmp    40562b <_Z7BrandesRK8CSRGraphIiiLb1EER12SourcePickerIS0_Eib._omp_fn.1+0x7b>
  40565b:	0f 1f 44 00 00       	nopl   0x0(%rax,%rax,1)

0000000000405660 <_ZN7pvectorIdE4fillEd._omp_fn.0>:
_ZN7pvectorIdE4fillEd._omp_fn.0():
/home/aliha951/ipdps-artifact/gapbs-master/src/pvector.h:133
    #pragma omp parallel for
  405660:	f3 0f 1e fa          	endbr64 
  405664:	41 55                	push   %r13
  405666:	41 54                	push   %r12
  405668:	55                   	push   %rbp
  405669:	53                   	push   %rbx
  40566a:	48 83 ec 08          	sub    $0x8,%rsp
  40566e:	48 8b 07             	mov    (%rdi),%rax
/home/aliha951/ipdps-artifact/gapbs-master/src/pvector.h:134
    for (T_* ptr=start_; ptr < end_size_; ptr++)
  405671:	48 8b 28             	mov    (%rax),%rbp
  405674:	4c 8b 68 08          	mov    0x8(%rax),%r13
  405678:	4c 39 ed             	cmp    %r13,%rbp
  40567b:	0f 83 bf 00 00 00    	jae    405740 <_ZN7pvectorIdE4fillEd._omp_fn.0+0xe0>
  405681:	49 89 fc             	mov    %rdi,%r12
  405684:	e8 b7 e4 ff ff       	callq  403b40 <omp_get_num_threads@plt>
  405689:	48 63 d8             	movslq %eax,%rbx
  40568c:	e8 6f e3 ff ff       	callq  403a00 <omp_get_thread_num@plt>
  405691:	48 63 c8             	movslq %eax,%rcx
  405694:	49 8d 45 07          	lea    0x7(%r13),%rax
  405698:	48 29 e8             	sub    %rbp,%rax
  40569b:	48 89 c2             	mov    %rax,%rdx
  40569e:	48 8d 40 07          	lea    0x7(%rax),%rax
  4056a2:	48 0f 49 c2          	cmovns %rdx,%rax
  4056a6:	48 c1 f8 03          	sar    $0x3,%rax
  4056aa:	48 99                	cqto   
  4056ac:	48 f7 fb             	idiv   %rbx
  4056af:	48 39 d1             	cmp    %rdx,%rcx
  4056b2:	0f 8c 98 00 00 00    	jl     405750 <_ZN7pvectorIdE4fillEd._omp_fn.0+0xf0>
  4056b8:	48 0f af c8          	imul   %rax,%rcx
  4056bc:	48 01 ca             	add    %rcx,%rdx
  4056bf:	48 01 d0             	add    %rdx,%rax
  4056c2:	48 39 c2             	cmp    %rax,%rdx
  4056c5:	7d 79                	jge    405740 <_ZN7pvectorIdE4fillEd._omp_fn.0+0xe0>
  4056c7:	48 c1 e2 03          	shl    $0x3,%rdx
  4056cb:	48 c1 e0 03          	shl    $0x3,%rax
/home/aliha951/ipdps-artifact/gapbs-master/src/pvector.h:133
    #pragma omp parallel for
  4056cf:	f2 41 0f 10 44 24 08 	movsd  0x8(%r12),%xmm0
  4056d6:	48 8d 74 15 00       	lea    0x0(%rbp,%rdx,1),%rsi
  4056db:	48 01 c5             	add    %rax,%rbp
  4056de:	48 29 d0             	sub    %rdx,%rax
  4056e1:	48 83 e8 01          	sub    $0x1,%rax
  4056e5:	48 8d 7e 01          	lea    0x1(%rsi),%rdi
  4056e9:	48 89 f1             	mov    %rsi,%rcx
  4056ec:	48 89 c2             	mov    %rax,%rdx
  4056ef:	48 c1 ea 03          	shr    $0x3,%rdx
  4056f3:	48 83 c2 01          	add    $0x1,%rdx
  4056f7:	48 39 fd             	cmp    %rdi,%rbp
  4056fa:	bf 01 00 00 00       	mov    $0x1,%edi
  4056ff:	48 0f 42 d7          	cmovb  %rdi,%rdx
  405703:	72 37                	jb     40573c <_ZN7pvectorIdE4fillEd._omp_fn.0+0xdc>
  405705:	48 83 f8 07          	cmp    $0x7,%rax
  405709:	76 31                	jbe    40573c <_ZN7pvectorIdE4fillEd._omp_fn.0+0xdc>
  40570b:	48 89 d0             	mov    %rdx,%rax
  40570e:	66 0f 28 c8          	movapd %xmm0,%xmm1
  405712:	48 d1 e8             	shr    %rax
  405715:	66 0f 14 c9          	unpcklpd %xmm1,%xmm1
  405719:	48 c1 e0 04          	shl    $0x4,%rax
  40571d:	48 01 f0             	add    %rsi,%rax
/home/aliha951/ipdps-artifact/gapbs-master/src/pvector.h:135 (discriminator 1)
      *ptr = init_val;
  405720:	0f 11 09             	movups %xmm1,(%rcx)
  405723:	48 83 c1 10          	add    $0x10,%rcx
  405727:	48 39 c8             	cmp    %rcx,%rax
  40572a:	75 f4                	jne    405720 <_ZN7pvectorIdE4fillEd._omp_fn.0+0xc0>
  40572c:	48 89 d0             	mov    %rdx,%rax
  40572f:	48 83 e0 fe          	and    $0xfffffffffffffffe,%rax
  405733:	48 8d 34 c6          	lea    (%rsi,%rax,8),%rsi
  405737:	48 39 c2             	cmp    %rax,%rdx
  40573a:	74 04                	je     405740 <_ZN7pvectorIdE4fillEd._omp_fn.0+0xe0>
/home/aliha951/ipdps-artifact/gapbs-master/src/pvector.h:135
  40573c:	f2 0f 11 06          	movsd  %xmm0,(%rsi)
/home/aliha951/ipdps-artifact/gapbs-master/src/pvector.h:133
    #pragma omp parallel for
  405740:	48 83 c4 08          	add    $0x8,%rsp
  405744:	5b                   	pop    %rbx
  405745:	5d                   	pop    %rbp
  405746:	41 5c                	pop    %r12
  405748:	41 5d                	pop    %r13
  40574a:	c3                   	retq   
  40574b:	0f 1f 44 00 00       	nopl   0x0(%rax,%rax,1)
  405750:	48 83 c0 01          	add    $0x1,%rax
/home/aliha951/ipdps-artifact/gapbs-master/src/pvector.h:134
    for (T_* ptr=start_; ptr < end_size_; ptr++)
  405754:	31 d2                	xor    %edx,%edx
  405756:	e9 5d ff ff ff       	jmpq   4056b8 <_ZN7pvectorIdE4fillEd._omp_fn.0+0x58>
  40575b:	0f 1f 44 00 00       	nopl   0x0(%rax,%rax,1)

0000000000405760 <_ZN7pvectorIfE4fillEf._omp_fn.0>:
_ZN7pvectorIfE4fillEf._omp_fn.0():
/home/aliha951/ipdps-artifact/gapbs-master/src/pvector.h:133
    #pragma omp parallel for
  405760:	f3 0f 1e fa          	endbr64 
  405764:	41 55                	push   %r13
  405766:	41 54                	push   %r12
  405768:	55                   	push   %rbp
  405769:	53                   	push   %rbx
  40576a:	48 83 ec 08          	sub    $0x8,%rsp
  40576e:	48 8b 07             	mov    (%rdi),%rax
/home/aliha951/ipdps-artifact/gapbs-master/src/pvector.h:134
    for (T_* ptr=start_; ptr < end_size_; ptr++)
  405771:	48 8b 28             	mov    (%rax),%rbp
  405774:	4c 8b 68 08          	mov    0x8(%rax),%r13
  405778:	4c 39 ed             	cmp    %r13,%rbp
  40577b:	0f 83 e3 00 00 00    	jae    405864 <_ZN7pvectorIfE4fillEf._omp_fn.0+0x104>
  405781:	49 89 fc             	mov    %rdi,%r12
  405784:	e8 b7 e3 ff ff       	callq  403b40 <omp_get_num_threads@plt>
  405789:	48 63 d8             	movslq %eax,%rbx
  40578c:	e8 6f e2 ff ff       	callq  403a00 <omp_get_thread_num@plt>
  405791:	48 63 c8             	movslq %eax,%rcx
  405794:	49 8d 45 03          	lea    0x3(%r13),%rax
  405798:	48 29 e8             	sub    %rbp,%rax
  40579b:	48 89 c2             	mov    %rax,%rdx
  40579e:	48 8d 40 03          	lea    0x3(%rax),%rax
  4057a2:	48 0f 49 c2          	cmovns %rdx,%rax
  4057a6:	48 c1 f8 02          	sar    $0x2,%rax
  4057aa:	48 99                	cqto   
  4057ac:	48 f7 fb             	idiv   %rbx
  4057af:	48 39 d1             	cmp    %rdx,%rcx
  4057b2:	0f 8c b8 00 00 00    	jl     405870 <_ZN7pvectorIfE4fillEf._omp_fn.0+0x110>
  4057b8:	48 0f af c8          	imul   %rax,%rcx
  4057bc:	48 01 ca             	add    %rcx,%rdx
  4057bf:	48 01 d0             	add    %rdx,%rax
  4057c2:	48 39 c2             	cmp    %rax,%rdx
  4057c5:	0f 8d 99 00 00 00    	jge    405864 <_ZN7pvectorIfE4fillEf._omp_fn.0+0x104>
  4057cb:	48 c1 e2 02          	shl    $0x2,%rdx
  4057cf:	48 c1 e0 02          	shl    $0x2,%rax
/home/aliha951/ipdps-artifact/gapbs-master/src/pvector.h:133
    #pragma omp parallel for
  4057d3:	f3 41 0f 10 4c 24 08 	movss  0x8(%r12),%xmm1
  4057da:	48 8d 74 15 00       	lea    0x0(%rbp,%rdx,1),%rsi
  4057df:	48 01 c5             	add    %rax,%rbp
  4057e2:	48 29 d0             	sub    %rdx,%rax
  4057e5:	48 83 e8 01          	sub    $0x1,%rax
  4057e9:	48 8d 7e 01          	lea    0x1(%rsi),%rdi
  4057ed:	48 89 f1             	mov    %rsi,%rcx
  4057f0:	48 89 c2             	mov    %rax,%rdx
  4057f3:	48 c1 ea 02          	shr    $0x2,%rdx
  4057f7:	48 83 c2 01          	add    $0x1,%rdx
  4057fb:	48 39 fd             	cmp    %rdi,%rbp
  4057fe:	bf 01 00 00 00       	mov    $0x1,%edi
  405803:	48 0f 42 d7          	cmovb  %rdi,%rdx
  405807:	72 3b                	jb     405844 <_ZN7pvectorIfE4fillEf._omp_fn.0+0xe4>
  405809:	48 83 f8 0b          	cmp    $0xb,%rax
  40580d:	76 35                	jbe    405844 <_ZN7pvectorIfE4fillEf._omp_fn.0+0xe4>
  40580f:	48 89 d0             	mov    %rdx,%rax
  405812:	0f 28 c1             	movaps %xmm1,%xmm0
  405815:	48 c1 e8 02          	shr    $0x2,%rax
  405819:	0f c6 c0 00          	shufps $0x0,%xmm0,%xmm0
  40581d:	48 c1 e0 04          	shl    $0x4,%rax
  405821:	48 01 f0             	add    %rsi,%rax
  405824:	0f 1f 40 00          	nopl   0x0(%rax)
/home/aliha951/ipdps-artifact/gapbs-master/src/pvector.h:135 (discriminator 1)
      *ptr = init_val;
  405828:	0f 11 01             	movups %xmm0,(%rcx)
  40582b:	48 83 c1 10          	add    $0x10,%rcx
  40582f:	48 39 c1             	cmp    %rax,%rcx
  405832:	75 f4                	jne    405828 <_ZN7pvectorIfE4fillEf._omp_fn.0+0xc8>
  405834:	48 89 d0             	mov    %rdx,%rax
  405837:	48 83 e0 fc          	and    $0xfffffffffffffffc,%rax
  40583b:	48 8d 34 86          	lea    (%rsi,%rax,4),%rsi
  40583f:	48 39 c2             	cmp    %rax,%rdx
  405842:	74 20                	je     405864 <_ZN7pvectorIfE4fillEf._omp_fn.0+0x104>
  405844:	48 8d 46 04          	lea    0x4(%rsi),%rax
/home/aliha951/ipdps-artifact/gapbs-master/src/pvector.h:135
  405848:	f3 0f 11 0e          	movss  %xmm1,(%rsi)
  40584c:	48 39 c5             	cmp    %rax,%rbp
  40584f:	76 13                	jbe    405864 <_ZN7pvectorIfE4fillEf._omp_fn.0+0x104>
  405851:	48 8d 46 08          	lea    0x8(%rsi),%rax
  405855:	f3 0f 11 4e 04       	movss  %xmm1,0x4(%rsi)
  40585a:	48 39 c5             	cmp    %rax,%rbp
  40585d:	76 05                	jbe    405864 <_ZN7pvectorIfE4fillEf._omp_fn.0+0x104>
  40585f:	f3 0f 11 4e 08       	movss  %xmm1,0x8(%rsi)
/home/aliha951/ipdps-artifact/gapbs-master/src/pvector.h:133
    #pragma omp parallel for
  405864:	48 83 c4 08          	add    $0x8,%rsp
  405868:	5b                   	pop    %rbx
  405869:	5d                   	pop    %rbp
  40586a:	41 5c                	pop    %r12
  40586c:	41 5d                	pop    %r13
  40586e:	c3                   	retq   
  40586f:	90                   	nop
  405870:	48 83 c0 01          	add    $0x1,%rax
/home/aliha951/ipdps-artifact/gapbs-master/src/pvector.h:134
    for (T_* ptr=start_; ptr < end_size_; ptr++)
  405874:	31 d2                	xor    %edx,%edx
  405876:	e9 3d ff ff ff       	jmpq   4057b8 <_ZN7pvectorIfE4fillEf._omp_fn.0+0x58>
  40587b:	0f 1f 44 00 00       	nopl   0x0(%rax,%rax,1)

0000000000405880 <_ZN8CSRGraphIiiLb1EE8GenIndexERK7pvectorIlEPi._omp_fn.0>:
_ZN8CSRGraphIiiLb1EE8GenIndexERK7pvectorIlEPi._omp_fn.0():
/home/aliha951/ipdps-artifact/gapbs-master/src/graph.h:245
  }

  static DestID_** GenIndex(const pvector<SGOffset> &offsets, DestID_* neighs) {
    NodeID_ length = offsets.size();
    DestID_** index = new DestID_*[length];
    #pragma omp parallel for
  405880:	f3 0f 1e fa          	endbr64 
  405884:	55                   	push   %rbp
  405885:	53                   	push   %rbx
  405886:	48 89 fb             	mov    %rdi,%rbx
  405889:	48 83 ec 08          	sub    $0x8,%rsp
  40588d:	e8 ae e2 ff ff       	callq  403b40 <omp_get_num_threads@plt>
  405892:	89 c5                	mov    %eax,%ebp
  405894:	e8 67 e1 ff ff       	callq  403a00 <omp_get_thread_num@plt>
  405899:	89 c1                	mov    %eax,%ecx
  40589b:	8b 43 18             	mov    0x18(%rbx),%eax
  40589e:	99                   	cltd   
  40589f:	f7 fd                	idiv   %ebp
  4058a1:	39 d1                	cmp    %edx,%ecx
  4058a3:	7c 43                	jl     4058e8 <_ZN8CSRGraphIiiLb1EE8GenIndexERK7pvectorIlEPi._omp_fn.0+0x68>
  4058a5:	0f af c8             	imul   %eax,%ecx
  4058a8:	01 ca                	add    %ecx,%edx
  4058aa:	01 d0                	add    %edx,%eax
  4058ac:	39 c2                	cmp    %eax,%edx
  4058ae:	7d 2c                	jge    4058dc <_ZN8CSRGraphIiiLb1EE8GenIndexERK7pvectorIlEPi._omp_fn.0+0x5c>
_ZNK7pvectorIlEixEm():
/home/aliha951/ipdps-artifact/gapbs-master/src/pvector.h:120
    return start_[n];
  4058b0:	48 8b 0b             	mov    (%rbx),%rcx
_ZN8CSRGraphIiiLb1EE8GenIndexERK7pvectorIlEPi._omp_fn.0():
/home/aliha951/ipdps-artifact/gapbs-master/src/graph.h:245
  4058b3:	4c 8b 43 10          	mov    0x10(%rbx),%r8
  4058b7:	48 63 d2             	movslq %edx,%rdx
  4058ba:	48 8b 7b 08          	mov    0x8(%rbx),%rdi
_ZNK7pvectorIlEixEm():
/home/aliha951/ipdps-artifact/gapbs-master/src/pvector.h:120
  4058be:	48 8b 31             	mov    (%rcx),%rsi
  4058c1:	0f 1f 80 00 00 00 00 	nopl   0x0(%rax)
_ZN8CSRGraphIiiLb1EE8GenIndexERK7pvectorIlEPi._omp_fn.0():
/home/aliha951/ipdps-artifact/gapbs-master/src/graph.h:247 (discriminator 1)
    for (NodeID_ n=0; n < length; n++)
      index[n] = neighs + offsets[n];
  4058c8:	48 8b 0c d6          	mov    (%rsi,%rdx,8),%rcx
  4058cc:	48 8d 0c 8f          	lea    (%rdi,%rcx,4),%rcx
  4058d0:	49 89 0c d0          	mov    %rcx,(%r8,%rdx,8)
  4058d4:	48 83 c2 01          	add    $0x1,%rdx
  4058d8:	39 d0                	cmp    %edx,%eax
  4058da:	7f ec                	jg     4058c8 <_ZN8CSRGraphIiiLb1EE8GenIndexERK7pvectorIlEPi._omp_fn.0+0x48>
/home/aliha951/ipdps-artifact/gapbs-master/src/graph.h:245
    #pragma omp parallel for
  4058dc:	48 83 c4 08          	add    $0x8,%rsp
  4058e0:	5b                   	pop    %rbx
  4058e1:	5d                   	pop    %rbp
  4058e2:	c3                   	retq   
  4058e3:	0f 1f 44 00 00       	nopl   0x0(%rax,%rax,1)
  4058e8:	83 c0 01             	add    $0x1,%eax
  4058eb:	31 d2                	xor    %edx,%edx
  4058ed:	eb b6                	jmp    4058a5 <_ZN8CSRGraphIiiLb1EE8GenIndexERK7pvectorIlEPi._omp_fn.0+0x25>
  4058ef:	90                   	nop

00000000004058f0 <_ZN7pvectorI8EdgePairIiiEE7reserveEm._omp_fn.0>:
_ZN7pvectorI8EdgePairIiiEE7reserveEm._omp_fn.0():
/home/aliha951/ipdps-artifact/gapbs-master/src/pvector.h:86
      #pragma omp parallel for
  4058f0:	f3 0f 1e fa          	endbr64 
  4058f4:	41 55                	push   %r13
  4058f6:	41 54                	push   %r12
  4058f8:	55                   	push   %rbp
  4058f9:	53                   	push   %rbx
  4058fa:	48 83 ec 08          	sub    $0x8,%rsp
  4058fe:	48 8b 07             	mov    (%rdi),%rax
_ZNK7pvectorI8EdgePairIiiEE4sizeEv():
/home/aliha951/ipdps-artifact/gapbs-master/src/pvector.h:143
  size_t capacity() const {
    return end_capacity_ - start_;
  }

  size_t size() const {
    return end_size_ - start_;
  405901:	4c 8b 20             	mov    (%rax),%r12
  405904:	48 8b 40 08          	mov    0x8(%rax),%rax
  405908:	4c 29 e0             	sub    %r12,%rax
  40590b:	48 c1 f8 03          	sar    $0x3,%rax
  40590f:	74 50                	je     405961 <_ZN7pvectorI8EdgePairIiiEE7reserveEm._omp_fn.0+0x71>
  405911:	49 89 fd             	mov    %rdi,%r13
  405914:	48 89 c3             	mov    %rax,%rbx
  405917:	e8 24 e2 ff ff       	callq  403b40 <omp_get_num_threads@plt>
  40591c:	89 c5                	mov    %eax,%ebp
  40591e:	e8 dd e0 ff ff       	callq  403a00 <omp_get_thread_num@plt>
  405923:	48 63 f5             	movslq %ebp,%rsi
  405926:	31 d2                	xor    %edx,%edx
  405928:	48 63 c8             	movslq %eax,%rcx
  40592b:	48 89 d8             	mov    %rbx,%rax
  40592e:	48 f7 f6             	div    %rsi
  405931:	48 39 d1             	cmp    %rdx,%rcx
  405934:	72 3a                	jb     405970 <_ZN7pvectorI8EdgePairIiiEE7reserveEm._omp_fn.0+0x80>
  405936:	48 0f af c8          	imul   %rax,%rcx
  40593a:	48 01 ca             	add    %rcx,%rdx
  40593d:	48 01 d0             	add    %rdx,%rax
  405940:	48 39 c2             	cmp    %rax,%rdx
  405943:	73 1c                	jae    405961 <_ZN7pvectorI8EdgePairIiiEE7reserveEm._omp_fn.0+0x71>
_ZN7pvectorI8EdgePairIiiEE7reserveEm._omp_fn.0():
/home/aliha951/ipdps-artifact/gapbs-master/src/pvector.h:86
      #pragma omp parallel for
  405945:	49 8b 75 08          	mov    0x8(%r13),%rsi
  405949:	0f 1f 80 00 00 00 00 	nopl   0x0(%rax)
/home/aliha951/ipdps-artifact/gapbs-master/src/pvector.h:88 (discriminator 1)
        new_range[i] = start_[i];
  405950:	49 8b 0c d4          	mov    (%r12,%rdx,8),%rcx
  405954:	48 89 0c d6          	mov    %rcx,(%rsi,%rdx,8)
  405958:	48 83 c2 01          	add    $0x1,%rdx
  40595c:	48 39 d0             	cmp    %rdx,%rax
  40595f:	75 ef                	jne    405950 <_ZN7pvectorI8EdgePairIiiEE7reserveEm._omp_fn.0+0x60>
/home/aliha951/ipdps-artifact/gapbs-master/src/pvector.h:86
      #pragma omp parallel for
  405961:	48 83 c4 08          	add    $0x8,%rsp
  405965:	5b                   	pop    %rbx
  405966:	5d                   	pop    %rbp
  405967:	41 5c                	pop    %r12
  405969:	41 5d                	pop    %r13
  40596b:	c3                   	retq   
  40596c:	0f 1f 40 00          	nopl   0x0(%rax)
  405970:	48 83 c0 01          	add    $0x1,%rax
_ZNK7pvectorI8EdgePairIiiEE4sizeEv():
/home/aliha951/ipdps-artifact/gapbs-master/src/pvector.h:143
    return end_size_ - start_;
  405974:	31 d2                	xor    %edx,%edx
  405976:	eb be                	jmp    405936 <_ZN7pvectorI8EdgePairIiiEE7reserveEm._omp_fn.0+0x46>
_ZN7pvectorI8EdgePairIiiEE7reserveEm._omp_fn.0():
/home/aliha951/ipdps-artifact/gapbs-master/src/pvector.h:143
  405978:	0f 1f 84 00 00 00 00 	nopl   0x0(%rax,%rax,1)
  40597f:	00 

0000000000405980 <_ZN11BuilderBaseIiiiLb1EE12CountDegreesERK7pvectorI8EdgePairIiiEEb._omp_fn.0>:
_ZN11BuilderBaseIiiiLb1EE12CountDegreesERK7pvectorI8EdgePairIiiEEb._omp_fn.0():
/home/aliha951/ipdps-artifact/gapbs-master/src/builder.h:82
    return max_seen;
  }

  pvector<NodeID_> CountDegrees(const EdgeList &el, bool transpose) {
    pvector<NodeID_> degrees(num_nodes_, 0);
    #pragma omp parallel for
  405980:	f3 0f 1e fa          	endbr64 
  405984:	41 55                	push   %r13
  405986:	41 54                	push   %r12
  405988:	55                   	push   %rbp
  405989:	53                   	push   %rbx
  40598a:	48 83 ec 08          	sub    $0x8,%rsp
/home/aliha951/ipdps-artifact/gapbs-master/src/builder.h:83
    for (auto it = el.begin(); it < el.end(); it++) {
  40598e:	48 8b 47 08          	mov    0x8(%rdi),%rax
_ZNK7pvectorI8EdgePairIiiEE5beginEv():
/home/aliha951/ipdps-artifact/gapbs-master/src/pvector.h:147
  }

  iterator begin() const {
    return start_;
  405992:	4c 8b 20             	mov    (%rax),%r12
_ZNK7pvectorI8EdgePairIiiEE3endEv():
/home/aliha951/ipdps-artifact/gapbs-master/src/pvector.h:151
  }

  iterator end() const {
    return end_size_;
  405995:	4c 8b 68 08          	mov    0x8(%rax),%r13
  405999:	4d 39 e5             	cmp    %r12,%r13
  40599c:	0f 86 8a 00 00 00    	jbe    405a2c <_ZN11BuilderBaseIiiiLb1EE12CountDegreesERK7pvectorI8EdgePairIiiEEb._omp_fn.0+0xac>
  4059a2:	48 89 fb             	mov    %rdi,%rbx
  4059a5:	e8 96 e1 ff ff       	callq  403b40 <omp_get_num_threads@plt>
  4059aa:	48 63 e8             	movslq %eax,%rbp
  4059ad:	e8 4e e0 ff ff       	callq  403a00 <omp_get_thread_num@plt>
  4059b2:	48 63 c8             	movslq %eax,%rcx
  4059b5:	49 8d 45 07          	lea    0x7(%r13),%rax
  4059b9:	4c 29 e0             	sub    %r12,%rax
  4059bc:	48 89 c2             	mov    %rax,%rdx
  4059bf:	48 8d 40 07          	lea    0x7(%rax),%rax
  4059c3:	48 0f 49 c2          	cmovns %rdx,%rax
  4059c7:	48 c1 f8 03          	sar    $0x3,%rax
  4059cb:	48 99                	cqto   
  4059cd:	48 f7 fd             	idiv   %rbp
  4059d0:	48 39 d1             	cmp    %rdx,%rcx
  4059d3:	7c 6b                	jl     405a40 <_ZN11BuilderBaseIiiiLb1EE12CountDegreesERK7pvectorI8EdgePairIiiEEb._omp_fn.0+0xc0>
  4059d5:	48 0f af c8          	imul   %rax,%rcx
  4059d9:	48 01 ca             	add    %rcx,%rdx
  4059dc:	48 01 d0             	add    %rdx,%rax
  4059df:	48 39 c2             	cmp    %rax,%rdx
  4059e2:	7d 48                	jge    405a2c <_ZN11BuilderBaseIiiiLb1EE12CountDegreesERK7pvectorI8EdgePairIiiEEb._omp_fn.0+0xac>
  4059e4:	80 7b 18 00          	cmpb   $0x0,0x18(%rbx)
_ZN11BuilderBaseIiiiLb1EE12CountDegreesERK7pvectorI8EdgePairIiiEEb._omp_fn.0():
/home/aliha951/ipdps-artifact/gapbs-master/src/builder.h:82
    #pragma omp parallel for
  4059e8:	48 8b 3b             	mov    (%rbx),%rdi
  4059eb:	49 8d 14 d4          	lea    (%r12,%rdx,8),%rdx
  4059ef:	4d 8d 04 c4          	lea    (%r12,%rax,8),%r8
  4059f3:	75 53                	jne    405a48 <_ZN11BuilderBaseIiiiLb1EE12CountDegreesERK7pvectorI8EdgePairIiiEEb._omp_fn.0+0xc8>
  4059f5:	0f 1f 00             	nopl   (%rax)
_ZN7pvectorIiEixEm():
/home/aliha951/ipdps-artifact/gapbs-master/src/pvector.h:116
    return start_[n];
  4059f8:	48 8b 4b 10          	mov    0x10(%rbx),%rcx
_ZN11BuilderBaseIiiiLb1EE12CountDegreesERK7pvectorI8EdgePairIiiEEb._omp_fn.0():
/home/aliha951/ipdps-artifact/gapbs-master/src/builder.h:84
      Edge e = *it;
  4059fc:	48 63 42 04          	movslq 0x4(%rdx),%rax
/home/aliha951/ipdps-artifact/gapbs-master/src/builder.h:86
      if (symmetrize_ || (!symmetrize_ && !transpose))
        fetch_and_add(degrees[e.u], 1);
  405a00:	48 63 32             	movslq (%rdx),%rsi
_Z13fetch_and_addIiiET_RS0_T0_():
/home/aliha951/ipdps-artifact/gapbs-master/src/platform_atomics.h:26

    // gcc/clang/icc instrinsics

    template<typename T, typename U>
    T fetch_and_add(T &x, U inc) {
      return __sync_fetch_and_add(&x, inc);
  405a03:	48 8b 09             	mov    (%rcx),%rcx
  405a06:	f0 83 04 b1 01       	lock addl $0x1,(%rcx,%rsi,4)
_ZN11BuilderBaseIiiiLb1EE12CountDegreesERK7pvectorI8EdgePairIiiEEb._omp_fn.0():
/home/aliha951/ipdps-artifact/gapbs-master/src/builder.h:87
      if ((symmetrize_ && !in_place_) || (!symmetrize_ && transpose))
  405a0b:	80 7f 08 00          	cmpb   $0x0,0x8(%rdi)
  405a0f:	74 12                	je     405a23 <_ZN11BuilderBaseIiiiLb1EE12CountDegreesERK7pvectorI8EdgePairIiiEEb._omp_fn.0+0xa3>
  405a11:	80 7f 0a 00          	cmpb   $0x0,0xa(%rdi)
  405a15:	75 0c                	jne    405a23 <_ZN11BuilderBaseIiiiLb1EE12CountDegreesERK7pvectorI8EdgePairIiiEEb._omp_fn.0+0xa3>
_ZN7pvectorIiEixEm():
/home/aliha951/ipdps-artifact/gapbs-master/src/pvector.h:116
  405a17:	48 8b 4b 10          	mov    0x10(%rbx),%rcx
_Z13fetch_and_addIiiET_RS0_T0_():
/home/aliha951/ipdps-artifact/gapbs-master/src/platform_atomics.h:26
  405a1b:	48 8b 09             	mov    (%rcx),%rcx
  405a1e:	f0 83 04 81 01       	lock addl $0x1,(%rcx,%rax,4)
  405a23:	48 83 c2 08          	add    $0x8,%rdx
  405a27:	49 39 d0             	cmp    %rdx,%r8
  405a2a:	77 cc                	ja     4059f8 <_ZN11BuilderBaseIiiiLb1EE12CountDegreesERK7pvectorI8EdgePairIiiEEb._omp_fn.0+0x78>
_ZN11BuilderBaseIiiiLb1EE12CountDegreesERK7pvectorI8EdgePairIiiEEb._omp_fn.0():
/home/aliha951/ipdps-artifact/gapbs-master/src/builder.h:82
    #pragma omp parallel for
  405a2c:	48 83 c4 08          	add    $0x8,%rsp
  405a30:	5b                   	pop    %rbx
  405a31:	5d                   	pop    %rbp
  405a32:	41 5c                	pop    %r12
  405a34:	41 5d                	pop    %r13
  405a36:	c3                   	retq   
  405a37:	66 0f 1f 84 00 00 00 	nopw   0x0(%rax,%rax,1)
  405a3e:	00 00 
  405a40:	48 83 c0 01          	add    $0x1,%rax
_ZNK7pvectorI8EdgePairIiiEE3endEv():
/home/aliha951/ipdps-artifact/gapbs-master/src/pvector.h:151
    return end_size_;
  405a44:	31 d2                	xor    %edx,%edx
  405a46:	eb 8d                	jmp    4059d5 <_ZN11BuilderBaseIiiiLb1EE12CountDegreesERK7pvectorI8EdgePairIiiEEb._omp_fn.0+0x55>
_ZN11BuilderBaseIiiiLb1EE12CountDegreesERK7pvectorI8EdgePairIiiEEb._omp_fn.0():
/home/aliha951/ipdps-artifact/gapbs-master/src/builder.h:85
      if (symmetrize_ || (!symmetrize_ && !transpose))
  405a48:	80 7f 08 00          	cmpb   $0x0,0x8(%rdi)
/home/aliha951/ipdps-artifact/gapbs-master/src/builder.h:84
      Edge e = *it;
  405a4c:	48 63 42 04          	movslq 0x4(%rdx),%rax
/home/aliha951/ipdps-artifact/gapbs-master/src/builder.h:85
      if (symmetrize_ || (!symmetrize_ && !transpose))
  405a50:	74 1b                	je     405a6d <_ZN11BuilderBaseIiiiLb1EE12CountDegreesERK7pvectorI8EdgePairIiiEEb._omp_fn.0+0xed>
_ZN7pvectorIiEixEm():
/home/aliha951/ipdps-artifact/gapbs-master/src/pvector.h:116
    return start_[n];
  405a52:	48 8b 4b 10          	mov    0x10(%rbx),%rcx
_ZN11BuilderBaseIiiiLb1EE12CountDegreesERK7pvectorI8EdgePairIiiEEb._omp_fn.0():
/home/aliha951/ipdps-artifact/gapbs-master/src/builder.h:86
        fetch_and_add(degrees[e.u], 1);
  405a56:	48 63 32             	movslq (%rdx),%rsi
_Z13fetch_and_addIiiET_RS0_T0_():
/home/aliha951/ipdps-artifact/gapbs-master/src/platform_atomics.h:26
  405a59:	48 8b 09             	mov    (%rcx),%rcx
  405a5c:	f0 83 04 b1 01       	lock addl $0x1,(%rcx,%rsi,4)
_ZN11BuilderBaseIiiiLb1EE12CountDegreesERK7pvectorI8EdgePairIiiEEb._omp_fn.0():
/home/aliha951/ipdps-artifact/gapbs-master/src/builder.h:87
      if ((symmetrize_ && !in_place_) || (!symmetrize_ && transpose))
  405a61:	80 7f 08 00          	cmpb   $0x0,0x8(%rdi)
  405a65:	74 06                	je     405a6d <_ZN11BuilderBaseIiiiLb1EE12CountDegreesERK7pvectorI8EdgePairIiiEEb._omp_fn.0+0xed>
/home/aliha951/ipdps-artifact/gapbs-master/src/builder.h:87 (discriminator 1)
  405a67:	80 7f 0a 00          	cmpb   $0x0,0xa(%rdi)
  405a6b:	75 0c                	jne    405a79 <_ZN11BuilderBaseIiiiLb1EE12CountDegreesERK7pvectorI8EdgePairIiiEEb._omp_fn.0+0xf9>
_ZN7pvectorIiEixEm():
/home/aliha951/ipdps-artifact/gapbs-master/src/pvector.h:116
  405a6d:	48 8b 4b 10          	mov    0x10(%rbx),%rcx
_Z13fetch_and_addIiiET_RS0_T0_():
/home/aliha951/ipdps-artifact/gapbs-master/src/platform_atomics.h:26
  405a71:	48 8b 09             	mov    (%rcx),%rcx
  405a74:	f0 83 04 81 01       	lock addl $0x1,(%rcx,%rax,4)
  405a79:	48 83 c2 08          	add    $0x8,%rdx
  405a7d:	49 39 d0             	cmp    %rdx,%r8
  405a80:	77 c6                	ja     405a48 <_ZN11BuilderBaseIiiiLb1EE12CountDegreesERK7pvectorI8EdgePairIiiEEb._omp_fn.0+0xc8>
  405a82:	eb a8                	jmp    405a2c <_ZN11BuilderBaseIiiiLb1EE12CountDegreesERK7pvectorI8EdgePairIiiEEb._omp_fn.0+0xac>
_ZN11BuilderBaseIiiiLb1EE12CountDegreesERK7pvectorI8EdgePairIiiEEb._omp_fn.0():
/home/aliha951/ipdps-artifact/gapbs-master/src/platform_atomics.h:26
  405a84:	66 66 2e 0f 1f 84 00 	data16 nopw %cs:0x0(%rax,%rax,1)
  405a8b:	00 00 00 00 
  405a8f:	90                   	nop

0000000000405a90 <_ZN11BuilderBaseIiiiLb1EE17ParallelPrefixSumERK7pvectorIiE._omp_fn.0>:
_ZN11BuilderBaseIiiiLb1EE17ParallelPrefixSumERK7pvectorIiE._omp_fn.0():
/home/aliha951/ipdps-artifact/gapbs-master/src/builder.h:110
  static
  pvector<SGOffset> ParallelPrefixSum(const pvector<NodeID_> &degrees) {
    const size_t block_size = 1<<20;
    const size_t num_blocks = (degrees.size() + block_size - 1) / block_size;
    pvector<SGOffset> local_sums(num_blocks);
    #pragma omp parallel for
  405a90:	f3 0f 1e fa          	endbr64 
  405a94:	41 54                	push   %r12
  405a96:	55                   	push   %rbp
  405a97:	53                   	push   %rbx
  405a98:	48 8b 5f 08          	mov    0x8(%rdi),%rbx
  405a9c:	48 85 db             	test   %rbx,%rbx
  405a9f:	0f 84 4d 01 00 00    	je     405bf2 <_ZN11BuilderBaseIiiiLb1EE17ParallelPrefixSumERK7pvectorIiE._omp_fn.0+0x162>
  405aa5:	49 89 fc             	mov    %rdi,%r12
  405aa8:	e8 93 e0 ff ff       	callq  403b40 <omp_get_num_threads@plt>
  405aad:	89 c5                	mov    %eax,%ebp
  405aaf:	e8 4c df ff ff       	callq  403a00 <omp_get_thread_num@plt>
  405ab4:	48 63 cd             	movslq %ebp,%rcx
  405ab7:	31 d2                	xor    %edx,%edx
  405ab9:	48 63 f0             	movslq %eax,%rsi
  405abc:	48 89 d8             	mov    %rbx,%rax
  405abf:	48 f7 f1             	div    %rcx
  405ac2:	48 39 d6             	cmp    %rdx,%rsi
  405ac5:	0f 82 3d 01 00 00    	jb     405c08 <_ZN11BuilderBaseIiiiLb1EE17ParallelPrefixSumERK7pvectorIiE._omp_fn.0+0x178>
  405acb:	48 0f af f0          	imul   %rax,%rsi
  405acf:	48 01 d6             	add    %rdx,%rsi
  405ad2:	48 01 f0             	add    %rsi,%rax
  405ad5:	48 39 c6             	cmp    %rax,%rsi
  405ad8:	0f 83 14 01 00 00    	jae    405bf2 <_ZN11BuilderBaseIiiiLb1EE17ParallelPrefixSumERK7pvectorIiE._omp_fn.0+0x162>
/home/aliha951/ipdps-artifact/gapbs-master/src/builder.h:113
    for (size_t block=0; block < num_blocks; block++) {
      SGOffset lsum = 0;
      size_t block_end = std::min((block + 1) * block_size, degrees.size());
  405ade:	49 8b 14 24          	mov    (%r12),%rdx
  405ae2:	49 89 f0             	mov    %rsi,%r8
/home/aliha951/ipdps-artifact/gapbs-master/src/builder.h:115
      for (size_t i=block * block_size; i < block_end; i++)
        lsum += degrees[i];
  405ae5:	66 0f ef e4          	pxor   %xmm4,%xmm4
  405ae9:	49 c1 e0 14          	shl    $0x14,%r8
_ZNK7pvectorIiE4sizeEv():
/home/aliha951/ipdps-artifact/gapbs-master/src/pvector.h:143
    return end_size_ - start_;
  405aed:	4c 8b 1a             	mov    (%rdx),%r11
  405af0:	4c 8b 52 08          	mov    0x8(%rdx),%r10
_ZN7pvectorIlEixEm():
/home/aliha951/ipdps-artifact/gapbs-master/src/pvector.h:116
    return start_[n];
  405af4:	49 8b 54 24 10       	mov    0x10(%r12),%rdx
_ZNK7pvectorIiE4sizeEv():
/home/aliha951/ipdps-artifact/gapbs-master/src/pvector.h:143
    return end_size_ - start_;
  405af9:	4d 29 da             	sub    %r11,%r10
_ZN7pvectorIlEixEm():
/home/aliha951/ipdps-artifact/gapbs-master/src/pvector.h:116
    return start_[n];
  405afc:	48 8b 12             	mov    (%rdx),%rdx
_ZNK7pvectorIiE4sizeEv():
/home/aliha951/ipdps-artifact/gapbs-master/src/pvector.h:143
    return end_size_ - start_;
  405aff:	49 c1 fa 02          	sar    $0x2,%r10
  405b03:	4c 8d 0c f2          	lea    (%rdx,%rsi,8),%r9
  405b07:	48 c1 e6 16          	shl    $0x16,%rsi
  405b0b:	48 8d 2c c2          	lea    (%rdx,%rax,8),%rbp
  405b0f:	4c 01 de             	add    %r11,%rsi
  405b12:	66 0f 1f 44 00 00    	nopw   0x0(%rax,%rax,1)
/home/aliha951/ipdps-artifact/gapbs-master/src/pvector.h:142
  size_t size() const {
  405b18:	4c 89 c1             	mov    %r8,%rcx
_ZN11BuilderBaseIiiiLb1EE17ParallelPrefixSumERK7pvectorIiE._omp_fn.0():
/home/aliha951/ipdps-artifact/gapbs-master/src/builder.h:113
      size_t block_end = std::min((block + 1) * block_size, degrees.size());
  405b1b:	49 81 c0 00 00 10 00 	add    $0x100000,%r8
  405b22:	4c 89 d3             	mov    %r10,%rbx
  405b25:	4d 39 d0             	cmp    %r10,%r8
  405b28:	49 0f 46 d8          	cmovbe %r8,%rbx
/home/aliha951/ipdps-artifact/gapbs-master/src/builder.h:114
      for (size_t i=block * block_size; i < block_end; i++)
  405b2c:	48 39 cb             	cmp    %rcx,%rbx
  405b2f:	0f 86 cb 00 00 00    	jbe    405c00 <_ZN11BuilderBaseIiiiLb1EE17ParallelPrefixSumERK7pvectorIiE._omp_fn.0+0x170>
