
../bfs:     file format elf64-x86-64


Disassembly of section .init:

0000000000403000 <_init>:
_init():
  403000:	f3 0f 1e fa          	endbr64 
  403004:	48 83 ec 08          	sub    $0x8,%rsp
  403008:	48 8b 05 e1 5f 01 00 	mov    0x15fe1(%rip),%rax        # 418ff0 <__gmon_start__>
  40300f:	48 85 c0             	test   %rax,%rax
  403012:	74 02                	je     403016 <_init+0x16>
  403014:	ff d0                	callq  *%rax
  403016:	48 83 c4 08          	add    $0x8,%rsp
  40301a:	c3                   	retq   

Disassembly of section .plt:

0000000000403020 <.plt>:
  403020:	ff 35 e2 5f 01 00    	pushq  0x15fe2(%rip)        # 419008 <_GLOBAL_OFFSET_TABLE_+0x8>
  403026:	f2 ff 25 e3 5f 01 00 	bnd jmpq *0x15fe3(%rip)        # 419010 <_GLOBAL_OFFSET_TABLE_+0x10>
  40302d:	0f 1f 00             	nopl   (%rax)
  403030:	f3 0f 1e fa          	endbr64 
  403034:	68 00 00 00 00       	pushq  $0x0
  403039:	f2 e9 e1 ff ff ff    	bnd jmpq 403020 <.plt>
  40303f:	90                   	nop
  403040:	f3 0f 1e fa          	endbr64 
  403044:	68 01 00 00 00       	pushq  $0x1
  403049:	f2 e9 d1 ff ff ff    	bnd jmpq 403020 <.plt>
  40304f:	90                   	nop
  403050:	f3 0f 1e fa          	endbr64 
  403054:	68 02 00 00 00       	pushq  $0x2
  403059:	f2 e9 c1 ff ff ff    	bnd jmpq 403020 <.plt>
  40305f:	90                   	nop
  403060:	f3 0f 1e fa          	endbr64 
  403064:	68 03 00 00 00       	pushq  $0x3
  403069:	f2 e9 b1 ff ff ff    	bnd jmpq 403020 <.plt>
  40306f:	90                   	nop
  403070:	f3 0f 1e fa          	endbr64 
  403074:	68 04 00 00 00       	pushq  $0x4
  403079:	f2 e9 a1 ff ff ff    	bnd jmpq 403020 <.plt>
  40307f:	90                   	nop
  403080:	f3 0f 1e fa          	endbr64 
  403084:	68 05 00 00 00       	pushq  $0x5
  403089:	f2 e9 91 ff ff ff    	bnd jmpq 403020 <.plt>
  40308f:	90                   	nop
  403090:	f3 0f 1e fa          	endbr64 
  403094:	68 06 00 00 00       	pushq  $0x6
  403099:	f2 e9 81 ff ff ff    	bnd jmpq 403020 <.plt>
  40309f:	90                   	nop
  4030a0:	f3 0f 1e fa          	endbr64 
  4030a4:	68 07 00 00 00       	pushq  $0x7
  4030a9:	f2 e9 71 ff ff ff    	bnd jmpq 403020 <.plt>
  4030af:	90                   	nop
  4030b0:	f3 0f 1e fa          	endbr64 
  4030b4:	68 08 00 00 00       	pushq  $0x8
  4030b9:	f2 e9 61 ff ff ff    	bnd jmpq 403020 <.plt>
  4030bf:	90                   	nop
  4030c0:	f3 0f 1e fa          	endbr64 
  4030c4:	68 09 00 00 00       	pushq  $0x9
  4030c9:	f2 e9 51 ff ff ff    	bnd jmpq 403020 <.plt>
  4030cf:	90                   	nop
  4030d0:	f3 0f 1e fa          	endbr64 
  4030d4:	68 0a 00 00 00       	pushq  $0xa
  4030d9:	f2 e9 41 ff ff ff    	bnd jmpq 403020 <.plt>
  4030df:	90                   	nop
  4030e0:	f3 0f 1e fa          	endbr64 
  4030e4:	68 0b 00 00 00       	pushq  $0xb
  4030e9:	f2 e9 31 ff ff ff    	bnd jmpq 403020 <.plt>
  4030ef:	90                   	nop
  4030f0:	f3 0f 1e fa          	endbr64 
  4030f4:	68 0c 00 00 00       	pushq  $0xc
  4030f9:	f2 e9 21 ff ff ff    	bnd jmpq 403020 <.plt>
  4030ff:	90                   	nop
  403100:	f3 0f 1e fa          	endbr64 
  403104:	68 0d 00 00 00       	pushq  $0xd
  403109:	f2 e9 11 ff ff ff    	bnd jmpq 403020 <.plt>
  40310f:	90                   	nop
  403110:	f3 0f 1e fa          	endbr64 
  403114:	68 0e 00 00 00       	pushq  $0xe
  403119:	f2 e9 01 ff ff ff    	bnd jmpq 403020 <.plt>
  40311f:	90                   	nop
  403120:	f3 0f 1e fa          	endbr64 
  403124:	68 0f 00 00 00       	pushq  $0xf
  403129:	f2 e9 f1 fe ff ff    	bnd jmpq 403020 <.plt>
  40312f:	90                   	nop
  403130:	f3 0f 1e fa          	endbr64 
  403134:	68 10 00 00 00       	pushq  $0x10
  403139:	f2 e9 e1 fe ff ff    	bnd jmpq 403020 <.plt>
  40313f:	90                   	nop
  403140:	f3 0f 1e fa          	endbr64 
  403144:	68 11 00 00 00       	pushq  $0x11
  403149:	f2 e9 d1 fe ff ff    	bnd jmpq 403020 <.plt>
  40314f:	90                   	nop
  403150:	f3 0f 1e fa          	endbr64 
  403154:	68 12 00 00 00       	pushq  $0x12
  403159:	f2 e9 c1 fe ff ff    	bnd jmpq 403020 <.plt>
  40315f:	90                   	nop
  403160:	f3 0f 1e fa          	endbr64 
  403164:	68 13 00 00 00       	pushq  $0x13
  403169:	f2 e9 b1 fe ff ff    	bnd jmpq 403020 <.plt>
  40316f:	90                   	nop
  403170:	f3 0f 1e fa          	endbr64 
  403174:	68 14 00 00 00       	pushq  $0x14
  403179:	f2 e9 a1 fe ff ff    	bnd jmpq 403020 <.plt>
  40317f:	90                   	nop
  403180:	f3 0f 1e fa          	endbr64 
  403184:	68 15 00 00 00       	pushq  $0x15
  403189:	f2 e9 91 fe ff ff    	bnd jmpq 403020 <.plt>
  40318f:	90                   	nop
  403190:	f3 0f 1e fa          	endbr64 
  403194:	68 16 00 00 00       	pushq  $0x16
  403199:	f2 e9 81 fe ff ff    	bnd jmpq 403020 <.plt>
  40319f:	90                   	nop
  4031a0:	f3 0f 1e fa          	endbr64 
  4031a4:	68 17 00 00 00       	pushq  $0x17
  4031a9:	f2 e9 71 fe ff ff    	bnd jmpq 403020 <.plt>
  4031af:	90                   	nop
  4031b0:	f3 0f 1e fa          	endbr64 
  4031b4:	68 18 00 00 00       	pushq  $0x18
  4031b9:	f2 e9 61 fe ff ff    	bnd jmpq 403020 <.plt>
  4031bf:	90                   	nop
  4031c0:	f3 0f 1e fa          	endbr64 
  4031c4:	68 19 00 00 00       	pushq  $0x19
  4031c9:	f2 e9 51 fe ff ff    	bnd jmpq 403020 <.plt>
  4031cf:	90                   	nop
  4031d0:	f3 0f 1e fa          	endbr64 
  4031d4:	68 1a 00 00 00       	pushq  $0x1a
  4031d9:	f2 e9 41 fe ff ff    	bnd jmpq 403020 <.plt>
  4031df:	90                   	nop
  4031e0:	f3 0f 1e fa          	endbr64 
  4031e4:	68 1b 00 00 00       	pushq  $0x1b
  4031e9:	f2 e9 31 fe ff ff    	bnd jmpq 403020 <.plt>
  4031ef:	90                   	nop
  4031f0:	f3 0f 1e fa          	endbr64 
  4031f4:	68 1c 00 00 00       	pushq  $0x1c
  4031f9:	f2 e9 21 fe ff ff    	bnd jmpq 403020 <.plt>
  4031ff:	90                   	nop
  403200:	f3 0f 1e fa          	endbr64 
  403204:	68 1d 00 00 00       	pushq  $0x1d
  403209:	f2 e9 11 fe ff ff    	bnd jmpq 403020 <.plt>
  40320f:	90                   	nop
  403210:	f3 0f 1e fa          	endbr64 
  403214:	68 1e 00 00 00       	pushq  $0x1e
  403219:	f2 e9 01 fe ff ff    	bnd jmpq 403020 <.plt>
  40321f:	90                   	nop
  403220:	f3 0f 1e fa          	endbr64 
  403224:	68 1f 00 00 00       	pushq  $0x1f
  403229:	f2 e9 f1 fd ff ff    	bnd jmpq 403020 <.plt>
  40322f:	90                   	nop
  403230:	f3 0f 1e fa          	endbr64 
  403234:	68 20 00 00 00       	pushq  $0x20
  403239:	f2 e9 e1 fd ff ff    	bnd jmpq 403020 <.plt>
  40323f:	90                   	nop
  403240:	f3 0f 1e fa          	endbr64 
  403244:	68 21 00 00 00       	pushq  $0x21
  403249:	f2 e9 d1 fd ff ff    	bnd jmpq 403020 <.plt>
  40324f:	90                   	nop
  403250:	f3 0f 1e fa          	endbr64 
  403254:	68 22 00 00 00       	pushq  $0x22
  403259:	f2 e9 c1 fd ff ff    	bnd jmpq 403020 <.plt>
  40325f:	90                   	nop
  403260:	f3 0f 1e fa          	endbr64 
  403264:	68 23 00 00 00       	pushq  $0x23
  403269:	f2 e9 b1 fd ff ff    	bnd jmpq 403020 <.plt>
  40326f:	90                   	nop
  403270:	f3 0f 1e fa          	endbr64 
  403274:	68 24 00 00 00       	pushq  $0x24
  403279:	f2 e9 a1 fd ff ff    	bnd jmpq 403020 <.plt>
  40327f:	90                   	nop
  403280:	f3 0f 1e fa          	endbr64 
  403284:	68 25 00 00 00       	pushq  $0x25
  403289:	f2 e9 91 fd ff ff    	bnd jmpq 403020 <.plt>
  40328f:	90                   	nop
  403290:	f3 0f 1e fa          	endbr64 
  403294:	68 26 00 00 00       	pushq  $0x26
  403299:	f2 e9 81 fd ff ff    	bnd jmpq 403020 <.plt>
  40329f:	90                   	nop
  4032a0:	f3 0f 1e fa          	endbr64 
  4032a4:	68 27 00 00 00       	pushq  $0x27
  4032a9:	f2 e9 71 fd ff ff    	bnd jmpq 403020 <.plt>
  4032af:	90                   	nop
  4032b0:	f3 0f 1e fa          	endbr64 
  4032b4:	68 28 00 00 00       	pushq  $0x28
  4032b9:	f2 e9 61 fd ff ff    	bnd jmpq 403020 <.plt>
  4032bf:	90                   	nop
  4032c0:	f3 0f 1e fa          	endbr64 
  4032c4:	68 29 00 00 00       	pushq  $0x29
  4032c9:	f2 e9 51 fd ff ff    	bnd jmpq 403020 <.plt>
  4032cf:	90                   	nop
  4032d0:	f3 0f 1e fa          	endbr64 
  4032d4:	68 2a 00 00 00       	pushq  $0x2a
  4032d9:	f2 e9 41 fd ff ff    	bnd jmpq 403020 <.plt>
  4032df:	90                   	nop
  4032e0:	f3 0f 1e fa          	endbr64 
  4032e4:	68 2b 00 00 00       	pushq  $0x2b
  4032e9:	f2 e9 31 fd ff ff    	bnd jmpq 403020 <.plt>
  4032ef:	90                   	nop
  4032f0:	f3 0f 1e fa          	endbr64 
  4032f4:	68 2c 00 00 00       	pushq  $0x2c
  4032f9:	f2 e9 21 fd ff ff    	bnd jmpq 403020 <.plt>
  4032ff:	90                   	nop
  403300:	f3 0f 1e fa          	endbr64 
  403304:	68 2d 00 00 00       	pushq  $0x2d
  403309:	f2 e9 11 fd ff ff    	bnd jmpq 403020 <.plt>
  40330f:	90                   	nop
  403310:	f3 0f 1e fa          	endbr64 
  403314:	68 2e 00 00 00       	pushq  $0x2e
  403319:	f2 e9 01 fd ff ff    	bnd jmpq 403020 <.plt>
  40331f:	90                   	nop
  403320:	f3 0f 1e fa          	endbr64 
  403324:	68 2f 00 00 00       	pushq  $0x2f
  403329:	f2 e9 f1 fc ff ff    	bnd jmpq 403020 <.plt>
  40332f:	90                   	nop
  403330:	f3 0f 1e fa          	endbr64 
  403334:	68 30 00 00 00       	pushq  $0x30
  403339:	f2 e9 e1 fc ff ff    	bnd jmpq 403020 <.plt>
  40333f:	90                   	nop
  403340:	f3 0f 1e fa          	endbr64 
  403344:	68 31 00 00 00       	pushq  $0x31
  403349:	f2 e9 d1 fc ff ff    	bnd jmpq 403020 <.plt>
  40334f:	90                   	nop
  403350:	f3 0f 1e fa          	endbr64 
  403354:	68 32 00 00 00       	pushq  $0x32
  403359:	f2 e9 c1 fc ff ff    	bnd jmpq 403020 <.plt>
  40335f:	90                   	nop
  403360:	f3 0f 1e fa          	endbr64 
  403364:	68 33 00 00 00       	pushq  $0x33
  403369:	f2 e9 b1 fc ff ff    	bnd jmpq 403020 <.plt>
  40336f:	90                   	nop
  403370:	f3 0f 1e fa          	endbr64 
  403374:	68 34 00 00 00       	pushq  $0x34
  403379:	f2 e9 a1 fc ff ff    	bnd jmpq 403020 <.plt>
  40337f:	90                   	nop
  403380:	f3 0f 1e fa          	endbr64 
  403384:	68 35 00 00 00       	pushq  $0x35
  403389:	f2 e9 91 fc ff ff    	bnd jmpq 403020 <.plt>
  40338f:	90                   	nop
  403390:	f3 0f 1e fa          	endbr64 
  403394:	68 36 00 00 00       	pushq  $0x36
  403399:	f2 e9 81 fc ff ff    	bnd jmpq 403020 <.plt>
  40339f:	90                   	nop
  4033a0:	f3 0f 1e fa          	endbr64 
  4033a4:	68 37 00 00 00       	pushq  $0x37
  4033a9:	f2 e9 71 fc ff ff    	bnd jmpq 403020 <.plt>
  4033af:	90                   	nop
  4033b0:	f3 0f 1e fa          	endbr64 
  4033b4:	68 38 00 00 00       	pushq  $0x38
  4033b9:	f2 e9 61 fc ff ff    	bnd jmpq 403020 <.plt>
  4033bf:	90                   	nop
  4033c0:	f3 0f 1e fa          	endbr64 
  4033c4:	68 39 00 00 00       	pushq  $0x39
  4033c9:	f2 e9 51 fc ff ff    	bnd jmpq 403020 <.plt>
  4033cf:	90                   	nop
  4033d0:	f3 0f 1e fa          	endbr64 
  4033d4:	68 3a 00 00 00       	pushq  $0x3a
  4033d9:	f2 e9 41 fc ff ff    	bnd jmpq 403020 <.plt>
  4033df:	90                   	nop
  4033e0:	f3 0f 1e fa          	endbr64 
  4033e4:	68 3b 00 00 00       	pushq  $0x3b
  4033e9:	f2 e9 31 fc ff ff    	bnd jmpq 403020 <.plt>
  4033ef:	90                   	nop
  4033f0:	f3 0f 1e fa          	endbr64 
  4033f4:	68 3c 00 00 00       	pushq  $0x3c
  4033f9:	f2 e9 21 fc ff ff    	bnd jmpq 403020 <.plt>
  4033ff:	90                   	nop
  403400:	f3 0f 1e fa          	endbr64 
  403404:	68 3d 00 00 00       	pushq  $0x3d
  403409:	f2 e9 11 fc ff ff    	bnd jmpq 403020 <.plt>
  40340f:	90                   	nop
  403410:	f3 0f 1e fa          	endbr64 
  403414:	68 3e 00 00 00       	pushq  $0x3e
  403419:	f2 e9 01 fc ff ff    	bnd jmpq 403020 <.plt>
  40341f:	90                   	nop
  403420:	f3 0f 1e fa          	endbr64 
  403424:	68 3f 00 00 00       	pushq  $0x3f
  403429:	f2 e9 f1 fb ff ff    	bnd jmpq 403020 <.plt>
  40342f:	90                   	nop
  403430:	f3 0f 1e fa          	endbr64 
  403434:	68 40 00 00 00       	pushq  $0x40
  403439:	f2 e9 e1 fb ff ff    	bnd jmpq 403020 <.plt>
  40343f:	90                   	nop
  403440:	f3 0f 1e fa          	endbr64 
  403444:	68 41 00 00 00       	pushq  $0x41
  403449:	f2 e9 d1 fb ff ff    	bnd jmpq 403020 <.plt>
  40344f:	90                   	nop
  403450:	f3 0f 1e fa          	endbr64 
  403454:	68 42 00 00 00       	pushq  $0x42
  403459:	f2 e9 c1 fb ff ff    	bnd jmpq 403020 <.plt>
  40345f:	90                   	nop
  403460:	f3 0f 1e fa          	endbr64 
  403464:	68 43 00 00 00       	pushq  $0x43
  403469:	f2 e9 b1 fb ff ff    	bnd jmpq 403020 <.plt>
  40346f:	90                   	nop
  403470:	f3 0f 1e fa          	endbr64 
  403474:	68 44 00 00 00       	pushq  $0x44
  403479:	f2 e9 a1 fb ff ff    	bnd jmpq 403020 <.plt>
  40347f:	90                   	nop
  403480:	f3 0f 1e fa          	endbr64 
  403484:	68 45 00 00 00       	pushq  $0x45
  403489:	f2 e9 91 fb ff ff    	bnd jmpq 403020 <.plt>
  40348f:	90                   	nop
  403490:	f3 0f 1e fa          	endbr64 
  403494:	68 46 00 00 00       	pushq  $0x46
  403499:	f2 e9 81 fb ff ff    	bnd jmpq 403020 <.plt>
  40349f:	90                   	nop
  4034a0:	f3 0f 1e fa          	endbr64 
  4034a4:	68 47 00 00 00       	pushq  $0x47
  4034a9:	f2 e9 71 fb ff ff    	bnd jmpq 403020 <.plt>
  4034af:	90                   	nop
  4034b0:	f3 0f 1e fa          	endbr64 
  4034b4:	68 48 00 00 00       	pushq  $0x48
  4034b9:	f2 e9 61 fb ff ff    	bnd jmpq 403020 <.plt>
  4034bf:	90                   	nop
  4034c0:	f3 0f 1e fa          	endbr64 
  4034c4:	68 49 00 00 00       	pushq  $0x49
  4034c9:	f2 e9 51 fb ff ff    	bnd jmpq 403020 <.plt>
  4034cf:	90                   	nop
  4034d0:	f3 0f 1e fa          	endbr64 
  4034d4:	68 4a 00 00 00       	pushq  $0x4a
  4034d9:	f2 e9 41 fb ff ff    	bnd jmpq 403020 <.plt>
  4034df:	90                   	nop
  4034e0:	f3 0f 1e fa          	endbr64 
  4034e4:	68 4b 00 00 00       	pushq  $0x4b
  4034e9:	f2 e9 31 fb ff ff    	bnd jmpq 403020 <.plt>
  4034ef:	90                   	nop
  4034f0:	f3 0f 1e fa          	endbr64 
  4034f4:	68 4c 00 00 00       	pushq  $0x4c
  4034f9:	f2 e9 21 fb ff ff    	bnd jmpq 403020 <.plt>
  4034ff:	90                   	nop
  403500:	f3 0f 1e fa          	endbr64 
  403504:	68 4d 00 00 00       	pushq  $0x4d
  403509:	f2 e9 11 fb ff ff    	bnd jmpq 403020 <.plt>
  40350f:	90                   	nop
  403510:	f3 0f 1e fa          	endbr64 
  403514:	68 4e 00 00 00       	pushq  $0x4e
  403519:	f2 e9 01 fb ff ff    	bnd jmpq 403020 <.plt>
  40351f:	90                   	nop
  403520:	f3 0f 1e fa          	endbr64 
  403524:	68 4f 00 00 00       	pushq  $0x4f
  403529:	f2 e9 f1 fa ff ff    	bnd jmpq 403020 <.plt>
  40352f:	90                   	nop
  403530:	f3 0f 1e fa          	endbr64 
  403534:	68 50 00 00 00       	pushq  $0x50
  403539:	f2 e9 e1 fa ff ff    	bnd jmpq 403020 <.plt>
  40353f:	90                   	nop
  403540:	f3 0f 1e fa          	endbr64 
  403544:	68 51 00 00 00       	pushq  $0x51
  403549:	f2 e9 d1 fa ff ff    	bnd jmpq 403020 <.plt>
  40354f:	90                   	nop
  403550:	f3 0f 1e fa          	endbr64 
  403554:	68 52 00 00 00       	pushq  $0x52
  403559:	f2 e9 c1 fa ff ff    	bnd jmpq 403020 <.plt>
  40355f:	90                   	nop
  403560:	f3 0f 1e fa          	endbr64 
  403564:	68 53 00 00 00       	pushq  $0x53
  403569:	f2 e9 b1 fa ff ff    	bnd jmpq 403020 <.plt>
  40356f:	90                   	nop
  403570:	f3 0f 1e fa          	endbr64 
  403574:	68 54 00 00 00       	pushq  $0x54
  403579:	f2 e9 a1 fa ff ff    	bnd jmpq 403020 <.plt>
  40357f:	90                   	nop
  403580:	f3 0f 1e fa          	endbr64 
  403584:	68 55 00 00 00       	pushq  $0x55
  403589:	f2 e9 91 fa ff ff    	bnd jmpq 403020 <.plt>
  40358f:	90                   	nop
  403590:	f3 0f 1e fa          	endbr64 
  403594:	68 56 00 00 00       	pushq  $0x56
  403599:	f2 e9 81 fa ff ff    	bnd jmpq 403020 <.plt>
  40359f:	90                   	nop
  4035a0:	f3 0f 1e fa          	endbr64 
  4035a4:	68 57 00 00 00       	pushq  $0x57
  4035a9:	f2 e9 71 fa ff ff    	bnd jmpq 403020 <.plt>
  4035af:	90                   	nop
  4035b0:	f3 0f 1e fa          	endbr64 
  4035b4:	68 58 00 00 00       	pushq  $0x58
  4035b9:	f2 e9 61 fa ff ff    	bnd jmpq 403020 <.plt>
  4035bf:	90                   	nop
  4035c0:	f3 0f 1e fa          	endbr64 
  4035c4:	68 59 00 00 00       	pushq  $0x59
  4035c9:	f2 e9 51 fa ff ff    	bnd jmpq 403020 <.plt>
  4035cf:	90                   	nop
  4035d0:	f3 0f 1e fa          	endbr64 
  4035d4:	68 5a 00 00 00       	pushq  $0x5a
  4035d9:	f2 e9 41 fa ff ff    	bnd jmpq 403020 <.plt>
  4035df:	90                   	nop
  4035e0:	f3 0f 1e fa          	endbr64 
  4035e4:	68 5b 00 00 00       	pushq  $0x5b
  4035e9:	f2 e9 31 fa ff ff    	bnd jmpq 403020 <.plt>
  4035ef:	90                   	nop
  4035f0:	f3 0f 1e fa          	endbr64 
  4035f4:	68 5c 00 00 00       	pushq  $0x5c
  4035f9:	f2 e9 21 fa ff ff    	bnd jmpq 403020 <.plt>
  4035ff:	90                   	nop
  403600:	f3 0f 1e fa          	endbr64 
  403604:	68 5d 00 00 00       	pushq  $0x5d
  403609:	f2 e9 11 fa ff ff    	bnd jmpq 403020 <.plt>
  40360f:	90                   	nop
  403610:	f3 0f 1e fa          	endbr64 
  403614:	68 5e 00 00 00       	pushq  $0x5e
  403619:	f2 e9 01 fa ff ff    	bnd jmpq 403020 <.plt>
  40361f:	90                   	nop
  403620:	f3 0f 1e fa          	endbr64 
  403624:	68 5f 00 00 00       	pushq  $0x5f
  403629:	f2 e9 f1 f9 ff ff    	bnd jmpq 403020 <.plt>
  40362f:	90                   	nop

Disassembly of section .plt.sec:

0000000000403630 <__printf_chk@plt>:
  403630:	f3 0f 1e fa          	endbr64 
  403634:	f2 ff 25 dd 59 01 00 	bnd jmpq *0x159dd(%rip)        # 419018 <__printf_chk@GLIBC_2.3.4>
  40363b:	0f 1f 44 00 00       	nopl   0x0(%rax,%rax,1)

0000000000403640 <_Znam@plt>:
  403640:	f3 0f 1e fa          	endbr64 
  403644:	f2 ff 25 d5 59 01 00 	bnd jmpq *0x159d5(%rip)        # 419020 <_Znam@GLIBCXX_3.4>
  40364b:	0f 1f 44 00 00       	nopl   0x0(%rax,%rax,1)

0000000000403650 <GOMP_loop_end_nowait@plt>:
  403650:	f3 0f 1e fa          	endbr64 
  403654:	f2 ff 25 cd 59 01 00 	bnd jmpq *0x159cd(%rip)        # 419028 <GOMP_loop_end_nowait@VERSION>
  40365b:	0f 1f 44 00 00       	nopl   0x0(%rax,%rax,1)

0000000000403660 <_ZNSo3putEc@plt>:
  403660:	f3 0f 1e fa          	endbr64 
  403664:	f2 ff 25 c5 59 01 00 	bnd jmpq *0x159c5(%rip)        # 419030 <_ZNSo3putEc@GLIBCXX_3.4>
  40366b:	0f 1f 44 00 00       	nopl   0x0(%rax,%rax,1)

0000000000403670 <_ZNSt6chrono3_V212system_clock3nowEv@plt>:
  403670:	f3 0f 1e fa          	endbr64 
  403674:	f2 ff 25 bd 59 01 00 	bnd jmpq *0x159bd(%rip)        # 419038 <_ZNSt6chrono3_V212system_clock3nowEv@GLIBCXX_3.4.19>
  40367b:	0f 1f 44 00 00       	nopl   0x0(%rax,%rax,1)

0000000000403680 <syscall@plt>:
  403680:	f3 0f 1e fa          	endbr64 
  403684:	f2 ff 25 b5 59 01 00 	bnd jmpq *0x159b5(%rip)        # 419040 <syscall@GLIBC_2.2.5>
  40368b:	0f 1f 44 00 00       	nopl   0x0(%rax,%rax,1)

0000000000403690 <bind@plt>:
  403690:	f3 0f 1e fa          	endbr64 
  403694:	f2 ff 25 ad 59 01 00 	bnd jmpq *0x159ad(%rip)        # 419048 <bind@GLIBC_2.2.5>
  40369b:	0f 1f 44 00 00       	nopl   0x0(%rax,%rax,1)

00000000004036a0 <strstr@plt>:
  4036a0:	f3 0f 1e fa          	endbr64 
  4036a4:	f2 ff 25 a5 59 01 00 	bnd jmpq *0x159a5(%rip)        # 419050 <strstr@GLIBC_2.2.5>
  4036ab:	0f 1f 44 00 00       	nopl   0x0(%rax,%rax,1)

00000000004036b0 <_ZNSt13basic_filebufIcSt11char_traitsIcEE5closeEv@plt>:
  4036b0:	f3 0f 1e fa          	endbr64 
  4036b4:	f2 ff 25 9d 59 01 00 	bnd jmpq *0x1599d(%rip)        # 419058 <_ZNSt13basic_filebufIcSt11char_traitsIcEE5closeEv@GLIBCXX_3.4>
  4036bb:	0f 1f 44 00 00       	nopl   0x0(%rax,%rax,1)

00000000004036c0 <getopt@plt>:
  4036c0:	f3 0f 1e fa          	endbr64 
  4036c4:	f2 ff 25 95 59 01 00 	bnd jmpq *0x15995(%rip)        # 419060 <getopt@GLIBC_2.2.5>
  4036cb:	0f 1f 44 00 00       	nopl   0x0(%rax,%rax,1)

00000000004036d0 <_ZNKSt12__basic_fileIcE7is_openEv@plt>:
  4036d0:	f3 0f 1e fa          	endbr64 
  4036d4:	f2 ff 25 8d 59 01 00 	bnd jmpq *0x1598d(%rip)        # 419068 <_ZNKSt12__basic_fileIcE7is_openEv@GLIBCXX_3.4>
  4036db:	0f 1f 44 00 00       	nopl   0x0(%rax,%rax,1)

00000000004036e0 <socket@plt>:
  4036e0:	f3 0f 1e fa          	endbr64 
  4036e4:	f2 ff 25 85 59 01 00 	bnd jmpq *0x15985(%rip)        # 419070 <socket@GLIBC_2.2.5>
  4036eb:	0f 1f 44 00 00       	nopl   0x0(%rax,%rax,1)

00000000004036f0 <_ZNSt14basic_ifstreamIcSt11char_traitsIcEED1Ev@plt>:
  4036f0:	f3 0f 1e fa          	endbr64 
  4036f4:	f2 ff 25 7d 59 01 00 	bnd jmpq *0x1597d(%rip)        # 419078 <_ZNSt14basic_ifstreamIcSt11char_traitsIcEED1Ev@GLIBCXX_3.4>
  4036fb:	0f 1f 44 00 00       	nopl   0x0(%rax,%rax,1)

0000000000403700 <fork@plt>:
  403700:	f3 0f 1e fa          	endbr64 
  403704:	f2 ff 25 75 59 01 00 	bnd jmpq *0x15975(%rip)        # 419080 <fork@GLIBC_2.2.5>
  40370b:	0f 1f 44 00 00       	nopl   0x0(%rax,%rax,1)

0000000000403710 <_ZNKSt7__cxx1112basic_stringIcSt11char_traitsIcESaIcEE7compareEPKc@plt>:
  403710:	f3 0f 1e fa          	endbr64 
  403714:	f2 ff 25 6d 59 01 00 	bnd jmpq *0x1596d(%rip)        # 419088 <_ZNKSt7__cxx1112basic_stringIcSt11char_traitsIcESaIcEE7compareEPKc@GLIBCXX_3.4.21>
  40371b:	0f 1f 44 00 00       	nopl   0x0(%rax,%rax,1)

0000000000403720 <execlp@plt>:
  403720:	f3 0f 1e fa          	endbr64 
  403724:	f2 ff 25 65 59 01 00 	bnd jmpq *0x15965(%rip)        # 419090 <execlp@GLIBC_2.2.5>
  40372b:	0f 1f 44 00 00       	nopl   0x0(%rax,%rax,1)

0000000000403730 <_ZNSt8ios_baseC2Ev@plt>:
  403730:	f3 0f 1e fa          	endbr64 
  403734:	f2 ff 25 5d 59 01 00 	bnd jmpq *0x1595d(%rip)        # 419098 <_ZNSt8ios_baseC2Ev@GLIBCXX_3.4>
  40373b:	0f 1f 44 00 00       	nopl   0x0(%rax,%rax,1)

0000000000403740 <_ZNSt7__cxx1112basic_stringIcSt11char_traitsIcESaIcEE9_M_appendEPKcm@plt>:
  403740:	f3 0f 1e fa          	endbr64 
  403744:	f2 ff 25 55 59 01 00 	bnd jmpq *0x15955(%rip)        # 4190a0 <_ZNSt7__cxx1112basic_stringIcSt11char_traitsIcESaIcEE9_M_appendEPKcm@GLIBCXX_3.4.21>
  40374b:	0f 1f 44 00 00       	nopl   0x0(%rax,%rax,1)

0000000000403750 <recv@plt>:
  403750:	f3 0f 1e fa          	endbr64 
  403754:	f2 ff 25 4d 59 01 00 	bnd jmpq *0x1594d(%rip)        # 4190a8 <recv@GLIBC_2.2.5>
  40375b:	0f 1f 44 00 00       	nopl   0x0(%rax,%rax,1)

0000000000403760 <_ZNSt8ios_baseD2Ev@plt>:
  403760:	f3 0f 1e fa          	endbr64 
  403764:	f2 ff 25 45 59 01 00 	bnd jmpq *0x15945(%rip)        # 4190b0 <_ZNSt8ios_baseD2Ev@GLIBCXX_3.4>
  40376b:	0f 1f 44 00 00       	nopl   0x0(%rax,%rax,1)

0000000000403770 <_ZNSi4peekEv@plt>:
  403770:	f3 0f 1e fa          	endbr64 
  403774:	f2 ff 25 3d 59 01 00 	bnd jmpq *0x1593d(%rip)        # 4190b8 <_ZNSi4peekEv@GLIBCXX_3.4>
  40377b:	0f 1f 44 00 00       	nopl   0x0(%rax,%rax,1)

0000000000403780 <__cxa_begin_catch@plt>:
  403780:	f3 0f 1e fa          	endbr64 
  403784:	f2 ff 25 35 59 01 00 	bnd jmpq *0x15935(%rip)        # 4190c0 <__cxa_begin_catch@CXXABI_1.3>
  40378b:	0f 1f 44 00 00       	nopl   0x0(%rax,%rax,1)

0000000000403790 <strlen@plt>:
  403790:	f3 0f 1e fa          	endbr64 
  403794:	f2 ff 25 2d 59 01 00 	bnd jmpq *0x1592d(%rip)        # 4190c8 <strlen@GLIBC_2.2.5>
  40379b:	0f 1f 44 00 00       	nopl   0x0(%rax,%rax,1)

00000000004037a0 <_ZNSt7__cxx1119basic_istringstreamIcSt11char_traitsIcESaIcEED1Ev@plt>:
  4037a0:	f3 0f 1e fa          	endbr64 
  4037a4:	f2 ff 25 25 59 01 00 	bnd jmpq *0x15925(%rip)        # 4190d0 <_ZNSt7__cxx1119basic_istringstreamIcSt11char_traitsIcESaIcEED1Ev@GLIBCXX_3.4.21>
  4037ab:	0f 1f 44 00 00       	nopl   0x0(%rax,%rax,1)

00000000004037b0 <send@plt>:
  4037b0:	f3 0f 1e fa          	endbr64 
  4037b4:	f2 ff 25 1d 59 01 00 	bnd jmpq *0x1591d(%rip)        # 4190d8 <send@GLIBC_2.2.5>
  4037bb:	0f 1f 44 00 00       	nopl   0x0(%rax,%rax,1)

00000000004037c0 <_ZSt20__throw_length_errorPKc@plt>:
  4037c0:	f3 0f 1e fa          	endbr64 
  4037c4:	f2 ff 25 15 59 01 00 	bnd jmpq *0x15915(%rip)        # 4190e0 <_ZSt20__throw_length_errorPKc@GLIBCXX_3.4>
  4037cb:	0f 1f 44 00 00       	nopl   0x0(%rax,%rax,1)

00000000004037d0 <memset@plt>:
  4037d0:	f3 0f 1e fa          	endbr64 
  4037d4:	f2 ff 25 0d 59 01 00 	bnd jmpq *0x1590d(%rip)        # 4190e8 <memset@GLIBC_2.2.5>
  4037db:	0f 1f 44 00 00       	nopl   0x0(%rax,%rax,1)

00000000004037e0 <getrusage@plt>:
  4037e0:	f3 0f 1e fa          	endbr64 
  4037e4:	f2 ff 25 05 59 01 00 	bnd jmpq *0x15905(%rip)        # 4190f0 <getrusage@GLIBC_2.2.5>
  4037eb:	0f 1f 44 00 00       	nopl   0x0(%rax,%rax,1)

00000000004037f0 <GOMP_loop_nonmonotonic_dynamic_start@plt>:
  4037f0:	f3 0f 1e fa          	endbr64 
  4037f4:	f2 ff 25 fd 58 01 00 	bnd jmpq *0x158fd(%rip)        # 4190f8 <GOMP_loop_nonmonotonic_dynamic_start@VERSION>
  4037fb:	0f 1f 44 00 00       	nopl   0x0(%rax,%rax,1)

0000000000403800 <__snprintf_chk@plt>:
  403800:	f3 0f 1e fa          	endbr64 
  403804:	f2 ff 25 f5 58 01 00 	bnd jmpq *0x158f5(%rip)        # 419100 <__snprintf_chk@GLIBC_2.3.4>
  40380b:	0f 1f 44 00 00       	nopl   0x0(%rax,%rax,1)

0000000000403810 <_ZNSirsERi@plt>:
  403810:	f3 0f 1e fa          	endbr64 
  403814:	f2 ff 25 ed 58 01 00 	bnd jmpq *0x158ed(%rip)        # 419108 <_ZNSirsERi@GLIBCXX_3.4>
  40381b:	0f 1f 44 00 00       	nopl   0x0(%rax,%rax,1)

0000000000403820 <_ZNSi6ignoreEli@plt>:
  403820:	f3 0f 1e fa          	endbr64 
  403824:	f2 ff 25 e5 58 01 00 	bnd jmpq *0x158e5(%rip)        # 419110 <_ZNSi6ignoreEli@GLIBCXX_3.4>
  40382b:	0f 1f 44 00 00       	nopl   0x0(%rax,%rax,1)

0000000000403830 <_ZNSo5flushEv@plt>:
  403830:	f3 0f 1e fa          	endbr64 
  403834:	f2 ff 25 dd 58 01 00 	bnd jmpq *0x158dd(%rip)        # 419118 <_ZNSo5flushEv@GLIBCXX_3.4>
  40383b:	0f 1f 44 00 00       	nopl   0x0(%rax,%rax,1)

0000000000403840 <_ZSt19__throw_logic_errorPKc@plt>:
  403840:	f3 0f 1e fa          	endbr64 
  403844:	f2 ff 25 d5 58 01 00 	bnd jmpq *0x158d5(%rip)        # 419120 <_ZSt19__throw_logic_errorPKc@GLIBCXX_3.4>
  40384b:	0f 1f 44 00 00       	nopl   0x0(%rax,%rax,1)

0000000000403850 <memcpy@plt>:
  403850:	f3 0f 1e fa          	endbr64 
  403854:	f2 ff 25 cd 58 01 00 	bnd jmpq *0x158cd(%rip)        # 419128 <memcpy@GLIBC_2.14>
  40385b:	0f 1f 44 00 00       	nopl   0x0(%rax,%rax,1)

0000000000403860 <perror@plt>:
  403860:	f3 0f 1e fa          	endbr64 
  403864:	f2 ff 25 c5 58 01 00 	bnd jmpq *0x158c5(%rip)        # 419130 <perror@GLIBC_2.2.5>
  40386b:	0f 1f 44 00 00       	nopl   0x0(%rax,%rax,1)

0000000000403870 <_ZSt2wsIcSt11char_traitsIcEERSt13basic_istreamIT_T0_ES6_@plt>:
  403870:	f3 0f 1e fa          	endbr64 
  403874:	f2 ff 25 bd 58 01 00 	bnd jmpq *0x158bd(%rip)        # 419138 <_ZSt2wsIcSt11char_traitsIcEERSt13basic_istreamIT_T0_ES6_@GLIBCXX_3.4>
  40387b:	0f 1f 44 00 00       	nopl   0x0(%rax,%rax,1)

0000000000403880 <system@plt>:
  403880:	f3 0f 1e fa          	endbr64 
  403884:	f2 ff 25 b5 58 01 00 	bnd jmpq *0x158b5(%rip)        # 419140 <system@GLIBC_2.2.5>
  40388b:	0f 1f 44 00 00       	nopl   0x0(%rax,%rax,1)

0000000000403890 <__cxa_atexit@plt>:
  403890:	f3 0f 1e fa          	endbr64 
  403894:	f2 ff 25 ad 58 01 00 	bnd jmpq *0x158ad(%rip)        # 419148 <__cxa_atexit@GLIBC_2.2.5>
  40389b:	0f 1f 44 00 00       	nopl   0x0(%rax,%rax,1)

00000000004038a0 <_ZNSt13basic_filebufIcSt11char_traitsIcEE4openEPKcSt13_Ios_Openmode@plt>:
  4038a0:	f3 0f 1e fa          	endbr64 
  4038a4:	f2 ff 25 a5 58 01 00 	bnd jmpq *0x158a5(%rip)        # 419150 <_ZNSt13basic_filebufIcSt11char_traitsIcEE4openEPKcSt13_Ios_Openmode@GLIBCXX_3.4>
  4038ab:	0f 1f 44 00 00       	nopl   0x0(%rax,%rax,1)

00000000004038b0 <clock_gettime@plt>:
  4038b0:	f3 0f 1e fa          	endbr64 
  4038b4:	f2 ff 25 9d 58 01 00 	bnd jmpq *0x1589d(%rip)        # 419158 <clock_gettime@GLIBC_2.17>
  4038bb:	0f 1f 44 00 00       	nopl   0x0(%rax,%rax,1)

00000000004038c0 <_ZdlPv@plt>:
  4038c0:	f3 0f 1e fa          	endbr64 
  4038c4:	f2 ff 25 95 58 01 00 	bnd jmpq *0x15895(%rip)        # 419160 <_ZdlPv@GLIBCXX_3.4>
  4038cb:	0f 1f 44 00 00       	nopl   0x0(%rax,%rax,1)

00000000004038d0 <_ZNSo9_M_insertIlEERSoT_@plt>:
  4038d0:	f3 0f 1e fa          	endbr64 
  4038d4:	f2 ff 25 8d 58 01 00 	bnd jmpq *0x1588d(%rip)        # 419168 <_ZNSo9_M_insertIlEERSoT_@GLIBCXX_3.4.9>
  4038db:	0f 1f 44 00 00       	nopl   0x0(%rax,%rax,1)

00000000004038e0 <__isoc99_sscanf@plt>:
  4038e0:	f3 0f 1e fa          	endbr64 
  4038e4:	f2 ff 25 85 58 01 00 	bnd jmpq *0x15885(%rip)        # 419170 <__isoc99_sscanf@GLIBC_2.7>
  4038eb:	0f 1f 44 00 00       	nopl   0x0(%rax,%rax,1)

00000000004038f0 <fclose@plt>:
  4038f0:	f3 0f 1e fa          	endbr64 
  4038f4:	f2 ff 25 7d 58 01 00 	bnd jmpq *0x1587d(%rip)        # 419178 <fclose@GLIBC_2.2.5>
  4038fb:	0f 1f 44 00 00       	nopl   0x0(%rax,%rax,1)

0000000000403900 <_Znwm@plt>:
  403900:	f3 0f 1e fa          	endbr64 
  403904:	f2 ff 25 75 58 01 00 	bnd jmpq *0x15875(%rip)        # 419180 <_Znwm@GLIBCXX_3.4>
  40390b:	0f 1f 44 00 00       	nopl   0x0(%rax,%rax,1)

0000000000403910 <_ZNSi10_M_extractIlEERSiRT_@plt>:
  403910:	f3 0f 1e fa          	endbr64 
  403914:	f2 ff 25 6d 58 01 00 	bnd jmpq *0x1586d(%rip)        # 419188 <_ZNSi10_M_extractIlEERSiRT_@GLIBCXX_3.4.9>
  40391b:	0f 1f 44 00 00       	nopl   0x0(%rax,%rax,1)

0000000000403920 <_ZNSt13basic_filebufIcSt11char_traitsIcEEC1Ev@plt>:
  403920:	f3 0f 1e fa          	endbr64 
  403924:	f2 ff 25 65 58 01 00 	bnd jmpq *0x15865(%rip)        # 419190 <_ZNSt13basic_filebufIcSt11char_traitsIcEEC1Ev@GLIBCXX_3.4>
  40392b:	0f 1f 44 00 00       	nopl   0x0(%rax,%rax,1)

0000000000403930 <GOMP_loop_nonmonotonic_dynamic_next@plt>:
  403930:	f3 0f 1e fa          	endbr64 
  403934:	f2 ff 25 5d 58 01 00 	bnd jmpq *0x1585d(%rip)        # 419198 <GOMP_loop_nonmonotonic_dynamic_next@VERSION>
  40393b:	0f 1f 44 00 00       	nopl   0x0(%rax,%rax,1)

0000000000403940 <__stack_chk_fail@plt>:
  403940:	f3 0f 1e fa          	endbr64 
  403944:	f2 ff 25 55 58 01 00 	bnd jmpq *0x15855(%rip)        # 4191a0 <__stack_chk_fail@GLIBC_2.4>
  40394b:	0f 1f 44 00 00       	nopl   0x0(%rax,%rax,1)

0000000000403950 <_ZSt16__ostream_insertIcSt11char_traitsIcEERSt13basic_ostreamIT_T0_ES6_PKS3_l@plt>:
  403950:	f3 0f 1e fa          	endbr64 
  403954:	f2 ff 25 4d 58 01 00 	bnd jmpq *0x1584d(%rip)        # 4191a8 <_ZSt16__ostream_insertIcSt11char_traitsIcEERSt13basic_ostreamIT_T0_ES6_PKS3_l@GLIBCXX_3.4.9>
  40395b:	0f 1f 44 00 00       	nopl   0x0(%rax,%rax,1)

0000000000403960 <_ZNKSt5ctypeIcE13_M_widen_initEv@plt>:
  403960:	f3 0f 1e fa          	endbr64 
  403964:	f2 ff 25 45 58 01 00 	bnd jmpq *0x15845(%rip)        # 4191b0 <_ZNKSt5ctypeIcE13_M_widen_initEv@GLIBCXX_3.4.11>
  40396b:	0f 1f 44 00 00       	nopl   0x0(%rax,%rax,1)

0000000000403970 <omp_get_thread_num@plt>:
  403970:	f3 0f 1e fa          	endbr64 
  403974:	f2 ff 25 3d 58 01 00 	bnd jmpq *0x1583d(%rip)        # 4191b8 <omp_get_thread_num@VERSION>
  40397b:	0f 1f 44 00 00       	nopl   0x0(%rax,%rax,1)

0000000000403980 <_ZNSt7__cxx1112basic_stringIcSt11char_traitsIcESaIcEE12_M_constructEmc@plt>:
  403980:	f3 0f 1e fa          	endbr64 
  403984:	f2 ff 25 35 58 01 00 	bnd jmpq *0x15835(%rip)        # 4191c0 <_ZNSt7__cxx1112basic_stringIcSt11char_traitsIcESaIcEE12_M_constructEmc@GLIBCXX_3.4.21>
  40398b:	0f 1f 44 00 00       	nopl   0x0(%rax,%rax,1)

0000000000403990 <fopen@plt>:
  403990:	f3 0f 1e fa          	endbr64 
  403994:	f2 ff 25 2d 58 01 00 	bnd jmpq *0x1582d(%rip)        # 4191c8 <fopen@GLIBC_2.2.5>
  40399b:	0f 1f 44 00 00       	nopl   0x0(%rax,%rax,1)

00000000004039a0 <GOMP_barrier@plt>:
  4039a0:	f3 0f 1e fa          	endbr64 
  4039a4:	f2 ff 25 25 58 01 00 	bnd jmpq *0x15825(%rip)        # 4191d0 <GOMP_barrier@VERSION>
  4039ab:	0f 1f 44 00 00       	nopl   0x0(%rax,%rax,1)

00000000004039b0 <exit@plt>:
  4039b0:	f3 0f 1e fa          	endbr64 
  4039b4:	f2 ff 25 1d 58 01 00 	bnd jmpq *0x1581d(%rip)        # 4191d8 <exit@GLIBC_2.2.5>
  4039bb:	0f 1f 44 00 00       	nopl   0x0(%rax,%rax,1)

00000000004039c0 <getenv@plt>:
  4039c0:	f3 0f 1e fa          	endbr64 
  4039c4:	f2 ff 25 15 58 01 00 	bnd jmpq *0x15815(%rip)        # 4191e0 <getenv@GLIBC_2.2.5>
  4039cb:	0f 1f 44 00 00       	nopl   0x0(%rax,%rax,1)

00000000004039d0 <_ZNSi4readEPcl@plt>:
  4039d0:	f3 0f 1e fa          	endbr64 
  4039d4:	f2 ff 25 0d 58 01 00 	bnd jmpq *0x1580d(%rip)        # 4191e8 <_ZNSi4readEPcl@GLIBCXX_3.4>
  4039db:	0f 1f 44 00 00       	nopl   0x0(%rax,%rax,1)

00000000004039e0 <_ZSt16__throw_bad_castv@plt>:
  4039e0:	f3 0f 1e fa          	endbr64 
  4039e4:	f2 ff 25 05 58 01 00 	bnd jmpq *0x15805(%rip)        # 4191f0 <_ZSt16__throw_bad_castv@GLIBCXX_3.4>
  4039eb:	0f 1f 44 00 00       	nopl   0x0(%rax,%rax,1)

00000000004039f0 <_ZStrsIcSt11char_traitsIcESaIcEERSt13basic_istreamIT_T0_ES7_RNSt7__cxx1112basic_stringIS4_S5_T1_EE@plt>:
  4039f0:	f3 0f 1e fa          	endbr64 
  4039f4:	f2 ff 25 fd 57 01 00 	bnd jmpq *0x157fd(%rip)        # 4191f8 <_ZStrsIcSt11char_traitsIcESaIcEERSt13basic_istreamIT_T0_ES7_RNSt7__cxx1112basic_stringIS4_S5_T1_EE@GLIBCXX_3.4.21>
  4039fb:	0f 1f 44 00 00       	nopl   0x0(%rax,%rax,1)

0000000000403a00 <_ZdaPv@plt>:
  403a00:	f3 0f 1e fa          	endbr64 
  403a04:	f2 ff 25 f5 57 01 00 	bnd jmpq *0x157f5(%rip)        # 419200 <_ZdaPv@GLIBCXX_3.4>
  403a0b:	0f 1f 44 00 00       	nopl   0x0(%rax,%rax,1)

0000000000403a10 <_ZNSt7__cxx1115basic_stringbufIcSt11char_traitsIcESaIcEE7_M_syncEPcmm@plt>:
  403a10:	f3 0f 1e fa          	endbr64 
  403a14:	f2 ff 25 ed 57 01 00 	bnd jmpq *0x157ed(%rip)        # 419208 <_ZNSt7__cxx1115basic_stringbufIcSt11char_traitsIcESaIcEE7_M_syncEPcmm@GLIBCXX_3.4.21>
  403a1b:	0f 1f 44 00 00       	nopl   0x0(%rax,%rax,1)

0000000000403a20 <_ZStrsIcSt11char_traitsIcEERSt13basic_istreamIT_T0_ES6_RS3_@plt>:
  403a20:	f3 0f 1e fa          	endbr64 
  403a24:	f2 ff 25 e5 57 01 00 	bnd jmpq *0x157e5(%rip)        # 419210 <_ZStrsIcSt11char_traitsIcEERSt13basic_istreamIT_T0_ES6_RS3_@GLIBCXX_3.4>
  403a2b:	0f 1f 44 00 00       	nopl   0x0(%rax,%rax,1)

0000000000403a30 <_ZNSt9basic_iosIcSt11char_traitsIcEE4initEPSt15basic_streambufIcS1_E@plt>:
  403a30:	f3 0f 1e fa          	endbr64 
  403a34:	f2 ff 25 dd 57 01 00 	bnd jmpq *0x157dd(%rip)        # 419218 <_ZNSt9basic_iosIcSt11char_traitsIcEE4initEPSt15basic_streambufIcS1_E@GLIBCXX_3.4>
  403a3b:	0f 1f 44 00 00       	nopl   0x0(%rax,%rax,1)

0000000000403a40 <strtol@plt>:
  403a40:	f3 0f 1e fa          	endbr64 
  403a44:	f2 ff 25 d5 57 01 00 	bnd jmpq *0x157d5(%rip)        # 419220 <strtol@GLIBC_2.2.5>
  403a4b:	0f 1f 44 00 00       	nopl   0x0(%rax,%rax,1)

0000000000403a50 <ioctl@plt>:
  403a50:	f3 0f 1e fa          	endbr64 
  403a54:	f2 ff 25 cd 57 01 00 	bnd jmpq *0x157cd(%rip)        # 419228 <ioctl@GLIBC_2.2.5>
  403a5b:	0f 1f 44 00 00       	nopl   0x0(%rax,%rax,1)

0000000000403a60 <_ZNSt6localeD1Ev@plt>:
  403a60:	f3 0f 1e fa          	endbr64 
  403a64:	f2 ff 25 c5 57 01 00 	bnd jmpq *0x157c5(%rip)        # 419230 <_ZNSt6localeD1Ev@GLIBCXX_3.4>
  403a6b:	0f 1f 44 00 00       	nopl   0x0(%rax,%rax,1)

0000000000403a70 <__cxa_throw_bad_array_new_length@plt>:
  403a70:	f3 0f 1e fa          	endbr64 
  403a74:	f2 ff 25 bd 57 01 00 	bnd jmpq *0x157bd(%rip)        # 419238 <__cxa_throw_bad_array_new_length@CXXABI_1.3.8>
  403a7b:	0f 1f 44 00 00       	nopl   0x0(%rax,%rax,1)

0000000000403a80 <read@plt>:
  403a80:	f3 0f 1e fa          	endbr64 
  403a84:	f2 ff 25 b5 57 01 00 	bnd jmpq *0x157b5(%rip)        # 419240 <read@GLIBC_2.2.5>
  403a8b:	0f 1f 44 00 00       	nopl   0x0(%rax,%rax,1)

0000000000403a90 <omp_get_num_threads@plt>:
  403a90:	f3 0f 1e fa          	endbr64 
  403a94:	f2 ff 25 ad 57 01 00 	bnd jmpq *0x157ad(%rip)        # 419248 <omp_get_num_threads@VERSION>
  403a9b:	0f 1f 44 00 00       	nopl   0x0(%rax,%rax,1)

0000000000403aa0 <getpid@plt>:
  403aa0:	f3 0f 1e fa          	endbr64 
  403aa4:	f2 ff 25 a5 57 01 00 	bnd jmpq *0x157a5(%rip)        # 419250 <getpid@GLIBC_2.2.5>
  403aab:	0f 1f 44 00 00       	nopl   0x0(%rax,%rax,1)

0000000000403ab0 <fread@plt>:
  403ab0:	f3 0f 1e fa          	endbr64 
  403ab4:	f2 ff 25 9d 57 01 00 	bnd jmpq *0x1579d(%rip)        # 419258 <fread@GLIBC_2.2.5>
  403abb:	0f 1f 44 00 00       	nopl   0x0(%rax,%rax,1)

0000000000403ac0 <_ZSt24__throw_out_of_range_fmtPKcz@plt>:
  403ac0:	f3 0f 1e fa          	endbr64 
  403ac4:	f2 ff 25 95 57 01 00 	bnd jmpq *0x15795(%rip)        # 419260 <_ZSt24__throw_out_of_range_fmtPKcz@GLIBCXX_3.4.20>
  403acb:	0f 1f 44 00 00       	nopl   0x0(%rax,%rax,1)

0000000000403ad0 <_ZNSt8ios_base4InitC1Ev@plt>:
  403ad0:	f3 0f 1e fa          	endbr64 
  403ad4:	f2 ff 25 8d 57 01 00 	bnd jmpq *0x1578d(%rip)        # 419268 <_ZNSt8ios_base4InitC1Ev@GLIBCXX_3.4>
  403adb:	0f 1f 44 00 00       	nopl   0x0(%rax,%rax,1)

0000000000403ae0 <_ZNSt13basic_filebufIcSt11char_traitsIcEED1Ev@plt>:
  403ae0:	f3 0f 1e fa          	endbr64 
  403ae4:	f2 ff 25 85 57 01 00 	bnd jmpq *0x15785(%rip)        # 419270 <_ZNSt13basic_filebufIcSt11char_traitsIcEED1Ev@GLIBCXX_3.4>
  403aeb:	0f 1f 44 00 00       	nopl   0x0(%rax,%rax,1)

0000000000403af0 <_ZNSt7__cxx1112basic_stringIcSt11char_traitsIcESaIcEE7reserveEm@plt>:
  403af0:	f3 0f 1e fa          	endbr64 
  403af4:	f2 ff 25 7d 57 01 00 	bnd jmpq *0x1577d(%rip)        # 419278 <_ZNSt7__cxx1112basic_stringIcSt11char_traitsIcESaIcEE7reserveEm@GLIBCXX_3.4.21>
  403afb:	0f 1f 44 00 00       	nopl   0x0(%rax,%rax,1)

0000000000403b00 <fgets@plt>:
  403b00:	f3 0f 1e fa          	endbr64 
  403b04:	f2 ff 25 75 57 01 00 	bnd jmpq *0x15775(%rip)        # 419280 <fgets@GLIBC_2.2.5>
  403b0b:	0f 1f 44 00 00       	nopl   0x0(%rax,%rax,1)

0000000000403b10 <gettimeofday@plt>:
  403b10:	f3 0f 1e fa          	endbr64 
  403b14:	f2 ff 25 6d 57 01 00 	bnd jmpq *0x1576d(%rip)        # 419288 <gettimeofday@GLIBC_2.2.5>
  403b1b:	0f 1f 44 00 00       	nopl   0x0(%rax,%rax,1)

0000000000403b20 <memmove@plt>:
  403b20:	f3 0f 1e fa          	endbr64 
  403b24:	f2 ff 25 65 57 01 00 	bnd jmpq *0x15765(%rip)        # 419290 <memmove@GLIBC_2.2.5>
  403b2b:	0f 1f 44 00 00       	nopl   0x0(%rax,%rax,1)

0000000000403b30 <__cxa_end_catch@plt>:
  403b30:	f3 0f 1e fa          	endbr64 
  403b34:	f2 ff 25 5d 57 01 00 	bnd jmpq *0x1575d(%rip)        # 419298 <__cxa_end_catch@CXXABI_1.3>
  403b3b:	0f 1f 44 00 00       	nopl   0x0(%rax,%rax,1)

0000000000403b40 <realloc@plt>:
  403b40:	f3 0f 1e fa          	endbr64 
  403b44:	f2 ff 25 55 57 01 00 	bnd jmpq *0x15755(%rip)        # 4192a0 <realloc@GLIBC_2.2.5>
  403b4b:	0f 1f 44 00 00       	nopl   0x0(%rax,%rax,1)

0000000000403b50 <__fprintf_chk@plt>:
  403b50:	f3 0f 1e fa          	endbr64 
  403b54:	f2 ff 25 4d 57 01 00 	bnd jmpq *0x1574d(%rip)        # 4192a8 <__fprintf_chk@GLIBC_2.3.4>
  403b5b:	0f 1f 44 00 00       	nopl   0x0(%rax,%rax,1)

0000000000403b60 <_ZNSt7__cxx1119basic_istringstreamIcSt11char_traitsIcESaIcEEC1ERKNS_12basic_stringIcS2_S3_EESt13_Ios_Openmode@plt>:
  403b60:	f3 0f 1e fa          	endbr64 
  403b64:	f2 ff 25 45 57 01 00 	bnd jmpq *0x15745(%rip)        # 4192b0 <_ZNSt7__cxx1119basic_istringstreamIcSt11char_traitsIcESaIcEEC1ERKNS_12basic_stringIcS2_S3_EESt13_Ios_Openmode@GLIBCXX_3.4.21>
  403b6b:	0f 1f 44 00 00       	nopl   0x0(%rax,%rax,1)

0000000000403b70 <_ZNSt9basic_iosIcSt11char_traitsIcEE5clearESt12_Ios_Iostate@plt>:
  403b70:	f3 0f 1e fa          	endbr64 
  403b74:	f2 ff 25 3d 57 01 00 	bnd jmpq *0x1573d(%rip)        # 4192b8 <_ZNSt9basic_iosIcSt11char_traitsIcEE5clearESt12_Ios_Iostate@GLIBCXX_3.4>
  403b7b:	0f 1f 44 00 00       	nopl   0x0(%rax,%rax,1)

0000000000403b80 <_ZNSolsEi@plt>:
  403b80:	f3 0f 1e fa          	endbr64 
  403b84:	f2 ff 25 35 57 01 00 	bnd jmpq *0x15735(%rip)        # 4192c0 <_ZNSolsEi@GLIBCXX_3.4>
  403b8b:	0f 1f 44 00 00       	nopl   0x0(%rax,%rax,1)

0000000000403b90 <GOMP_parallel@plt>:
  403b90:	f3 0f 1e fa          	endbr64 
  403b94:	f2 ff 25 2d 57 01 00 	bnd jmpq *0x1572d(%rip)        # 4192c8 <GOMP_parallel@VERSION>
  403b9b:	0f 1f 44 00 00       	nopl   0x0(%rax,%rax,1)

0000000000403ba0 <_Unwind_Resume@plt>:
  403ba0:	f3 0f 1e fa          	endbr64 
  403ba4:	f2 ff 25 25 57 01 00 	bnd jmpq *0x15725(%rip)        # 4192d0 <_Unwind_Resume@GCC_3.0>
  403bab:	0f 1f 44 00 00       	nopl   0x0(%rax,%rax,1)

0000000000403bb0 <_ZNSt7__cxx1112basic_stringIcSt11char_traitsIcESaIcEE9_M_createERmm@plt>:
  403bb0:	f3 0f 1e fa          	endbr64 
  403bb4:	f2 ff 25 1d 57 01 00 	bnd jmpq *0x1571d(%rip)        # 4192d8 <_ZNSt7__cxx1112basic_stringIcSt11char_traitsIcESaIcEE9_M_createERmm@GLIBCXX_3.4.21>
  403bbb:	0f 1f 44 00 00       	nopl   0x0(%rax,%rax,1)

0000000000403bc0 <__isoc99_fscanf@plt>:
  403bc0:	f3 0f 1e fa          	endbr64 
  403bc4:	f2 ff 25 15 57 01 00 	bnd jmpq *0x15715(%rip)        # 4192e0 <__isoc99_fscanf@GLIBC_2.7>
  403bcb:	0f 1f 44 00 00       	nopl   0x0(%rax,%rax,1)

0000000000403bd0 <_ZSt7getlineIcSt11char_traitsIcESaIcEERSt13basic_istreamIT_T0_ES7_RNSt7__cxx1112basic_stringIS4_S5_T1_EES4_@plt>:
  403bd0:	f3 0f 1e fa          	endbr64 
  403bd4:	f2 ff 25 0d 57 01 00 	bnd jmpq *0x1570d(%rip)        # 4192e8 <_ZSt7getlineIcSt11char_traitsIcESaIcEERSt13basic_istreamIT_T0_ES7_RNSt7__cxx1112basic_stringIS4_S5_T1_EES4_@GLIBCXX_3.4.21>
  403bdb:	0f 1f 44 00 00       	nopl   0x0(%rax,%rax,1)

0000000000403be0 <_ZNSt12__basic_fileIcED1Ev@plt>:
  403be0:	f3 0f 1e fa          	endbr64 
  403be4:	f2 ff 25 05 57 01 00 	bnd jmpq *0x15705(%rip)        # 4192f0 <_ZNSt12__basic_fileIcED1Ev@GLIBCXX_3.4>
  403beb:	0f 1f 44 00 00       	nopl   0x0(%rax,%rax,1)

0000000000403bf0 <fwrite@plt>:
  403bf0:	f3 0f 1e fa          	endbr64 
  403bf4:	f2 ff 25 fd 56 01 00 	bnd jmpq *0x156fd(%rip)        # 4192f8 <fwrite@GLIBC_2.2.5>
  403bfb:	0f 1f 44 00 00       	nopl   0x0(%rax,%rax,1)

0000000000403c00 <close@plt>:
  403c00:	f3 0f 1e fa          	endbr64 
  403c04:	f2 ff 25 f5 56 01 00 	bnd jmpq *0x156f5(%rip)        # 419300 <close@GLIBC_2.2.5>
  403c0b:	0f 1f 44 00 00       	nopl   0x0(%rax,%rax,1)

0000000000403c10 <_ZNKSt7__cxx1112basic_stringIcSt11char_traitsIcESaIcEE5rfindEcm@plt>:
  403c10:	f3 0f 1e fa          	endbr64 
  403c14:	f2 ff 25 ed 56 01 00 	bnd jmpq *0x156ed(%rip)        # 419308 <_ZNKSt7__cxx1112basic_stringIcSt11char_traitsIcESaIcEE5rfindEcm@GLIBCXX_3.4.21>
  403c1b:	0f 1f 44 00 00       	nopl   0x0(%rax,%rax,1)

0000000000403c20 <_ZNSt6localeC1Ev@plt>:
  403c20:	f3 0f 1e fa          	endbr64 
  403c24:	f2 ff 25 e5 56 01 00 	bnd jmpq *0x156e5(%rip)        # 419310 <_ZNSt6localeC1Ev@GLIBCXX_3.4>
  403c2b:	0f 1f 44 00 00       	nopl   0x0(%rax,%rax,1)

Disassembly of section .text:

0000000000403c30 <_Z10PrintLabelRKNSt7__cxx1112basic_stringIcSt11char_traitsIcESaIcEEES6_.cold>:
_ZNKSt7__cxx1112basic_stringIcSt11char_traitsIcESaIcEE7_M_dataEv():
/usr/include/c++/10/bits/basic_string.h:195 (discriminator 1)
      _M_length(size_type __length)
      { _M_string_length = __length; }

      pointer
      _M_data() const
      { return _M_dataplus._M_p; }
  403c30:	48 8b 7c 24 10       	mov    0x10(%rsp),%rdi
_ZNSt7__cxx1112basic_stringIcSt11char_traitsIcESaIcEE10_M_disposeEv():
/usr/include/c++/10/bits/basic_string.h:239 (discriminator 1)
      _M_create(size_type&, size_type);

      void
      _M_dispose()
      {
	if (!_M_is_local())
  403c35:	48 39 df             	cmp    %rbx,%rdi
  403c38:	74 05                	je     403c3f <_Z10PrintLabelRKNSt7__cxx1112basic_stringIcSt11char_traitsIcESaIcEEES6_.cold+0xf>
_ZN9__gnu_cxx13new_allocatorIcE10deallocateEPcm():
/usr/include/c++/10/ext/new_allocator.h:139
# endif
			      std::align_val_t(alignof(_Tp)));
	    return;
	  }
#endif
	::operator delete(__p
  403c3a:	e8 81 fc ff ff       	callq  4038c0 <_ZdlPv@plt>
_ZN9__gnu_cxx13new_allocatorIcED4Ev():
/usr/include/c++/10/ext/new_allocator.h:89
      ~new_allocator() _GLIBCXX_USE_NOEXCEPT { }
  403c3f:	48 89 ef             	mov    %rbp,%rdi
  403c42:	e8 59 ff ff ff       	callq  403ba0 <_Unwind_Resume@plt>

0000000000403c47 <_Z9PrintTimeRKNSt7__cxx1112basic_stringIcSt11char_traitsIcESaIcEEEd.cold>:
_ZNKSt7__cxx1112basic_stringIcSt11char_traitsIcESaIcEE7_M_dataEv():
/usr/include/c++/10/bits/basic_string.h:195 (discriminator 1)
      { return _M_dataplus._M_p; }
  403c47:	48 8b 7c 24 10       	mov    0x10(%rsp),%rdi
_ZNSt7__cxx1112basic_stringIcSt11char_traitsIcESaIcEE10_M_disposeEv():
/usr/include/c++/10/bits/basic_string.h:239 (discriminator 1)
	if (!_M_is_local())
  403c4c:	48 39 df             	cmp    %rbx,%rdi
  403c4f:	74 05                	je     403c56 <_Z9PrintTimeRKNSt7__cxx1112basic_stringIcSt11char_traitsIcESaIcEEEd.cold+0xf>
_ZN9__gnu_cxx13new_allocatorIcE10deallocateEPcm():
/usr/include/c++/10/ext/new_allocator.h:139
	::operator delete(__p
  403c51:	e8 6a fc ff ff       	callq  4038c0 <_ZdlPv@plt>
_ZN9__gnu_cxx13new_allocatorIcED4Ev():
/usr/include/c++/10/ext/new_allocator.h:89
      ~new_allocator() _GLIBCXX_USE_NOEXCEPT { }
  403c56:	48 89 ef             	mov    %rbp,%rdi
  403c59:	e8 42 ff ff ff       	callq  403ba0 <_Unwind_Resume@plt>

0000000000403c5e <_Z9PrintStepRKNSt7__cxx1112basic_stringIcSt11char_traitsIcESaIcEEEl.cold>:
_ZNKSt7__cxx1112basic_stringIcSt11char_traitsIcESaIcEE7_M_dataEv():
/usr/include/c++/10/bits/basic_string.h:195 (discriminator 1)
      { return _M_dataplus._M_p; }
  403c5e:	48 8b 7c 24 10       	mov    0x10(%rsp),%rdi
_ZNSt7__cxx1112basic_stringIcSt11char_traitsIcESaIcEE10_M_disposeEv():
/usr/include/c++/10/bits/basic_string.h:239 (discriminator 1)
	if (!_M_is_local())
  403c63:	48 39 df             	cmp    %rbx,%rdi
  403c66:	74 05                	je     403c6d <_Z9PrintStepRKNSt7__cxx1112basic_stringIcSt11char_traitsIcESaIcEEEl.cold+0xf>
_ZN9__gnu_cxx13new_allocatorIcE10deallocateEPcm():
/usr/include/c++/10/ext/new_allocator.h:139
	::operator delete(__p
  403c68:	e8 53 fc ff ff       	callq  4038c0 <_ZdlPv@plt>
_ZN9__gnu_cxx13new_allocatorIcED4Ev():
/usr/include/c++/10/ext/new_allocator.h:89
      ~new_allocator() _GLIBCXX_USE_NOEXCEPT { }
  403c6d:	48 89 ef             	mov    %rbp,%rdi
  403c70:	e8 2b ff ff ff       	callq  403ba0 <_Unwind_Resume@plt>

0000000000403c75 <_Z9PrintStepidl.cold>:
_ZNKSt7__cxx1112basic_stringIcSt11char_traitsIcESaIcEE7_M_dataEv():
/usr/include/c++/10/bits/basic_string.h:195 (discriminator 1)
      { return _M_dataplus._M_p; }
  403c75:	48 8b 7c 24 10       	mov    0x10(%rsp),%rdi
_ZNSt7__cxx1112basic_stringIcSt11char_traitsIcESaIcEE10_M_disposeEv():
/usr/include/c++/10/bits/basic_string.h:239 (discriminator 1)
	if (!_M_is_local())
  403c7a:	48 39 ef             	cmp    %rbp,%rdi
  403c7d:	74 05                	je     403c84 <_Z9PrintStepidl.cold+0xf>
_ZN9__gnu_cxx13new_allocatorIcE10deallocateEPcm():
/usr/include/c++/10/ext/new_allocator.h:139
	::operator delete(__p
  403c7f:	e8 3c fc ff ff       	callq  4038c0 <_ZdlPv@plt>
_ZN9__gnu_cxx13new_allocatorIcED4Ev():
/usr/include/c++/10/ext/new_allocator.h:89
      ~new_allocator() _GLIBCXX_USE_NOEXCEPT { }
  403c84:	4c 89 e7             	mov    %r12,%rdi
  403c87:	e8 14 ff ff ff       	callq  403ba0 <_Unwind_Resume@plt>

0000000000403c8c <_Z10InitParentRK8CSRGraphIiiLb1EE.cold>:
_ZN7pvectorIiEC4Em():
/home/aliha951/ipdps-artifact/gapbs-master/src/pvector.h:30
  typedef T_* iterator;

  pvector() : start_(nullptr), end_size_(nullptr), end_capacity_(nullptr) {}

  explicit pvector(size_t num_elements) {
    start_ = new T_[num_elements];
  403c8c:	e8 df fd ff ff       	callq  403a70 <__cxa_throw_bad_array_new_length@plt>

0000000000403c91 <_Z5DOBFSRK8CSRGraphIiiLb1EEibii.cold>:
_ZNKSt7__cxx1112basic_stringIcSt11char_traitsIcESaIcEE7_M_dataEv():
/usr/include/c++/10/bits/basic_string.h:195 (discriminator 4)
      { return _M_dataplus._M_p; }
  403c91:	48 8b bc 24 c0 00 00 	mov    0xc0(%rsp),%rdi
  403c98:	00 
_ZNSt7__cxx1112basic_stringIcSt11char_traitsIcESaIcEE10_M_disposeEv():
/usr/include/c++/10/bits/basic_string.h:239 (discriminator 4)
	if (!_M_is_local())
  403c99:	48 39 ef             	cmp    %rbp,%rdi
  403c9c:	74 05                	je     403ca3 <_Z5DOBFSRK8CSRGraphIiiLb1EEibii.cold+0x12>
_ZN9__gnu_cxx13new_allocatorIcE10deallocateEPcm():
/usr/include/c++/10/ext/new_allocator.h:139
	::operator delete(__p
  403c9e:	e8 1d fc ff ff       	callq  4038c0 <_ZdlPv@plt>
_ZN6BitmapD4Ev():
/home/aliha951/ipdps-artifact/gapbs-master/src/bitmap.h:32
    start_ = new uint64_t[num_words];
    end_ = start_ + num_words;
  }

  ~Bitmap() {
    delete[] start_;
  403ca3:	48 8b 7c 24 60       	mov    0x60(%rsp),%rdi
  403ca8:	48 85 ff             	test   %rdi,%rdi
  403cab:	74 05                	je     403cb2 <_Z5DOBFSRK8CSRGraphIiiLb1EEibii.cold+0x21>
  403cad:	e8 4e fd ff ff       	callq  403a00 <_ZdaPv@plt>
  403cb2:	48 89 dd             	mov    %rbx,%rbp
  403cb5:	48 8b 7c 24 50       	mov    0x50(%rsp),%rdi
  403cba:	48 85 ff             	test   %rdi,%rdi
  403cbd:	74 05                	je     403cc4 <_Z5DOBFSRK8CSRGraphIiiLb1EEibii.cold+0x33>
  403cbf:	e8 3c fd ff ff       	callq  403a00 <_ZdaPv@plt>
_ZN12SlidingQueueIiED4Ev():
/home/aliha951/ipdps-artifact/gapbs-master/src/sliding_queue.h:41
    shared = new T[shared_size];
    reset();
  }

  ~SlidingQueue() {
    delete[] shared;
  403cc4:	48 8b 7c 24 70       	mov    0x70(%rsp),%rdi
  403cc9:	48 85 ff             	test   %rdi,%rdi
  403ccc:	74 05                	je     403cd3 <_Z5DOBFSRK8CSRGraphIiiLb1EEibii.cold+0x42>
  403cce:	e8 2d fd ff ff       	callq  403a00 <_ZdaPv@plt>
_ZN7pvectorIiE16ReleaseResourcesEv():
/home/aliha951/ipdps-artifact/gapbs-master/src/pvector.h:73
    }
    return *this;
  }

  void ReleaseResources(){
    if (start_ != nullptr) {
  403cd3:	48 8b 44 24 48       	mov    0x48(%rsp),%rax
  403cd8:	48 8b 38             	mov    (%rax),%rdi
  403cdb:	48 85 ff             	test   %rdi,%rdi
  403cde:	74 05                	je     403ce5 <_Z5DOBFSRK8CSRGraphIiiLb1EEibii.cold+0x54>
/home/aliha951/ipdps-artifact/gapbs-master/src/pvector.h:74
      delete[] start_;
  403ce0:	e8 1b fd ff ff       	callq  403a00 <_ZdaPv@plt>
  403ce5:	48 89 ef             	mov    %rbp,%rdi
  403ce8:	e8 b3 fe ff ff       	callq  403ba0 <_Unwind_Resume@plt>
_ZNKSt7__cxx1112basic_stringIcSt11char_traitsIcESaIcEE7_M_dataEv():
/usr/include/c++/10/bits/basic_string.h:195 (discriminator 3)
      { return _M_dataplus._M_p; }
  403ced:	48 8b bc 24 c0 00 00 	mov    0xc0(%rsp),%rdi
  403cf4:	00 
_ZNSt7__cxx1112basic_stringIcSt11char_traitsIcESaIcEE10_M_disposeEv():
/usr/include/c++/10/bits/basic_string.h:239 (discriminator 3)
	if (!_M_is_local())
  403cf5:	48 39 ef             	cmp    %rbp,%rdi
  403cf8:	74 05                	je     403cff <_Z5DOBFSRK8CSRGraphIiiLb1EEibii.cold+0x6e>
_ZN9__gnu_cxx13new_allocatorIcE10deallocateEPcm():
/usr/include/c++/10/ext/new_allocator.h:139
  403cfa:	e8 c1 fb ff ff       	callq  4038c0 <_ZdlPv@plt>
_ZN9__gnu_cxx13new_allocatorIcED4Ev():
/usr/include/c++/10/ext/new_allocator.h:89
      ~new_allocator() _GLIBCXX_USE_NOEXCEPT { }
  403cff:	4c 89 e7             	mov    %r12,%rdi
  403d02:	e8 99 fe ff ff       	callq  403ba0 <_Unwind_Resume@plt>
_ZN7pvectorIiEC4Em():
/home/aliha951/ipdps-artifact/gapbs-master/src/pvector.h:30
    start_ = new T_[num_elements];
  403d07:	e8 64 fd ff ff       	callq  403a70 <__cxa_throw_bad_array_new_length@plt>
_ZNKSt7__cxx1112basic_stringIcSt11char_traitsIcESaIcEE7_M_dataEv():
/usr/include/c++/10/bits/basic_string.h:195 (discriminator 4)
      { return _M_dataplus._M_p; }
  403d0c:	48 8b bc 24 c0 00 00 	mov    0xc0(%rsp),%rdi
  403d13:	00 
_ZNSt7__cxx1112basic_stringIcSt11char_traitsIcESaIcEE10_M_disposeEv():
/usr/include/c++/10/bits/basic_string.h:239 (discriminator 4)
	if (!_M_is_local())
  403d14:	48 39 ef             	cmp    %rbp,%rdi
  403d17:	74 05                	je     403d1e <_Z5DOBFSRK8CSRGraphIiiLb1EEibii.cold+0x8d>
_ZN9__gnu_cxx13new_allocatorIcE10deallocateEPcm():
/usr/include/c++/10/ext/new_allocator.h:139
	::operator delete(__p
  403d19:	e8 a2 fb ff ff       	callq  4038c0 <_ZdlPv@plt>
_ZN9__gnu_cxx13new_allocatorIcED4Ev():
/usr/include/c++/10/ext/new_allocator.h:89
      ~new_allocator() _GLIBCXX_USE_NOEXCEPT { }
  403d1e:	48 89 dd             	mov    %rbx,%rbp
  403d21:	eb b0                	jmp    403cd3 <_Z5DOBFSRK8CSRGraphIiiLb1EEibii.cold+0x42>
_ZN12SlidingQueueIiEC4Em():
/home/aliha951/ipdps-artifact/gapbs-master/src/sliding_queue.h:36
    shared = new T[shared_size];
  403d23:	e8 48 fd ff ff       	callq  403a70 <__cxa_throw_bad_array_new_length@plt>
  403d28:	f3 0f 1e fa          	endbr64 
_ZN7pvectorIiE16ReleaseResourcesEv():
/home/aliha951/ipdps-artifact/gapbs-master/src/pvector.h:73
    if (start_ != nullptr) {
  403d2c:	48 89 c5             	mov    %rax,%rbp
  403d2f:	eb a2                	jmp    403cd3 <_Z5DOBFSRK8CSRGraphIiiLb1EEibii.cold+0x42>

0000000000403d31 <_Z11BFSVerifierRK8CSRGraphIiiLb1EEiRK7pvectorIiE.cold>:
_ZN7pvectorIiEC4Em():
/home/aliha951/ipdps-artifact/gapbs-master/src/pvector.h:30
    start_ = new T_[num_elements];
  403d31:	e8 3a fd ff ff       	callq  403a70 <__cxa_throw_bad_array_new_length@plt>
_ZNSt6vectorIiSaIiEED4Ev():
/usr/include/c++/10/bits/stl_vector.h:680
       *  not touched in any way.  Managing the pointer is the user's
       *  responsibility.
       */
      ~vector() _GLIBCXX_NOEXCEPT
      {
	std::_Destroy(this->_M_impl._M_start, this->_M_impl._M_finish,
  403d36:	48 8b 7c 24 50       	mov    0x50(%rsp),%rdi
_ZNSt12_Vector_baseIiSaIiEE13_M_deallocateEPim():
/usr/include/c++/10/bits/stl_vector.h:353
	if (__p)
  403d3b:	48 85 ff             	test   %rdi,%rdi
  403d3e:	74 05                	je     403d45 <_Z11BFSVerifierRK8CSRGraphIiiLb1EEiRK7pvectorIiE.cold+0x14>
_ZN9__gnu_cxx13new_allocatorIiE10deallocateEPim():
/usr/include/c++/10/ext/new_allocator.h:139
	::operator delete(__p
  403d40:	e8 7b fb ff ff       	callq  4038c0 <_ZdlPv@plt>
_ZN7pvectorIiE16ReleaseResourcesEv():
/home/aliha951/ipdps-artifact/gapbs-master/src/pvector.h:73
    if (start_ != nullptr) {
  403d45:	48 8b 7c 24 30       	mov    0x30(%rsp),%rdi
  403d4a:	48 85 ff             	test   %rdi,%rdi
  403d4d:	74 05                	je     403d54 <_Z11BFSVerifierRK8CSRGraphIiiLb1EEiRK7pvectorIiE.cold+0x23>
/home/aliha951/ipdps-artifact/gapbs-master/src/pvector.h:74
      delete[] start_;
  403d4f:	e8 ac fc ff ff       	callq  403a00 <_ZdaPv@plt>
  403d54:	48 89 ef             	mov    %rbp,%rdi
  403d57:	e8 44 fe ff ff       	callq  403ba0 <_Unwind_Resume@plt>

0000000000403d5c <main.cold>:
_ZNKSt7__cxx1112basic_stringIcSt11char_traitsIcESaIcEE7_M_dataEv():
/usr/include/c++/10/bits/basic_string.h:195
      { return _M_dataplus._M_p; }
  403d5c:	48 8b bc 24 00 01 00 	mov    0x100(%rsp),%rdi
  403d63:	00 
_ZNSt7__cxx1112basic_stringIcSt11char_traitsIcESaIcEE10_M_disposeEv():
/usr/include/c++/10/bits/basic_string.h:239
	if (!_M_is_local())
  403d64:	4c 39 ef             	cmp    %r13,%rdi
  403d67:	74 05                	je     403d6e <main.cold+0x12>
_ZN9__gnu_cxx13new_allocatorIcE10deallocateEPcm():
/usr/include/c++/10/ext/new_allocator.h:139
  403d69:	e8 52 fb ff ff       	callq  4038c0 <_ZdlPv@plt>
_ZNKSt7__cxx1112basic_stringIcSt11char_traitsIcESaIcEE7_M_dataEv():
/usr/include/c++/10/bits/basic_string.h:195
      { return _M_dataplus._M_p; }
  403d6e:	48 8b bc 24 e0 00 00 	mov    0xe0(%rsp),%rdi
  403d75:	00 
_ZNSt7__cxx1112basic_stringIcSt11char_traitsIcESaIcEE10_M_disposeEv():
/usr/include/c++/10/bits/basic_string.h:239
	if (!_M_is_local())
  403d76:	4c 39 ff             	cmp    %r15,%rdi
  403d79:	74 05                	je     403d80 <main.cold+0x24>
_ZN9__gnu_cxx13new_allocatorIcE10deallocateEPcm():
/usr/include/c++/10/ext/new_allocator.h:139
  403d7b:	e8 40 fb ff ff       	callq  4038c0 <_ZdlPv@plt>
_ZN7pvectorIiE16ReleaseResourcesEv():
/home/aliha951/ipdps-artifact/gapbs-master/src/pvector.h:73
    if (start_ != nullptr) {
  403d80:	48 8b bc 24 80 00 00 	mov    0x80(%rsp),%rdi
  403d87:	00 
  403d88:	48 85 ff             	test   %rdi,%rdi
  403d8b:	75 2b                	jne    403db8 <main.cold+0x5c>
_ZN8CSRGraphIiiLb1EED4Ev():
/home/aliha951/ipdps-artifact/gapbs-master/src/graph.h:166
      other.in_index_ = nullptr;
      other.in_neighbors_ = nullptr;
  }

  ~CSRGraph() {
    ReleaseResources();
  403d8d:	48 8b 7c 24 20       	mov    0x20(%rsp),%rdi
  403d92:	e8 49 6c 00 00       	callq  40a9e0 <_ZN8CSRGraphIiiLb1EE16ReleaseResourcesEv>
_ZN5CLAppD4Ev():
/home/aliha951/ipdps-artifact/gapbs-master/src/command_line.h:140
  int batching_mode() const { return batching_mode_; }
};



class CLApp : public CLBase {
  403d97:	48 8b 7c 24 38       	mov    0x38(%rsp),%rdi
  403d9c:	48 8d 05 85 4d 01 00 	lea    0x14d85(%rip),%rax        # 418b28 <_ZTV5CLApp+0x10>
  403da3:	48 89 84 24 20 01 00 	mov    %rax,0x120(%rsp)
  403daa:	00 
  403dab:	e8 a0 64 00 00       	callq  40a250 <_ZN6CLBaseD1Ev>
  403db0:	48 89 df             	mov    %rbx,%rdi
  403db3:	e8 e8 fd ff ff       	callq  403ba0 <_Unwind_Resume@plt>
_ZN7pvectorIiE16ReleaseResourcesEv():
/home/aliha951/ipdps-artifact/gapbs-master/src/pvector.h:74
      delete[] start_;
  403db8:	e8 43 fc ff ff       	callq  403a00 <_ZdaPv@plt>
  403dbd:	eb ce                	jmp    403d8d <main.cold+0x31>
_ZNKSt7__cxx1112basic_stringIcSt11char_traitsIcESaIcEE7_M_dataEv():
/usr/include/c++/10/bits/basic_string.h:195
      { return _M_dataplus._M_p; }
  403dbf:	48 8b bc 24 00 01 00 	mov    0x100(%rsp),%rdi
  403dc6:	00 
_ZNSt7__cxx1112basic_stringIcSt11char_traitsIcESaIcEE10_M_disposeEv():
/usr/include/c++/10/bits/basic_string.h:239
	if (!_M_is_local())
  403dc7:	4c 39 ef             	cmp    %r13,%rdi
  403dca:	74 b4                	je     403d80 <main.cold+0x24>
_ZN9__gnu_cxx13new_allocatorIcE10deallocateEPcm():
/usr/include/c++/10/ext/new_allocator.h:139
  403dcc:	e8 ef fa ff ff       	callq  4038c0 <_ZdlPv@plt>
_ZNSt7__cxx1112basic_stringIcSt11char_traitsIcESaIcEE10_M_destroyEm():
/usr/include/c++/10/bits/basic_string.h:245
	  _M_destroy(_M_allocated_capacity);
      }

      void
      _M_destroy(size_type __size) throw()
      { _Alloc_traits::deallocate(_M_get_allocator(), _M_data(), __size + 1); }
  403dd1:	eb ad                	jmp    403d80 <main.cold+0x24>
_ZNKSt7__cxx1112basic_stringIcSt11char_traitsIcESaIcEE7_M_dataEv():
/usr/include/c++/10/bits/basic_string.h:195
      { return _M_dataplus._M_p; }
  403dd3:	48 8b bc 24 e0 0b 00 	mov    0xbe0(%rsp),%rdi
  403dda:	00 
_ZNSt7__cxx1112basic_stringIcSt11char_traitsIcESaIcEE10_M_disposeEv():
/usr/include/c++/10/bits/basic_string.h:239
	if (!_M_is_local())
  403ddb:	48 8d 84 24 f0 0b 00 	lea    0xbf0(%rsp),%rax
  403de2:	00 
  403de3:	48 39 c7             	cmp    %rax,%rdi
  403de6:	74 05                	je     403ded <main.cold+0x91>
_ZN9__gnu_cxx13new_allocatorIcE10deallocateEPcm():
/usr/include/c++/10/ext/new_allocator.h:139
  403de8:	e8 d3 fa ff ff       	callq  4038c0 <_ZdlPv@plt>
_ZN9__gnu_cxx13new_allocatorIcED4Ev():
/usr/include/c++/10/ext/new_allocator.h:89
      ~new_allocator() _GLIBCXX_USE_NOEXCEPT { }
  403ded:	48 89 ef             	mov    %rbp,%rdi
  403df0:	e8 ab fd ff ff       	callq  403ba0 <_Unwind_Resume@plt>
_ZNKSt7__cxx1112basic_stringIcSt11char_traitsIcESaIcEE7_M_dataEv():
/usr/include/c++/10/bits/basic_string.h:195
      { return _M_dataplus._M_p; }
  403df5:	48 8b bc 24 00 01 00 	mov    0x100(%rsp),%rdi
  403dfc:	00 
_ZNSt7__cxx1112basic_stringIcSt11char_traitsIcESaIcEE10_M_disposeEv():
/usr/include/c++/10/bits/basic_string.h:239
	if (!_M_is_local())
  403dfd:	4c 39 ef             	cmp    %r13,%rdi
  403e00:	0f 84 7a ff ff ff    	je     403d80 <main.cold+0x24>
_ZN9__gnu_cxx13new_allocatorIcE10deallocateEPcm():
/usr/include/c++/10/ext/new_allocator.h:139
	::operator delete(__p
  403e06:	e8 b5 fa ff ff       	callq  4038c0 <_ZdlPv@plt>
_ZNSt7__cxx1112basic_stringIcSt11char_traitsIcESaIcEE10_M_destroyEm():
/usr/include/c++/10/bits/basic_string.h:245
      { _Alloc_traits::deallocate(_M_get_allocator(), _M_data(), __size + 1); }
  403e0b:	e9 70 ff ff ff       	jmpq   403d80 <main.cold+0x24>
_ZNKSt7__cxx1112basic_stringIcSt11char_traitsIcESaIcEE7_M_dataEv():
/usr/include/c++/10/bits/basic_string.h:195
      { return _M_dataplus._M_p; }
  403e10:	48 8b bc 24 00 01 00 	mov    0x100(%rsp),%rdi
  403e17:	00 
_ZNSt7__cxx1112basic_stringIcSt11char_traitsIcESaIcEE10_M_disposeEv():
/usr/include/c++/10/bits/basic_string.h:239
	if (!_M_is_local())
  403e18:	48 8d 84 24 10 01 00 	lea    0x110(%rsp),%rax
  403e1f:	00 
  403e20:	48 39 c7             	cmp    %rax,%rdi
  403e23:	0f 84 64 ff ff ff    	je     403d8d <main.cold+0x31>
_ZN9__gnu_cxx13new_allocatorIcE10deallocateEPcm():
/usr/include/c++/10/ext/new_allocator.h:139
  403e29:	e8 92 fa ff ff       	callq  4038c0 <_ZdlPv@plt>
_ZNSt7__cxx1112basic_stringIcSt11char_traitsIcESaIcEE10_M_destroyEm():
/usr/include/c++/10/bits/basic_string.h:245
      { _Alloc_traits::deallocate(_M_get_allocator(), _M_data(), __size + 1); }
  403e2e:	e9 5a ff ff ff       	jmpq   403d8d <main.cold+0x31>
main.cold():
  403e33:	66 2e 0f 1f 84 00 00 	nopw   %cs:0x0(%rax,%rax,1)
  403e3a:	00 00 00 
  403e3d:	0f 1f 00             	nopl   (%rax)

0000000000403e40 <main>:
main():
/home/aliha951/ipdps-artifact/gapbs-master/src/bfs.cc:250
  }
  return true;
}


int main(int argc, char* argv[]) {
  403e40:	f3 0f 1e fa          	endbr64 
  403e44:	41 57                	push   %r15
  403e46:	41 56                	push   %r14
  403e48:	41 55                	push   %r13
  403e4a:	41 54                	push   %r12
  403e4c:	55                   	push   %rbp
  403e4d:	53                   	push   %rbx
  403e4e:	48 81 ec 00 10 00 00 	sub    $0x1000,%rsp
  403e55:	48 83 0c 24 00       	orq    $0x0,(%rsp)
  403e5a:	48 81 ec e8 06 00 00 	sub    $0x6e8,%rsp
  403e61:	64 48 8b 04 25 28 00 	mov    %fs:0x28,%rax
  403e68:	00 00 
  403e6a:	48 89 84 24 d8 16 00 	mov    %rax,0x16d8(%rsp)
  403e71:	00 
  403e72:	31 c0                	xor    %eax,%eax
/home/aliha951/ipdps-artifact/gapbs-master/src/bfs.cc:252
  initialize_perf_measurements();
  CLApp cli(argc, argv, "breadth-first search");
  403e74:	48 8d ac 24 e0 0b 00 	lea    0xbe0(%rsp),%rbp
  403e7b:	00 
/home/aliha951/ipdps-artifact/gapbs-master/src/bfs.cc:250
int main(int argc, char* argv[]) {
  403e7c:	41 89 fc             	mov    %edi,%r12d
  403e7f:	49 89 f5             	mov    %rsi,%r13
_Z28initialize_perf_measurementsv():
/home/aliha951/ipdps-artifact/gapbs-master/src/profiling_utils.h:169

/* Setup counters before any threads are created by omp
 * Must be called at the begining of the program.
*/
void initialize_perf_measurements(){
  perf_ctrs = setup_counters();
  403e82:	e8 69 2f 00 00       	callq  406df0 <_Z14setup_countersv>
main():
/home/aliha951/ipdps-artifact/gapbs-master/src/bfs.cc:252
  CLApp cli(argc, argv, "breadth-first search");
  403e87:	48 8d 35 b5 04 01 00 	lea    0x104b5(%rip),%rsi        # 414343 <_IO_stdin_used+0x343>
  403e8e:	48 89 ef             	mov    %rbp,%rdi
_Z28initialize_perf_measurementsv():
/home/aliha951/ipdps-artifact/gapbs-master/src/profiling_utils.h:169
  403e91:	48 89 05 b8 59 01 00 	mov    %rax,0x159b8(%rip)        # 419850 <perf_ctrs>
  403e98:	48 89 15 b9 59 01 00 	mov    %rdx,0x159b9(%rip)        # 419858 <perf_ctrs+0x8>
main():
/home/aliha951/ipdps-artifact/gapbs-master/src/bfs.cc:252
  403e9f:	e8 8c 22 00 00       	callq  406130 <_ZNSt7__cxx1112basic_stringIcSt11char_traitsIcESaIcEEC2EPKcRKS3_.constprop.0>
  403ea4:	48 89 e9             	mov    %rbp,%rcx
  403ea7:	4c 89 ea             	mov    %r13,%rdx
  403eaa:	44 89 e6             	mov    %r12d,%esi
  403ead:	48 8d 84 24 20 01 00 	lea    0x120(%rsp),%rax
  403eb4:	00 
  403eb5:	48 89 c7             	mov    %rax,%rdi
  403eb8:	48 89 44 24 38       	mov    %rax,0x38(%rsp)
  403ebd:	e8 9e 84 00 00       	callq  40c360 <_ZN5CLAppC1EiPPcNSt7__cxx1112basic_stringIcSt11char_traitsIcESaIcEEE>
_ZNKSt7__cxx1112basic_stringIcSt11char_traitsIcESaIcEE7_M_dataEv():
/usr/include/c++/10/bits/basic_string.h:195
      { return _M_dataplus._M_p; }
  403ec2:	48 8b bc 24 e0 0b 00 	mov    0xbe0(%rsp),%rdi
  403ec9:	00 
_ZNSt7__cxx1112basic_stringIcSt11char_traitsIcESaIcEE10_M_disposeEv():
/usr/include/c++/10/bits/basic_string.h:239
	if (!_M_is_local())
  403eca:	4c 8d ac 24 f0 0b 00 	lea    0xbf0(%rsp),%r13
  403ed1:	00 
  403ed2:	4c 39 ef             	cmp    %r13,%rdi
  403ed5:	74 05                	je     403edc <main+0x9c>
_ZN9__gnu_cxx13new_allocatorIcE10deallocateEPcm():
/usr/include/c++/10/ext/new_allocator.h:139
  403ed7:	e8 e4 f9 ff ff       	callq  4038c0 <_ZdlPv@plt>
_ZN6CLBase9HandleArgEaPc():
/home/aliha951/ipdps-artifact/gapbs-master/src/command_line.h:100
    switch (opt) {
  403edc:	4c 8d 25 41 0f 01 00 	lea    0x10f41(%rip),%r12        # 414e24 <_IO_stdin_used+0xe24>
_ZNSt7__cxx1112basic_stringIcSt11char_traitsIcESaIcEEaSEOS4_():
/usr/include/c++/10/bits/basic_string.h:745
	    || _M_get_allocator() == __str._M_get_allocator())
	  {
	    // Just move the allocated pointer, our allocator can free it.
	    pointer __data = nullptr;
	    size_type __capacity;
	    if (!_M_is_local())
  403ee3:	4c 8d b4 24 a8 01 00 	lea    0x1a8(%rsp),%r14
  403eea:	00 
_ZN5CLApp9HandleArgEaPc():
/home/aliha951/ipdps-artifact/gapbs-master/src/command_line.h:165
    AddHelpLine('p', "", "partial execution", "false");
    AddHelpLine('z', "", "pin vertex array in memory", "false");
  }

  void HandleArg(signed char opt, char* opt_arg) override {
    switch (opt) {
  403eeb:	48 8d 1d ca 0e 01 00 	lea    0x10eca(%rip),%rbx        # 414dbc <_IO_stdin_used+0xdbc>
  403ef2:	66 0f 1f 44 00 00    	nopw   0x0(%rax,%rax,1)
_ZN6CLBase9ParseArgsEv():
/home/aliha951/ipdps-artifact/gapbs-master/src/command_line.h:87
    while ((c_opt = getopt(argc_, argv_, get_args_.c_str())) != -1) {
  403ef8:	48 8b 94 24 58 01 00 	mov    0x158(%rsp),%rdx
  403eff:	00 
  403f00:	48 8b b4 24 30 01 00 	mov    0x130(%rsp),%rsi
  403f07:	00 
  403f08:	8b bc 24 28 01 00 00 	mov    0x128(%rsp),%edi
  403f0f:	e8 ac f7 ff ff       	callq  4036c0 <getopt@plt>
  403f14:	3c ff                	cmp    $0xff,%al
  403f16:	0f 84 a4 00 00 00    	je     403fc0 <main+0x180>
_ZN5CLApp9HandleArgEaPc():
/home/aliha951/ipdps-artifact/gapbs-master/src/command_line.h:165
    switch (opt) {
  403f1c:	8d 50 9f             	lea    -0x61(%rax),%edx
_ZN6CLBase9ParseArgsEv():
/home/aliha951/ipdps-artifact/gapbs-master/src/command_line.h:88
      HandleArg(c_opt, optarg);
  403f1f:	48 8b 3d 1a 54 01 00 	mov    0x1541a(%rip),%rdi        # 419340 <optarg@@GLIBC_2.2.5>
_ZN5CLApp9HandleArgEaPc():
/home/aliha951/ipdps-artifact/gapbs-master/src/command_line.h:165
    switch (opt) {
  403f26:	80 fa 19             	cmp    $0x19,%dl
  403f29:	77 15                	ja     403f40 <main+0x100>
  403f2b:	0f b6 d2             	movzbl %dl,%edx
  403f2e:	48 63 14 93          	movslq (%rbx,%rdx,4),%rdx
  403f32:	48 01 da             	add    %rbx,%rdx
  403f35:	3e ff e2             	notrack jmpq *%rdx
  403f38:	0f 1f 84 00 00 00 00 	nopl   0x0(%rax,%rax,1)
  403f3f:	00 
_ZN6CLBase9HandleArgEaPc():
/home/aliha951/ipdps-artifact/gapbs-master/src/command_line.h:100
    switch (opt) {
  403f40:	83 e8 66             	sub    $0x66,%eax
  403f43:	3c 13                	cmp    $0x13,%al
  403f45:	77 b1                	ja     403ef8 <main+0xb8>
  403f47:	0f b6 c0             	movzbl %al,%eax
  403f4a:	49 63 04 84          	movslq (%r12,%rax,4),%rax
  403f4e:	4c 01 e0             	add    %r12,%rax
  403f51:	3e ff e0             	notrack jmpq *%rax
_ZN5CLApp9HandleArgEaPc():
/home/aliha951/ipdps-artifact/gapbs-master/src/command_line.h:174
      case 'v': do_verify_ = true;                      break;
      case 'l': enable_logging_ = true;                 break;

      // added options for batching
      case 'p': partial_execution_ = true;              break;
      case 'z': pin_vertices_ = true;                 	break;
  403f54:	c6 84 24 e3 01 00 00 	movb   $0x1,0x1e3(%rsp)
  403f5b:	01 
  403f5c:	eb 9a                	jmp    403ef8 <main+0xb8>
/home/aliha951/ipdps-artifact/gapbs-master/src/command_line.h:169
      case 'v': do_verify_ = true;                      break;
  403f5e:	c6 84 24 e0 01 00 00 	movb   $0x1,0x1e0(%rsp)
  403f65:	01 
  403f66:	eb 90                	jmp    403ef8 <main+0xb8>
main():
/usr/include/stdlib.h:368
  return (int) strtol (__nptr, (char **) NULL, 10);
}
__extern_inline long int
__NTH (atol (const char *__nptr))
{
  return strtol (__nptr, (char **) NULL, 10);
  403f68:	ba 0a 00 00 00       	mov    $0xa,%edx
atol():
/usr/include/stdlib.h:368
  403f6d:	31 f6                	xor    %esi,%esi
  403f6f:	e8 cc fa ff ff       	callq  403a40 <strtol@plt>
_ZN5CLApp9HandleArgEaPc():
/home/aliha951/ipdps-artifact/gapbs-master/src/command_line.h:168
      case 'r': start_vertex_ = atol(opt_arg);          break;
  403f74:	48 89 84 24 d8 01 00 	mov    %rax,0x1d8(%rsp)
  403f7b:	00 
  403f7c:	e9 77 ff ff ff       	jmpq   403ef8 <main+0xb8>
/home/aliha951/ipdps-artifact/gapbs-master/src/command_line.h:173
      case 'p': partial_execution_ = true;              break;
  403f81:	c6 84 24 e2 01 00 00 	movb   $0x1,0x1e2(%rsp)
  403f88:	01 
  403f89:	e9 6a ff ff ff       	jmpq   403ef8 <main+0xb8>
main():
/usr/include/stdlib.h:363
  return (int) strtol (__nptr, (char **) NULL, 10);
  403f8e:	ba 0a 00 00 00       	mov    $0xa,%edx
atoi():
/usr/include/stdlib.h:363
  403f93:	31 f6                	xor    %esi,%esi
  403f95:	e8 a6 fa ff ff       	callq  403a40 <strtol@plt>
  403f9a:	89 84 24 d4 01 00 00 	mov    %eax,0x1d4(%rsp)
_ZN5CLApp9HandleArgEaPc():
/home/aliha951/ipdps-artifact/gapbs-master/src/command_line.h:167
      case 'n': num_trials_ = atoi(opt_arg);            break;
  403fa1:	e9 52 ff ff ff       	jmpq   403ef8 <main+0xb8>
/home/aliha951/ipdps-artifact/gapbs-master/src/command_line.h:170
      case 'l': enable_logging_ = true;                 break;
  403fa6:	c6 84 24 e1 01 00 00 	movb   $0x1,0x1e1(%rsp)
  403fad:	01 
  403fae:	e9 45 ff ff ff       	jmpq   403ef8 <main+0xb8>
/home/aliha951/ipdps-artifact/gapbs-master/src/command_line.h:166
      case 'a': do_analysis_ = true;                    break;
  403fb3:	c6 84 24 d0 01 00 00 	movb   $0x1,0x1d0(%rsp)
  403fba:	01 
  403fbb:	e9 38 ff ff ff       	jmpq   403ef8 <main+0xb8>
_ZSteqIcSt11char_traitsIcESaIcEEbRKNSt7__cxx1112basic_stringIT_T0_T1_EEPKS5_():
/usr/include/c++/10/bits/basic_string.h:6199
   */
  template<typename _CharT, typename _Traits, typename _Alloc>
    inline bool
    operator==(const basic_string<_CharT, _Traits, _Alloc>& __lhs,
	       const _CharT* __rhs)
    { return __lhs.compare(__rhs) == 0; }
  403fc0:	48 8d bc 24 98 01 00 	lea    0x198(%rsp),%rdi
  403fc7:	00 
  403fc8:	48 8d 35 7c 02 01 00 	lea    0x1027c(%rip),%rsi        # 41424b <_IO_stdin_used+0x24b>
  403fcf:	e8 3c f7 ff ff       	callq  403710 <_ZNKSt7__cxx1112basic_stringIcSt11char_traitsIcESaIcEE7compareEPKc@plt>
_ZN6CLBase9ParseArgsEv():
/home/aliha951/ipdps-artifact/gapbs-master/src/command_line.h:90
    if ((filename_ == "") && (scale_ == -1)) {
  403fd4:	85 c0                	test   %eax,%eax
  403fd6:	0f 84 66 07 00 00    	je     404742 <main+0x902>
/home/aliha951/ipdps-artifact/gapbs-master/src/command_line.h:94
    if (scale_ != -1)
  403fdc:	83 bc 24 90 01 00 00 	cmpl   $0xffffffff,0x190(%rsp)
  403fe3:	ff 
  403fe4:	0f 85 6a 07 00 00    	jne    404754 <main+0x914>
_ZN11BuilderBaseIiiiLb1EEC4ERK6CLBase():
/home/aliha951/ipdps-artifact/gapbs-master/src/builder.h:50
  bool needs_weights_;
  bool in_place_ = false;
  int64_t num_nodes_ = -1;

 public:
  explicit BuilderBase(const CLBase &cli) : cli_(cli) {
  403fea:	48 8b 44 24 38       	mov    0x38(%rsp),%rax
main():
/home/aliha951/ipdps-artifact/gapbs-master/src/bfs.cc:256
  if (!cli.ParseArgs())
    return -1;
  Builder b(cli);
  Graph g = b.MakeGraph();
  403fef:	48 8d 74 24 60       	lea    0x60(%rsp),%rsi
_ZN11BuilderBaseIiiiLb1EEC4ERK6CLBase():
/home/aliha951/ipdps-artifact/gapbs-master/src/builder.h:52
    symmetrize_ = cli_.symmetrize();
    needs_weights_ = !std::is_same<NodeID_, DestID_>::value;
  403ff4:	c6 44 24 69 00       	movb   $0x0,0x69(%rsp)
/home/aliha951/ipdps-artifact/gapbs-master/src/builder.h:50
  explicit BuilderBase(const CLBase &cli) : cli_(cli) {
  403ff9:	48 c7 44 24 70 ff ff 	movq   $0xffffffffffffffff,0x70(%rsp)
  404000:	ff ff 
  404002:	48 89 44 24 60       	mov    %rax,0x60(%rsp)
/home/aliha951/ipdps-artifact/gapbs-master/src/builder.h:51
    symmetrize_ = cli_.symmetrize();
  404007:	0f b6 84 24 b8 01 00 	movzbl 0x1b8(%rsp),%eax
  40400e:	00 
  40400f:	88 44 24 68          	mov    %al,0x68(%rsp)
/home/aliha951/ipdps-artifact/gapbs-master/src/builder.h:53
    in_place_ = cli_.in_place();
  404013:	0f b6 84 24 ba 01 00 	movzbl 0x1ba(%rsp),%eax
  40401a:	00 
  40401b:	88 44 24 6a          	mov    %al,0x6a(%rsp)
main():
/home/aliha951/ipdps-artifact/gapbs-master/src/bfs.cc:256
  40401f:	48 8d 84 24 a0 00 00 	lea    0xa0(%rsp),%rax
  404026:	00 
  404027:	48 89 c7             	mov    %rax,%rdi
  40402a:	48 89 44 24 20       	mov    %rax,0x20(%rsp)
  40402f:	48 89 c3             	mov    %rax,%rbx
  404032:	e8 79 dd 00 00       	callq  411db0 <_ZN11BuilderBaseIiiiLb1EE9MakeGraphEv>
/home/aliha951/ipdps-artifact/gapbs-master/src/bfs.cc:257
  SourcePicker<Graph> sp(g, cli.start_vertex());
  404037:	8b 94 24 d8 01 00 00 	mov    0x1d8(%rsp),%edx
  40403e:	48 8d bc 24 f0 01 00 	lea    0x1f0(%rsp),%rdi
  404045:	00 
  404046:	48 89 de             	mov    %rbx,%rsi
  404049:	e8 92 67 00 00       	callq  40a7e0 <_ZN12SourcePickerI8CSRGraphIiiLb1EEEC1ERKS1_i>
/home/aliha951/ipdps-artifact/gapbs-master/src/bfs.cc:261
  auto BFSBound = [&sp,&cli] (const Graph &g) {
    return DOBFS(g, sp.PickNext(), cli.logging_en());
  };
  SourcePicker<Graph> vsp(g, cli.start_vertex());
  40404e:	8b 94 24 d8 01 00 00 	mov    0x1d8(%rsp),%edx
  404055:	48 89 ef             	mov    %rbp,%rdi
  404058:	48 89 de             	mov    %rbx,%rsi
  40405b:	e8 80 67 00 00       	callq  40a7e0 <_ZN12SourcePickerI8CSRGraphIiiLb1EEEC1ERKS1_i>
/home/aliha951/ipdps-artifact/gapbs-master/src/benchmark.h:107
template<typename GraphT_, typename GraphFunc, typename AnalysisFunc,
         typename VerifierFunc>
void BenchmarkKernel(const CLApp &cli, const GraphT_ &g,
                     GraphFunc kernel, AnalysisFunc stats,
                     VerifierFunc verify) {
  g.PrintStats();
  404060:	48 89 df             	mov    %rbx,%rdi
BenchmarkKernel<CSRGraph<int>, main(int, char**)::<lambda(const Graph&)>, void (*)(const CSRGraph<int>&, const pvector<int>&), main(int, char**)::<lambda(const Graph&, const pvector<int>&)> >():
/home/aliha951/ipdps-artifact/gapbs-master/src/benchmark.h:107
  404063:	e8 d8 69 00 00       	callq  40aa40 <_ZNK8CSRGraphIiiLb1EE10PrintStatsEv>
_Z16start_disk_statsPKc():
/home/aliha951/ipdps-artifact/gapbs-master/src/profiling_utils.h:300
	fprintf(f, "%d", pid);
	fclose(f);
}

inline void start_disk_stats(const char* result_file_name){
  pid_t pid = fork();
  404068:	e8 93 f6 ff ff       	callq  403700 <fork@plt>
/home/aliha951/ipdps-artifact/gapbs-master/src/profiling_utils.h:301
  if (pid < 0) {
  40406d:	85 c0                	test   %eax,%eax
  40406f:	0f 88 9a 09 00 00    	js     404a0f <main+0xbcf>
/home/aliha951/ipdps-artifact/gapbs-master/src/profiling_utils.h:304
    perror("fork failed");
    exit(EXIT_FAILURE);
  } else if (pid == 0) { // Child process
  404075:	0f 84 aa 09 00 00    	je     404a25 <main+0xbe5>
/home/aliha951/ipdps-artifact/gapbs-master/src/profiling_utils.h:312
    execlp("/home/aliha951/ipdps-gapbs/gather_diskstats.sh", "/home/aliha951/ipdps-gapbs/gather_diskstats.sh", result_file_name, NULL);
    perror("execlp failed");
    exit(EXIT_FAILURE);
  }
  // Parent process continues
  diskstat_pid = pid;
  40407b:	89 05 ab 52 01 00    	mov    %eax,0x152ab(%rip)        # 41932c <diskstat_pid>
BenchmarkKernel<CSRGraph<int>, main(int, char**)::<lambda(const Graph&)>, void (*)(const CSRGraph<int>&, const pvector<int>&), main(int, char**)::<lambda(const Graph&, const pvector<int>&)> >():
/home/aliha951/ipdps-artifact/gapbs-master/src/benchmark.h:114
  
  // adding profiling markers and rusage counters for performance analysis
  long long user_instructions, kernel_instructions,
              user_time, kernel_time;
  start_disk_stats("disk.stats");
  start_taskstats();                    
  404081:	e8 8a 36 00 00       	callq  407710 <_Z15start_taskstatsv>
/home/aliha951/ipdps-artifact/gapbs-master/src/benchmark.h:115
  snapshot_proc_pid(BEGIN);
  404086:	31 ff                	xor    %edi,%edi
  404088:	e8 73 62 00 00       	callq  40a300 <_Z17snapshot_proc_pid13SnapshotPoint>
/home/aliha951/ipdps-artifact/gapbs-master/src/benchmark.h:116
  snapshot_proc_stat(BEGIN);
  40408d:	31 ff                	xor    %edi,%edi
  40408f:	e8 9c 65 00 00       	callq  40a630 <_Z18snapshot_proc_stat13SnapshotPoint>
/home/aliha951/ipdps-artifact/gapbs-master/src/benchmark.h:117
  start_counters(&perf_ctrs);
  404094:	48 8d 3d b5 57 01 00 	lea    0x157b5(%rip),%rdi        # 419850 <perf_ctrs>
  40409b:	e8 50 2f 00 00       	callq  406ff0 <_Z14start_countersP13perf_counters>
/home/aliha951/ipdps-artifact/gapbs-master/src/benchmark.h:118
  trace_marker("BenchmarkKernel_Start");
  4040a0:	48 8d 3d ec 02 01 00 	lea    0x102ec(%rip),%rdi        # 414393 <_IO_stdin_used+0x393>
  4040a7:	e8 74 2c 00 00       	callq  406d20 <_Z12trace_markerPKc>
/home/aliha951/ipdps-artifact/gapbs-master/src/benchmark.h:119
  start_time_stats();
  4040ac:	e8 1f 2a 00 00       	callq  406ad0 <_Z16start_time_statsv>
_Z19ompt_mark_roi_startv():
/home/aliha951/ipdps-artifact/gapbs-master/src/../omp_runtime_visualizer/include/runtime_visualizer_utils.h:52
  printf("[OMPT_annotation] Thread %d Annotation at %.3f ms: %s\n", 
         thread_id, timestamp / 1000.0, annotation);
}

inline void ompt_mark_roi_start() {
  ompt_annotate("ROI_START");
  4040b1:	48 8d 3d f1 02 01 00 	lea    0x102f1(%rip),%rdi        # 4143a9 <_IO_stdin_used+0x3a9>
  4040b8:	e8 f3 38 00 00       	callq  4079b0 <_Z13ompt_annotatePKc>
BenchmarkKernel<CSRGraph<int>, main(int, char**)::<lambda(const Graph&)>, void (*)(const CSRGraph<int>&, const pvector<int>&), main(int, char**)::<lambda(const Graph&, const pvector<int>&)> >():
/home/aliha951/ipdps-artifact/gapbs-master/src/benchmark.h:123
  ompt_mark_roi_start();

  Timer trial_timer;
  for (int iter=0; iter < cli.num_trials(); iter++) {
  4040bd:	8b 8c 24 d4 01 00 00 	mov    0x1d4(%rsp),%ecx
  4040c4:	85 c9                	test   %ecx,%ecx
  4040c6:	0f 8e 8b 08 00 00    	jle    404957 <main+0xb17>
  4040cc:	48 8d 84 24 80 00 00 	lea    0x80(%rsp),%rax
  4040d3:	00 
/home/aliha951/ipdps-artifact/gapbs-master/src/benchmark.h:108
  double total_seconds = 0;
  4040d4:	66 0f ef ed          	pxor   %xmm5,%xmm5
/home/aliha951/ipdps-artifact/gapbs-master/src/benchmark.h:123
  for (int iter=0; iter < cli.num_trials(); iter++) {
  4040d8:	c7 44 24 0c 00 00 00 	movl   $0x0,0xc(%rsp)
  4040df:	00 
_ZNSt23mersenne_twister_engineImLm64ELm312ELm156ELm31ELm13043109905998158313ELm29ELm6148914691236517205ELm17ELm8202884508482404352ELm37ELm18444473444759240704ELm43ELm6364136223846793005EEclEv():
/usr/include/c++/10/bits/random.tcc:460
      if (_M_p >= state_size)
	_M_gen_rand();

      // Calculate o(x(i)).
      result_type __z = _M_x[_M_p++];
      __z ^= (__z >> __u) & __d;
  4040e0:	48 bb 55 55 55 55 55 	movabs $0x5555555555555555,%rbx
  4040e7:	55 55 55 
/usr/include/c++/10/bits/random.tcc:461
      __z ^= (__z << __s) & __b;
  4040ea:	48 bd 00 00 a6 ed ff 	movabs $0x71d67fffeda60000,%rbp
  4040f1:	7f d6 71 
  4040f4:	48 89 44 24 28       	mov    %rax,0x28(%rsp)
/usr/include/c++/10/bits/random.tcc:462
      __z ^= (__z << __t) & __c;
  4040f9:	49 bc 00 00 00 00 e0 	movabs $0xfff7eee000000000,%r12
  404100:	ee f7 ff 
BenchmarkKernel<CSRGraph<int>, main(int, char**)::<lambda(const Graph&)>, void (*)(const CSRGraph<int>&, const pvector<int>&), main(int, char**)::<lambda(const Graph&, const pvector<int>&)> >():
/home/aliha951/ipdps-artifact/gapbs-master/src/benchmark.h:108
  double total_seconds = 0;
  404103:	f2 0f 11 6c 24 10    	movsd  %xmm5,0x10(%rsp)
  404109:	0f 1f 80 00 00 00 00 	nopl   0x0(%rax)
_ZN5Timer5StartEv():
/home/aliha951/ipdps-artifact/gapbs-master/src/timer.h:23
class Timer {
 public:
  Timer() {}

  void Start() {
    elapsed_time_ = start_time_ = std::chrono::high_resolution_clock::now();
  404110:	e8 5b f5 ff ff       	callq  403670 <_ZNSt6chrono3_V212system_clock3nowEv@plt>
_ZN12SourcePickerI8CSRGraphIiiLb1EEE8PickNextEv():
/home/aliha951/ipdps-artifact/gapbs-master/src/benchmark.h:58
    if (given_source_ != -1)
  404115:	8b 94 24 f0 01 00 00 	mov    0x1f0(%rsp),%edx
main():
/home/aliha951/ipdps-artifact/gapbs-master/src/bfs.cc:259
    return DOBFS(g, sp.PickNext(), cli.logging_en());
  40411c:	44 0f b6 ac 24 e1 01 	movzbl 0x1e1(%rsp),%r13d
  404123:	00 00 
_ZN5Timer5StartEv():
/home/aliha951/ipdps-artifact/gapbs-master/src/timer.h:23
  404125:	49 89 c6             	mov    %rax,%r14
_ZN12SourcePickerI8CSRGraphIiiLb1EEE8PickNextEv():
/home/aliha951/ipdps-artifact/gapbs-master/src/benchmark.h:58
  404128:	83 fa ff             	cmp    $0xffffffff,%edx
  40412b:	0f 84 40 04 00 00    	je     404571 <main+0x731>
operator()():
/home/aliha951/ipdps-artifact/gapbs-master/src/bfs.cc:259
  404131:	48 8b 74 24 20       	mov    0x20(%rsp),%rsi
  404136:	48 8b 7c 24 28       	mov    0x28(%rsp),%rdi
  40413b:	41 b9 12 00 00 00    	mov    $0x12,%r9d
  404141:	44 89 e9             	mov    %r13d,%ecx
  404144:	41 b8 0f 00 00 00    	mov    $0xf,%r8d
  40414a:	e8 b1 3c 00 00       	callq  407e00 <_Z5DOBFSRK8CSRGraphIiiLb1EEibii>
_ZN5Timer4StopEv():
/home/aliha951/ipdps-artifact/gapbs-master/src/timer.h:27
  }

  void Stop() {
    elapsed_time_ = std::chrono::high_resolution_clock::now();
  40414f:	e8 1c f5 ff ff       	callq  403670 <_ZNSt6chrono3_V212system_clock3nowEv@plt>
_ZNSt6chrono20__duration_cast_implINS_8durationIdSt5ratioILl1ELl1EEEES2_ILl1ELl1000000000EEdLb1ELb0EE6__castIlS5_EES4_RKNS1_IT_T0_EE():
/usr/include/c++/10/chrono:214
	  static constexpr _ToDur
	  __cast(const duration<_Rep, _Period>& __d)
	  {
	    typedef typename _ToDur::rep			__to_rep;
	    return _ToDur(static_cast<__to_rep>(
	      static_cast<_CR>(__d.count()) / static_cast<_CR>(_CF::den)));
  404154:	66 0f ef c0          	pxor   %xmm0,%xmm0
_ZNSt7__cxx1112basic_stringIcSt11char_traitsIcESaIcEE12_Alloc_hiderC4EPcRKS3_():
/usr/include/c++/10/bits/basic_string.h:165
	: allocator_type(__a), _M_p(__dat) { }
  404158:	4c 8d ac 24 10 01 00 	lea    0x110(%rsp),%r13
  40415f:	00 
_ZNSt11char_traitsIcE4copyEPcPKcm():
/usr/include/c++/10/bits/char_traits.h:437
	  return __s1;
#ifdef __cpp_lib_is_constant_evaluated
	if (std::is_constant_evaluated())
	  return __gnu_cxx::char_traits<char_type>::copy(__s1, __s2, __n);
#endif
	return static_cast<char_type*>(__builtin_memcpy(__s1, __s2, __n));
  404160:	ba 6d 65 00 00       	mov    $0x656d,%edx
_ZNSt6chronomiIlSt5ratioILl1ELl1000000000EElS2_EENSt11common_typeIJNS_8durationIT_T0_EENS4_IT1_T2_EEEE4typeERKS7_RKSA_():
/usr/include/c++/10/chrono:614
		const duration<_Rep2, _Period2>& __rhs)
      {
	typedef duration<_Rep1, _Period1>			__dur1;
	typedef duration<_Rep2, _Period2>			__dur2;
	typedef typename common_type<__dur1,__dur2>::type	__cd;
	return __cd(__cd(__lhs).count() - __cd(__rhs).count());
  404165:	4c 29 f0             	sub    %r14,%rax
_ZNSt7__cxx1112basic_stringIcSt11char_traitsIcESaIcEE12_Alloc_hiderC4EPcRKS3_():
/usr/include/c++/10/bits/basic_string.h:165
  404168:	4c 8d b4 24 00 01 00 	lea    0x100(%rsp),%r14
  40416f:	00 
  404170:	4c 89 ac 24 00 01 00 	mov    %r13,0x100(%rsp)
  404177:	00 
_ZNSt6chrono20__duration_cast_implINS_8durationIdSt5ratioILl1ELl1EEEES2_ILl1ELl1000000000EEdLb1ELb0EE6__castIlS5_EES4_RKNS1_IT_T0_EE():
/usr/include/c++/10/chrono:214
	      static_cast<_CR>(__d.count()) / static_cast<_CR>(_CF::den)));
  404178:	f2 48 0f 2a c0       	cvtsi2sd %rax,%xmm0
BenchmarkKernel<CSRGraph<int>, main(int, char**)::<lambda(const Graph&)>, void (*)(const CSRGraph<int>&, const pvector<int>&), main(int, char**)::<lambda(const Graph&, const pvector<int>&)> >():
/home/aliha951/ipdps-artifact/gapbs-master/src/benchmark.h:127
    trial_timer.Start();
    auto result = kernel(g);
    trial_timer.Stop();
    PrintTime("Trial Time", trial_timer.Seconds());
  40417d:	4c 89 f7             	mov    %r14,%rdi
_ZNSt11char_traitsIcE4copyEPcPKcm():
/usr/include/c++/10/bits/char_traits.h:437
  404180:	48 b8 54 72 69 61 6c 	movabs $0x6954206c61697254,%rax
  404187:	20 54 69 
_ZNSt6chrono20__duration_cast_implINS_8durationIdSt5ratioILl1ELl1EEEES2_ILl1ELl1000000000EEdLb1ELb0EE6__castIlS5_EES4_RKNS1_IT_T0_EE():
/usr/include/c++/10/chrono:214
  40418a:	f2 0f 5e 05 f6 0f 01 	divsd  0x10ff6(%rip),%xmm0        # 415188 <_ZZNSt8__detail18__to_chars_10_implIjEEvPcjT_E8__digits+0x2e8>
  404191:	00 
_ZNSt11char_traitsIcE4copyEPcPKcm():
/usr/include/c++/10/bits/char_traits.h:437
  404192:	48 89 84 24 10 01 00 	mov    %rax,0x110(%rsp)
  404199:	00 
  40419a:	66 89 94 24 18 01 00 	mov    %dx,0x118(%rsp)
  4041a1:	00 
_ZNSt7__cxx1112basic_stringIcSt11char_traitsIcESaIcEE9_M_lengthEm():
/usr/include/c++/10/bits/basic_string.h:191
      { _M_string_length = __length; }
  4041a2:	48 c7 84 24 08 01 00 	movq   $0xa,0x108(%rsp)
  4041a9:	00 0a 00 00 00 
_ZNSt11char_traitsIcE6assignERcRKc():
/usr/include/c++/10/bits/char_traits.h:357
      { __c1 = __c2; }
  4041ae:	c6 84 24 1a 01 00 00 	movb   $0x0,0x11a(%rsp)
  4041b5:	00 
_ZNSt6chrono20__duration_cast_implINS_8durationIdSt5ratioILl1ELl1EEEES2_ILl1ELl1000000000EEdLb1ELb0EE6__castIlS5_EES4_RKNS1_IT_T0_EE():
/usr/include/c++/10/chrono:214
  4041b6:	f2 0f 11 44 24 18    	movsd  %xmm0,0x18(%rsp)
BenchmarkKernel<CSRGraph<int>, main(int, char**)::<lambda(const Graph&)>, void (*)(const CSRGraph<int>&, const pvector<int>&), main(int, char**)::<lambda(const Graph&, const pvector<int>&)> >():
/home/aliha951/ipdps-artifact/gapbs-master/src/benchmark.h:127
  4041bc:	e8 6f 22 00 00       	callq  406430 <_Z9PrintTimeRKNSt7__cxx1112basic_stringIcSt11char_traitsIcESaIcEEEd>
_ZNKSt7__cxx1112basic_stringIcSt11char_traitsIcESaIcEE7_M_dataEv():
/usr/include/c++/10/bits/basic_string.h:195
      { return _M_dataplus._M_p; }
  4041c1:	48 8b bc 24 00 01 00 	mov    0x100(%rsp),%rdi
  4041c8:	00 
_ZNSt7__cxx1112basic_stringIcSt11char_traitsIcESaIcEE10_M_disposeEv():
/usr/include/c++/10/bits/basic_string.h:239
	if (!_M_is_local())
  4041c9:	4c 39 ef             	cmp    %r13,%rdi
  4041cc:	74 05                	je     4041d3 <main+0x393>
_ZN9__gnu_cxx13new_allocatorIcE10deallocateEPcm():
/usr/include/c++/10/ext/new_allocator.h:139
  4041ce:	e8 ed f6 ff ff       	callq  4038c0 <_ZdlPv@plt>
BenchmarkKernel<CSRGraph<int>, main(int, char**)::<lambda(const Graph&)>, void (*)(const CSRGraph<int>&, const pvector<int>&), main(int, char**)::<lambda(const Graph&, const pvector<int>&)> >():
/home/aliha951/ipdps-artifact/gapbs-master/src/benchmark.h:128
    total_seconds += trial_timer.Seconds();
  4041d3:	f2 0f 10 54 24 10    	movsd  0x10(%rsp),%xmm2
  4041d9:	f2 0f 58 54 24 18    	addsd  0x18(%rsp),%xmm2
/home/aliha951/ipdps-artifact/gapbs-master/src/benchmark.h:129
    if (cli.do_analysis() && (iter == (cli.num_trials()-1)))
  4041df:	80 bc 24 d0 01 00 00 	cmpb   $0x0,0x1d0(%rsp)
  4041e6:	00 
/home/aliha951/ipdps-artifact/gapbs-master/src/benchmark.h:128
    total_seconds += trial_timer.Seconds();
  4041e7:	f2 0f 11 54 24 10    	movsd  %xmm2,0x10(%rsp)
/home/aliha951/ipdps-artifact/gapbs-master/src/benchmark.h:129
    if (cli.do_analysis() && (iter == (cli.num_trials()-1)))
  4041ed:	74 14                	je     404203 <main+0x3c3>
  4041ef:	8b 84 24 d4 01 00 00 	mov    0x1d4(%rsp),%eax
  4041f6:	83 e8 01             	sub    $0x1,%eax
  4041f9:	3b 44 24 0c          	cmp    0xc(%rsp),%eax
  4041fd:	0f 84 ad 05 00 00    	je     4047b0 <main+0x970>
/home/aliha951/ipdps-artifact/gapbs-master/src/benchmark.h:131
      stats(g, result);
    if (cli.do_verify()) {
  404203:	80 bc 24 e0 01 00 00 	cmpb   $0x0,0x1e0(%rsp)
  40420a:	00 
  40420b:	0f 84 69 01 00 00    	je     40437a <main+0x53a>
_ZN5Timer5StartEv():
/home/aliha951/ipdps-artifact/gapbs-master/src/timer.h:23
    elapsed_time_ = start_time_ = std::chrono::high_resolution_clock::now();
  404211:	e8 5a f4 ff ff       	callq  403670 <_ZNSt6chrono3_V212system_clock3nowEv@plt>
_ZN12SourcePickerI8CSRGraphIiiLb1EEE8PickNextEv():
/home/aliha951/ipdps-artifact/gapbs-master/src/benchmark.h:58
    if (given_source_ != -1)
  404216:	8b b4 24 e0 0b 00 00 	mov    0xbe0(%rsp),%esi
_ZN5Timer5StartEv():
/home/aliha951/ipdps-artifact/gapbs-master/src/timer.h:23
  40421d:	48 89 44 24 30       	mov    %rax,0x30(%rsp)
_ZN12SourcePickerI8CSRGraphIiiLb1EEE8PickNextEv():
/home/aliha951/ipdps-artifact/gapbs-master/src/benchmark.h:58
  404222:	83 fe ff             	cmp    $0xffffffff,%esi
  404225:	0f 84 16 04 00 00    	je     404641 <main+0x801>
main():
/home/aliha951/ipdps-artifact/gapbs-master/src/bfs.cc:263
  auto VerifierBound = [&vsp] (const Graph &g, const pvector<NodeID> &parent) {
    return BFSVerifier(g, vsp.PickNext(), parent);
  40422b:	48 8b 54 24 28       	mov    0x28(%rsp),%rdx
operator()():
/home/aliha951/ipdps-artifact/gapbs-master/src/bfs.cc:263
  404230:	48 8b 7c 24 20       	mov    0x20(%rsp),%rdi
  404235:	e8 46 45 00 00       	callq  408780 <_Z11BFSVerifierRK8CSRGraphIiiLb1EEiRK7pvectorIiE>
BenchmarkKernel<CSRGraph<int>, main(int, char**)::<lambda(const Graph&)>, void (*)(const CSRGraph<int>&, const pvector<int>&), main(int, char**)::<lambda(const Graph&, const pvector<int>&)> >():
/home/aliha951/ipdps-artifact/gapbs-master/src/benchmark.h:133
      trial_timer.Start();
      PrintLabel("Verification",
  40423a:	3c 01                	cmp    $0x1,%al
_ZNSt7__cxx1112basic_stringIcSt11char_traitsIcESaIcEE12_Alloc_hiderC4EPcRKS3_():
/usr/include/c++/10/bits/basic_string.h:165
	: allocator_type(__a), _M_p(__dat) { }
  40423c:	4c 89 ac 24 00 01 00 	mov    %r13,0x100(%rsp)
  404243:	00 
  404244:	48 8d bc 24 f0 00 00 	lea    0xf0(%rsp),%rdi
  40424b:	00 
  40424c:	48 8d b4 24 e0 00 00 	lea    0xe0(%rsp),%rsi
  404253:	00 
BenchmarkKernel<CSRGraph<int>, main(int, char**)::<lambda(const Graph&)>, void (*)(const CSRGraph<int>&, const pvector<int>&), main(int, char**)::<lambda(const Graph&, const pvector<int>&)> >():
/home/aliha951/ipdps-artifact/gapbs-master/src/benchmark.h:133
  404254:	19 c0                	sbb    %eax,%eax
_ZNSt11char_traitsIcE4copyEPcPKcm():
/usr/include/c++/10/bits/char_traits.h:437
	return static_cast<char_type*>(__builtin_memcpy(__s1, __s2, __n));
  404256:	41 c7 45 08 74 69 6f 	movl   $0x6e6f6974,0x8(%r13)
  40425d:	6e 
_ZNSt7__cxx1112basic_stringIcSt11char_traitsIcESaIcEE12_Alloc_hiderC4EPcRKS3_():
/usr/include/c++/10/bits/basic_string.h:165
  40425e:	49 89 ff             	mov    %rdi,%r15
BenchmarkKernel<CSRGraph<int>, main(int, char**)::<lambda(const Graph&)>, void (*)(const CSRGraph<int>&, const pvector<int>&), main(int, char**)::<lambda(const Graph&, const pvector<int>&)> >():
/home/aliha951/ipdps-artifact/gapbs-master/src/benchmark.h:133
  404261:	25 f6 ff f5 f8       	and    $0xf8f5fff6,%eax
_ZNSt7__cxx1112basic_stringIcSt11char_traitsIcESaIcEE12_Alloc_hiderC4EPcRKS3_():
/usr/include/c++/10/bits/basic_string.h:165
  404266:	48 89 bc 24 e0 00 00 	mov    %rdi,0xe0(%rsp)
  40426d:	00 
BenchmarkKernel<CSRGraph<int>, main(int, char**)::<lambda(const Graph&)>, void (*)(const CSRGraph<int>&, const pvector<int>&), main(int, char**)::<lambda(const Graph&, const pvector<int>&)> >():
/home/aliha951/ipdps-artifact/gapbs-master/src/benchmark.h:133
  40426e:	4c 89 f7             	mov    %r14,%rdi
  404271:	05 50 41 53 53       	add    $0x53534150,%eax
_ZNSt11char_traitsIcE6assignERcRKc():
/usr/include/c++/10/bits/char_traits.h:357
      { __c1 = __c2; }
  404276:	c6 84 24 f4 00 00 00 	movb   $0x0,0xf4(%rsp)
  40427d:	00 
_ZNSt11char_traitsIcE4copyEPcPKcm():
/usr/include/c++/10/bits/char_traits.h:437
	return static_cast<char_type*>(__builtin_memcpy(__s1, __s2, __n));
  40427e:	89 84 24 f0 00 00 00 	mov    %eax,0xf0(%rsp)
  404285:	48 b8 56 65 72 69 66 	movabs $0x6163696669726556,%rax
  40428c:	69 63 61 
  40428f:	49 89 45 00          	mov    %rax,0x0(%r13)
_ZNSt7__cxx1112basic_stringIcSt11char_traitsIcESaIcEE9_M_lengthEm():
/usr/include/c++/10/bits/basic_string.h:191
      { _M_string_length = __length; }
  404293:	48 c7 84 24 e8 00 00 	movq   $0x4,0xe8(%rsp)
  40429a:	00 04 00 00 00 
  40429f:	48 c7 84 24 08 01 00 	movq   $0xc,0x108(%rsp)
  4042a6:	00 0c 00 00 00 
_ZNSt11char_traitsIcE6assignERcRKc():
/usr/include/c++/10/bits/char_traits.h:357
      { __c1 = __c2; }
  4042ab:	c6 84 24 1c 01 00 00 	movb   $0x0,0x11c(%rsp)
  4042b2:	00 
BenchmarkKernel<CSRGraph<int>, main(int, char**)::<lambda(const Graph&)>, void (*)(const CSRGraph<int>&, const pvector<int>&), main(int, char**)::<lambda(const Graph&, const pvector<int>&)> >():
/home/aliha951/ipdps-artifact/gapbs-master/src/benchmark.h:133
  4042b3:	e8 08 20 00 00       	callq  4062c0 <_Z10PrintLabelRKNSt7__cxx1112basic_stringIcSt11char_traitsIcESaIcEEES6_>
_ZNKSt7__cxx1112basic_stringIcSt11char_traitsIcESaIcEE7_M_dataEv():
/usr/include/c++/10/bits/basic_string.h:195
      { return _M_dataplus._M_p; }
  4042b8:	48 8b bc 24 00 01 00 	mov    0x100(%rsp),%rdi
  4042bf:	00 
_ZNSt7__cxx1112basic_stringIcSt11char_traitsIcESaIcEE10_M_disposeEv():
/usr/include/c++/10/bits/basic_string.h:239
	if (!_M_is_local())
  4042c0:	4c 39 ef             	cmp    %r13,%rdi
  4042c3:	74 05                	je     4042ca <main+0x48a>
_ZN9__gnu_cxx13new_allocatorIcE10deallocateEPcm():
/usr/include/c++/10/ext/new_allocator.h:139
  4042c5:	e8 f6 f5 ff ff       	callq  4038c0 <_ZdlPv@plt>
_ZNKSt7__cxx1112basic_stringIcSt11char_traitsIcESaIcEE7_M_dataEv():
/usr/include/c++/10/bits/basic_string.h:195
      { return _M_dataplus._M_p; }
  4042ca:	48 8b bc 24 e0 00 00 	mov    0xe0(%rsp),%rdi
  4042d1:	00 
_ZNSt7__cxx1112basic_stringIcSt11char_traitsIcESaIcEE10_M_disposeEv():
/usr/include/c++/10/bits/basic_string.h:239
	if (!_M_is_local())
  4042d2:	4c 39 ff             	cmp    %r15,%rdi
  4042d5:	74 05                	je     4042dc <main+0x49c>
_ZN9__gnu_cxx13new_allocatorIcE10deallocateEPcm():
/usr/include/c++/10/ext/new_allocator.h:139
  4042d7:	e8 e4 f5 ff ff       	callq  4038c0 <_ZdlPv@plt>
_ZN5Timer4StopEv():
/home/aliha951/ipdps-artifact/gapbs-master/src/timer.h:27
    elapsed_time_ = std::chrono::high_resolution_clock::now();
  4042dc:	e8 8f f3 ff ff       	callq  403670 <_ZNSt6chrono3_V212system_clock3nowEv@plt>
_ZNSt6chrono20__duration_cast_implINS_8durationIdSt5ratioILl1ELl1EEEES2_ILl1ELl1000000000EEdLb1ELb0EE6__castIlS5_EES4_RKNS1_IT_T0_EE():
/usr/include/c++/10/chrono:214
  4042e1:	66 0f ef c0          	pxor   %xmm0,%xmm0
_ZNSt6chronomiIlSt5ratioILl1ELl1000000000EElS2_EENSt11common_typeIJNS_8durationIT_T0_EENS4_IT1_T2_EEEE4typeERKS7_RKSA_():
/usr/include/c++/10/chrono:614
	return __cd(__cd(__lhs).count() - __cd(__rhs).count());
  4042e5:	48 2b 44 24 30       	sub    0x30(%rsp),%rax
_ZNSt7__cxx1112basic_stringIcSt11char_traitsIcESaIcEE12_M_constructIPKcEEvT_S8_St20forward_iterator_tag():
/usr/include/c++/10/bits/basic_string.tcc:219

	size_type __dnew = static_cast<size_type>(std::distance(__beg, __end));

	if (__dnew > size_type(_S_local_capacity))
	  {
	    _M_data(_M_create(__dnew, size_type(0)));
  4042ea:	31 d2                	xor    %edx,%edx
  4042ec:	48 8d 74 24 58       	lea    0x58(%rsp),%rsi
  4042f1:	4c 89 f7             	mov    %r14,%rdi
_ZNSt7__cxx1112basic_stringIcSt11char_traitsIcESaIcEE12_Alloc_hiderC4EPcRKS3_():
/usr/include/c++/10/bits/basic_string.h:165
	: allocator_type(__a), _M_p(__dat) { }
  4042f4:	4c 89 ac 24 00 01 00 	mov    %r13,0x100(%rsp)
  4042fb:	00 
_ZNSt7__cxx1112basic_stringIcSt11char_traitsIcESaIcEE12_M_constructIPKcEEvT_S8_St20forward_iterator_tag():
/usr/include/c++/10/bits/basic_string.tcc:215
	size_type __dnew = static_cast<size_type>(std::distance(__beg, __end));
  4042fc:	48 c7 44 24 58 11 00 	movq   $0x11,0x58(%rsp)
  404303:	00 00 
_ZNSt6chrono20__duration_cast_implINS_8durationIdSt5ratioILl1ELl1EEEES2_ILl1ELl1000000000EEdLb1ELb0EE6__castIlS5_EES4_RKNS1_IT_T0_EE():
/usr/include/c++/10/chrono:214
	      static_cast<_CR>(__d.count()) / static_cast<_CR>(_CF::den)));
  404305:	f2 48 0f 2a c0       	cvtsi2sd %rax,%xmm0
  40430a:	f2 0f 5e 05 76 0e 01 	divsd  0x10e76(%rip),%xmm0        # 415188 <_ZZNSt8__detail18__to_chars_10_implIjEEvPcjT_E8__digits+0x2e8>
  404311:	00 
  404312:	f2 0f 11 44 24 18    	movsd  %xmm0,0x18(%rsp)
_ZNSt7__cxx1112basic_stringIcSt11char_traitsIcESaIcEE12_M_constructIPKcEEvT_S8_St20forward_iterator_tag():
/usr/include/c++/10/bits/basic_string.tcc:219
	    _M_data(_M_create(__dnew, size_type(0)));
  404318:	e8 93 f8 ff ff       	callq  403bb0 <_ZNSt7__cxx1112basic_stringIcSt11char_traitsIcESaIcEE9_M_createERmm@plt>
_ZNSt7__cxx1112basic_stringIcSt11char_traitsIcESaIcEE11_M_capacityEm():
/usr/include/c++/10/bits/basic_string.h:219
      { _M_allocated_capacity = __capacity; }
  40431d:	48 8b 54 24 58       	mov    0x58(%rsp),%rdx
_ZNSt11char_traitsIcE4copyEPcPKcm():
/usr/include/c++/10/bits/char_traits.h:437
	return static_cast<char_type*>(__builtin_memcpy(__s1, __s2, __n));
  404322:	66 0f 6f 05 26 0e 01 	movdqa 0x10e26(%rip),%xmm0        # 415150 <_ZZNSt8__detail18__to_chars_10_implIjEEvPcjT_E8__digits+0x2b0>
  404329:	00 
_ZNSt7__cxx1112basic_stringIcSt11char_traitsIcESaIcEE7_M_dataEPc():
/usr/include/c++/10/bits/basic_string.h:187
      { _M_dataplus._M_p = __p; }
  40432a:	48 89 84 24 00 01 00 	mov    %rax,0x100(%rsp)
  404331:	00 
BenchmarkKernel<CSRGraph<int>, main(int, char**)::<lambda(const Graph&)>, void (*)(const CSRGraph<int>&, const pvector<int>&), main(int, char**)::<lambda(const Graph&, const pvector<int>&)> >():
/home/aliha951/ipdps-artifact/gapbs-master/src/benchmark.h:136
                 verify(std::ref(g), std::ref(result)) ? "PASS" : "FAIL");
      trial_timer.Stop();
      PrintTime("Verification Time", trial_timer.Seconds());
  404332:	4c 89 f7             	mov    %r14,%rdi
_ZNSt7__cxx1112basic_stringIcSt11char_traitsIcESaIcEE11_M_capacityEm():
/usr/include/c++/10/bits/basic_string.h:219
      { _M_allocated_capacity = __capacity; }
  404335:	48 89 94 24 10 01 00 	mov    %rdx,0x110(%rsp)
  40433c:	00 
_ZNSt11char_traitsIcE4copyEPcPKcm():
/usr/include/c++/10/bits/char_traits.h:437
  40433d:	0f 11 00             	movups %xmm0,(%rax)
BenchmarkKernel<CSRGraph<int>, main(int, char**)::<lambda(const Graph&)>, void (*)(const CSRGraph<int>&, const pvector<int>&), main(int, char**)::<lambda(const Graph&, const pvector<int>&)> >():
/home/aliha951/ipdps-artifact/gapbs-master/src/benchmark.h:136
  404340:	f2 0f 10 44 24 18    	movsd  0x18(%rsp),%xmm0
_ZNSt11char_traitsIcE4copyEPcPKcm():
/usr/include/c++/10/bits/char_traits.h:437
  404346:	c6 40 10 65          	movb   $0x65,0x10(%rax)
_ZNSt7__cxx1112basic_stringIcSt11char_traitsIcESaIcEE12_M_constructIPKcEEvT_S8_St20forward_iterator_tag():
/usr/include/c++/10/bits/basic_string.tcc:232
	  {
	    _M_dispose();
	    __throw_exception_again;
	  }

	_M_set_length(__dnew);
  40434a:	48 8b 44 24 58       	mov    0x58(%rsp),%rax
_ZNSt11char_traitsIcE6assignERcRKc():
/usr/include/c++/10/bits/char_traits.h:357
      { __c1 = __c2; }
  40434f:	48 8b 94 24 00 01 00 	mov    0x100(%rsp),%rdx
  404356:	00 
_ZNSt7__cxx1112basic_stringIcSt11char_traitsIcESaIcEE9_M_lengthEm():
/usr/include/c++/10/bits/basic_string.h:191
      { _M_string_length = __length; }
  404357:	48 89 84 24 08 01 00 	mov    %rax,0x108(%rsp)
  40435e:	00 
_ZNSt11char_traitsIcE6assignERcRKc():
/usr/include/c++/10/bits/char_traits.h:357
  40435f:	c6 04 02 00          	movb   $0x0,(%rdx,%rax,1)
BenchmarkKernel<CSRGraph<int>, main(int, char**)::<lambda(const Graph&)>, void (*)(const CSRGraph<int>&, const pvector<int>&), main(int, char**)::<lambda(const Graph&, const pvector<int>&)> >():
/home/aliha951/ipdps-artifact/gapbs-master/src/benchmark.h:136
  404363:	e8 c8 20 00 00       	callq  406430 <_Z9PrintTimeRKNSt7__cxx1112basic_stringIcSt11char_traitsIcESaIcEEEd>
_ZNKSt7__cxx1112basic_stringIcSt11char_traitsIcESaIcEE7_M_dataEv():
/usr/include/c++/10/bits/basic_string.h:195
      { return _M_dataplus._M_p; }
  404368:	48 8b bc 24 00 01 00 	mov    0x100(%rsp),%rdi
  40436f:	00 
_ZNSt7__cxx1112basic_stringIcSt11char_traitsIcESaIcEE10_M_disposeEv():
/usr/include/c++/10/bits/basic_string.h:239
	if (!_M_is_local())
  404370:	4c 39 ef             	cmp    %r13,%rdi
  404373:	74 05                	je     40437a <main+0x53a>
_ZN9__gnu_cxx13new_allocatorIcE10deallocateEPcm():
/usr/include/c++/10/ext/new_allocator.h:139
  404375:	e8 46 f5 ff ff       	callq  4038c0 <_ZdlPv@plt>
BenchmarkKernel<CSRGraph<int>, main(int, char**)::<lambda(const Graph&)>, void (*)(const CSRGraph<int>&, const pvector<int>&), main(int, char**)::<lambda(const Graph&, const pvector<int>&)> >():
/home/aliha951/ipdps-artifact/gapbs-master/src/benchmark.h:138
    }
    ompt_annotate("Trial End");
  40437a:	48 8d 3d 32 00 01 00 	lea    0x10032(%rip),%rdi        # 4143b3 <_IO_stdin_used+0x3b3>
  404381:	e8 2a 36 00 00       	callq  4079b0 <_Z13ompt_annotatePKc>
_ZN7pvectorIiE16ReleaseResourcesEv():
/home/aliha951/ipdps-artifact/gapbs-master/src/pvector.h:73
    if (start_ != nullptr) {
  404386:	48 8b bc 24 80 00 00 	mov    0x80(%rsp),%rdi
  40438d:	00 
  40438e:	48 85 ff             	test   %rdi,%rdi
  404391:	0f 84 f9 03 00 00    	je     404790 <main+0x950>
/home/aliha951/ipdps-artifact/gapbs-master/src/pvector.h:74
      delete[] start_;
  404397:	e8 64 f6 ff ff       	callq  403a00 <_ZdaPv@plt>
BenchmarkKernel<CSRGraph<int>, main(int, char**)::<lambda(const Graph&)>, void (*)(const CSRGraph<int>&, const pvector<int>&), main(int, char**)::<lambda(const Graph&, const pvector<int>&)> >():
/home/aliha951/ipdps-artifact/gapbs-master/src/benchmark.h:123
  for (int iter=0; iter < cli.num_trials(); iter++) {
  40439c:	83 44 24 0c 01       	addl   $0x1,0xc(%rsp)
  4043a1:	8b 44 24 0c          	mov    0xc(%rsp),%eax
  4043a5:	39 84 24 d4 01 00 00 	cmp    %eax,0x1d4(%rsp)
  4043ac:	0f 8f 5e fd ff ff    	jg     404110 <main+0x2d0>
_Z17ompt_mark_roi_endv():
/home/aliha951/ipdps-artifact/gapbs-master/src/../omp_runtime_visualizer/include/runtime_visualizer_utils.h:56
}

inline void ompt_mark_roi_end() {
  ompt_annotate("ROI_END");
  4043b2:	48 8d 3d 04 00 01 00 	lea    0x10004(%rip),%rdi        # 4143bd <_IO_stdin_used+0x3bd>
  4043b9:	e8 f2 35 00 00       	callq  4079b0 <_Z13ompt_annotatePKc>
BenchmarkKernel<CSRGraph<int>, main(int, char**)::<lambda(const Graph&)>, void (*)(const CSRGraph<int>&, const pvector<int>&), main(int, char**)::<lambda(const Graph&, const pvector<int>&)> >():
/home/aliha951/ipdps-artifact/gapbs-master/src/benchmark.h:143
  }
  
  // adding profiling markers and rusage counters for performance analysis
  ompt_mark_roi_end();
  stop_time_stats();
  4043be:	e8 3d 27 00 00       	callq  406b00 <_Z15stop_time_statsv>
/home/aliha951/ipdps-artifact/gapbs-master/src/benchmark.h:144
  trace_marker("BenchmarkKernel_End");
  4043c3:	48 8d 3d fb ff 00 00 	lea    0xfffb(%rip),%rdi        # 4143c5 <_IO_stdin_used+0x3c5>
  4043ca:	e8 51 29 00 00       	callq  406d20 <_Z12trace_markerPKc>
/home/aliha951/ipdps-artifact/gapbs-master/src/benchmark.h:145
  stop_counters(&perf_ctrs, &user_time, &kernel_time ,&user_instructions, &kernel_instructions);
  4043cf:	48 8d 4c 24 48       	lea    0x48(%rsp),%rcx
  4043d4:	48 8d 94 24 80 00 00 	lea    0x80(%rsp),%rdx
  4043db:	00 
  4043dc:	48 8d 74 24 58       	lea    0x58(%rsp),%rsi
  4043e1:	4c 8d 44 24 50       	lea    0x50(%rsp),%r8
  4043e6:	48 8d 3d 63 54 01 00 	lea    0x15463(%rip),%rdi        # 419850 <perf_ctrs>
  4043ed:	e8 8e 2d 00 00       	callq  407180 <_Z13stop_countersP13perf_countersPxS1_S1_S1_>
/home/aliha951/ipdps-artifact/gapbs-master/src/benchmark.h:146
  snapshot_proc_stat(END);
  4043f2:	bf 01 00 00 00       	mov    $0x1,%edi
  4043f7:	e8 34 62 00 00       	callq  40a630 <_Z18snapshot_proc_stat13SnapshotPoint>
/home/aliha951/ipdps-artifact/gapbs-master/src/benchmark.h:147
  snapshot_proc_pid(END);
  4043fc:	bf 01 00 00 00       	mov    $0x1,%edi
  404401:	e8 fa 5e 00 00       	callq  40a300 <_Z17snapshot_proc_pid13SnapshotPoint>
/home/aliha951/ipdps-artifact/gapbs-master/src/benchmark.h:148
  stop_taskstats();
  404406:	e8 45 33 00 00       	callq  407750 <_Z14stop_taskstatsv>
_Z15stop_disk_statsv():
/home/aliha951/ipdps-artifact/gapbs-master/src/profiling_utils.h:316
}

inline void stop_disk_stats() {
  if (diskstat_pid > 0) {
  40440b:	8b 05 1b 4f 01 00    	mov    0x14f1b(%rip),%eax        # 41932c <diskstat_pid>
  404411:	85 c0                	test   %eax,%eax
  404413:	0f 8f ab 03 00 00    	jg     4047c4 <main+0x984>
BenchmarkKernel<CSRGraph<int>, main(int, char**)::<lambda(const Graph&)>, void (*)(const CSRGraph<int>&, const pvector<int>&), main(int, char**)::<lambda(const Graph&, const pvector<int>&)> >():
/home/aliha951/ipdps-artifact/gapbs-master/src/benchmark.h:150
  stop_disk_stats();
  cleanup_counters(&perf_ctrs);
  404419:	48 8d 3d 30 54 01 00 	lea    0x15430(%rip),%rdi        # 419850 <perf_ctrs>
  404420:	e8 9b 2f 00 00       	callq  4073c0 <_Z16cleanup_countersP13perf_counters>
/home/aliha951/ipdps-artifact/gapbs-master/src/benchmark.h:151
  measure_time_stats();
  404425:	e8 06 27 00 00       	callq  406b30 <_Z18measure_time_statsv>
/home/aliha951/ipdps-artifact/gapbs-master/src/benchmark.h:153

  PrintTime("Average Time", total_seconds / cli.num_trials());
  40442a:	66 0f ef c0          	pxor   %xmm0,%xmm0
  40442e:	f2 0f 10 64 24 10    	movsd  0x10(%rsp),%xmm4
  404434:	4c 8d b4 24 00 01 00 	lea    0x100(%rsp),%r14
  40443b:	00 
  40443c:	48 8d 35 96 ff 00 00 	lea    0xff96(%rip),%rsi        # 4143d9 <_IO_stdin_used+0x3d9>
  404443:	f2 0f 2a 84 24 d4 01 	cvtsi2sdl 0x1d4(%rsp),%xmm0
  40444a:	00 00 
  40444c:	4c 89 f7             	mov    %r14,%rdi
  40444f:	f2 0f 5e e0          	divsd  %xmm0,%xmm4
  404453:	66 48 0f 7e e3       	movq   %xmm4,%rbx
  404458:	e8 d3 1c 00 00       	callq  406130 <_ZNSt7__cxx1112basic_stringIcSt11char_traitsIcESaIcEEC2EPKcRKS3_.constprop.0>
  40445d:	66 48 0f 6e c3       	movq   %rbx,%xmm0
  404462:	4c 89 f7             	mov    %r14,%rdi
  404465:	e8 c6 1f 00 00       	callq  406430 <_Z9PrintTimeRKNSt7__cxx1112basic_stringIcSt11char_traitsIcESaIcEEEd>
_ZNKSt7__cxx1112basic_stringIcSt11char_traitsIcESaIcEE7_M_dataEv():
/usr/include/c++/10/bits/basic_string.h:195
      { return _M_dataplus._M_p; }
  40446a:	48 8b bc 24 00 01 00 	mov    0x100(%rsp),%rdi
  404471:	00 
_ZNSt7__cxx1112basic_stringIcSt11char_traitsIcESaIcEE10_M_disposeEv():
/usr/include/c++/10/bits/basic_string.h:239
	if (!_M_is_local())
  404472:	48 8d 84 24 10 01 00 	lea    0x110(%rsp),%rax
  404479:	00 
  40447a:	48 39 c7             	cmp    %rax,%rdi
  40447d:	74 05                	je     404484 <main+0x644>
_ZN9__gnu_cxx13new_allocatorIcE10deallocateEPcm():
/usr/include/c++/10/ext/new_allocator.h:139
  40447f:	e8 3c f4 ff ff       	callq  4038c0 <_ZdlPv@plt>
_ZN8CSRGraphIiiLb1EED4Ev():
/home/aliha951/ipdps-artifact/gapbs-master/src/graph.h:166
  404484:	48 8b 7c 24 20       	mov    0x20(%rsp),%rdi
main():
/home/aliha951/ipdps-artifact/gapbs-master/src/bfs.cc:266
  };
  BenchmarkKernel(cli, g, BFSBound, PrintBFSStats, VerifierBound);
  return 0;
  404489:	45 31 e4             	xor    %r12d,%r12d
_ZN8CSRGraphIiiLb1EED4Ev():
/home/aliha951/ipdps-artifact/gapbs-master/src/graph.h:166
  40448c:	e8 4f 65 00 00       	callq  40a9e0 <_ZN8CSRGraphIiiLb1EE16ReleaseResourcesEv>
_ZN5CLAppD4Ev():
/home/aliha951/ipdps-artifact/gapbs-master/src/command_line.h:140
class CLApp : public CLBase {
  404491:	48 8b 7c 24 38       	mov    0x38(%rsp),%rdi
  404496:	48 8d 05 8b 46 01 00 	lea    0x1468b(%rip),%rax        # 418b28 <_ZTV5CLApp+0x10>
  40449d:	48 89 84 24 20 01 00 	mov    %rax,0x120(%rsp)
  4044a4:	00 
  4044a5:	e8 a6 5d 00 00       	callq  40a250 <_ZN6CLBaseD1Ev>
main():
/home/aliha951/ipdps-artifact/gapbs-master/src/bfs.cc:267
}
  4044aa:	48 8b 84 24 d8 16 00 	mov    0x16d8(%rsp),%rax
  4044b1:	00 
  4044b2:	64 48 2b 04 25 28 00 	sub    %fs:0x28,%rax
  4044b9:	00 00 
  4044bb:	0f 85 9f 05 00 00    	jne    404a60 <main+0xc20>
  4044c1:	48 81 c4 e8 16 00 00 	add    $0x16e8,%rsp
  4044c8:	44 89 e0             	mov    %r12d,%eax
  4044cb:	5b                   	pop    %rbx
  4044cc:	5d                   	pop    %rbp
  4044cd:	41 5c                	pop    %r12
  4044cf:	41 5d                	pop    %r13
  4044d1:	41 5e                	pop    %r14
  4044d3:	41 5f                	pop    %r15
  4044d5:	c3                   	retq   
  4044d6:	66 2e 0f 1f 84 00 00 	nopw   %cs:0x0(%rax,%rax,1)
  4044dd:	00 00 00 
_ZNSt23mersenne_twister_engineImLm64ELm312ELm156ELm31ELm13043109905998158313ELm29ELm6148914691236517205ELm17ELm8202884508482404352ELm37ELm18444473444759240704ELm43ELm6364136223846793005EEclEv():
/usr/include/c++/10/bits/random.tcc:456
	_M_gen_rand();
  4044e0:	4c 89 ff             	mov    %r15,%rdi
  4044e3:	e8 e8 ba 00 00       	callq  40ffd0 <_ZNSt23mersenne_twister_engineImLm64ELm312ELm156ELm31ELm13043109905998158313ELm29ELm6148914691236517205ELm17ELm8202884508482404352ELm37ELm18444473444759240704ELm43ELm6364136223846793005EE11_M_gen_randEv>
/usr/include/c++/10/bits/random.tcc:459
      result_type __z = _M_x[_M_p++];
  4044e8:	49 8b 97 c0 09 00 00 	mov    0x9c0(%r15),%rdx
  4044ef:	48 8d 4a 01          	lea    0x1(%rdx),%rcx
  4044f3:	49 8b 14 d7          	mov    (%r15,%rdx,8),%rdx
  4044f7:	49 89 8f c0 09 00 00 	mov    %rcx,0x9c0(%r15)
/usr/include/c++/10/bits/random.tcc:460
      __z ^= (__z >> __u) & __d;
  4044fe:	48 89 d0             	mov    %rdx,%rax
  404501:	48 c1 e8 1d          	shr    $0x1d,%rax
  404505:	48 21 d8             	and    %rbx,%rax
  404508:	48 31 c2             	xor    %rax,%rdx
/usr/include/c++/10/bits/random.tcc:461
      __z ^= (__z << __s) & __b;
  40450b:	48 89 d0             	mov    %rdx,%rax
  40450e:	48 c1 e0 11          	shl    $0x11,%rax
  404512:	48 21 e8             	and    %rbp,%rax
  404515:	48 31 c2             	xor    %rax,%rdx
/usr/include/c++/10/bits/random.tcc:462
      __z ^= (__z << __t) & __c;
  404518:	48 89 d0             	mov    %rdx,%rax
  40451b:	48 c1 e0 25          	shl    $0x25,%rax
  40451f:	4c 21 e0             	and    %r12,%rax
  404522:	48 31 c2             	xor    %rax,%rdx
/usr/include/c++/10/bits/random.tcc:463
      __z ^= (__z >> __l);
  404525:	48 89 d0             	mov    %rdx,%rax
  404528:	48 c1 e8 2b          	shr    $0x2b,%rax
  40452c:	48 31 c2             	xor    %rax,%rdx
_ZN7UniDistIiSt23mersenne_twister_engineImLm64ELm312ELm156ELm31ELm13043109905998158313ELm29ELm6148914691236517205ELm17ELm8202884508482404352ELm37ELm18444473444759240704ELm43ELm6364136223846793005EEjEclEv():
/home/aliha951/ipdps-artifact/gapbs-master/src/generator.h:50
      cutoff_ = rng_.max() - remainder_sub_1;
  }

  NodeID_ operator()() {
    uNodeID_ rand_num = rng_();
    if (no_mod_)
  40452f:	80 bc 24 c8 0b 00 00 	cmpb   $0x0,0xbc8(%rsp)
  404536:	00 
  404537:	75 1a                	jne    404553 <main+0x713>
/home/aliha951/ipdps-artifact/gapbs-master/src/generator.h:52
      return rand_num;
    if (cutoff_ != 0) {
  404539:	8b 8c 24 d0 0b 00 00 	mov    0xbd0(%rsp),%ecx
/home/aliha951/ipdps-artifact/gapbs-master/src/generator.h:49
    uNodeID_ rand_num = rng_();
  404540:	89 d0                	mov    %edx,%eax
/home/aliha951/ipdps-artifact/gapbs-master/src/generator.h:52
    if (cutoff_ != 0) {
  404542:	85 c9                	test   %ecx,%ecx
  404544:	0f 85 a6 00 00 00    	jne    4045f0 <main+0x7b0>
/home/aliha951/ipdps-artifact/gapbs-master/src/generator.h:56
      while (rand_num >= cutoff_)
        rand_num = rng_();
    }
    return rand_num % mod_;
  40454a:	31 d2                	xor    %edx,%edx
  40454c:	f7 b4 24 cc 0b 00 00 	divl   0xbcc(%rsp)
_ZNK8CSRGraphIiiLb1EE10out_degreeEi():
/home/aliha951/ipdps-artifact/gapbs-master/src/graph.h:206
  int64_t num_edges_directed() const {
    return directed_ ? num_edges_ : 2*num_edges_;
  }

  int64_t out_degree(NodeID_ v) const {
    return out_index_[v+1] - out_index_[v];
  404553:	48 8b 84 24 d8 0b 00 	mov    0xbd8(%rsp),%rax
  40455a:	00 
  40455b:	48 8b 40 18          	mov    0x18(%rax),%rax
  40455f:	48 63 ca             	movslq %edx,%rcx
_ZN12SourcePickerI8CSRGraphIiiLb1EEE8PickNextEv():
/home/aliha951/ipdps-artifact/gapbs-master/src/benchmark.h:63
    } while (g_.out_degree(source) == 0);
  404562:	48 8b 3c c8          	mov    (%rax,%rcx,8),%rdi
  404566:	48 39 7c c8 08       	cmp    %rdi,0x8(%rax,%rcx,8)
  40456b:	0f 85 c0 fb ff ff    	jne    404131 <main+0x2f1>
_ZN7UniDistIiSt23mersenne_twister_engineImLm64ELm312ELm156ELm31ELm13043109905998158313ELm29ELm6148914691236517205ELm17ELm8202884508482404352ELm37ELm18444473444759240704ELm43ELm6364136223846793005EEjEclEv():
/home/aliha951/ipdps-artifact/gapbs-master/src/generator.h:49
    uNodeID_ rand_num = rng_();
  404571:	4c 8b bc 24 c0 0b 00 	mov    0xbc0(%rsp),%r15
  404578:	00 
_ZNSt23mersenne_twister_engineImLm64ELm312ELm156ELm31ELm13043109905998158313ELm29ELm6148914691236517205ELm17ELm8202884508482404352ELm37ELm18444473444759240704ELm43ELm6364136223846793005EEclEv():
/usr/include/c++/10/bits/random.tcc:455
      if (_M_p >= state_size)
  404579:	49 8b 97 c0 09 00 00 	mov    0x9c0(%r15),%rdx
  404580:	48 81 fa 37 01 00 00 	cmp    $0x137,%rdx
  404587:	0f 86 62 ff ff ff    	jbe    4044ef <main+0x6af>
  40458d:	e9 4e ff ff ff       	jmpq   4044e0 <main+0x6a0>
  404592:	66 0f 1f 44 00 00    	nopw   0x0(%rax,%rax,1)
/usr/include/c++/10/bits/random.tcc:456
	_M_gen_rand();
  404598:	4c 89 ff             	mov    %r15,%rdi
  40459b:	e8 30 ba 00 00       	callq  40ffd0 <_ZNSt23mersenne_twister_engineImLm64ELm312ELm156ELm31ELm13043109905998158313ELm29ELm6148914691236517205ELm17ELm8202884508482404352ELm37ELm18444473444759240704ELm43ELm6364136223846793005EE11_M_gen_randEv>
_ZN7UniDistIiSt23mersenne_twister_engineImLm64ELm312ELm156ELm31ELm13043109905998158313ELm29ELm6148914691236517205ELm17ELm8202884508482404352ELm37ELm18444473444759240704ELm43ELm6364136223846793005EEjEclEv():
/home/aliha951/ipdps-artifact/gapbs-master/src/generator.h:53
      while (rand_num >= cutoff_)
  4045a0:	8b 8c 24 d0 0b 00 00 	mov    0xbd0(%rsp),%ecx
_ZNSt23mersenne_twister_engineImLm64ELm312ELm156ELm31ELm13043109905998158313ELm29ELm6148914691236517205ELm17ELm8202884508482404352ELm37ELm18444473444759240704ELm43ELm6364136223846793005EEclEv():
/usr/include/c++/10/bits/random.tcc:459
      result_type __z = _M_x[_M_p++];
  4045a7:	49 8b 97 c0 09 00 00 	mov    0x9c0(%r15),%rdx
  4045ae:	48 8d 72 01          	lea    0x1(%rdx),%rsi
  4045b2:	49 8b 14 d7          	mov    (%r15,%rdx,8),%rdx
  4045b6:	49 89 b7 c0 09 00 00 	mov    %rsi,0x9c0(%r15)
/usr/include/c++/10/bits/random.tcc:460
      __z ^= (__z >> __u) & __d;
  4045bd:	48 89 d0             	mov    %rdx,%rax
  4045c0:	48 c1 e8 1d          	shr    $0x1d,%rax
  4045c4:	48 21 d8             	and    %rbx,%rax
  4045c7:	48 31 c2             	xor    %rax,%rdx
/usr/include/c++/10/bits/random.tcc:461
      __z ^= (__z << __s) & __b;
  4045ca:	48 89 d0             	mov    %rdx,%rax
  4045cd:	48 c1 e0 11          	shl    $0x11,%rax
  4045d1:	48 21 e8             	and    %rbp,%rax
  4045d4:	48 31 c2             	xor    %rax,%rdx
/usr/include/c++/10/bits/random.tcc:462
      __z ^= (__z << __t) & __c;
  4045d7:	48 89 d0             	mov    %rdx,%rax
  4045da:	48 c1 e0 25          	shl    $0x25,%rax
  4045de:	4c 21 e0             	and    %r12,%rax
  4045e1:	48 31 c2             	xor    %rax,%rdx
/usr/include/c++/10/bits/random.tcc:463
      __z ^= (__z >> __l);
  4045e4:	48 89 d0             	mov    %rdx,%rax
  4045e7:	48 c1 e8 2b          	shr    $0x2b,%rax
  4045eb:	48 31 c2             	xor    %rax,%rdx
_ZN7UniDistIiSt23mersenne_twister_engineImLm64ELm312ELm156ELm31ELm13043109905998158313ELm29ELm6148914691236517205ELm17ELm8202884508482404352ELm37ELm18444473444759240704ELm43ELm6364136223846793005EEjEclEv():
/home/aliha951/ipdps-artifact/gapbs-master/src/generator.h:54
        rand_num = rng_();
  4045ee:	89 d0                	mov    %edx,%eax
/home/aliha951/ipdps-artifact/gapbs-master/src/generator.h:53
      while (rand_num >= cutoff_)
  4045f0:	39 ca                	cmp    %ecx,%edx
  4045f2:	0f 82 52 ff ff ff    	jb     40454a <main+0x70a>
/home/aliha951/ipdps-artifact/gapbs-master/src/generator.h:54
        rand_num = rng_();
  4045f8:	4c 8b bc 24 c0 0b 00 	mov    0xbc0(%rsp),%r15
  4045ff:	00 
_ZNSt23mersenne_twister_engineImLm64ELm312ELm156ELm31ELm13043109905998158313ELm29ELm6148914691236517205ELm17ELm8202884508482404352ELm37ELm18444473444759240704ELm43ELm6364136223846793005EEclEv():
/usr/include/c++/10/bits/random.tcc:455
      if (_M_p >= state_size)
  404600:	49 8b 97 c0 09 00 00 	mov    0x9c0(%r15),%rdx
  404607:	48 81 fa 37 01 00 00 	cmp    $0x137,%rdx
  40460e:	76 9e                	jbe    4045ae <main+0x76e>
  404610:	eb 86                	jmp    404598 <main+0x758>
  404612:	66 0f 1f 44 00 00    	nopw   0x0(%rax,%rax,1)
_ZN7UniDistIiSt23mersenne_twister_engineImLm64ELm312ELm156ELm31ELm13043109905998158313ELm29ELm6148914691236517205ELm17ELm8202884508482404352ELm37ELm18444473444759240704ELm43ELm6364136223846793005EEjEclEv():
/home/aliha951/ipdps-artifact/gapbs-master/src/generator.h:56
    return rand_num % mod_;
  404618:	31 d2                	xor    %edx,%edx
  40461a:	f7 b4 24 bc 15 00 00 	divl   0x15bc(%rsp)
  404621:	89 d6                	mov    %edx,%esi
_ZNK8CSRGraphIiiLb1EE10out_degreeEi():
/home/aliha951/ipdps-artifact/gapbs-master/src/graph.h:206
  404623:	48 8b 84 24 c8 15 00 	mov    0x15c8(%rsp),%rax
  40462a:	00 
  40462b:	48 63 d6             	movslq %esi,%rdx
  40462e:	48 8b 40 18          	mov    0x18(%rax),%rax
_ZN12SourcePickerI8CSRGraphIiiLb1EEE8PickNextEv():
/home/aliha951/ipdps-artifact/gapbs-master/src/benchmark.h:63
  404632:	48 8b 3c d0          	mov    (%rax,%rdx,8),%rdi
  404636:	48 39 7c d0 08       	cmp    %rdi,0x8(%rax,%rdx,8)
  40463b:	0f 85 ea fb ff ff    	jne    40422b <main+0x3eb>
_ZN7UniDistIiSt23mersenne_twister_engineImLm64ELm312ELm156ELm31ELm13043109905998158313ELm29ELm6148914691236517205ELm17ELm8202884508482404352ELm37ELm18444473444759240704ELm43ELm6364136223846793005EEjEclEv():
/home/aliha951/ipdps-artifact/gapbs-master/src/generator.h:49
    uNodeID_ rand_num = rng_();
  404641:	48 8b 84 24 b0 15 00 	mov    0x15b0(%rsp),%rax
  404648:	00 
_ZNSt23mersenne_twister_engineImLm64ELm312ELm156ELm31ELm13043109905998158313ELm29ELm6148914691236517205ELm17ELm8202884508482404352ELm37ELm18444473444759240704ELm43ELm6364136223846793005EEclEv():
/usr/include/c++/10/bits/random.tcc:455
  404649:	48 8b 90 c0 09 00 00 	mov    0x9c0(%rax),%rdx
  404650:	48 81 fa 37 01 00 00 	cmp    $0x137,%rdx
  404657:	0f 87 0b 01 00 00    	ja     404768 <main+0x928>
/usr/include/c++/10/bits/random.tcc:459
      result_type __z = _M_x[_M_p++];
  40465d:	48 8d 4a 01          	lea    0x1(%rdx),%rcx
  404661:	48 89 88 c0 09 00 00 	mov    %rcx,0x9c0(%rax)
  404668:	48 8b 04 d0          	mov    (%rax,%rdx,8),%rax
/usr/include/c++/10/bits/random.tcc:460
      __z ^= (__z >> __u) & __d;
  40466c:	48 89 c2             	mov    %rax,%rdx
  40466f:	48 c1 ea 1d          	shr    $0x1d,%rdx
  404673:	48 21 da             	and    %rbx,%rdx
  404676:	48 31 d0             	xor    %rdx,%rax
/usr/include/c++/10/bits/random.tcc:461
      __z ^= (__z << __s) & __b;
  404679:	48 89 c2             	mov    %rax,%rdx
  40467c:	48 c1 e2 11          	shl    $0x11,%rdx
  404680:	48 21 ea             	and    %rbp,%rdx
  404683:	48 31 d0             	xor    %rdx,%rax
/usr/include/c++/10/bits/random.tcc:462
      __z ^= (__z << __t) & __c;
  404686:	48 89 c2             	mov    %rax,%rdx
  404689:	48 c1 e2 25          	shl    $0x25,%rdx
  40468d:	4c 21 e2             	and    %r12,%rdx
  404690:	48 31 d0             	xor    %rdx,%rax
/usr/include/c++/10/bits/random.tcc:463
      __z ^= (__z >> __l);
  404693:	48 89 c6             	mov    %rax,%rsi
  404696:	48 c1 ee 2b          	shr    $0x2b,%rsi
  40469a:	48 31 c6             	xor    %rax,%rsi
_ZN7UniDistIiSt23mersenne_twister_engineImLm64ELm312ELm156ELm31ELm13043109905998158313ELm29ELm6148914691236517205ELm17ELm8202884508482404352ELm37ELm18444473444759240704ELm43ELm6364136223846793005EEjEclEv():
/home/aliha951/ipdps-artifact/gapbs-master/src/generator.h:50
    if (no_mod_)
  40469d:	80 bc 24 b8 15 00 00 	cmpb   $0x0,0x15b8(%rsp)
  4046a4:	00 
  4046a5:	0f 85 78 ff ff ff    	jne    404623 <main+0x7e3>
/home/aliha951/ipdps-artifact/gapbs-master/src/generator.h:52
    if (cutoff_ != 0) {
  4046ab:	8b 8c 24 c0 15 00 00 	mov    0x15c0(%rsp),%ecx
/home/aliha951/ipdps-artifact/gapbs-master/src/generator.h:49
    uNodeID_ rand_num = rng_();
  4046b2:	89 f0                	mov    %esi,%eax
/home/aliha951/ipdps-artifact/gapbs-master/src/generator.h:52
    if (cutoff_ != 0) {
  4046b4:	85 c9                	test   %ecx,%ecx
  4046b6:	0f 84 5c ff ff ff    	je     404618 <main+0x7d8>
/home/aliha951/ipdps-artifact/gapbs-master/src/generator.h:53
      while (rand_num >= cutoff_)
  4046bc:	39 ce                	cmp    %ecx,%esi
  4046be:	73 52                	jae    404712 <main+0x8d2>
  4046c0:	e9 53 ff ff ff       	jmpq   404618 <main+0x7d8>
  4046c5:	0f 1f 00             	nopl   (%rax)
_ZNSt23mersenne_twister_engineImLm64ELm312ELm156ELm31ELm13043109905998158313ELm29ELm6148914691236517205ELm17ELm8202884508482404352ELm37ELm18444473444759240704ELm43ELm6364136223846793005EEclEv():
/usr/include/c++/10/bits/random.tcc:459
      result_type __z = _M_x[_M_p++];
  4046c8:	48 8d 72 01          	lea    0x1(%rdx),%rsi
  4046cc:	49 8b 14 d7          	mov    (%r15,%rdx,8),%rdx
  4046d0:	49 89 b7 c0 09 00 00 	mov    %rsi,0x9c0(%r15)
/usr/include/c++/10/bits/random.tcc:460
      __z ^= (__z >> __u) & __d;
  4046d7:	48 89 d0             	mov    %rdx,%rax
  4046da:	48 c1 e8 1d          	shr    $0x1d,%rax
  4046de:	48 21 d8             	and    %rbx,%rax
  4046e1:	48 31 c2             	xor    %rax,%rdx
/usr/include/c++/10/bits/random.tcc:461
      __z ^= (__z << __s) & __b;
  4046e4:	48 89 d0             	mov    %rdx,%rax
  4046e7:	48 c1 e0 11          	shl    $0x11,%rax
  4046eb:	48 21 e8             	and    %rbp,%rax
  4046ee:	48 31 c2             	xor    %rax,%rdx
/usr/include/c++/10/bits/random.tcc:462
      __z ^= (__z << __t) & __c;
  4046f1:	48 89 d0             	mov    %rdx,%rax
  4046f4:	48 c1 e0 25          	shl    $0x25,%rax
  4046f8:	4c 21 e0             	and    %r12,%rax
  4046fb:	48 31 c2             	xor    %rax,%rdx
/usr/include/c++/10/bits/random.tcc:463
      __z ^= (__z >> __l);
  4046fe:	48 89 d0             	mov    %rdx,%rax
  404701:	48 c1 e8 2b          	shr    $0x2b,%rax
  404705:	48 31 c2             	xor    %rax,%rdx
_ZN7UniDistIiSt23mersenne_twister_engineImLm64ELm312ELm156ELm31ELm13043109905998158313ELm29ELm6148914691236517205ELm17ELm8202884508482404352ELm37ELm18444473444759240704ELm43ELm6364136223846793005EEjEclEv():
/home/aliha951/ipdps-artifact/gapbs-master/src/generator.h:54
        rand_num = rng_();
  404708:	89 d0                	mov    %edx,%eax
/home/aliha951/ipdps-artifact/gapbs-master/src/generator.h:53
      while (rand_num >= cutoff_)
  40470a:	39 ca                	cmp    %ecx,%edx
  40470c:	0f 82 06 ff ff ff    	jb     404618 <main+0x7d8>
/home/aliha951/ipdps-artifact/gapbs-master/src/generator.h:54
        rand_num = rng_();
  404712:	4c 8b bc 24 b0 15 00 	mov    0x15b0(%rsp),%r15
  404719:	00 
_ZNSt23mersenne_twister_engineImLm64ELm312ELm156ELm31ELm13043109905998158313ELm29ELm6148914691236517205ELm17ELm8202884508482404352ELm37ELm18444473444759240704ELm43ELm6364136223846793005EEclEv():
/usr/include/c++/10/bits/random.tcc:455
      if (_M_p >= state_size)
  40471a:	49 8b 97 c0 09 00 00 	mov    0x9c0(%r15),%rdx
  404721:	48 81 fa 37 01 00 00 	cmp    $0x137,%rdx
  404728:	76 9e                	jbe    4046c8 <main+0x888>
/usr/include/c++/10/bits/random.tcc:456
	_M_gen_rand();
  40472a:	4c 89 ff             	mov    %r15,%rdi
  40472d:	e8 9e b8 00 00       	callq  40ffd0 <_ZNSt23mersenne_twister_engineImLm64ELm312ELm156ELm31ELm13043109905998158313ELm29ELm6148914691236517205ELm17ELm8202884508482404352ELm37ELm18444473444759240704ELm43ELm6364136223846793005EE11_M_gen_randEv>
_ZN7UniDistIiSt23mersenne_twister_engineImLm64ELm312ELm156ELm31ELm13043109905998158313ELm29ELm6148914691236517205ELm17ELm8202884508482404352ELm37ELm18444473444759240704ELm43ELm6364136223846793005EEjEclEv():
/home/aliha951/ipdps-artifact/gapbs-master/src/generator.h:53
      while (rand_num >= cutoff_)
  404732:	8b 8c 24 c0 15 00 00 	mov    0x15c0(%rsp),%ecx
_ZNSt23mersenne_twister_engineImLm64ELm312ELm156ELm31ELm13043109905998158313ELm29ELm6148914691236517205ELm17ELm8202884508482404352ELm37ELm18444473444759240704ELm43ELm6364136223846793005EEclEv():
/usr/include/c++/10/bits/random.tcc:459
      result_type __z = _M_x[_M_p++];
  404739:	49 8b 97 c0 09 00 00 	mov    0x9c0(%r15),%rdx
  404740:	eb 86                	jmp    4046c8 <main+0x888>
_ZN6CLBase9ParseArgsEv():
/home/aliha951/ipdps-artifact/gapbs-master/src/command_line.h:90
    if ((filename_ == "") && (scale_ == -1)) {
  404742:	44 8b a4 24 90 01 00 	mov    0x190(%rsp),%r12d
  404749:	00 
  40474a:	41 83 fc ff          	cmp    $0xffffffff,%r12d
  40474e:	0f 84 12 02 00 00    	je     404966 <main+0xb26>
/home/aliha951/ipdps-artifact/gapbs-master/src/command_line.h:95
      symmetrize_ = true;
  404754:	c6 84 24 b8 01 00 00 	movb   $0x1,0x1b8(%rsp)
  40475b:	01 
/home/aliha951/ipdps-artifact/gapbs-master/src/command_line.h:92
      return false;
  40475c:	e9 89 f8 ff ff       	jmpq   403fea <main+0x1aa>
  404761:	0f 1f 80 00 00 00 00 	nopl   0x0(%rax)
_ZNSt23mersenne_twister_engineImLm64ELm312ELm156ELm31ELm13043109905998158313ELm29ELm6148914691236517205ELm17ELm8202884508482404352ELm37ELm18444473444759240704ELm43ELm6364136223846793005EEclEv():
/usr/include/c++/10/bits/random.tcc:456
	_M_gen_rand();
  404768:	48 89 c7             	mov    %rax,%rdi
  40476b:	48 89 44 24 18       	mov    %rax,0x18(%rsp)
  404770:	e8 5b b8 00 00       	callq  40ffd0 <_ZNSt23mersenne_twister_engineImLm64ELm312ELm156ELm31ELm13043109905998158313ELm29ELm6148914691236517205ELm17ELm8202884508482404352ELm37ELm18444473444759240704ELm43ELm6364136223846793005EE11_M_gen_randEv>
/usr/include/c++/10/bits/random.tcc:459
      result_type __z = _M_x[_M_p++];
  404775:	48 8b 44 24 18       	mov    0x18(%rsp),%rax
  40477a:	48 8b 90 c0 09 00 00 	mov    0x9c0(%rax),%rdx
  404781:	e9 d7 fe ff ff       	jmpq   40465d <main+0x81d>
  404786:	66 2e 0f 1f 84 00 00 	nopw   %cs:0x0(%rax,%rax,1)
  40478d:	00 00 00 
BenchmarkKernel<CSRGraph<int>, main(int, char**)::<lambda(const Graph&)>, void (*)(const CSRGraph<int>&, const pvector<int>&), main(int, char**)::<lambda(const Graph&, const pvector<int>&)> >():
/home/aliha951/ipdps-artifact/gapbs-master/src/benchmark.h:123
  for (int iter=0; iter < cli.num_trials(); iter++) {
  404790:	83 44 24 0c 01       	addl   $0x1,0xc(%rsp)
  404795:	8b 44 24 0c          	mov    0xc(%rsp),%eax
  404799:	39 84 24 d4 01 00 00 	cmp    %eax,0x1d4(%rsp)
  4047a0:	0f 8f 6a f9 ff ff    	jg     404110 <main+0x2d0>
  4047a6:	e9 07 fc ff ff       	jmpq   4043b2 <main+0x572>
  4047ab:	0f 1f 44 00 00       	nopl   0x0(%rax,%rax,1)
/home/aliha951/ipdps-artifact/gapbs-master/src/benchmark.h:130
      stats(g, result);
  4047b0:	48 8b 74 24 28       	mov    0x28(%rsp),%rsi
  4047b5:	48 8b 7c 24 20       	mov    0x20(%rsp),%rdi
  4047ba:	e8 71 3e 00 00       	callq  408630 <_Z13PrintBFSStatsRK8CSRGraphIiiLb1EERK7pvectorIiE>
  4047bf:	e9 3f fa ff ff       	jmpq   404203 <main+0x3c3>
main():
/usr/include/x86_64-linux-gnu/bits/stdio2.h:67
# ifdef __va_arg_pack
__fortify_function int
__NTH (snprintf (char *__restrict __s, size_t __n,
		 const char *__restrict __fmt, ...))
{
  return __builtin___snprintf_chk (__s, __n, __USE_FORTIFY_LEVEL - 1,
  4047c4:	4c 8d 84 24 d0 15 00 	lea    0x15d0(%rsp),%r8
  4047cb:	00 
snprintf():
/usr/include/x86_64-linux-gnu/bits/stdio2.h:67
  4047cc:	48 8d 35 4d 00 01 00 	lea    0x1004d(%rip),%rsi        # 414820 <_IO_stdin_used+0x820>
  4047d3:	b9 09 00 00 00       	mov    $0x9,%ecx
  4047d8:	4c 89 c7             	mov    %r8,%rdi
  4047db:	f3 a5                	rep movsl %ds:(%rsi),%es:(%rdi)
_Z15stop_disk_statsv():
/home/aliha951/ipdps-artifact/gapbs-master/src/profiling_utils.h:319
    char command[256];
    snprintf(command, sizeof(command), "sudo pkill -f 'gather_diskstats.sh'");
    int ret = system(command);
  4047dd:	4c 89 c7             	mov    %r8,%rdi
  4047e0:	e8 9b f0 ff ff       	callq  403880 <system@plt>
/home/aliha951/ipdps-artifact/gapbs-master/src/profiling_utils.h:320
    if (ret==-1)	std::cout << "could not stop diskstat gathering\n";
  4047e5:	83 c0 01             	add    $0x1,%eax
  4047e8:	0f 85 2b fc ff ff    	jne    404419 <main+0x5d9>
_ZStlsISt11char_traitsIcEERSt13basic_ostreamIcT_ES5_PKc():
/usr/include/c++/10/ostream:611
    operator<<(basic_ostream<char, _Traits>& __out, const char* __s)
    {
      if (!__s)
	__out.setstate(ios_base::badbit);
      else
	__ostream_insert(__out, __s,
  4047ee:	ba 22 00 00 00       	mov    $0x22,%edx
  4047f3:	48 8d 35 4e 00 01 00 	lea    0x1004e(%rip),%rsi        # 414848 <_IO_stdin_used+0x848>
  4047fa:	48 8d 3d 7f 4b 01 00 	lea    0x14b7f(%rip),%rdi        # 419380 <_ZSt4cout@@GLIBCXX_3.4>
  404801:	e8 4a f1 ff ff       	callq  403950 <_ZSt16__ostream_insertIcSt11char_traitsIcEERSt13basic_ostreamIT_T0_ES6_PKS3_l@plt>
  404806:	e9 0e fc ff ff       	jmpq   404419 <main+0x5d9>
_ZN6CLBase9HandleArgEaPc():
/home/aliha951/ipdps-artifact/gapbs-master/src/command_line.h:106
      case 'u': uniform_ = true; scale_ = atoi(opt_arg);                break;
  40480b:	c6 84 24 b9 01 00 00 	movb   $0x1,0x1b9(%rsp)
  404812:	01 
main():
/usr/include/stdlib.h:363
  404813:	ba 0a 00 00 00       	mov    $0xa,%edx
atoi():
/usr/include/stdlib.h:363
  404818:	31 f6                	xor    %esi,%esi
  40481a:	e8 21 f2 ff ff       	callq  403a40 <strtol@plt>
  40481f:	89 84 24 90 01 00 00 	mov    %eax,0x190(%rsp)
_ZN6CLBase9HandleArgEaPc():
/home/aliha951/ipdps-artifact/gapbs-master/src/command_line.h:106
  404826:	e9 cd f6 ff ff       	jmpq   403ef8 <main+0xb8>
/home/aliha951/ipdps-artifact/gapbs-master/src/command_line.h:109
      case 'q': batching_ = true;                                       break;
  40482b:	c6 84 24 bb 01 00 00 	movb   $0x1,0x1bb(%rsp)
  404832:	01 
  404833:	e9 c0 f6 ff ff       	jmpq   403ef8 <main+0xb8>
/home/aliha951/ipdps-artifact/gapbs-master/src/command_line.h:101
      case 'f': filename_ = std::string(opt_arg);                       break;
  404838:	48 89 fe             	mov    %rdi,%rsi
  40483b:	48 89 ef             	mov    %rbp,%rdi
  40483e:	e8 ed 18 00 00       	callq  406130 <_ZNSt7__cxx1112basic_stringIcSt11char_traitsIcESaIcEEC2EPKcRKS3_.constprop.0>
_ZNKSt7__cxx1112basic_stringIcSt11char_traitsIcESaIcEE7_M_dataEv():
/usr/include/c++/10/bits/basic_string.h:195
      { return _M_dataplus._M_p; }
  404843:	48 8b 84 24 e0 0b 00 	mov    0xbe0(%rsp),%rax
  40484a:	00 
  40484b:	48 8b bc 24 98 01 00 	mov    0x198(%rsp),%rdi
  404852:	00 
_ZNKSt7__cxx1112basic_stringIcSt11char_traitsIcESaIcEE4sizeEv():
/usr/include/c++/10/bits/basic_string.h:915
      { return _M_string_length; }
  404853:	48 8b 94 24 e8 0b 00 	mov    0xbe8(%rsp),%rdx
  40485a:	00 
_ZNSt7__cxx1112basic_stringIcSt11char_traitsIcESaIcEEaSEOS4_():
/usr/include/c++/10/bits/basic_string.h:731
	if (__str._M_is_local())
  40485b:	4c 39 e8             	cmp    %r13,%rax
  40485e:	0f 84 5b 01 00 00    	je     4049bf <main+0xb7f>
/usr/include/c++/10/bits/basic_string.h:759
	    _M_capacity(__str._M_allocated_capacity);
  404864:	f3 0f 7e 8c 24 f0 0b 	movq   0xbf0(%rsp),%xmm1
  40486b:	00 00 
/usr/include/c++/10/bits/basic_string.h:745
	    if (!_M_is_local())
  40486d:	4c 39 f7             	cmp    %r14,%rdi
  404870:	0f 84 23 01 00 00    	je     404999 <main+0xb59>
_ZNSt7__cxx1112basic_stringIcSt11char_traitsIcESaIcEE9_M_lengthEm():
/usr/include/c++/10/bits/basic_string.h:191
      { _M_string_length = __length; }
  404876:	66 48 0f 6e c2       	movq   %rdx,%xmm0
_ZNSt7__cxx1112basic_stringIcSt11char_traitsIcESaIcEEaSEOS4_():
/usr/include/c++/10/bits/basic_string.h:751
		    __capacity = _M_allocated_capacity;
  40487b:	48 8b 8c 24 a8 01 00 	mov    0x1a8(%rsp),%rcx
  404882:	00 
_ZNSt7__cxx1112basic_stringIcSt11char_traitsIcESaIcEE7_M_dataEPc():
/usr/include/c++/10/bits/basic_string.h:187
      { _M_dataplus._M_p = __p; }
  404883:	48 89 84 24 98 01 00 	mov    %rax,0x198(%rsp)
  40488a:	00 
_ZNSt7__cxx1112basic_stringIcSt11char_traitsIcESaIcEE9_M_lengthEm():
/usr/include/c++/10/bits/basic_string.h:191
      { _M_string_length = __length; }
  40488b:	66 0f 6c c1          	punpcklqdq %xmm1,%xmm0
  40488f:	0f 29 84 24 a0 01 00 	movaps %xmm0,0x1a0(%rsp)
  404896:	00 
_ZNSt7__cxx1112basic_stringIcSt11char_traitsIcESaIcEEaSEOS4_():
/usr/include/c++/10/bits/basic_string.h:760
	    if (__data)
  404897:	48 85 ff             	test   %rdi,%rdi
  40489a:	0f 84 12 01 00 00    	je     4049b2 <main+0xb72>
_ZNSt7__cxx1112basic_stringIcSt11char_traitsIcESaIcEE7_M_dataEPc():
/usr/include/c++/10/bits/basic_string.h:187
      { _M_dataplus._M_p = __p; }
  4048a0:	48 89 bc 24 e0 0b 00 	mov    %rdi,0xbe0(%rsp)
  4048a7:	00 
_ZNSt7__cxx1112basic_stringIcSt11char_traitsIcESaIcEE11_M_capacityEm():
/usr/include/c++/10/bits/basic_string.h:219
      { _M_allocated_capacity = __capacity; }
  4048a8:	48 89 8c 24 f0 0b 00 	mov    %rcx,0xbf0(%rsp)
  4048af:	00 
_ZNKSt7__cxx1112basic_stringIcSt11char_traitsIcESaIcEE7_M_dataEv():
/usr/include/c++/10/bits/basic_string.h:195
      { return _M_dataplus._M_p; }
  4048b0:	48 8b 84 24 e0 0b 00 	mov    0xbe0(%rsp),%rax
  4048b7:	00 
_ZNSt7__cxx1112basic_stringIcSt11char_traitsIcESaIcEE9_M_lengthEm():
/usr/include/c++/10/bits/basic_string.h:191
      { _M_string_length = __length; }
  4048b8:	48 c7 84 24 e8 0b 00 	movq   $0x0,0xbe8(%rsp)
  4048bf:	00 00 00 00 00 
_ZNSt11char_traitsIcE6assignERcRKc():
/usr/include/c++/10/bits/char_traits.h:357
  4048c4:	c6 00 00             	movb   $0x0,(%rax)
_ZNKSt7__cxx1112basic_stringIcSt11char_traitsIcESaIcEE7_M_dataEv():
/usr/include/c++/10/bits/basic_string.h:195
      { return _M_dataplus._M_p; }
  4048c7:	48 8b bc 24 e0 0b 00 	mov    0xbe0(%rsp),%rdi
  4048ce:	00 
_ZNSt7__cxx1112basic_stringIcSt11char_traitsIcESaIcEE10_M_disposeEv():
/usr/include/c++/10/bits/basic_string.h:239
	if (!_M_is_local())
  4048cf:	4c 39 ef             	cmp    %r13,%rdi
  4048d2:	0f 84 20 f6 ff ff    	je     403ef8 <main+0xb8>
_ZN9__gnu_cxx13new_allocatorIcE10deallocateEPcm():
/usr/include/c++/10/ext/new_allocator.h:139
  4048d8:	e8 e3 ef ff ff       	callq  4038c0 <_ZdlPv@plt>
_ZN6CLBase9HandleArgEaPc():
/home/aliha951/ipdps-artifact/gapbs-master/src/command_line.h:114
  }
  4048dd:	e9 16 f6 ff ff       	jmpq   403ef8 <main+0xb8>
/home/aliha951/ipdps-artifact/gapbs-master/src/command_line.h:105
      case 's': symmetrize_ = true;                                     break;
  4048e2:	c6 84 24 b8 01 00 00 	movb   $0x1,0x1b8(%rsp)
  4048e9:	01 
  4048ea:	e9 09 f6 ff ff       	jmpq   403ef8 <main+0xb8>
main():
/usr/include/stdlib.h:363
  4048ef:	ba 0a 00 00 00       	mov    $0xa,%edx
atoi():
/usr/include/stdlib.h:363
  4048f4:	31 f6                	xor    %esi,%esi
  4048f6:	e8 45 f1 ff ff       	callq  403a40 <strtol@plt>
  4048fb:	89 84 24 c8 01 00 00 	mov    %eax,0x1c8(%rsp)
_ZN6CLBase9HandleArgEaPc():
/home/aliha951/ipdps-artifact/gapbs-master/src/command_line.h:111
      case 'x': readahead_size_ = atoi(opt_arg);                        break;
  404902:	e9 f1 f5 ff ff       	jmpq   403ef8 <main+0xb8>
main():
/usr/include/stdlib.h:363
  404907:	ba 0a 00 00 00       	mov    $0xa,%edx
atoi():
/usr/include/stdlib.h:363
  40490c:	31 f6                	xor    %esi,%esi
  40490e:	e8 2d f1 ff ff       	callq  403a40 <strtol@plt>
_ZN6CLBase9HandleArgEaPc():
/home/aliha951/ipdps-artifact/gapbs-master/src/command_line.h:110
      case 'y': queue_size_ = (long unsigned int) atoi(opt_arg);        break;
  404913:	48 98                	cltq   
  404915:	48 89 84 24 c0 01 00 	mov    %rax,0x1c0(%rsp)
  40491c:	00 
  40491d:	e9 d6 f5 ff ff       	jmpq   403ef8 <main+0xb8>
main():
/usr/include/stdlib.h:363
  404922:	ba 0a 00 00 00       	mov    $0xa,%edx
atoi():
/usr/include/stdlib.h:363
  404927:	31 f6                	xor    %esi,%esi
  404929:	e8 12 f1 ff ff       	callq  403a40 <strtol@plt>
  40492e:	89 84 24 94 01 00 00 	mov    %eax,0x194(%rsp)
_ZN6CLBase9HandleArgEaPc():
/home/aliha951/ipdps-artifact/gapbs-master/src/command_line.h:104
      case 'k': degree_ = atoi(opt_arg);                                break;
  404935:	e9 be f5 ff ff       	jmpq   403ef8 <main+0xb8>
/home/aliha951/ipdps-artifact/gapbs-master/src/command_line.h:107
      case 'm': in_place_ = true;                                       break;
  40493a:	c6 84 24 ba 01 00 00 	movb   $0x1,0x1ba(%rsp)
  404941:	01 
  404942:	e9 b1 f5 ff ff       	jmpq   403ef8 <main+0xb8>
/home/aliha951/ipdps-artifact/gapbs-master/src/command_line.h:112
      case 'o': batching_mode_ = MADVISE;                               break;
  404947:	c7 84 24 cc 01 00 00 	movl   $0x2,0x1cc(%rsp)
  40494e:	02 00 00 00 
  404952:	e9 a1 f5 ff ff       	jmpq   403ef8 <main+0xb8>
BenchmarkKernel<CSRGraph<int>, main(int, char**)::<lambda(const Graph&)>, void (*)(const CSRGraph<int>&, const pvector<int>&), main(int, char**)::<lambda(const Graph&, const pvector<int>&)> >():
/home/aliha951/ipdps-artifact/gapbs-master/src/benchmark.h:108
  double total_seconds = 0;
  404957:	66 0f ef f6          	pxor   %xmm6,%xmm6
  40495b:	f2 0f 11 74 24 10    	movsd  %xmm6,0x10(%rsp)
  404961:	e9 4c fa ff ff       	jmpq   4043b2 <main+0x572>
_ZStlsISt11char_traitsIcEERSt13basic_ostreamIcT_ES5_PKc():
/usr/include/c++/10/ostream:611
  404966:	ba 2b 00 00 00       	mov    $0x2b,%edx
  40496b:	48 8d 35 4e fe 00 00 	lea    0xfe4e(%rip),%rsi        # 4147c0 <_IO_stdin_used+0x7c0>
  404972:	48 8d 3d 07 4a 01 00 	lea    0x14a07(%rip),%rdi        # 419380 <_ZSt4cout@@GLIBCXX_3.4>
  404979:	e8 d2 ef ff ff       	callq  403950 <_ZSt16__ostream_insertIcSt11char_traitsIcEERSt13basic_ostreamIT_T0_ES6_PKS3_l@plt>
_ZNSolsEPFRSoS_E():
/usr/include/c++/10/ostream:113
	return __pf(*this);
  40497e:	48 8d 3d fb 49 01 00 	lea    0x149fb(%rip),%rdi        # 419380 <_ZSt4cout@@GLIBCXX_3.4>
  404985:	e8 d6 13 00 00       	callq  405d60 <_ZSt4endlIcSt11char_traitsIcEERSt13basic_ostreamIT_T0_ES6_.isra.0>
  40498a:	e9 02 fb ff ff       	jmpq   404491 <main+0x651>
_ZN6CLBase9HandleArgEaPc():
/home/aliha951/ipdps-artifact/gapbs-master/src/command_line.h:103
      case 'h': PrintUsage();                                           break;
  40498f:	48 8b 7c 24 38       	mov    0x38(%rsp),%rdi
  404994:	e8 f7 51 00 00       	callq  409b90 <_ZN6CLBase10PrintUsageEv>
_ZNSt7__cxx1112basic_stringIcSt11char_traitsIcESaIcEE9_M_lengthEm():
/usr/include/c++/10/bits/basic_string.h:191
      { _M_string_length = __length; }
  404999:	66 48 0f 6e c2       	movq   %rdx,%xmm0
_ZNSt7__cxx1112basic_stringIcSt11char_traitsIcESaIcEE7_M_dataEPc():
/usr/include/c++/10/bits/basic_string.h:187
      { _M_dataplus._M_p = __p; }
  40499e:	48 89 84 24 98 01 00 	mov    %rax,0x198(%rsp)
  4049a5:	00 
_ZNSt7__cxx1112basic_stringIcSt11char_traitsIcESaIcEE9_M_lengthEm():
/usr/include/c++/10/bits/basic_string.h:191
      { _M_string_length = __length; }
  4049a6:	66 0f 6c c1          	punpcklqdq %xmm1,%xmm0
  4049aa:	0f 29 84 24 a0 01 00 	movaps %xmm0,0x1a0(%rsp)
  4049b1:	00 
_ZNSt7__cxx1112basic_stringIcSt11char_traitsIcESaIcEE7_M_dataEPc():
/usr/include/c++/10/bits/basic_string.h:187
      { _M_dataplus._M_p = __p; }
  4049b2:	4c 89 ac 24 e0 0b 00 	mov    %r13,0xbe0(%rsp)
  4049b9:	00 
  4049ba:	e9 f1 fe ff ff       	jmpq   4048b0 <main+0xa70>
_ZNSt7__cxx1112basic_stringIcSt11char_traitsIcESaIcEEaSEOS4_():
/usr/include/c++/10/bits/basic_string.h:734
	    if (__str.size())
  4049bf:	48 85 d2             	test   %rdx,%rdx
  4049c2:	74 1e                	je     4049e2 <main+0xba2>
_ZNSt7__cxx1112basic_stringIcSt11char_traitsIcESaIcEE7_S_copyEPcPKcm():
/usr/include/c++/10/bits/basic_string.h:356
	if (__n == 1)
  4049c4:	48 83 fa 01          	cmp    $0x1,%rdx
  4049c8:	74 29                	je     4049f3 <main+0xbb3>
_ZNSt11char_traitsIcE4copyEPcPKcm():
/usr/include/c++/10/bits/char_traits.h:437
	return static_cast<char_type*>(__builtin_memcpy(__s1, __s2, __n));
  4049ca:	4c 89 ee             	mov    %r13,%rsi
  4049cd:	e8 7e ee ff ff       	callq  403850 <memcpy@plt>
  4049d2:	48 8b bc 24 98 01 00 	mov    0x198(%rsp),%rdi
  4049d9:	00 
  4049da:	48 8b 94 24 e8 0b 00 	mov    0xbe8(%rsp),%rdx
  4049e1:	00 
_ZNSt7__cxx1112basic_stringIcSt11char_traitsIcESaIcEE9_M_lengthEm():
/usr/include/c++/10/bits/basic_string.h:191
      { _M_string_length = __length; }
  4049e2:	48 89 94 24 a0 01 00 	mov    %rdx,0x1a0(%rsp)
  4049e9:	00 
_ZNSt11char_traitsIcE6assignERcRKc():
/usr/include/c++/10/bits/char_traits.h:357
      { __c1 = __c2; }
  4049ea:	c6 04 17 00          	movb   $0x0,(%rdi,%rdx,1)
_ZNSt7__cxx1112basic_stringIcSt11char_traitsIcESaIcEE13_M_set_lengthEm():
/usr/include/c++/10/bits/basic_string.h:226
      }
  4049ee:	e9 bd fe ff ff       	jmpq   4048b0 <main+0xa70>
_ZNSt11char_traitsIcE6assignERcRKc():
/usr/include/c++/10/bits/char_traits.h:357
  4049f3:	0f b6 84 24 f0 0b 00 	movzbl 0xbf0(%rsp),%eax
  4049fa:	00 
  4049fb:	88 07                	mov    %al,(%rdi)
  4049fd:	48 8b bc 24 98 01 00 	mov    0x198(%rsp),%rdi
  404a04:	00 
  404a05:	48 8b 94 24 e8 0b 00 	mov    0xbe8(%rsp),%rdx
  404a0c:	00 
  404a0d:	eb d3                	jmp    4049e2 <main+0xba2>
_Z16start_disk_statsPKc():
/home/aliha951/ipdps-artifact/gapbs-master/src/profiling_utils.h:302
    perror("fork failed");
  404a0f:	48 8d 3d 42 f9 00 00 	lea    0xf942(%rip),%rdi        # 414358 <_IO_stdin_used+0x358>
  404a16:	e8 45 ee ff ff       	callq  403860 <perror@plt>
/home/aliha951/ipdps-artifact/gapbs-master/src/profiling_utils.h:303
    exit(EXIT_FAILURE);
  404a1b:	bf 01 00 00 00       	mov    $0x1,%edi
  404a20:	e8 8b ef ff ff       	callq  4039b0 <exit@plt>
/home/aliha951/ipdps-artifact/gapbs-master/src/profiling_utils.h:306
	  move_to_cgroup(root_cgroup, getpid());
  404a25:	e8 76 f0 ff ff       	callq  403aa0 <getpid@plt>
  404a2a:	48 8d 3d 33 f9 00 00 	lea    0xf933(%rip),%rdi        # 414364 <_IO_stdin_used+0x364>
  404a31:	89 c6                	mov    %eax,%esi
  404a33:	e8 b8 29 00 00       	callq  4073f0 <_Z14move_to_cgroupPKci>
/home/aliha951/ipdps-artifact/gapbs-master/src/profiling_utils.h:307
    execlp("/home/aliha951/ipdps-gapbs/gather_diskstats.sh", "/home/aliha951/ipdps-gapbs/gather_diskstats.sh", result_file_name, NULL);
  404a38:	48 8d 35 b1 fd 00 00 	lea    0xfdb1(%rip),%rsi        # 4147f0 <_IO_stdin_used+0x7f0>
  404a3f:	31 c9                	xor    %ecx,%ecx
  404a41:	48 8d 15 32 f9 00 00 	lea    0xf932(%rip),%rdx        # 41437a <_IO_stdin_used+0x37a>
  404a48:	31 c0                	xor    %eax,%eax
  404a4a:	48 89 f7             	mov    %rsi,%rdi
  404a4d:	e8 ce ec ff ff       	callq  403720 <execlp@plt>
/home/aliha951/ipdps-artifact/gapbs-master/src/profiling_utils.h:308
    perror("execlp failed");
  404a52:	48 8d 3d 2c f9 00 00 	lea    0xf92c(%rip),%rdi        # 414385 <_IO_stdin_used+0x385>
  404a59:	e8 02 ee ff ff       	callq  403860 <perror@plt>
  404a5e:	eb bb                	jmp    404a1b <main+0xbdb>
main():
/home/aliha951/ipdps-artifact/gapbs-master/src/bfs.cc:267
  404a60:	e8 db ee ff ff       	callq  403940 <__stack_chk_fail@plt>
  404a65:	f3 0f 1e fa          	endbr64 
_ZN7pvectorIiE16ReleaseResourcesEv():
/home/aliha951/ipdps-artifact/gapbs-master/src/pvector.h:73
    if (start_ != nullptr) {
  404a69:	48 89 c3             	mov    %rax,%rbx
  404a6c:	e9 0f f3 ff ff       	jmpq   403d80 <main.cold+0x24>
  404a71:	f3 0f 1e fa          	endbr64 
_ZNKSt7__cxx1112basic_stringIcSt11char_traitsIcESaIcEE7_M_dataEv():
/usr/include/c++/10/bits/basic_string.h:195
      { return _M_dataplus._M_p; }
  404a75:	48 89 c3             	mov    %rax,%rbx
  404a78:	e9 df f2 ff ff       	jmpq   403d5c <main.cold>
  404a7d:	f3 0f 1e fa          	endbr64 
  404a81:	48 89 c3             	mov    %rax,%rbx
  404a84:	e9 36 f3 ff ff       	jmpq   403dbf <main.cold+0x63>
  404a89:	f3 0f 1e fa          	endbr64 
  404a8d:	48 89 c5             	mov    %rax,%rbp
  404a90:	e9 3e f3 ff ff       	jmpq   403dd3 <main.cold+0x77>
  404a95:	f3 0f 1e fa          	endbr64 
_ZN5CLAppD4Ev():
/home/aliha951/ipdps-artifact/gapbs-master/src/command_line.h:140
class CLApp : public CLBase {
  404a99:	48 89 c3             	mov    %rax,%rbx
  404a9c:	e9 f6 f2 ff ff       	jmpq   403d97 <main.cold+0x3b>
  404aa1:	f3 0f 1e fa          	endbr64 
  404aa5:	48 89 c3             	mov    %rax,%rbx
  404aa8:	e9 e0 f2 ff ff       	jmpq   403d8d <main.cold+0x31>
  404aad:	f3 0f 1e fa          	endbr64 
_ZNKSt7__cxx1112basic_stringIcSt11char_traitsIcESaIcEE7_M_dataEv():
/usr/include/c++/10/bits/basic_string.h:195
  404ab1:	48 89 c3             	mov    %rax,%rbx
  404ab4:	e9 3c f3 ff ff       	jmpq   403df5 <main.cold+0x99>
  404ab9:	f3 0f 1e fa          	endbr64 
  404abd:	48 89 c3             	mov    %rax,%rbx
  404ac0:	e9 4b f3 ff ff       	jmpq   403e10 <main.cold+0xb4>
main():
/usr/include/c++/10/bits/basic_string.h:195
  404ac5:	66 66 2e 0f 1f 84 00 	data16 nopw %cs:0x0(%rax,%rax,1)
  404acc:	00 00 00 00 

0000000000404ad0 <_GLOBAL__sub_I__Z10PrintLabelRKNSt7__cxx1112basic_stringIcSt11char_traitsIcESaIcEEES6_>:
_GLOBAL__sub_I__Z10PrintLabelRKNSt7__cxx1112basic_stringIcSt11char_traitsIcESaIcEEES6_():
/home/aliha951/ipdps-artifact/gapbs-master/src/bfs.cc:267
  404ad0:	f3 0f 1e fa          	endbr64 
  404ad4:	48 83 ec 08          	sub    $0x8,%rsp
/usr/include/c++/10/iostream:74
  extern wostream wclog;	/// Linked to standard error (buffered)
#endif
  ///@}

  // For construction of filebuffers for cout, cin, cerr, clog et. al.
  static ios_base::Init __ioinit;
  404ad8:	48 8d 3d d1 4e 01 00 	lea    0x14ed1(%rip),%rdi        # 4199b0 <_ZStL8__ioinit>
__static_initialization_and_destruction_0():
/usr/include/c++/10/iostream:74
  404adf:	e8 ec ef ff ff       	callq  403ad0 <_ZNSt8ios_base4InitC1Ev@plt>
  404ae4:	48 8b 3d 0d 45 01 00 	mov    0x1450d(%rip),%rdi        # 418ff8 <_ZNSt8ios_base4InitD1Ev@GLIBCXX_3.4>
_GLOBAL__sub_I__Z10PrintLabelRKNSt7__cxx1112basic_stringIcSt11char_traitsIcESaIcEEES6_():
/home/aliha951/ipdps-artifact/gapbs-master/src/bfs.cc:267
  404aeb:	48 83 c4 08          	add    $0x8,%rsp
__static_initialization_and_destruction_0():
/usr/include/c++/10/iostream:74
  404aef:	48 8d 15 2a 48 01 00 	lea    0x1482a(%rip),%rdx        # 419320 <__dso_handle>
  404af6:	48 8d 35 b3 4e 01 00 	lea    0x14eb3(%rip),%rsi        # 4199b0 <_ZStL8__ioinit>
  404afd:	e9 8e ed ff ff       	jmpq   403890 <__cxa_atexit@plt>
_GLOBAL__sub_I__Z10PrintLabelRKNSt7__cxx1112basic_stringIcSt11char_traitsIcESaIcEEES6_():
  404b02:	66 2e 0f 1f 84 00 00 	nopw   %cs:0x0(%rax,%rax,1)
  404b09:	00 00 00 
  404b0c:	0f 1f 40 00          	nopl   0x0(%rax)

0000000000404b10 <_start>:
_start():
  404b10:	f3 0f 1e fa          	endbr64 
  404b14:	31 ed                	xor    %ebp,%ebp
  404b16:	49 89 d1             	mov    %rdx,%r9
  404b19:	5e                   	pop    %rsi
  404b1a:	48 89 e2             	mov    %rsp,%rdx
  404b1d:	48 83 e4 f0          	and    $0xfffffffffffffff0,%rsp
  404b21:	50                   	push   %rax
  404b22:	54                   	push   %rsp
  404b23:	49 c7 c0 d0 33 41 00 	mov    $0x4133d0,%r8
  404b2a:	48 c7 c1 60 33 41 00 	mov    $0x413360,%rcx
  404b31:	48 c7 c7 40 3e 40 00 	mov    $0x403e40,%rdi
  404b38:	ff 15 aa 44 01 00    	callq  *0x144aa(%rip)        # 418fe8 <__libc_start_main@GLIBC_2.2.5>
  404b3e:	f4                   	hlt    
  404b3f:	90                   	nop

0000000000404b40 <_dl_relocate_static_pie>:
_dl_relocate_static_pie():
  404b40:	f3 0f 1e fa          	endbr64 
  404b44:	c3                   	retq   
  404b45:	66 2e 0f 1f 84 00 00 	nopw   %cs:0x0(%rax,%rax,1)
  404b4c:	00 00 00 
  404b4f:	90                   	nop

0000000000404b50 <deregister_tm_clones>:
deregister_tm_clones():
  404b50:	b8 38 93 41 00       	mov    $0x419338,%eax
  404b55:	48 3d 38 93 41 00    	cmp    $0x419338,%rax
  404b5b:	74 13                	je     404b70 <deregister_tm_clones+0x20>
  404b5d:	b8 00 00 00 00       	mov    $0x0,%eax
  404b62:	48 85 c0             	test   %rax,%rax
  404b65:	74 09                	je     404b70 <deregister_tm_clones+0x20>
  404b67:	bf 38 93 41 00       	mov    $0x419338,%edi
  404b6c:	ff e0                	jmpq   *%rax
  404b6e:	66 90                	xchg   %ax,%ax
  404b70:	c3                   	retq   
  404b71:	66 66 2e 0f 1f 84 00 	data16 nopw %cs:0x0(%rax,%rax,1)
  404b78:	00 00 00 00 
  404b7c:	0f 1f 40 00          	nopl   0x0(%rax)

0000000000404b80 <register_tm_clones>:
register_tm_clones():
  404b80:	be 38 93 41 00       	mov    $0x419338,%esi
  404b85:	48 81 ee 38 93 41 00 	sub    $0x419338,%rsi
  404b8c:	48 89 f0             	mov    %rsi,%rax
  404b8f:	48 c1 ee 3f          	shr    $0x3f,%rsi
  404b93:	48 c1 f8 03          	sar    $0x3,%rax
  404b97:	48 01 c6             	add    %rax,%rsi
  404b9a:	48 d1 fe             	sar    %rsi
  404b9d:	74 11                	je     404bb0 <register_tm_clones+0x30>
  404b9f:	b8 00 00 00 00       	mov    $0x0,%eax
  404ba4:	48 85 c0             	test   %rax,%rax
  404ba7:	74 07                	je     404bb0 <register_tm_clones+0x30>
  404ba9:	bf 38 93 41 00       	mov    $0x419338,%edi
  404bae:	ff e0                	jmpq   *%rax
  404bb0:	c3                   	retq   
  404bb1:	66 66 2e 0f 1f 84 00 	data16 nopw %cs:0x0(%rax,%rax,1)
  404bb8:	00 00 00 00 
  404bbc:	0f 1f 40 00          	nopl   0x0(%rax)

0000000000404bc0 <__do_global_dtors_aux>:
__do_global_dtors_aux():
  404bc0:	f3 0f 1e fa          	endbr64 
  404bc4:	80 3d dd 48 01 00 00 	cmpb   $0x0,0x148dd(%rip)        # 4194a8 <completed.0>
  404bcb:	75 13                	jne    404be0 <__do_global_dtors_aux+0x20>
  404bcd:	55                   	push   %rbp
  404bce:	48 89 e5             	mov    %rsp,%rbp
  404bd1:	e8 7a ff ff ff       	callq  404b50 <deregister_tm_clones>
  404bd6:	c6 05 cb 48 01 00 01 	movb   $0x1,0x148cb(%rip)        # 4194a8 <completed.0>
  404bdd:	5d                   	pop    %rbp
  404bde:	c3                   	retq   
  404bdf:	90                   	nop
  404be0:	c3                   	retq   
  404be1:	66 66 2e 0f 1f 84 00 	data16 nopw %cs:0x0(%rax,%rax,1)
  404be8:	00 00 00 00 
  404bec:	0f 1f 40 00          	nopl   0x0(%rax)

0000000000404bf0 <frame_dummy>:
frame_dummy():
  404bf0:	f3 0f 1e fa          	endbr64 
  404bf4:	eb 8a                	jmp    404b80 <register_tm_clones>
  404bf6:	66 2e 0f 1f 84 00 00 	nopw   %cs:0x0(%rax,%rax,1)
  404bfd:	00 00 00 

0000000000404c00 <_ZL13get_family_idi>:
_ZL13get_family_idi():
/home/aliha951/ipdps-artifact/gapbs-master/src/taskstats_helper.h:30
	struct genlmsghdr g;
	char buf[512];
};

/* Ask generic netlink for the family id of TASKSTATS */
static int get_family_id(int sd) {
  404c00:	41 54                	push   %r12
/home/aliha951/ipdps-artifact/gapbs-master/src/taskstats_helper.h:32
	struct msgtemplate req = {0};
	struct msgtemplate ans = {0};
  404c02:	b9 42 00 00 00       	mov    $0x42,%ecx
/home/aliha951/ipdps-artifact/gapbs-master/src/taskstats_helper.h:30
static int get_family_id(int sd) {
  404c07:	55                   	push   %rbp
  404c08:	89 fd                	mov    %edi,%ebp
  404c0a:	48 81 ec 48 04 00 00 	sub    $0x448,%rsp
  404c11:	64 48 8b 04 25 28 00 	mov    %fs:0x28,%rax
  404c18:	00 00 
  404c1a:	48 89 84 24 38 04 00 	mov    %rax,0x438(%rsp)
  404c21:	00 
  404c22:	31 c0                	xor    %eax,%eax
/home/aliha951/ipdps-artifact/gapbs-master/src/taskstats_helper.h:32
	struct msgtemplate ans = {0};
  404c24:	4c 8d a4 24 20 02 00 	lea    0x220(%rsp),%r12
  404c2b:	00 
  404c2c:	4c 89 e7             	mov    %r12,%rdi
  404c2f:	f3 48 ab             	rep stos %rax,%es:(%rdi)
/home/aliha951/ipdps-artifact/gapbs-master/src/taskstats_helper.h:31
	struct msgtemplate req = {0};
  404c32:	b9 42 00 00 00       	mov    $0x42,%ecx
/home/aliha951/ipdps-artifact/gapbs-master/src/taskstats_helper.h:32
	struct msgtemplate ans = {0};
  404c37:	c7 07 00 00 00 00    	movl   $0x0,(%rdi)
/home/aliha951/ipdps-artifact/gapbs-master/src/taskstats_helper.h:31
	struct msgtemplate req = {0};
  404c3d:	48 89 e7             	mov    %rsp,%rdi
  404c40:	f3 48 ab             	rep stos %rax,%es:(%rdi)
/home/aliha951/ipdps-artifact/gapbs-master/src/taskstats_helper.h:36
	struct nlattr *na;
	int rep_len;

	req.n.nlmsg_len = NLMSG_LENGTH(GENL_HDRLEN);
  404c43:	48 b8 14 00 00 00 10 	movabs $0x1001000000014,%rax
  404c4a:	00 01 00 
  404c4d:	48 89 04 24          	mov    %rax,(%rsp)
/home/aliha951/ipdps-artifact/gapbs-master/src/taskstats_helper.h:31
	struct msgtemplate req = {0};
  404c51:	c7 07 00 00 00 00    	movl   $0x0,(%rdi)
/home/aliha951/ipdps-artifact/gapbs-master/src/taskstats_helper.h:40
	req.n.nlmsg_type = GENL_ID_CTRL;
	req.n.nlmsg_flags = NLM_F_REQUEST;
	req.n.nlmsg_seq = 0;
	req.n.nlmsg_pid = getpid();
  404c57:	e8 44 ee ff ff       	callq  403aa0 <getpid@plt>
/usr/include/x86_64-linux-gnu/bits/string_fortified.h:34

__fortify_function void *
__NTH (memcpy (void *__restrict __dest, const void *__restrict __src,
	       size_t __len))
{
  return __builtin___memcpy_chk (__dest, __src, __len, __bos0 (__dest));
  404c5c:	ba 53 00 00 00       	mov    $0x53,%edx
/home/aliha951/ipdps-artifact/gapbs-master/src/taskstats_helper.h:50
	na->nla_type = CTRL_ATTR_FAMILY_NAME;
	na->nla_len = NLA_HDRLEN + strlen(TASKSTATS_GENL_NAME) + 1;
	memcpy(NLA_DATA(na), TASKSTATS_GENL_NAME, strlen(TASKSTATS_GENL_NAME) + 1);
	req.n.nlmsg_len += NLMSG_ALIGN(na->nla_len);

	if (send(sd, &req, req.n.nlmsg_len, 0) < 0)
  404c61:	31 c9                	xor    %ecx,%ecx
memcpy():
/usr/include/x86_64-linux-gnu/bits/string_fortified.h:34
  404c63:	48 89 e6             	mov    %rsp,%rsi
_ZL13get_family_idi():
/home/aliha951/ipdps-artifact/gapbs-master/src/taskstats_helper.h:40
	req.n.nlmsg_pid = getpid();
  404c66:	89 44 24 0c          	mov    %eax,0xc(%rsp)
/home/aliha951/ipdps-artifact/gapbs-master/src/taskstats_helper.h:41
	req.g.cmd = CTRL_CMD_GETFAMILY;
  404c6a:	b8 03 01 00 00       	mov    $0x103,%eax
/home/aliha951/ipdps-artifact/gapbs-master/src/taskstats_helper.h:50
	if (send(sd, &req, req.n.nlmsg_len, 0) < 0)
  404c6f:	89 ef                	mov    %ebp,%edi
/home/aliha951/ipdps-artifact/gapbs-master/src/taskstats_helper.h:41
	req.g.cmd = CTRL_CMD_GETFAMILY;
  404c71:	66 89 44 24 10       	mov    %ax,0x10(%rsp)
memcpy():
/usr/include/x86_64-linux-gnu/bits/string_fortified.h:34
  404c76:	48 b8 54 41 53 4b 53 	movabs $0x544154534b534154,%rax
  404c7d:	54 41 54 
  404c80:	48 89 44 24 18       	mov    %rax,0x18(%rsp)
_ZL13get_family_idi():
/home/aliha951/ipdps-artifact/gapbs-master/src/taskstats_helper.h:48
	req.n.nlmsg_len += NLMSG_ALIGN(na->nla_len);
  404c85:	8b 04 24             	mov    (%rsp),%eax
memcpy():
/usr/include/x86_64-linux-gnu/bits/string_fortified.h:34
  404c88:	66 89 54 24 20       	mov    %dx,0x20(%rsp)
_ZL13get_family_idi():
/home/aliha951/ipdps-artifact/gapbs-master/src/taskstats_helper.h:48
  404c8d:	8d 50 10             	lea    0x10(%rax),%edx
/home/aliha951/ipdps-artifact/gapbs-master/src/taskstats_helper.h:46
	na->nla_len = NLA_HDRLEN + strlen(TASKSTATS_GENL_NAME) + 1;
  404c90:	c7 44 24 14 0e 00 02 	movl   $0x2000e,0x14(%rsp)
  404c97:	00 
/home/aliha951/ipdps-artifact/gapbs-master/src/taskstats_helper.h:48
	req.n.nlmsg_len += NLMSG_ALIGN(na->nla_len);
  404c98:	89 14 24             	mov    %edx,(%rsp)
/home/aliha951/ipdps-artifact/gapbs-master/src/taskstats_helper.h:50
	if (send(sd, &req, req.n.nlmsg_len, 0) < 0)
  404c9b:	e8 10 eb ff ff       	callq  4037b0 <send@plt>
  404ca0:	48 85 c0             	test   %rax,%rax
  404ca3:	78 6b                	js     404d10 <_ZL13get_family_idi+0x110>
/usr/include/x86_64-linux-gnu/bits/socket2.h:44
	return __recv_chk (__fd, __buf, __n, __bos0 (__buf), __flags);

      if (__n > __bos0 (__buf))
	return __recv_chk_warn (__fd, __buf, __n, __bos0 (__buf), __flags);
    }
  return __recv_alias (__fd, __buf, __n, __flags);
  404ca5:	31 c9                	xor    %ecx,%ecx
recv():
/usr/include/x86_64-linux-gnu/bits/socket2.h:44
  404ca7:	ba 14 02 00 00       	mov    $0x214,%edx
  404cac:	4c 89 e6             	mov    %r12,%rsi
  404caf:	89 ef                	mov    %ebp,%edi
  404cb1:	e8 9a ea ff ff       	callq  403750 <recv@plt>
_ZL13get_family_idi():
/home/aliha951/ipdps-artifact/gapbs-master/src/taskstats_helper.h:54
		return -1;

	rep_len = recv(sd, &ans, sizeof(ans), 0);
	if (rep_len < 0 || ans.n.nlmsg_type == NLMSG_ERROR)
  404cb6:	85 c0                	test   %eax,%eax
  404cb8:	78 56                	js     404d10 <_ZL13get_family_idi+0x110>
/home/aliha951/ipdps-artifact/gapbs-master/src/taskstats_helper.h:54 (discriminator 1)
  404cba:	66 83 bc 24 24 02 00 	cmpw   $0x2,0x224(%rsp)
  404cc1:	00 02 
  404cc3:	74 4b                	je     404d10 <_ZL13get_family_idi+0x110>
/home/aliha951/ipdps-artifact/gapbs-master/src/taskstats_helper.h:59
		return -1;

	/* First attr is family name we sent, second should be ID */
	na = (struct nlattr *) GENLMSG_DATA(&ans.n);
	na = (struct nlattr *) ((char*)na + NLA_ALIGN(na->nla_len));
  404cc5:	0f b7 84 24 34 02 00 	movzwl 0x234(%rsp),%eax
  404ccc:	00 
  404ccd:	83 c0 03             	add    $0x3,%eax
  404cd0:	25 fc ff 01 00       	and    $0x1fffc,%eax
  404cd5:	48 8d 84 04 34 02 00 	lea    0x234(%rsp,%rax,1),%rax
  404cdc:	00 
/home/aliha951/ipdps-artifact/gapbs-master/src/taskstats_helper.h:60
	if (na->nla_type == CTRL_ATTR_FAMILY_ID)
  404cdd:	66 83 78 02 01       	cmpw   $0x1,0x2(%rax)
  404ce2:	75 2c                	jne    404d10 <_ZL13get_family_idi+0x110>
/home/aliha951/ipdps-artifact/gapbs-master/src/taskstats_helper.h:61
		return *(__u16 *) NLA_DATA(na);
  404ce4:	0f b7 40 04          	movzwl 0x4(%rax),%eax
/home/aliha951/ipdps-artifact/gapbs-master/src/taskstats_helper.h:63
	return -1;
}
  404ce8:	48 8b b4 24 38 04 00 	mov    0x438(%rsp),%rsi
  404cef:	00 
  404cf0:	64 48 2b 34 25 28 00 	sub    %fs:0x28,%rsi
  404cf7:	00 00 
  404cf9:	75 1c                	jne    404d17 <_ZL13get_family_idi+0x117>
  404cfb:	48 81 c4 48 04 00 00 	add    $0x448,%rsp
  404d02:	5d                   	pop    %rbp
  404d03:	41 5c                	pop    %r12
  404d05:	c3                   	retq   
  404d06:	66 2e 0f 1f 84 00 00 	nopw   %cs:0x0(%rax,%rax,1)
  404d0d:	00 00 00 
/home/aliha951/ipdps-artifact/gapbs-master/src/taskstats_helper.h:51
		return -1;
  404d10:	b8 ff ff ff ff       	mov    $0xffffffff,%eax
  404d15:	eb d1                	jmp    404ce8 <_ZL13get_family_idi+0xe8>
/home/aliha951/ipdps-artifact/gapbs-master/src/taskstats_helper.h:63
}
  404d17:	e8 24 ec ff ff       	callq  403940 <__stack_chk_fail@plt>
  404d1c:	0f 1f 40 00          	nopl   0x0(%rax)

0000000000404d20 <_ZL21request_taskstats_pidiiiP9taskstatsPm>:
_ZL21request_taskstats_pidiiiP9taskstatsPm():
/home/aliha951/ipdps-artifact/gapbs-master/src/taskstats_helper.h:80
		return -1;
	}
	return sd;
}

static int request_taskstats_pid(int sd, int family_id, pid_t pid, struct taskstats *out_ts, size_t *out_len) {
  404d20:	41 57                	push   %r15
  404d22:	41 89 d7             	mov    %edx,%r15d
  404d25:	41 56                	push   %r14
  404d27:	41 55                	push   %r13
  404d29:	41 89 fd             	mov    %edi,%r13d
  404d2c:	41 54                	push   %r12
  404d2e:	49 89 cc             	mov    %rcx,%r12
/home/aliha951/ipdps-artifact/gapbs-master/src/taskstats_helper.h:81
	struct msgtemplate req = {0};
  404d31:	b9 42 00 00 00       	mov    $0x42,%ecx
/home/aliha951/ipdps-artifact/gapbs-master/src/taskstats_helper.h:80
static int request_taskstats_pid(int sd, int family_id, pid_t pid, struct taskstats *out_ts, size_t *out_len) {
  404d36:	55                   	push   %rbp
/usr/include/x86_64-linux-gnu/bits/string_fortified.h:71
    {
      __warn_memset_zero_len ();
      return __dest;
    }
#endif
  return __builtin___memset_chk (__dest, __ch, __len, __bos0 (__dest));
  404d37:	49 8d 6c 24 08       	lea    0x8(%r12),%rbp
/home/aliha951/ipdps-artifact/gapbs-master/src/taskstats_helper.h:80
  404d3c:	53                   	push   %rbx
  404d3d:	4c 89 c3             	mov    %r8,%rbx
  404d40:	48 81 ec 48 04 00 00 	sub    $0x448,%rsp
  404d47:	64 48 8b 04 25 28 00 	mov    %fs:0x28,%rax
  404d4e:	00 00 
  404d50:	48 89 84 24 38 04 00 	mov    %rax,0x438(%rsp)
  404d57:	00 
  404d58:	31 c0                	xor    %eax,%eax
/home/aliha951/ipdps-artifact/gapbs-master/src/taskstats_helper.h:81
	struct msgtemplate req = {0};
  404d5a:	48 89 e7             	mov    %rsp,%rdi
/home/aliha951/ipdps-artifact/gapbs-master/src/taskstats_helper.h:85
	struct msgtemplate rep = {0};
	struct nlattr *na;

	*out_len = 0;
  404d5d:	49 c7 00 00 00 00 00 	movq   $0x0,(%r8)
/home/aliha951/ipdps-artifact/gapbs-master/src/taskstats_helper.h:82
	struct msgtemplate rep = {0};
  404d64:	4c 8d b4 24 20 02 00 	lea    0x220(%rsp),%r14
  404d6b:	00 
/home/aliha951/ipdps-artifact/gapbs-master/src/taskstats_helper.h:81
	struct msgtemplate req = {0};
  404d6c:	f3 48 ab             	rep stos %rax,%es:(%rdi)
/home/aliha951/ipdps-artifact/gapbs-master/src/taskstats_helper.h:82
	struct msgtemplate rep = {0};
  404d6f:	b9 42 00 00 00       	mov    $0x42,%ecx
/home/aliha951/ipdps-artifact/gapbs-master/src/taskstats_helper.h:81
	struct msgtemplate req = {0};
  404d74:	c7 07 00 00 00 00    	movl   $0x0,(%rdi)
/home/aliha951/ipdps-artifact/gapbs-master/src/taskstats_helper.h:82
	struct msgtemplate rep = {0};
  404d7a:	4c 89 f7             	mov    %r14,%rdi
  404d7d:	f3 48 ab             	rep stos %rax,%es:(%rdi)
memset():
/usr/include/x86_64-linux-gnu/bits/string_fortified.h:71
  404d80:	4c 89 e1             	mov    %r12,%rcx
_ZL21request_taskstats_pidiiiP9taskstatsPm():
/home/aliha951/ipdps-artifact/gapbs-master/src/taskstats_helper.h:82
  404d83:	c7 07 00 00 00 00    	movl   $0x0,(%rdi)
memset():
/usr/include/x86_64-linux-gnu/bits/string_fortified.h:71
  404d89:	48 89 ef             	mov    %rbp,%rdi
  404d8c:	48 83 e7 f8          	and    $0xfffffffffffffff8,%rdi
  404d90:	49 c7 04 24 00 00 00 	movq   $0x0,(%r12)
  404d97:	00 
  404d98:	49 c7 84 24 a8 01 00 	movq   $0x0,0x1a8(%r12)
  404d9f:	00 00 00 00 00 
  404da4:	48 29 f9             	sub    %rdi,%rcx
  404da7:	81 c1 b0 01 00 00    	add    $0x1b0,%ecx
  404dad:	c1 e9 03             	shr    $0x3,%ecx
  404db0:	f3 48 ab             	rep stos %rax,%es:(%rdi)
_ZL21request_taskstats_pidiiiP9taskstatsPm():
/home/aliha951/ipdps-artifact/gapbs-master/src/taskstats_helper.h:90
	memset(out_ts, 0, sizeof(*out_ts));

	req.n.nlmsg_len = NLMSG_LENGTH(GENL_HDRLEN);
	req.n.nlmsg_type = family_id;
	req.n.nlmsg_flags = NLM_F_REQUEST;
  404db3:	b8 01 00 00 00       	mov    $0x1,%eax
/home/aliha951/ipdps-artifact/gapbs-master/src/taskstats_helper.h:89
	req.n.nlmsg_type = family_id;
  404db8:	66 89 74 24 04       	mov    %si,0x4(%rsp)
/home/aliha951/ipdps-artifact/gapbs-master/src/taskstats_helper.h:88
	req.n.nlmsg_len = NLMSG_LENGTH(GENL_HDRLEN);
  404dbd:	c7 04 24 14 00 00 00 	movl   $0x14,(%rsp)
/home/aliha951/ipdps-artifact/gapbs-master/src/taskstats_helper.h:90
	req.n.nlmsg_flags = NLM_F_REQUEST;
  404dc4:	66 89 44 24 06       	mov    %ax,0x6(%rsp)
/home/aliha951/ipdps-artifact/gapbs-master/src/taskstats_helper.h:91
	req.n.nlmsg_seq = 1;
  404dc9:	c7 44 24 08 01 00 00 	movl   $0x1,0x8(%rsp)
  404dd0:	00 
/home/aliha951/ipdps-artifact/gapbs-master/src/taskstats_helper.h:92
	req.n.nlmsg_pid = getpid();
  404dd1:	e8 ca ec ff ff       	callq  403aa0 <getpid@plt>
/home/aliha951/ipdps-artifact/gapbs-master/src/taskstats_helper.h:93
	req.g.cmd = TASKSTATS_CMD_GET;
  404dd6:	ba 01 0e 00 00       	mov    $0xe01,%edx
/home/aliha951/ipdps-artifact/gapbs-master/src/taskstats_helper.h:103
  na->nla_type = TASKSTATS_CMD_ATTR_TGID; // Use TGID to get stats for thread group (process) instead of single thread
	na->nla_len = NLA_HDRLEN + sizeof(pid);
	memcpy(NLA_DATA(na), &pid, sizeof(pid));
	req.n.nlmsg_len += NLMSG_ALIGN(na->nla_len);

	if (send(sd, &req, req.n.nlmsg_len, 0) < 0)
  404ddb:	31 c9                	xor    %ecx,%ecx
  404ddd:	48 89 e6             	mov    %rsp,%rsi
/home/aliha951/ipdps-artifact/gapbs-master/src/taskstats_helper.h:92
	req.n.nlmsg_pid = getpid();
  404de0:	89 44 24 0c          	mov    %eax,0xc(%rsp)
/home/aliha951/ipdps-artifact/gapbs-master/src/taskstats_helper.h:101
	req.n.nlmsg_len += NLMSG_ALIGN(na->nla_len);
  404de4:	8b 04 24             	mov    (%rsp),%eax
/home/aliha951/ipdps-artifact/gapbs-master/src/taskstats_helper.h:103
	if (send(sd, &req, req.n.nlmsg_len, 0) < 0)
  404de7:	44 89 ef             	mov    %r13d,%edi
/home/aliha951/ipdps-artifact/gapbs-master/src/taskstats_helper.h:93
	req.g.cmd = TASKSTATS_CMD_GET;
  404dea:	66 89 54 24 10       	mov    %dx,0x10(%rsp)
/home/aliha951/ipdps-artifact/gapbs-master/src/taskstats_helper.h:101
	req.n.nlmsg_len += NLMSG_ALIGN(na->nla_len);
  404def:	8d 50 08             	lea    0x8(%rax),%edx
/home/aliha951/ipdps-artifact/gapbs-master/src/taskstats_helper.h:99
	na->nla_len = NLA_HDRLEN + sizeof(pid);
  404df2:	c7 44 24 14 08 00 02 	movl   $0x20008,0x14(%rsp)
  404df9:	00 
/usr/include/x86_64-linux-gnu/bits/string_fortified.h:34
  return __builtin___memcpy_chk (__dest, __src, __len, __bos0 (__dest));
  404dfa:	44 89 7c 24 18       	mov    %r15d,0x18(%rsp)
/home/aliha951/ipdps-artifact/gapbs-master/src/taskstats_helper.h:101
	req.n.nlmsg_len += NLMSG_ALIGN(na->nla_len);
  404dff:	89 14 24             	mov    %edx,(%rsp)
/home/aliha951/ipdps-artifact/gapbs-master/src/taskstats_helper.h:103
	if (send(sd, &req, req.n.nlmsg_len, 0) < 0)
  404e02:	e8 a9 e9 ff ff       	callq  4037b0 <send@plt>
  404e07:	48 85 c0             	test   %rax,%rax
  404e0a:	0f 88 18 01 00 00    	js     404f28 <_ZL21request_taskstats_pidiiiP9taskstatsPm+0x208>
/usr/include/x86_64-linux-gnu/bits/socket2.h:44
  404e10:	31 c9                	xor    %ecx,%ecx
recv():
/usr/include/x86_64-linux-gnu/bits/socket2.h:44
  404e12:	ba 14 02 00 00       	mov    $0x214,%edx
  404e17:	4c 89 f6             	mov    %r14,%rsi
  404e1a:	44 89 ef             	mov    %r13d,%edi
  404e1d:	e8 2e e9 ff ff       	callq  403750 <recv@plt>
_ZL21request_taskstats_pidiiiP9taskstatsPm():
/home/aliha951/ipdps-artifact/gapbs-master/src/taskstats_helper.h:105
		return -1;
	if (recv(sd, &rep, sizeof(rep), 0) < 0)
  404e22:	48 85 c0             	test   %rax,%rax
  404e25:	0f 88 fd 00 00 00    	js     404f28 <_ZL21request_taskstats_pidiiiP9taskstatsPm+0x208>
/home/aliha951/ipdps-artifact/gapbs-master/src/taskstats_helper.h:109
		return -1;

	na = (struct nlattr *) GENLMSG_DATA(&rep.n);
	int rem = rep.n.nlmsg_len - NLMSG_LENGTH(GENL_HDRLEN);
  404e2b:	8b 84 24 20 02 00 00 	mov    0x220(%rsp),%eax
  404e32:	8d 70 ec             	lea    -0x14(%rax),%esi
/home/aliha951/ipdps-artifact/gapbs-master/src/taskstats_helper.h:110
	while (rem > 0 && na->nla_len >= NLA_HDRLEN && rem >= na->nla_len) {
  404e35:	85 f6                	test   %esi,%esi
  404e37:	0f 8e eb 00 00 00    	jle    404f28 <_ZL21request_taskstats_pidiiiP9taskstatsPm+0x208>
/home/aliha951/ipdps-artifact/gapbs-master/src/taskstats_helper.h:108
	na = (struct nlattr *) GENLMSG_DATA(&rep.n);
  404e3d:	48 8d 8c 24 34 02 00 	lea    0x234(%rsp),%rcx
  404e44:	00 
  404e45:	eb 29                	jmp    404e70 <_ZL21request_taskstats_pidiiiP9taskstatsPm+0x150>
  404e47:	66 0f 1f 84 00 00 00 	nopw   0x0(%rax,%rax,1)
  404e4e:	00 00 
/home/aliha951/ipdps-artifact/gapbs-master/src/taskstats_helper.h:126
				}
				int step2 = NLA_ALIGN(n2->nla_len);
				aggr_len -= step2;
				n2 = (struct nlattr *) ((char*)n2 + step2);
			}
		} else if (na->nla_type == TASKSTATS_TYPE_STATS) {
  404e50:	66 83 f8 03          	cmp    $0x3,%ax
  404e54:	0f 84 26 01 00 00    	je     404f80 <_ZL21request_taskstats_pidiiiP9taskstatsPm+0x260>
/home/aliha951/ipdps-artifact/gapbs-master/src/taskstats_helper.h:133
			if (payload > sizeof(*out_ts)) payload = sizeof(*out_ts);
			memcpy(out_ts, NLA_DATA(na), payload);
			*out_len = payload;
			return 0;
		}
		int step = NLA_ALIGN(na->nla_len);
  404e5a:	83 c2 03             	add    $0x3,%edx
  404e5d:	83 e2 fc             	and    $0xfffffffc,%edx
/home/aliha951/ipdps-artifact/gapbs-master/src/taskstats_helper.h:134
		rem -= step;
  404e60:	29 d6                	sub    %edx,%esi
/home/aliha951/ipdps-artifact/gapbs-master/src/taskstats_helper.h:135
		na = (struct nlattr *) ((char*)na + step);
  404e62:	48 63 d2             	movslq %edx,%rdx
  404e65:	48 01 d1             	add    %rdx,%rcx
/home/aliha951/ipdps-artifact/gapbs-master/src/taskstats_helper.h:110
	while (rem > 0 && na->nla_len >= NLA_HDRLEN && rem >= na->nla_len) {
  404e68:	85 f6                	test   %esi,%esi
  404e6a:	0f 8e b8 00 00 00    	jle    404f28 <_ZL21request_taskstats_pidiiiP9taskstatsPm+0x208>
/home/aliha951/ipdps-artifact/gapbs-master/src/taskstats_helper.h:110 (discriminator 1)
  404e70:	0f b7 11             	movzwl (%rcx),%edx
  404e73:	66 83 fa 03          	cmp    $0x3,%dx
  404e77:	0f 86 ab 00 00 00    	jbe    404f28 <_ZL21request_taskstats_pidiiiP9taskstatsPm+0x208>
/home/aliha951/ipdps-artifact/gapbs-master/src/taskstats_helper.h:110 (discriminator 2)
  404e7d:	39 f2                	cmp    %esi,%edx
  404e7f:	0f 8f a3 00 00 00    	jg     404f28 <_ZL21request_taskstats_pidiiiP9taskstatsPm+0x208>
/home/aliha951/ipdps-artifact/gapbs-master/src/taskstats_helper.h:111
		if (na->nla_type == TASKSTATS_TYPE_AGGR_PID || na->nla_type == TASKSTATS_TYPE_AGGR_TGID) {
  404e85:	0f b7 41 02          	movzwl 0x2(%rcx),%eax
  404e89:	8d 78 fc             	lea    -0x4(%rax),%edi
  404e8c:	66 83 ff 01          	cmp    $0x1,%di
  404e90:	77 be                	ja     404e50 <_ZL21request_taskstats_pidiiiP9taskstatsPm+0x130>
/home/aliha951/ipdps-artifact/gapbs-master/src/taskstats_helper.h:114
			while (aggr_len > 0 && n2->nla_len >= NLA_HDRLEN && aggr_len >= n2->nla_len) {
  404e92:	41 89 d0             	mov    %edx,%r8d
/home/aliha951/ipdps-artifact/gapbs-master/src/taskstats_helper.h:113
			struct nlattr *n2 = (struct nlattr *) NLA_DATA(na);
  404e95:	48 8d 79 04          	lea    0x4(%rcx),%rdi
/home/aliha951/ipdps-artifact/gapbs-master/src/taskstats_helper.h:114
			while (aggr_len > 0 && n2->nla_len >= NLA_HDRLEN && aggr_len >= n2->nla_len) {
  404e99:	41 83 e8 04          	sub    $0x4,%r8d
  404e9d:	75 1c                	jne    404ebb <_ZL21request_taskstats_pidiiiP9taskstatsPm+0x19b>
  404e9f:	eb b9                	jmp    404e5a <_ZL21request_taskstats_pidiiiP9taskstatsPm+0x13a>
  404ea1:	0f 1f 80 00 00 00 00 	nopl   0x0(%rax)
/home/aliha951/ipdps-artifact/gapbs-master/src/taskstats_helper.h:122
				int step2 = NLA_ALIGN(n2->nla_len);
  404ea8:	83 c0 03             	add    $0x3,%eax
  404eab:	83 e0 fc             	and    $0xfffffffc,%eax
/home/aliha951/ipdps-artifact/gapbs-master/src/taskstats_helper.h:123
				aggr_len -= step2;
  404eae:	41 29 c0             	sub    %eax,%r8d
/home/aliha951/ipdps-artifact/gapbs-master/src/taskstats_helper.h:124
				n2 = (struct nlattr *) ((char*)n2 + step2);
  404eb1:	48 98                	cltq   
  404eb3:	48 01 c7             	add    %rax,%rdi
/home/aliha951/ipdps-artifact/gapbs-master/src/taskstats_helper.h:114
			while (aggr_len > 0 && n2->nla_len >= NLA_HDRLEN && aggr_len >= n2->nla_len) {
  404eb6:	45 85 c0             	test   %r8d,%r8d
  404eb9:	7e 9f                	jle    404e5a <_ZL21request_taskstats_pidiiiP9taskstatsPm+0x13a>
/home/aliha951/ipdps-artifact/gapbs-master/src/taskstats_helper.h:114 (discriminator 1)
  404ebb:	0f b7 07             	movzwl (%rdi),%eax
  404ebe:	66 83 f8 03          	cmp    $0x3,%ax
  404ec2:	76 96                	jbe    404e5a <_ZL21request_taskstats_pidiiiP9taskstatsPm+0x13a>
/home/aliha951/ipdps-artifact/gapbs-master/src/taskstats_helper.h:114 (discriminator 2)
  404ec4:	44 39 c0             	cmp    %r8d,%eax
  404ec7:	7f 91                	jg     404e5a <_ZL21request_taskstats_pidiiiP9taskstatsPm+0x13a>
/home/aliha951/ipdps-artifact/gapbs-master/src/taskstats_helper.h:115
				if (n2->nla_type == TASKSTATS_TYPE_STATS) {
  404ec9:	66 83 7f 02 03       	cmpw   $0x3,0x2(%rdi)
  404ece:	75 d8                	jne    404ea8 <_ZL21request_taskstats_pidiiiP9taskstatsPm+0x188>
/home/aliha951/ipdps-artifact/gapbs-master/src/taskstats_helper.h:116
					size_t payload = n2->nla_len - NLA_HDRLEN;
  404ed0:	83 e8 04             	sub    $0x4,%eax
  404ed3:	ba b0 01 00 00       	mov    $0x1b0,%edx
/home/aliha951/ipdps-artifact/gapbs-master/src/taskstats_helper.h:118
					memcpy(out_ts, NLA_DATA(n2), payload);
  404ed8:	48 8d 77 04          	lea    0x4(%rdi),%rsi
/home/aliha951/ipdps-artifact/gapbs-master/src/taskstats_helper.h:116
					size_t payload = n2->nla_len - NLA_HDRLEN;
  404edc:	48 98                	cltq   
/home/aliha951/ipdps-artifact/gapbs-master/src/taskstats_helper.h:117
					if (payload > sizeof(*out_ts)) payload = sizeof(*out_ts);
  404ede:	48 3d b0 01 00 00    	cmp    $0x1b0,%rax
  404ee4:	48 0f 47 c2          	cmova  %rdx,%rax
/usr/include/x86_64-linux-gnu/bits/string_fortified.h:34
  404ee8:	83 f8 08             	cmp    $0x8,%eax
memcpy():
/usr/include/x86_64-linux-gnu/bits/string_fortified.h:34
  404eeb:	72 6b                	jb     404f58 <_ZL21request_taskstats_pidiiiP9taskstatsPm+0x238>
  404eed:	48 8b 57 04          	mov    0x4(%rdi),%rdx
_ZL21request_taskstats_pidiiiP9taskstatsPm():
/usr/include/x86_64-linux-gnu/bits/string_fortified.h:34
  404ef1:	49 89 14 24          	mov    %rdx,(%r12)
memcpy():
/usr/include/x86_64-linux-gnu/bits/string_fortified.h:34
  404ef5:	89 c2                	mov    %eax,%edx
  404ef7:	48 89 ef             	mov    %rbp,%rdi
  404efa:	48 8b 4c 16 f8       	mov    -0x8(%rsi,%rdx,1),%rcx
  404eff:	48 83 e7 f8          	and    $0xfffffffffffffff8,%rdi
  404f03:	49 89 4c 14 f8       	mov    %rcx,-0x8(%r12,%rdx,1)
  404f08:	49 29 fc             	sub    %rdi,%r12
  404f0b:	4c 29 e6             	sub    %r12,%rsi
  404f0e:	41 01 c4             	add    %eax,%r12d
  404f11:	41 c1 ec 03          	shr    $0x3,%r12d
  404f15:	44 89 e1             	mov    %r12d,%ecx
  404f18:	f3 48 a5             	rep movsq %ds:(%rsi),%es:(%rdi)
_ZL21request_taskstats_pidiiiP9taskstatsPm():
/home/aliha951/ipdps-artifact/gapbs-master/src/taskstats_helper.h:130
			*out_len = payload;
  404f1b:	48 89 03             	mov    %rax,(%rbx)
/home/aliha951/ipdps-artifact/gapbs-master/src/taskstats_helper.h:131
			return 0;
  404f1e:	31 c0                	xor    %eax,%eax
  404f20:	eb 0b                	jmp    404f2d <_ZL21request_taskstats_pidiiiP9taskstatsPm+0x20d>
  404f22:	66 0f 1f 44 00 00    	nopw   0x0(%rax,%rax,1)
/home/aliha951/ipdps-artifact/gapbs-master/src/taskstats_helper.h:104
		return -1;
  404f28:	b8 ff ff ff ff       	mov    $0xffffffff,%eax
/home/aliha951/ipdps-artifact/gapbs-master/src/taskstats_helper.h:138
	}
	return -1; /* Not found */
}
  404f2d:	48 8b 9c 24 38 04 00 	mov    0x438(%rsp),%rbx
  404f34:	00 
  404f35:	64 48 2b 1c 25 28 00 	sub    %fs:0x28,%rbx
  404f3c:	00 00 
  404f3e:	75 7c                	jne    404fbc <_ZL21request_taskstats_pidiiiP9taskstatsPm+0x29c>
  404f40:	48 81 c4 48 04 00 00 	add    $0x448,%rsp
  404f47:	5b                   	pop    %rbx
  404f48:	5d                   	pop    %rbp
  404f49:	41 5c                	pop    %r12
  404f4b:	41 5d                	pop    %r13
  404f4d:	41 5e                	pop    %r14
  404f4f:	41 5f                	pop    %r15
  404f51:	c3                   	retq   
  404f52:	66 0f 1f 44 00 00    	nopw   0x0(%rax,%rax,1)
memcpy():
/usr/include/x86_64-linux-gnu/bits/string_fortified.h:34
  404f58:	a8 04                	test   $0x4,%al
  404f5a:	75 4a                	jne    404fa6 <_ZL21request_taskstats_pidiiiP9taskstatsPm+0x286>
  404f5c:	85 c0                	test   %eax,%eax
  404f5e:	74 bb                	je     404f1b <_ZL21request_taskstats_pidiiiP9taskstatsPm+0x1fb>
  404f60:	0f b6 16             	movzbl (%rsi),%edx
  404f63:	41 88 14 24          	mov    %dl,(%r12)
  404f67:	a8 02                	test   $0x2,%al
  404f69:	74 b0                	je     404f1b <_ZL21request_taskstats_pidiiiP9taskstatsPm+0x1fb>
  404f6b:	89 c2                	mov    %eax,%edx
  404f6d:	0f b7 4c 16 fe       	movzwl -0x2(%rsi,%rdx,1),%ecx
  404f72:	66 41 89 4c 14 fe    	mov    %cx,-0x2(%r12,%rdx,1)
  404f78:	eb a1                	jmp    404f1b <_ZL21request_taskstats_pidiiiP9taskstatsPm+0x1fb>
  404f7a:	66 0f 1f 44 00 00    	nopw   0x0(%rax,%rax,1)
_ZL21request_taskstats_pidiiiP9taskstatsPm():
/home/aliha951/ipdps-artifact/gapbs-master/src/taskstats_helper.h:127
			size_t payload = na->nla_len - NLA_HDRLEN;
  404f80:	8d 42 fc             	lea    -0x4(%rdx),%eax
  404f83:	ba b0 01 00 00       	mov    $0x1b0,%edx
/home/aliha951/ipdps-artifact/gapbs-master/src/taskstats_helper.h:129
			memcpy(out_ts, NLA_DATA(na), payload);
  404f88:	48 8d 71 04          	lea    0x4(%rcx),%rsi
/home/aliha951/ipdps-artifact/gapbs-master/src/taskstats_helper.h:127
			size_t payload = na->nla_len - NLA_HDRLEN;
  404f8c:	48 98                	cltq   
/home/aliha951/ipdps-artifact/gapbs-master/src/taskstats_helper.h:128
			if (payload > sizeof(*out_ts)) payload = sizeof(*out_ts);
  404f8e:	48 3d b0 01 00 00    	cmp    $0x1b0,%rax
  404f94:	48 0f 47 c2          	cmova  %rdx,%rax
memcpy():
/usr/include/x86_64-linux-gnu/bits/string_fortified.h:34
  404f98:	83 f8 08             	cmp    $0x8,%eax
  404f9b:	72 bb                	jb     404f58 <_ZL21request_taskstats_pidiiiP9taskstatsPm+0x238>
  404f9d:	48 8b 51 04          	mov    0x4(%rcx),%rdx
  404fa1:	e9 4b ff ff ff       	jmpq   404ef1 <_ZL21request_taskstats_pidiiiP9taskstatsPm+0x1d1>
  404fa6:	8b 16                	mov    (%rsi),%edx
  404fa8:	41 89 14 24          	mov    %edx,(%r12)
  404fac:	89 c2                	mov    %eax,%edx
  404fae:	8b 4c 16 fc          	mov    -0x4(%rsi,%rdx,1),%ecx
  404fb2:	41 89 4c 14 fc       	mov    %ecx,-0x4(%r12,%rdx,1)
  404fb7:	e9 5f ff ff ff       	jmpq   404f1b <_ZL21request_taskstats_pidiiiP9taskstatsPm+0x1fb>
_ZL21request_taskstats_pidiiiP9taskstatsPm():
/home/aliha951/ipdps-artifact/gapbs-master/src/taskstats_helper.h:138
}
  404fbc:	e8 7f e9 ff ff       	callq  403940 <__stack_chk_fail@plt>
  404fc1:	66 66 2e 0f 1f 84 00 	data16 nopw %cs:0x0(%rax,%rax,1)
  404fc8:	00 00 00 00 
  404fcc:	0f 1f 40 00          	nopl   0x0(%rax)

0000000000404fd0 <_Z6BUStepRK8CSRGraphIiiLb1EER7pvectorIiER6BitmapS7_._omp_fn.0>:
_Z6BUStepRK8CSRGraphIiiLb1EER7pvectorIiER6BitmapS7_._omp_fn.0():
/home/aliha951/ipdps-artifact/gapbs-master/src/bfs.cc:50
  #pragma omp parallel for reduction(+ : awake_count) schedule(dynamic, 1024)
  404fd0:	f3 0f 1e fa          	endbr64 
  404fd4:	41 57                	push   %r15
  404fd6:	b9 00 04 00 00       	mov    $0x400,%ecx
  404fdb:	ba 01 00 00 00       	mov    $0x1,%edx
  404fe0:	41 56                	push   %r14
  404fe2:	41 55                	push   %r13
  404fe4:	41 54                	push   %r12
  404fe6:	55                   	push   %rbp
  404fe7:	31 ed                	xor    %ebp,%ebp
  404fe9:	53                   	push   %rbx
  404fea:	48 89 fb             	mov    %rdi,%rbx
  404fed:	48 83 ec 48          	sub    $0x48,%rsp
  404ff1:	64 48 8b 04 25 28 00 	mov    %fs:0x28,%rax
  404ff8:	00 00 
  404ffa:	48 89 44 24 38       	mov    %rax,0x38(%rsp)
  404fff:	31 c0                	xor    %eax,%eax
_ZNK8CSRGraphIiiLb1EE9num_nodesEv():
/home/aliha951/ipdps-artifact/gapbs-master/src/graph.h:194
    return num_nodes_;
  405001:	48 8b 07             	mov    (%rdi),%rax
  405004:	4c 8d 74 24 30       	lea    0x30(%rsp),%r14
  405009:	4c 8d 44 24 28       	lea    0x28(%rsp),%r8
  40500e:	4d 89 f1             	mov    %r14,%r9
  405011:	31 ff                	xor    %edi,%edi
  405013:	4c 89 44 24 08       	mov    %r8,0x8(%rsp)
  405018:	48 63 70 08          	movslq 0x8(%rax),%rsi
  40501c:	e8 cf e7 ff ff       	callq  4037f0 <GOMP_loop_nonmonotonic_dynamic_start@plt>
  405021:	84 c0                	test   %al,%al
  405023:	0f 84 e3 00 00 00    	je     40510c <_Z6BUStepRK8CSRGraphIiiLb1EER7pvectorIiER6BitmapS7_._omp_fn.0+0x13c>
_Z6BUStepRK8CSRGraphIiiLb1EER7pvectorIiER6BitmapS7_._omp_fn.0():
/home/aliha951/ipdps-artifact/gapbs-master/src/bfs.cc:50
  405029:	48 c7 44 24 18 00 00 	movq   $0x0,0x18(%rsp)
  405030:	00 00 
_ZN6Bitmap7set_bitEm():
/home/aliha951/ipdps-artifact/gapbs-master/src/bitmap.h:40
  void reset() {
    std::fill(start_, end_, 0);
  }

  void set_bit(size_t pos) {
    start_[word_offset(pos)] |= ((uint64_t) 1l << bit_offset(pos));
  405032:	4c 89 74 24 10       	mov    %r14,0x10(%rsp)
  405037:	66 0f 1f 84 00 00 00 	nopw   0x0(%rax,%rax,1)
  40503e:	00 00 
  405040:	4c 63 44 24 28       	movslq 0x28(%rsp),%r8
_ZN7pvectorIiEixEm():
/home/aliha951/ipdps-artifact/gapbs-master/src/pvector.h:116
    reserve(num_elements);
    end_size_ = start_ + num_elements;
  }

  T_& operator[](size_t n) {
    return start_[n];
  405045:	48 8b 43 08          	mov    0x8(%rbx),%rax
  405049:	44 8b 64 24 30       	mov    0x30(%rsp),%r12d
_Z6BUStepRK8CSRGraphIiiLb1EER7pvectorIiER6BitmapS7_._omp_fn.0():
/home/aliha951/ipdps-artifact/gapbs-master/src/bfs.cc:53
      for (NodeID v : g.in_neigh(u)) {
  40504e:	4c 8b 2b             	mov    (%rbx),%r13
  405051:	49 8d 78 01          	lea    0x1(%r8),%rdi
_ZN7pvectorIiEixEm():
/home/aliha951/ipdps-artifact/gapbs-master/src/pvector.h:116
  405055:	48 8b 28             	mov    (%rax),%rbp
_Z6BUStepRK8CSRGraphIiiLb1EER7pvectorIiER6BitmapS7_._omp_fn.0():
/home/aliha951/ipdps-artifact/gapbs-master/src/bfs.cc:54
        if (front.get_bit(v)) {
  405058:	4c 8b 73 10          	mov    0x10(%rbx),%r14
/home/aliha951/ipdps-artifact/gapbs-master/src/bfs.cc:57
          next.set_bit(u);
  40505c:	4c 8b 7b 18          	mov    0x18(%rbx),%r15
  405060:	4c 8d 0c fd 00 00 00 	lea    0x0(,%rdi,8),%r9
  405067:	00 
  405068:	eb 16                	jmp    405080 <_Z6BUStepRK8CSRGraphIiiLb1EER7pvectorIiER6BitmapS7_._omp_fn.0+0xb0>
  40506a:	66 0f 1f 44 00 00    	nopw   0x0(%rax,%rax,1)
  405070:	49 89 f8             	mov    %rdi,%r8
  405073:	49 83 c1 08          	add    $0x8,%r9
  405077:	41 39 fc             	cmp    %edi,%r12d
  40507a:	7e 74                	jle    4050f0 <_Z6BUStepRK8CSRGraphIiiLb1EER7pvectorIiER6BitmapS7_._omp_fn.0+0x120>
  40507c:	48 83 c7 01          	add    $0x1,%rdi
/home/aliha951/ipdps-artifact/gapbs-master/src/bfs.cc:52 (discriminator 1)
    if (parent[u] < 0) {
  405080:	42 8b 44 85 00       	mov    0x0(%rbp,%r8,4),%eax
  405085:	44 89 c1             	mov    %r8d,%ecx
  405088:	85 c0                	test   %eax,%eax
  40508a:	79 e4                	jns    405070 <_Z6BUStepRK8CSRGraphIiiLb1EER7pvectorIiER6BitmapS7_._omp_fn.0+0xa0>
_ZNK8CSRGraphIiiLb1EE8in_neighEim():
/home/aliha951/ipdps-artifact/gapbs-master/src/graph.h:220
    return Neighborhood(n, out_index_, start_offset);
  }

  Neighborhood in_neigh(NodeID_ n, OffsetT start_offset = 0) const {
    static_assert(MakeInverse, "Graph inversion disabled but reading inverse");
    return Neighborhood(n, in_index_, start_offset);
  40508c:	49 8b 45 28          	mov    0x28(%r13),%rax
_ZN8CSRGraphIiiLb1EE12Neighborhood3endEv():
/home/aliha951/ipdps-artifact/gapbs-master/src/graph.h:116
    iterator end()   { return g_index_[n_+1]; }
  405090:	4e 8b 14 08          	mov    (%rax,%r9,1),%r10
_ZN8CSRGraphIiiLb1EE12Neighborhood5beginEv():
/home/aliha951/ipdps-artifact/gapbs-master/src/graph.h:115
    iterator begin() { return g_index_[n_] + start_offset_; }
  405094:	4a 8b 04 c0          	mov    (%rax,%r8,8),%rax
_Z6BUStepRK8CSRGraphIiiLb1EER7pvectorIiER6BitmapS7_._omp_fn.0():
/home/aliha951/ipdps-artifact/gapbs-master/src/bfs.cc:53
      for (NodeID v : g.in_neigh(u)) {
  405098:	49 39 c2             	cmp    %rax,%r10
  40509b:	74 d3                	je     405070 <_Z6BUStepRK8CSRGraphIiiLb1EER7pvectorIiER6BitmapS7_._omp_fn.0+0xa0>
_ZNK6Bitmap7get_bitEm():
/home/aliha951/ipdps-artifact/gapbs-master/src/bitmap.h:52
      new_val = old_val | ((uint64_t) 1l << bit_offset(pos));
    } while (!compare_and_swap(start_[word_offset(pos)], old_val, new_val));
  }

  bool get_bit(size_t pos) const {
    return (start_[word_offset(pos)] >> bit_offset(pos)) & 1l;
  40509d:	4d 8b 1e             	mov    (%r14),%r11
  4050a0:	eb 0f                	jmp    4050b1 <_Z6BUStepRK8CSRGraphIiiLb1EER7pvectorIiER6BitmapS7_._omp_fn.0+0xe1>
  4050a2:	66 0f 1f 44 00 00    	nopw   0x0(%rax,%rax,1)
_Z6BUStepRK8CSRGraphIiiLb1EER7pvectorIiER6BitmapS7_._omp_fn.0():
/home/aliha951/ipdps-artifact/gapbs-master/src/bfs.cc:53 (discriminator 3)
  4050a8:	48 83 c0 04          	add    $0x4,%rax
  4050ac:	49 39 c2             	cmp    %rax,%r10
  4050af:	74 bf                	je     405070 <_Z6BUStepRK8CSRGraphIiiLb1EER7pvectorIiER6BitmapS7_._omp_fn.0+0xa0>
/home/aliha951/ipdps-artifact/gapbs-master/src/bfs.cc:53 (discriminator 2)
  4050b1:	48 63 10             	movslq (%rax),%rdx
  4050b4:	48 89 d6             	mov    %rdx,%rsi
_ZN6Bitmap11word_offsetEm():
/home/aliha951/ipdps-artifact/gapbs-master/src/bitmap.h:65 (discriminator 2)
 private:
  uint64_t *start_;
  uint64_t *end_;

  static const uint64_t kBitsPerWord = 64;
  static uint64_t word_offset(size_t n) { return n / kBitsPerWord; }
  4050b7:	48 c1 ea 06          	shr    $0x6,%rdx
_ZNK6Bitmap7get_bitEm():
/home/aliha951/ipdps-artifact/gapbs-master/src/bitmap.h:52 (discriminator 2)
    return (start_[word_offset(pos)] >> bit_offset(pos)) & 1l;
  4050bb:	49 8b 14 d3          	mov    (%r11,%rdx,8),%rdx
_Z6BUStepRK8CSRGraphIiiLb1EER7pvectorIiER6BitmapS7_._omp_fn.0():
/home/aliha951/ipdps-artifact/gapbs-master/src/bfs.cc:54 (discriminator 2)
        if (front.get_bit(v)) {
  4050bf:	48 0f a3 f2          	bt     %rsi,%rdx
  4050c3:	73 e3                	jae    4050a8 <_Z6BUStepRK8CSRGraphIiiLb1EER7pvectorIiER6BitmapS7_._omp_fn.0+0xd8>
_ZN6Bitmap7set_bitEm():
/home/aliha951/ipdps-artifact/gapbs-master/src/bitmap.h:40
    start_[word_offset(pos)] |= ((uint64_t) 1l << bit_offset(pos));
  4050c5:	49 8b 07             	mov    (%r15),%rax
_Z6BUStepRK8CSRGraphIiiLb1EER7pvectorIiER6BitmapS7_._omp_fn.0():
/home/aliha951/ipdps-artifact/gapbs-master/src/bfs.cc:55
          parent[u] = v;
  4050c8:	42 89 74 85 00       	mov    %esi,0x0(%rbp,%r8,4)
_ZN6Bitmap7set_bitEm():
/home/aliha951/ipdps-artifact/gapbs-master/src/bitmap.h:40
  4050cd:	ba 01 00 00 00       	mov    $0x1,%edx
_ZN6Bitmap11word_offsetEm():
/home/aliha951/ipdps-artifact/gapbs-master/src/bitmap.h:65
  static uint64_t word_offset(size_t n) { return n / kBitsPerWord; }
  4050d2:	49 c1 e8 06          	shr    $0x6,%r8
_ZN6Bitmap7set_bitEm():
/home/aliha951/ipdps-artifact/gapbs-master/src/bitmap.h:40
    start_[word_offset(pos)] |= ((uint64_t) 1l << bit_offset(pos));
  4050d6:	48 d3 e2             	shl    %cl,%rdx
_Z6BUStepRK8CSRGraphIiiLb1EER7pvectorIiER6BitmapS7_._omp_fn.0():
/home/aliha951/ipdps-artifact/gapbs-master/src/bfs.cc:56
          awake_count++;
  4050d9:	48 83 44 24 18 01    	addq   $0x1,0x18(%rsp)
  4050df:	49 83 c1 08          	add    $0x8,%r9
_ZN6Bitmap7set_bitEm():
/home/aliha951/ipdps-artifact/gapbs-master/src/bitmap.h:40
  4050e3:	4a 09 14 c0          	or     %rdx,(%rax,%r8,8)
  4050e7:	49 89 f8             	mov    %rdi,%r8
  4050ea:	41 39 fc             	cmp    %edi,%r12d
  4050ed:	7f 8d                	jg     40507c <_Z6BUStepRK8CSRGraphIiiLb1EER7pvectorIiER6BitmapS7_._omp_fn.0+0xac>
  4050ef:	90                   	nop
  4050f0:	48 8b 74 24 10       	mov    0x10(%rsp),%rsi
  4050f5:	48 8b 7c 24 08       	mov    0x8(%rsp),%rdi
  4050fa:	e8 31 e8 ff ff       	callq  403930 <GOMP_loop_nonmonotonic_dynamic_next@plt>
  4050ff:	84 c0                	test   %al,%al
  405101:	0f 85 39 ff ff ff    	jne    405040 <_Z6BUStepRK8CSRGraphIiiLb1EER7pvectorIiER6BitmapS7_._omp_fn.0+0x70>
_Z6BUStepRK8CSRGraphIiiLb1EER7pvectorIiER6BitmapS7_._omp_fn.0():
/home/aliha951/ipdps-artifact/gapbs-master/src/bfs.cc:50
  #pragma omp parallel for reduction(+ : awake_count) schedule(dynamic, 1024)
  405107:	48 8b 6c 24 18       	mov    0x18(%rsp),%rbp
  40510c:	e8 3f e5 ff ff       	callq  403650 <GOMP_loop_end_nowait@plt>
/home/aliha951/ipdps-artifact/gapbs-master/src/bfs.cc:50 (discriminator 2)
  405111:	f0 48 01 6b 20       	lock add %rbp,0x20(%rbx)
  405116:	48 8b 44 24 38       	mov    0x38(%rsp),%rax
  40511b:	64 48 2b 04 25 28 00 	sub    %fs:0x28,%rax
  405122:	00 00 
  405124:	75 0f                	jne    405135 <_Z6BUStepRK8CSRGraphIiiLb1EER7pvectorIiER6BitmapS7_._omp_fn.0+0x165>
/home/aliha951/ipdps-artifact/gapbs-master/src/bfs.cc:50
  405126:	48 83 c4 48          	add    $0x48,%rsp
  40512a:	5b                   	pop    %rbx
  40512b:	5d                   	pop    %rbp
  40512c:	41 5c                	pop    %r12
  40512e:	41 5d                	pop    %r13
  405130:	41 5e                	pop    %r14
  405132:	41 5f                	pop    %r15
  405134:	c3                   	retq   
  405135:	e8 06 e8 ff ff       	callq  403940 <__stack_chk_fail@plt>
  40513a:	66 0f 1f 44 00 00    	nopw   0x0(%rax,%rax,1)

0000000000405140 <_Z13QueueToBitmapRK12SlidingQueueIiER6Bitmap._omp_fn.0>:
_Z13QueueToBitmapRK12SlidingQueueIiER6Bitmap._omp_fn.0():
/home/aliha951/ipdps-artifact/gapbs-master/src/bfs.cc:93
  #pragma omp parallel for
  405140:	f3 0f 1e fa          	endbr64 
  405144:	41 55                	push   %r13
  405146:	41 54                	push   %r12
  405148:	55                   	push   %rbp
  405149:	53                   	push   %rbx
  40514a:	48 83 ec 08          	sub    $0x8,%rsp
/home/aliha951/ipdps-artifact/gapbs-master/src/bfs.cc:94
  for (auto q_iter = queue.begin(); q_iter < queue.end(); q_iter++) {
  40514e:	48 8b 07             	mov    (%rdi),%rax
_ZNK12SlidingQueueIiE5beginEv():
/home/aliha951/ipdps-artifact/gapbs-master/src/sliding_queue.h:66
  }

  typedef T* iterator;

  iterator begin() const {
    return shared + shared_out_start;
  405151:	48 8b 10             	mov    (%rax),%rdx
  405154:	48 8b 48 10          	mov    0x10(%rax),%rcx
_ZNK12SlidingQueueIiE3endEv():
/home/aliha951/ipdps-artifact/gapbs-master/src/sliding_queue.h:70
  }

  iterator end() const {
    return shared + shared_out_end;
  405158:	48 8b 40 18          	mov    0x18(%rax),%rax
_ZNK12SlidingQueueIiE5beginEv():
/home/aliha951/ipdps-artifact/gapbs-master/src/sliding_queue.h:66
    return shared + shared_out_start;
  40515c:	4c 8d 24 8a          	lea    (%rdx,%rcx,4),%r12
_ZNK12SlidingQueueIiE3endEv():
/home/aliha951/ipdps-artifact/gapbs-master/src/sliding_queue.h:70
    return shared + shared_out_end;
  405160:	4c 8d 2c 82          	lea    (%rdx,%rax,4),%r13
  405164:	4d 39 e5             	cmp    %r12,%r13
  405167:	0f 86 8a 00 00 00    	jbe    4051f7 <_Z13QueueToBitmapRK12SlidingQueueIiER6Bitmap._omp_fn.0+0xb7>
  40516d:	48 89 fb             	mov    %rdi,%rbx
  405170:	e8 1b e9 ff ff       	callq  403a90 <omp_get_num_threads@plt>
  405175:	48 63 e8             	movslq %eax,%rbp
  405178:	e8 f3 e7 ff ff       	callq  403970 <omp_get_thread_num@plt>
  40517d:	48 63 c8             	movslq %eax,%rcx
  405180:	49 8d 45 03          	lea    0x3(%r13),%rax
  405184:	4c 29 e0             	sub    %r12,%rax
  405187:	48 89 c2             	mov    %rax,%rdx
  40518a:	48 8d 40 03          	lea    0x3(%rax),%rax
  40518e:	48 0f 49 c2          	cmovns %rdx,%rax
  405192:	48 c1 f8 02          	sar    $0x2,%rax
  405196:	48 99                	cqto   
  405198:	48 f7 fd             	idiv   %rbp
  40519b:	48 39 d1             	cmp    %rdx,%rcx
  40519e:	7c 68                	jl     405208 <_Z13QueueToBitmapRK12SlidingQueueIiER6Bitmap._omp_fn.0+0xc8>
  4051a0:	48 0f af c8          	imul   %rax,%rcx
  4051a4:	48 01 ca             	add    %rcx,%rdx
  4051a7:	48 01 d0             	add    %rdx,%rax
  4051aa:	48 39 c2             	cmp    %rax,%rdx
  4051ad:	7d 48                	jge    4051f7 <_Z13QueueToBitmapRK12SlidingQueueIiER6Bitmap._omp_fn.0+0xb7>
  4051af:	49 8d 34 94          	lea    (%r12,%rdx,4),%rsi
  4051b3:	4d 8d 14 84          	lea    (%r12,%rax,4),%r10
_ZN6Bitmap14set_bit_atomicEm():
/home/aliha951/ipdps-artifact/gapbs-master/src/bitmap.h:47
      new_val = old_val | ((uint64_t) 1l << bit_offset(pos));
  4051b7:	41 b9 01 00 00 00    	mov    $0x1,%r9d
  4051bd:	0f 1f 00             	nopl   (%rax)
_Z13QueueToBitmapRK12SlidingQueueIiER6Bitmap._omp_fn.0():
/home/aliha951/ipdps-artifact/gapbs-master/src/bfs.cc:95 (discriminator 1)
    NodeID u = *q_iter;
  4051c0:	48 63 16             	movslq (%rsi),%rdx
_ZN6Bitmap14set_bit_atomicEm():
/home/aliha951/ipdps-artifact/gapbs-master/src/bitmap.h:47 (discriminator 1)
  4051c3:	4d 89 cb             	mov    %r9,%r11
_Z13QueueToBitmapRK12SlidingQueueIiER6Bitmap._omp_fn.0():
/home/aliha951/ipdps-artifact/gapbs-master/src/bfs.cc:96 (discriminator 1)
    bm.set_bit_atomic(u);
  4051c6:	4c 8b 43 08          	mov    0x8(%rbx),%r8
/home/aliha951/ipdps-artifact/gapbs-master/src/bfs.cc:95 (discriminator 1)
    NodeID u = *q_iter;
  4051ca:	48 89 d1             	mov    %rdx,%rcx
_ZN6Bitmap11word_offsetEm():
/home/aliha951/ipdps-artifact/gapbs-master/src/bitmap.h:65 (discriminator 1)
  static uint64_t word_offset(size_t n) { return n / kBitsPerWord; }
  4051cd:	48 c1 ea 06          	shr    $0x6,%rdx
_ZN6Bitmap14set_bit_atomicEm():
/home/aliha951/ipdps-artifact/gapbs-master/src/bitmap.h:46 (discriminator 1)
      old_val = start_[word_offset(pos)];
  4051d1:	48 c1 e2 03          	shl    $0x3,%rdx
/home/aliha951/ipdps-artifact/gapbs-master/src/bitmap.h:47 (discriminator 1)
      new_val = old_val | ((uint64_t) 1l << bit_offset(pos));
  4051d5:	49 d3 e3             	shl    %cl,%r11
/home/aliha951/ipdps-artifact/gapbs-master/src/bitmap.h:46
      old_val = start_[word_offset(pos)];
  4051d8:	49 8b 08             	mov    (%r8),%rcx
  4051db:	48 01 d1             	add    %rdx,%rcx
  4051de:	48 8b 01             	mov    (%rcx),%rax
/home/aliha951/ipdps-artifact/gapbs-master/src/bitmap.h:47
      new_val = old_val | ((uint64_t) 1l << bit_offset(pos));
  4051e1:	48 89 c7             	mov    %rax,%rdi
  4051e4:	4c 09 df             	or     %r11,%rdi
_Z16compare_and_swapImEbRT_RKS0_S3_():
/home/aliha951/ipdps-artifact/gapbs-master/src/platform_atomics.h:31
      return __sync_fetch_and_add(&x, inc);
    }

    template<typename T>
    bool compare_and_swap(T &x, const T &old_val, const T &new_val) {
      return __sync_bool_compare_and_swap(&x, old_val, new_val);
  4051e7:	f0 48 0f b1 39       	lock cmpxchg %rdi,(%rcx)
_ZN6Bitmap14set_bit_atomicEm():
/home/aliha951/ipdps-artifact/gapbs-master/src/bitmap.h:48
    } while (!compare_and_swap(start_[word_offset(pos)], old_val, new_val));
  4051ec:	75 ea                	jne    4051d8 <_Z13QueueToBitmapRK12SlidingQueueIiER6Bitmap._omp_fn.0+0x98>
  4051ee:	48 83 c6 04          	add    $0x4,%rsi
  4051f2:	49 39 f2             	cmp    %rsi,%r10
  4051f5:	77 c9                	ja     4051c0 <_Z13QueueToBitmapRK12SlidingQueueIiER6Bitmap._omp_fn.0+0x80>
_Z13QueueToBitmapRK12SlidingQueueIiER6Bitmap._omp_fn.0():
/home/aliha951/ipdps-artifact/gapbs-master/src/bfs.cc:93
  #pragma omp parallel for
  4051f7:	48 83 c4 08          	add    $0x8,%rsp
  4051fb:	5b                   	pop    %rbx
  4051fc:	5d                   	pop    %rbp
  4051fd:	41 5c                	pop    %r12
  4051ff:	41 5d                	pop    %r13
  405201:	c3                   	retq   
  405202:	66 0f 1f 44 00 00    	nopw   0x0(%rax,%rax,1)
  405208:	48 83 c0 01          	add    $0x1,%rax
_ZNK12SlidingQueueIiE3endEv():
/home/aliha951/ipdps-artifact/gapbs-master/src/sliding_queue.h:70
  40520c:	31 d2                	xor    %edx,%edx
  40520e:	eb 90                	jmp    4051a0 <_Z13QueueToBitmapRK12SlidingQueueIiER6Bitmap._omp_fn.0+0x60>

0000000000405210 <_Z10InitParentRK8CSRGraphIiiLb1EE._omp_fn.0>:
_Z10InitParentRK8CSRGraphIiiLb1EE._omp_fn.0():
/home/aliha951/ipdps-artifact/gapbs-master/src/bfs.cc:116
  #pragma omp parallel for
  405210:	f3 0f 1e fa          	endbr64 
  405214:	41 54                	push   %r12
  405216:	55                   	push   %rbp
  405217:	48 89 fd             	mov    %rdi,%rbp
  40521a:	53                   	push   %rbx
/home/aliha951/ipdps-artifact/gapbs-master/src/bfs.cc:117
  for (NodeID n=0; n < g.num_nodes(); n++)
  40521b:	4c 8b 27             	mov    (%rdi),%r12
_ZNK8CSRGraphIiiLb1EE9num_nodesEv():
/home/aliha951/ipdps-artifact/gapbs-master/src/graph.h:193
  int64_t num_nodes() const {
  40521e:	e8 6d e8 ff ff       	callq  403a90 <omp_get_num_threads@plt>
  405223:	89 c3                	mov    %eax,%ebx
  405225:	e8 46 e7 ff ff       	callq  403970 <omp_get_thread_num@plt>
  40522a:	89 c1                	mov    %eax,%ecx
_Z10InitParentRK8CSRGraphIiiLb1EE._omp_fn.0():
/home/aliha951/ipdps-artifact/gapbs-master/src/bfs.cc:117
  40522c:	49 8b 44 24 08       	mov    0x8(%r12),%rax
  405231:	99                   	cltd   
  405232:	f7 fb                	idiv   %ebx
  405234:	39 d1                	cmp    %edx,%ecx
  405236:	7c 60                	jl     405298 <_Z10InitParentRK8CSRGraphIiiLb1EE._omp_fn.0+0x88>
  405238:	0f af c8             	imul   %eax,%ecx
  40523b:	01 ca                	add    %ecx,%edx
  40523d:	01 d0                	add    %edx,%eax
  40523f:	39 c2                	cmp    %eax,%edx
  405241:	7d 38                	jge    40527b <_Z10InitParentRK8CSRGraphIiiLb1EE._omp_fn.0+0x6b>
_ZN7pvectorIiEixEm():
/home/aliha951/ipdps-artifact/gapbs-master/src/pvector.h:116
  405243:	48 8b 4d 08          	mov    0x8(%rbp),%rcx
_ZNK8CSRGraphIiiLb1EE10out_degreeEi():
/home/aliha951/ipdps-artifact/gapbs-master/src/graph.h:206
    return out_index_[v+1] - out_index_[v];
  405247:	49 8b 7c 24 18       	mov    0x18(%r12),%rdi
  40524c:	48 63 d2             	movslq %edx,%rdx
_ZN7pvectorIiEixEm():
/home/aliha951/ipdps-artifact/gapbs-master/src/pvector.h:116
  40524f:	4c 8b 01             	mov    (%rcx),%r8
  405252:	66 0f 1f 44 00 00    	nopw   0x0(%rax,%rax,1)
_ZNK8CSRGraphIiiLb1EE10out_degreeEi():
/home/aliha951/ipdps-artifact/gapbs-master/src/graph.h:206
  405258:	48 8b 4c d7 08       	mov    0x8(%rdi,%rdx,8),%rcx
  40525d:	48 8b 34 d7          	mov    (%rdi,%rdx,8),%rsi
_Z10InitParentRK8CSRGraphIiiLb1EE._omp_fn.0():
/home/aliha951/ipdps-artifact/gapbs-master/src/bfs.cc:118
    parent[n] = g.out_degree(n) != 0 ? -g.out_degree(n) : -1;
  405261:	48 39 ce             	cmp    %rcx,%rsi
  405264:	74 1a                	je     405280 <_Z10InitParentRK8CSRGraphIiiLb1EE._omp_fn.0+0x70>
_ZNK8CSRGraphIiiLb1EE10out_degreeEi():
/home/aliha951/ipdps-artifact/gapbs-master/src/graph.h:206
  405266:	48 29 f1             	sub    %rsi,%rcx
  405269:	48 c1 f9 02          	sar    $0x2,%rcx
_Z10InitParentRK8CSRGraphIiiLb1EE._omp_fn.0():
/home/aliha951/ipdps-artifact/gapbs-master/src/bfs.cc:118
  40526d:	f7 d9                	neg    %ecx
  40526f:	41 89 0c 90          	mov    %ecx,(%r8,%rdx,4)
  405273:	48 83 c2 01          	add    $0x1,%rdx
  405277:	39 d0                	cmp    %edx,%eax
  405279:	7f dd                	jg     405258 <_Z10InitParentRK8CSRGraphIiiLb1EE._omp_fn.0+0x48>
/home/aliha951/ipdps-artifact/gapbs-master/src/bfs.cc:116
  #pragma omp parallel for
  40527b:	5b                   	pop    %rbx
  40527c:	5d                   	pop    %rbp
  40527d:	41 5c                	pop    %r12
  40527f:	c3                   	retq   
/home/aliha951/ipdps-artifact/gapbs-master/src/bfs.cc:118
    parent[n] = g.out_degree(n) != 0 ? -g.out_degree(n) : -1;
  405280:	41 c7 04 90 ff ff ff 	movl   $0xffffffff,(%r8,%rdx,4)
  405287:	ff 
  405288:	48 83 c2 01          	add    $0x1,%rdx
  40528c:	39 d0                	cmp    %edx,%eax
  40528e:	7f c8                	jg     405258 <_Z10InitParentRK8CSRGraphIiiLb1EE._omp_fn.0+0x48>
/home/aliha951/ipdps-artifact/gapbs-master/src/bfs.cc:116
  #pragma omp parallel for
  405290:	5b                   	pop    %rbx
  405291:	5d                   	pop    %rbp
  405292:	41 5c                	pop    %r12
  405294:	c3                   	retq   
  405295:	0f 1f 00             	nopl   (%rax)
  405298:	83 c0 01             	add    $0x1,%eax
/home/aliha951/ipdps-artifact/gapbs-master/src/bfs.cc:117
  for (NodeID n=0; n < g.num_nodes(); n++)
  40529b:	31 d2                	xor    %edx,%edx
  40529d:	eb 99                	jmp    405238 <_Z10InitParentRK8CSRGraphIiiLb1EE._omp_fn.0+0x28>
  40529f:	90                   	nop

00000000004052a0 <_Z5DOBFSRK8CSRGraphIiiLb1EEibii._omp_fn.0>:
_Z5DOBFSRK8CSRGraphIiiLb1EEibii._omp_fn.0():
/home/aliha951/ipdps-artifact/gapbs-master/src/bfs.cc:174
  #pragma omp parallel for
  4052a0:	f3 0f 1e fa          	endbr64 
  4052a4:	55                   	push   %rbp
  4052a5:	48 89 fd             	mov    %rdi,%rbp
  4052a8:	53                   	push   %rbx
  4052a9:	48 83 ec 08          	sub    $0x8,%rsp
  4052ad:	e8 de e7 ff ff       	callq  403a90 <omp_get_num_threads@plt>
  4052b2:	89 c3                	mov    %eax,%ebx
  4052b4:	e8 b7 e6 ff ff       	callq  403970 <omp_get_thread_num@plt>
  4052b9:	89 c1                	mov    %eax,%ecx
_ZNK8CSRGraphIiiLb1EE9num_nodesEv():
/home/aliha951/ipdps-artifact/gapbs-master/src/graph.h:194
    return num_nodes_;
  4052bb:	48 8b 45 00          	mov    0x0(%rbp),%rax
_Z5DOBFSRK8CSRGraphIiiLb1EEibii._omp_fn.0():
/home/aliha951/ipdps-artifact/gapbs-master/src/bfs.cc:175
  for (NodeID n = 0; n < g.num_nodes(); n++)
  4052bf:	48 8b 40 08          	mov    0x8(%rax),%rax
  4052c3:	99                   	cltd   
  4052c4:	f7 fb                	idiv   %ebx
  4052c6:	39 d1                	cmp    %edx,%ecx
  4052c8:	7c 46                	jl     405310 <_Z5DOBFSRK8CSRGraphIiiLb1EEibii._omp_fn.0+0x70>
  4052ca:	0f af c8             	imul   %eax,%ecx
  4052cd:	01 ca                	add    %ecx,%edx
  4052cf:	8d 0c 10             	lea    (%rax,%rdx,1),%ecx
  4052d2:	39 ca                	cmp    %ecx,%edx
  4052d4:	7d 2e                	jge    405304 <_Z5DOBFSRK8CSRGraphIiiLb1EEibii._omp_fn.0+0x64>
_ZN7pvectorIiEixEm():
/home/aliha951/ipdps-artifact/gapbs-master/src/pvector.h:116
  4052d6:	48 8b 4d 08          	mov    0x8(%rbp),%rcx
  4052da:	83 e8 01             	sub    $0x1,%eax
  4052dd:	48 8b 31             	mov    (%rcx),%rsi
  4052e0:	48 63 ca             	movslq %edx,%rcx
  4052e3:	48 8d 14 8e          	lea    (%rsi,%rcx,4),%rdx
  4052e7:	48 01 c1             	add    %rax,%rcx
  4052ea:	48 8d 44 8e 04       	lea    0x4(%rsi,%rcx,4),%rax
  4052ef:	90                   	nop
_Z5DOBFSRK8CSRGraphIiiLb1EEibii._omp_fn.0():
/home/aliha951/ipdps-artifact/gapbs-master/src/bfs.cc:176
    if (parent[n] < -1)
  4052f0:	83 3a ff             	cmpl   $0xffffffff,(%rdx)
  4052f3:	7d 06                	jge    4052fb <_Z5DOBFSRK8CSRGraphIiiLb1EEibii._omp_fn.0+0x5b>
/home/aliha951/ipdps-artifact/gapbs-master/src/bfs.cc:177
      parent[n] = -1;
  4052f5:	c7 02 ff ff ff ff    	movl   $0xffffffff,(%rdx)
  4052fb:	48 83 c2 04          	add    $0x4,%rdx
  4052ff:	48 39 c2             	cmp    %rax,%rdx
  405302:	75 ec                	jne    4052f0 <_Z5DOBFSRK8CSRGraphIiiLb1EEibii._omp_fn.0+0x50>
/home/aliha951/ipdps-artifact/gapbs-master/src/bfs.cc:174
  #pragma omp parallel for
  405304:	48 83 c4 08          	add    $0x8,%rsp
  405308:	5b                   	pop    %rbx
  405309:	5d                   	pop    %rbp
  40530a:	c3                   	retq   
  40530b:	0f 1f 44 00 00       	nopl   0x0(%rax,%rax,1)
  405310:	83 c0 01             	add    $0x1,%eax
/home/aliha951/ipdps-artifact/gapbs-master/src/bfs.cc:175
  for (NodeID n = 0; n < g.num_nodes(); n++)
  405313:	31 d2                	xor    %edx,%edx
  405315:	eb b3                	jmp    4052ca <_Z5DOBFSRK8CSRGraphIiiLb1EEibii._omp_fn.0+0x2a>
  405317:	66 0f 1f 84 00 00 00 	nopw   0x0(%rax,%rax,1)
  40531e:	00 00 

0000000000405320 <_ZN7pvectorIiE4fillEi._omp_fn.0>:
_ZN7pvectorIiE4fillEi._omp_fn.0():
/home/aliha951/ipdps-artifact/gapbs-master/src/pvector.h:133
    *end_size_ = val;
    end_size_++;
  }

  void fill(T_ init_val) {
    #pragma omp parallel for
  405320:	f3 0f 1e fa          	endbr64 
  405324:	41 55                	push   %r13
  405326:	41 54                	push   %r12
  405328:	55                   	push   %rbp
  405329:	53                   	push   %rbx
  40532a:	48 83 ec 08          	sub    $0x8,%rsp
  40532e:	48 8b 07             	mov    (%rdi),%rax
/home/aliha951/ipdps-artifact/gapbs-master/src/pvector.h:134
    for (T_* ptr=start_; ptr < end_size_; ptr++)
  405331:	48 8b 28             	mov    (%rax),%rbp
  405334:	4c 8b 68 08          	mov    0x8(%rax),%r13
  405338:	4c 39 ed             	cmp    %r13,%rbp
  40533b:	0f 83 dd 00 00 00    	jae    40541e <_ZN7pvectorIiE4fillEi._omp_fn.0+0xfe>
  405341:	49 89 fc             	mov    %rdi,%r12
  405344:	e8 47 e7 ff ff       	callq  403a90 <omp_get_num_threads@plt>
  405349:	48 63 d8             	movslq %eax,%rbx
  40534c:	e8 1f e6 ff ff       	callq  403970 <omp_get_thread_num@plt>
  405351:	48 63 c8             	movslq %eax,%rcx
  405354:	49 8d 45 03          	lea    0x3(%r13),%rax
  405358:	48 29 e8             	sub    %rbp,%rax
  40535b:	48 89 c2             	mov    %rax,%rdx
  40535e:	48 8d 40 03          	lea    0x3(%rax),%rax
  405362:	48 0f 49 c2          	cmovns %rdx,%rax
  405366:	48 c1 f8 02          	sar    $0x2,%rax
  40536a:	48 99                	cqto   
  40536c:	48 f7 fb             	idiv   %rbx
  40536f:	48 39 d1             	cmp    %rdx,%rcx
  405372:	0f 8c b8 00 00 00    	jl     405430 <_ZN7pvectorIiE4fillEi._omp_fn.0+0x110>
  405378:	48 0f af c8          	imul   %rax,%rcx
  40537c:	48 01 ca             	add    %rcx,%rdx
  40537f:	48 01 d0             	add    %rdx,%rax
  405382:	48 39 c2             	cmp    %rax,%rdx
  405385:	0f 8d 93 00 00 00    	jge    40541e <_ZN7pvectorIiE4fillEi._omp_fn.0+0xfe>
  40538b:	48 c1 e2 02          	shl    $0x2,%rdx
  40538f:	48 c1 e0 02          	shl    $0x2,%rax
/home/aliha951/ipdps-artifact/gapbs-master/src/pvector.h:133
    #pragma omp parallel for
  405393:	41 8b 7c 24 08       	mov    0x8(%r12),%edi
  405398:	48 8d 74 15 00       	lea    0x0(%rbp,%rdx,1),%rsi
  40539d:	48 01 c5             	add    %rax,%rbp
  4053a0:	48 29 d0             	sub    %rdx,%rax
  4053a3:	48 83 e8 01          	sub    $0x1,%rax
  4053a7:	4c 8d 46 01          	lea    0x1(%rsi),%r8
  4053ab:	48 89 f1             	mov    %rsi,%rcx
  4053ae:	48 89 c2             	mov    %rax,%rdx
  4053b1:	48 c1 ea 02          	shr    $0x2,%rdx
  4053b5:	48 83 c2 01          	add    $0x1,%rdx
  4053b9:	4c 39 c5             	cmp    %r8,%rbp
  4053bc:	41 b8 01 00 00 00    	mov    $0x1,%r8d
  4053c2:	49 0f 42 d0          	cmovb  %r8,%rdx
  4053c6:	72 3c                	jb     405404 <_ZN7pvectorIiE4fillEi._omp_fn.0+0xe4>
  4053c8:	48 83 f8 0b          	cmp    $0xb,%rax
  4053cc:	76 36                	jbe    405404 <_ZN7pvectorIiE4fillEi._omp_fn.0+0xe4>
  4053ce:	48 89 d0             	mov    %rdx,%rax
  4053d1:	66 0f 6e cf          	movd   %edi,%xmm1
  4053d5:	48 c1 e8 02          	shr    $0x2,%rax
  4053d9:	66 0f 70 c1 00       	pshufd $0x0,%xmm1,%xmm0
  4053de:	48 c1 e0 04          	shl    $0x4,%rax
  4053e2:	48 01 f0             	add    %rsi,%rax
  4053e5:	0f 1f 00             	nopl   (%rax)
/home/aliha951/ipdps-artifact/gapbs-master/src/pvector.h:135 (discriminator 1)
      *ptr = init_val;
  4053e8:	0f 11 01             	movups %xmm0,(%rcx)
  4053eb:	48 83 c1 10          	add    $0x10,%rcx
  4053ef:	48 39 c1             	cmp    %rax,%rcx
  4053f2:	75 f4                	jne    4053e8 <_ZN7pvectorIiE4fillEi._omp_fn.0+0xc8>
  4053f4:	48 89 d0             	mov    %rdx,%rax
  4053f7:	48 83 e0 fc          	and    $0xfffffffffffffffc,%rax
  4053fb:	48 8d 34 86          	lea    (%rsi,%rax,4),%rsi
  4053ff:	48 39 c2             	cmp    %rax,%rdx
  405402:	74 1a                	je     40541e <_ZN7pvectorIiE4fillEi._omp_fn.0+0xfe>
  405404:	48 8d 46 04          	lea    0x4(%rsi),%rax
/home/aliha951/ipdps-artifact/gapbs-master/src/pvector.h:135
  405408:	89 3e                	mov    %edi,(%rsi)
  40540a:	48 39 c5             	cmp    %rax,%rbp
  40540d:	76 0f                	jbe    40541e <_ZN7pvectorIiE4fillEi._omp_fn.0+0xfe>
  40540f:	48 8d 46 08          	lea    0x8(%rsi),%rax
  405413:	89 7e 04             	mov    %edi,0x4(%rsi)
  405416:	48 39 c5             	cmp    %rax,%rbp
  405419:	76 03                	jbe    40541e <_ZN7pvectorIiE4fillEi._omp_fn.0+0xfe>
  40541b:	89 7e 08             	mov    %edi,0x8(%rsi)
/home/aliha951/ipdps-artifact/gapbs-master/src/pvector.h:133
    #pragma omp parallel for
  40541e:	48 83 c4 08          	add    $0x8,%rsp
  405422:	5b                   	pop    %rbx
  405423:	5d                   	pop    %rbp
  405424:	41 5c                	pop    %r12
  405426:	41 5d                	pop    %r13
  405428:	c3                   	retq   
  405429:	0f 1f 80 00 00 00 00 	nopl   0x0(%rax)
  405430:	48 83 c0 01          	add    $0x1,%rax
/home/aliha951/ipdps-artifact/gapbs-master/src/pvector.h:134
    for (T_* ptr=start_; ptr < end_size_; ptr++)
  405434:	31 d2                	xor    %edx,%edx
  405436:	e9 3d ff ff ff       	jmpq   405378 <_ZN7pvectorIiE4fillEi._omp_fn.0+0x58>
  40543b:	0f 1f 44 00 00       	nopl   0x0(%rax,%rax,1)

0000000000405440 <_ZN8CSRGraphIiiLb1EE8GenIndexERK7pvectorIlEPi._omp_fn.0>:
_ZN8CSRGraphIiiLb1EE8GenIndexERK7pvectorIlEPi._omp_fn.0():
/home/aliha951/ipdps-artifact/gapbs-master/src/graph.h:245
  }

  static DestID_** GenIndex(const pvector<SGOffset> &offsets, DestID_* neighs) {
    NodeID_ length = offsets.size();
    DestID_** index = new DestID_*[length];
    #pragma omp parallel for
  405440:	f3 0f 1e fa          	endbr64 
  405444:	55                   	push   %rbp
  405445:	53                   	push   %rbx
  405446:	48 89 fb             	mov    %rdi,%rbx
  405449:	48 83 ec 08          	sub    $0x8,%rsp
  40544d:	e8 3e e6 ff ff       	callq  403a90 <omp_get_num_threads@plt>
  405452:	89 c5                	mov    %eax,%ebp
  405454:	e8 17 e5 ff ff       	callq  403970 <omp_get_thread_num@plt>
  405459:	89 c1                	mov    %eax,%ecx
  40545b:	8b 43 18             	mov    0x18(%rbx),%eax
  40545e:	99                   	cltd   
  40545f:	f7 fd                	idiv   %ebp
  405461:	39 d1                	cmp    %edx,%ecx
  405463:	7c 43                	jl     4054a8 <_ZN8CSRGraphIiiLb1EE8GenIndexERK7pvectorIlEPi._omp_fn.0+0x68>
  405465:	0f af c8             	imul   %eax,%ecx
  405468:	01 ca                	add    %ecx,%edx
  40546a:	01 d0                	add    %edx,%eax
  40546c:	39 c2                	cmp    %eax,%edx
  40546e:	7d 2c                	jge    40549c <_ZN8CSRGraphIiiLb1EE8GenIndexERK7pvectorIlEPi._omp_fn.0+0x5c>
_ZNK7pvectorIlEixEm():
/home/aliha951/ipdps-artifact/gapbs-master/src/pvector.h:120
    return start_[n];
  405470:	48 8b 0b             	mov    (%rbx),%rcx
_ZN8CSRGraphIiiLb1EE8GenIndexERK7pvectorIlEPi._omp_fn.0():
/home/aliha951/ipdps-artifact/gapbs-master/src/graph.h:245
  405473:	4c 8b 43 10          	mov    0x10(%rbx),%r8
  405477:	48 63 d2             	movslq %edx,%rdx
  40547a:	48 8b 7b 08          	mov    0x8(%rbx),%rdi
_ZNK7pvectorIlEixEm():
/home/aliha951/ipdps-artifact/gapbs-master/src/pvector.h:120
  40547e:	48 8b 31             	mov    (%rcx),%rsi
  405481:	0f 1f 80 00 00 00 00 	nopl   0x0(%rax)
_ZN8CSRGraphIiiLb1EE8GenIndexERK7pvectorIlEPi._omp_fn.0():
/home/aliha951/ipdps-artifact/gapbs-master/src/graph.h:247 (discriminator 1)
    for (NodeID_ n=0; n < length; n++)
      index[n] = neighs + offsets[n];
  405488:	48 8b 0c d6          	mov    (%rsi,%rdx,8),%rcx
  40548c:	48 8d 0c 8f          	lea    (%rdi,%rcx,4),%rcx
  405490:	49 89 0c d0          	mov    %rcx,(%r8,%rdx,8)
  405494:	48 83 c2 01          	add    $0x1,%rdx
  405498:	39 d0                	cmp    %edx,%eax
  40549a:	7f ec                	jg     405488 <_ZN8CSRGraphIiiLb1EE8GenIndexERK7pvectorIlEPi._omp_fn.0+0x48>
/home/aliha951/ipdps-artifact/gapbs-master/src/graph.h:245
    #pragma omp parallel for
  40549c:	48 83 c4 08          	add    $0x8,%rsp
  4054a0:	5b                   	pop    %rbx
  4054a1:	5d                   	pop    %rbp
  4054a2:	c3                   	retq   
  4054a3:	0f 1f 44 00 00       	nopl   0x0(%rax,%rax,1)
  4054a8:	83 c0 01             	add    $0x1,%eax
  4054ab:	31 d2                	xor    %edx,%edx
  4054ad:	eb b6                	jmp    405465 <_ZN8CSRGraphIiiLb1EE8GenIndexERK7pvectorIlEPi._omp_fn.0+0x25>
  4054af:	90                   	nop

00000000004054b0 <_ZN7pvectorI8EdgePairIiiEE7reserveEm._omp_fn.0>:
_ZN7pvectorI8EdgePairIiiEE7reserveEm._omp_fn.0():
/home/aliha951/ipdps-artifact/gapbs-master/src/pvector.h:86
      #pragma omp parallel for
  4054b0:	f3 0f 1e fa          	endbr64 
  4054b4:	41 55                	push   %r13
  4054b6:	41 54                	push   %r12
  4054b8:	55                   	push   %rbp
  4054b9:	53                   	push   %rbx
  4054ba:	48 83 ec 08          	sub    $0x8,%rsp
  4054be:	48 8b 07             	mov    (%rdi),%rax
_ZNK7pvectorI8EdgePairIiiEE4sizeEv():
/home/aliha951/ipdps-artifact/gapbs-master/src/pvector.h:143
  size_t capacity() const {
    return end_capacity_ - start_;
  }

  size_t size() const {
    return end_size_ - start_;
  4054c1:	4c 8b 20             	mov    (%rax),%r12
  4054c4:	48 8b 40 08          	mov    0x8(%rax),%rax
  4054c8:	4c 29 e0             	sub    %r12,%rax
  4054cb:	48 c1 f8 03          	sar    $0x3,%rax
  4054cf:	74 50                	je     405521 <_ZN7pvectorI8EdgePairIiiEE7reserveEm._omp_fn.0+0x71>
  4054d1:	49 89 fd             	mov    %rdi,%r13
  4054d4:	48 89 c3             	mov    %rax,%rbx
  4054d7:	e8 b4 e5 ff ff       	callq  403a90 <omp_get_num_threads@plt>
  4054dc:	89 c5                	mov    %eax,%ebp
  4054de:	e8 8d e4 ff ff       	callq  403970 <omp_get_thread_num@plt>
  4054e3:	48 63 f5             	movslq %ebp,%rsi
  4054e6:	31 d2                	xor    %edx,%edx
  4054e8:	48 63 c8             	movslq %eax,%rcx
  4054eb:	48 89 d8             	mov    %rbx,%rax
  4054ee:	48 f7 f6             	div    %rsi
  4054f1:	48 39 d1             	cmp    %rdx,%rcx
  4054f4:	72 3a                	jb     405530 <_ZN7pvectorI8EdgePairIiiEE7reserveEm._omp_fn.0+0x80>
  4054f6:	48 0f af c8          	imul   %rax,%rcx
  4054fa:	48 01 ca             	add    %rcx,%rdx
  4054fd:	48 01 d0             	add    %rdx,%rax
  405500:	48 39 c2             	cmp    %rax,%rdx
  405503:	73 1c                	jae    405521 <_ZN7pvectorI8EdgePairIiiEE7reserveEm._omp_fn.0+0x71>
_ZN7pvectorI8EdgePairIiiEE7reserveEm._omp_fn.0():
/home/aliha951/ipdps-artifact/gapbs-master/src/pvector.h:86
      #pragma omp parallel for
  405505:	49 8b 75 08          	mov    0x8(%r13),%rsi
  405509:	0f 1f 80 00 00 00 00 	nopl   0x0(%rax)
/home/aliha951/ipdps-artifact/gapbs-master/src/pvector.h:88 (discriminator 1)
        new_range[i] = start_[i];
  405510:	49 8b 0c d4          	mov    (%r12,%rdx,8),%rcx
  405514:	48 89 0c d6          	mov    %rcx,(%rsi,%rdx,8)
  405518:	48 83 c2 01          	add    $0x1,%rdx
  40551c:	48 39 d0             	cmp    %rdx,%rax
  40551f:	75 ef                	jne    405510 <_ZN7pvectorI8EdgePairIiiEE7reserveEm._omp_fn.0+0x60>
/home/aliha951/ipdps-artifact/gapbs-master/src/pvector.h:86
      #pragma omp parallel for
  405521:	48 83 c4 08          	add    $0x8,%rsp
  405525:	5b                   	pop    %rbx
  405526:	5d                   	pop    %rbp
  405527:	41 5c                	pop    %r12
  405529:	41 5d                	pop    %r13
  40552b:	c3                   	retq   
  40552c:	0f 1f 40 00          	nopl   0x0(%rax)
  405530:	48 83 c0 01          	add    $0x1,%rax
_ZNK7pvectorI8EdgePairIiiEE4sizeEv():
/home/aliha951/ipdps-artifact/gapbs-master/src/pvector.h:143
    return end_size_ - start_;
  405534:	31 d2                	xor    %edx,%edx
  405536:	eb be                	jmp    4054f6 <_ZN7pvectorI8EdgePairIiiEE7reserveEm._omp_fn.0+0x46>
_ZN7pvectorI8EdgePairIiiEE7reserveEm._omp_fn.0():
/home/aliha951/ipdps-artifact/gapbs-master/src/pvector.h:143
  405538:	0f 1f 84 00 00 00 00 	nopl   0x0(%rax,%rax,1)
  40553f:	00 

0000000000405540 <_ZN11BuilderBaseIiiiLb1EE12CountDegreesERK7pvectorI8EdgePairIiiEEb._omp_fn.0>:
_ZN11BuilderBaseIiiiLb1EE12CountDegreesERK7pvectorI8EdgePairIiiEEb._omp_fn.0():
/home/aliha951/ipdps-artifact/gapbs-master/src/builder.h:82
    return max_seen;
  }

  pvector<NodeID_> CountDegrees(const EdgeList &el, bool transpose) {
    pvector<NodeID_> degrees(num_nodes_, 0);
    #pragma omp parallel for
  405540:	f3 0f 1e fa          	endbr64 
  405544:	41 55                	push   %r13
  405546:	41 54                	push   %r12
  405548:	55                   	push   %rbp
  405549:	53                   	push   %rbx
  40554a:	48 83 ec 08          	sub    $0x8,%rsp
/home/aliha951/ipdps-artifact/gapbs-master/src/builder.h:83
    for (auto it = el.begin(); it < el.end(); it++) {
  40554e:	48 8b 47 08          	mov    0x8(%rdi),%rax
_ZNK7pvectorI8EdgePairIiiEE5beginEv():
/home/aliha951/ipdps-artifact/gapbs-master/src/pvector.h:147
  }

  iterator begin() const {
    return start_;
  405552:	4c 8b 20             	mov    (%rax),%r12
_ZNK7pvectorI8EdgePairIiiEE3endEv():
/home/aliha951/ipdps-artifact/gapbs-master/src/pvector.h:151
  }

  iterator end() const {
    return end_size_;
  405555:	4c 8b 68 08          	mov    0x8(%rax),%r13
  405559:	4d 39 e5             	cmp    %r12,%r13
  40555c:	0f 86 8a 00 00 00    	jbe    4055ec <_ZN11BuilderBaseIiiiLb1EE12CountDegreesERK7pvectorI8EdgePairIiiEEb._omp_fn.0+0xac>
  405562:	48 89 fb             	mov    %rdi,%rbx
  405565:	e8 26 e5 ff ff       	callq  403a90 <omp_get_num_threads@plt>
  40556a:	48 63 e8             	movslq %eax,%rbp
  40556d:	e8 fe e3 ff ff       	callq  403970 <omp_get_thread_num@plt>
  405572:	48 63 c8             	movslq %eax,%rcx
  405575:	49 8d 45 07          	lea    0x7(%r13),%rax
  405579:	4c 29 e0             	sub    %r12,%rax
  40557c:	48 89 c2             	mov    %rax,%rdx
  40557f:	48 8d 40 07          	lea    0x7(%rax),%rax
  405583:	48 0f 49 c2          	cmovns %rdx,%rax
  405587:	48 c1 f8 03          	sar    $0x3,%rax
  40558b:	48 99                	cqto   
  40558d:	48 f7 fd             	idiv   %rbp
  405590:	48 39 d1             	cmp    %rdx,%rcx
  405593:	7c 6b                	jl     405600 <_ZN11BuilderBaseIiiiLb1EE12CountDegreesERK7pvectorI8EdgePairIiiEEb._omp_fn.0+0xc0>
  405595:	48 0f af c8          	imul   %rax,%rcx
  405599:	48 01 ca             	add    %rcx,%rdx
  40559c:	48 01 d0             	add    %rdx,%rax
  40559f:	48 39 c2             	cmp    %rax,%rdx
  4055a2:	7d 48                	jge    4055ec <_ZN11BuilderBaseIiiiLb1EE12CountDegreesERK7pvectorI8EdgePairIiiEEb._omp_fn.0+0xac>
  4055a4:	80 7b 18 00          	cmpb   $0x0,0x18(%rbx)
_ZN11BuilderBaseIiiiLb1EE12CountDegreesERK7pvectorI8EdgePairIiiEEb._omp_fn.0():
/home/aliha951/ipdps-artifact/gapbs-master/src/builder.h:82
    #pragma omp parallel for
  4055a8:	48 8b 3b             	mov    (%rbx),%rdi
  4055ab:	49 8d 14 d4          	lea    (%r12,%rdx,8),%rdx
  4055af:	4d 8d 04 c4          	lea    (%r12,%rax,8),%r8
  4055b3:	75 53                	jne    405608 <_ZN11BuilderBaseIiiiLb1EE12CountDegreesERK7pvectorI8EdgePairIiiEEb._omp_fn.0+0xc8>
  4055b5:	0f 1f 00             	nopl   (%rax)
_ZN7pvectorIiEixEm():
/home/aliha951/ipdps-artifact/gapbs-master/src/pvector.h:116
    return start_[n];
  4055b8:	48 8b 4b 10          	mov    0x10(%rbx),%rcx
_ZN11BuilderBaseIiiiLb1EE12CountDegreesERK7pvectorI8EdgePairIiiEEb._omp_fn.0():
/home/aliha951/ipdps-artifact/gapbs-master/src/builder.h:84
      Edge e = *it;
  4055bc:	48 63 42 04          	movslq 0x4(%rdx),%rax
/home/aliha951/ipdps-artifact/gapbs-master/src/builder.h:86
      if (symmetrize_ || (!symmetrize_ && !transpose))
        fetch_and_add(degrees[e.u], 1);
  4055c0:	48 63 32             	movslq (%rdx),%rsi
_Z13fetch_and_addIiiET_RS0_T0_():
/home/aliha951/ipdps-artifact/gapbs-master/src/platform_atomics.h:26
      return __sync_fetch_and_add(&x, inc);
  4055c3:	48 8b 09             	mov    (%rcx),%rcx
  4055c6:	f0 83 04 b1 01       	lock addl $0x1,(%rcx,%rsi,4)
_ZN11BuilderBaseIiiiLb1EE12CountDegreesERK7pvectorI8EdgePairIiiEEb._omp_fn.0():
/home/aliha951/ipdps-artifact/gapbs-master/src/builder.h:87
      if ((symmetrize_ && !in_place_) || (!symmetrize_ && transpose))
  4055cb:	80 7f 08 00          	cmpb   $0x0,0x8(%rdi)
  4055cf:	74 12                	je     4055e3 <_ZN11BuilderBaseIiiiLb1EE12CountDegreesERK7pvectorI8EdgePairIiiEEb._omp_fn.0+0xa3>
  4055d1:	80 7f 0a 00          	cmpb   $0x0,0xa(%rdi)
  4055d5:	75 0c                	jne    4055e3 <_ZN11BuilderBaseIiiiLb1EE12CountDegreesERK7pvectorI8EdgePairIiiEEb._omp_fn.0+0xa3>
_ZN7pvectorIiEixEm():
/home/aliha951/ipdps-artifact/gapbs-master/src/pvector.h:116
  4055d7:	48 8b 4b 10          	mov    0x10(%rbx),%rcx
_Z13fetch_and_addIiiET_RS0_T0_():
/home/aliha951/ipdps-artifact/gapbs-master/src/platform_atomics.h:26
  4055db:	48 8b 09             	mov    (%rcx),%rcx
  4055de:	f0 83 04 81 01       	lock addl $0x1,(%rcx,%rax,4)
  4055e3:	48 83 c2 08          	add    $0x8,%rdx
  4055e7:	49 39 d0             	cmp    %rdx,%r8
  4055ea:	77 cc                	ja     4055b8 <_ZN11BuilderBaseIiiiLb1EE12CountDegreesERK7pvectorI8EdgePairIiiEEb._omp_fn.0+0x78>
_ZN11BuilderBaseIiiiLb1EE12CountDegreesERK7pvectorI8EdgePairIiiEEb._omp_fn.0():
/home/aliha951/ipdps-artifact/gapbs-master/src/builder.h:82
    #pragma omp parallel for
  4055ec:	48 83 c4 08          	add    $0x8,%rsp
  4055f0:	5b                   	pop    %rbx
  4055f1:	5d                   	pop    %rbp
  4055f2:	41 5c                	pop    %r12
  4055f4:	41 5d                	pop    %r13
  4055f6:	c3                   	retq   
  4055f7:	66 0f 1f 84 00 00 00 	nopw   0x0(%rax,%rax,1)
  4055fe:	00 00 
  405600:	48 83 c0 01          	add    $0x1,%rax
_ZNK7pvectorI8EdgePairIiiEE3endEv():
/home/aliha951/ipdps-artifact/gapbs-master/src/pvector.h:151
    return end_size_;
  405604:	31 d2                	xor    %edx,%edx
  405606:	eb 8d                	jmp    405595 <_ZN11BuilderBaseIiiiLb1EE12CountDegreesERK7pvectorI8EdgePairIiiEEb._omp_fn.0+0x55>
_ZN11BuilderBaseIiiiLb1EE12CountDegreesERK7pvectorI8EdgePairIiiEEb._omp_fn.0():
/home/aliha951/ipdps-artifact/gapbs-master/src/builder.h:85
      if (symmetrize_ || (!symmetrize_ && !transpose))
  405608:	80 7f 08 00          	cmpb   $0x0,0x8(%rdi)
/home/aliha951/ipdps-artifact/gapbs-master/src/builder.h:84
      Edge e = *it;
  40560c:	48 63 42 04          	movslq 0x4(%rdx),%rax
/home/aliha951/ipdps-artifact/gapbs-master/src/builder.h:85
      if (symmetrize_ || (!symmetrize_ && !transpose))
  405610:	74 1b                	je     40562d <_ZN11BuilderBaseIiiiLb1EE12CountDegreesERK7pvectorI8EdgePairIiiEEb._omp_fn.0+0xed>
_ZN7pvectorIiEixEm():
/home/aliha951/ipdps-artifact/gapbs-master/src/pvector.h:116
    return start_[n];
  405612:	48 8b 4b 10          	mov    0x10(%rbx),%rcx
_ZN11BuilderBaseIiiiLb1EE12CountDegreesERK7pvectorI8EdgePairIiiEEb._omp_fn.0():
/home/aliha951/ipdps-artifact/gapbs-master/src/builder.h:86
        fetch_and_add(degrees[e.u], 1);
  405616:	48 63 32             	movslq (%rdx),%rsi
_Z13fetch_and_addIiiET_RS0_T0_():
/home/aliha951/ipdps-artifact/gapbs-master/src/platform_atomics.h:26
  405619:	48 8b 09             	mov    (%rcx),%rcx
  40561c:	f0 83 04 b1 01       	lock addl $0x1,(%rcx,%rsi,4)
_ZN11BuilderBaseIiiiLb1EE12CountDegreesERK7pvectorI8EdgePairIiiEEb._omp_fn.0():
/home/aliha951/ipdps-artifact/gapbs-master/src/builder.h:87
      if ((symmetrize_ && !in_place_) || (!symmetrize_ && transpose))
  405621:	80 7f 08 00          	cmpb   $0x0,0x8(%rdi)
  405625:	74 06                	je     40562d <_ZN11BuilderBaseIiiiLb1EE12CountDegreesERK7pvectorI8EdgePairIiiEEb._omp_fn.0+0xed>
/home/aliha951/ipdps-artifact/gapbs-master/src/builder.h:87 (discriminator 1)
  405627:	80 7f 0a 00          	cmpb   $0x0,0xa(%rdi)
  40562b:	75 0c                	jne    405639 <_ZN11BuilderBaseIiiiLb1EE12CountDegreesERK7pvectorI8EdgePairIiiEEb._omp_fn.0+0xf9>
_ZN7pvectorIiEixEm():
/home/aliha951/ipdps-artifact/gapbs-master/src/pvector.h:116
  40562d:	48 8b 4b 10          	mov    0x10(%rbx),%rcx
_Z13fetch_and_addIiiET_RS0_T0_():
/home/aliha951/ipdps-artifact/gapbs-master/src/platform_atomics.h:26
  405631:	48 8b 09             	mov    (%rcx),%rcx
  405634:	f0 83 04 81 01       	lock addl $0x1,(%rcx,%rax,4)
  405639:	48 83 c2 08          	add    $0x8,%rdx
  40563d:	49 39 d0             	cmp    %rdx,%r8
  405640:	77 c6                	ja     405608 <_ZN11BuilderBaseIiiiLb1EE12CountDegreesERK7pvectorI8EdgePairIiiEEb._omp_fn.0+0xc8>
  405642:	eb a8                	jmp    4055ec <_ZN11BuilderBaseIiiiLb1EE12CountDegreesERK7pvectorI8EdgePairIiiEEb._omp_fn.0+0xac>
_ZN11BuilderBaseIiiiLb1EE12CountDegreesERK7pvectorI8EdgePairIiiEEb._omp_fn.0():
/home/aliha951/ipdps-artifact/gapbs-master/src/platform_atomics.h:26
  405644:	66 66 2e 0f 1f 84 00 	data16 nopw %cs:0x0(%rax,%rax,1)
  40564b:	00 00 00 00 
  40564f:	90                   	nop

0000000000405650 <_ZN11BuilderBaseIiiiLb1EE17ParallelPrefixSumERK7pvectorIiE._omp_fn.0>:
_ZN11BuilderBaseIiiiLb1EE17ParallelPrefixSumERK7pvectorIiE._omp_fn.0():
/home/aliha951/ipdps-artifact/gapbs-master/src/builder.h:110
  static
  pvector<SGOffset> ParallelPrefixSum(const pvector<NodeID_> &degrees) {
    const size_t block_size = 1<<20;
    const size_t num_blocks = (degrees.size() + block_size - 1) / block_size;
    pvector<SGOffset> local_sums(num_blocks);
    #pragma omp parallel for
  405650:	f3 0f 1e fa          	endbr64 
  405654:	41 54                	push   %r12
  405656:	55                   	push   %rbp
  405657:	53                   	push   %rbx
  405658:	48 8b 5f 08          	mov    0x8(%rdi),%rbx
  40565c:	48 85 db             	test   %rbx,%rbx
  40565f:	0f 84 4d 01 00 00    	je     4057b2 <_ZN11BuilderBaseIiiiLb1EE17ParallelPrefixSumERK7pvectorIiE._omp_fn.0+0x162>
  405665:	49 89 fc             	mov    %rdi,%r12
  405668:	e8 23 e4 ff ff       	callq  403a90 <omp_get_num_threads@plt>
  40566d:	89 c5                	mov    %eax,%ebp
  40566f:	e8 fc e2 ff ff       	callq  403970 <omp_get_thread_num@plt>
  405674:	48 63 cd             	movslq %ebp,%rcx
  405677:	31 d2                	xor    %edx,%edx
  405679:	48 63 f0             	movslq %eax,%rsi
  40567c:	48 89 d8             	mov    %rbx,%rax
  40567f:	48 f7 f1             	div    %rcx
  405682:	48 39 d6             	cmp    %rdx,%rsi
  405685:	0f 82 3d 01 00 00    	jb     4057c8 <_ZN11BuilderBaseIiiiLb1EE17ParallelPrefixSumERK7pvectorIiE._omp_fn.0+0x178>
  40568b:	48 0f af f0          	imul   %rax,%rsi
  40568f:	48 01 d6             	add    %rdx,%rsi
  405692:	48 01 f0             	add    %rsi,%rax
  405695:	48 39 c6             	cmp    %rax,%rsi
  405698:	0f 83 14 01 00 00    	jae    4057b2 <_ZN11BuilderBaseIiiiLb1EE17ParallelPrefixSumERK7pvectorIiE._omp_fn.0+0x162>
/home/aliha951/ipdps-artifact/gapbs-master/src/builder.h:113
    for (size_t block=0; block < num_blocks; block++) {
      SGOffset lsum = 0;
      size_t block_end = std::min((block + 1) * block_size, degrees.size());
  40569e:	49 8b 14 24          	mov    (%r12),%rdx
  4056a2:	49 89 f0             	mov    %rsi,%r8
/home/aliha951/ipdps-artifact/gapbs-master/src/builder.h:115
      for (size_t i=block * block_size; i < block_end; i++)
        lsum += degrees[i];
  4056a5:	66 0f ef e4          	pxor   %xmm4,%xmm4
  4056a9:	49 c1 e0 14          	shl    $0x14,%r8
_ZNK7pvectorIiE4sizeEv():
/home/aliha951/ipdps-artifact/gapbs-master/src/pvector.h:143
    return end_size_ - start_;
  4056ad:	4c 8b 1a             	mov    (%rdx),%r11
  4056b0:	4c 8b 52 08          	mov    0x8(%rdx),%r10
_ZN7pvectorIlEixEm():
/home/aliha951/ipdps-artifact/gapbs-master/src/pvector.h:116
    return start_[n];
  4056b4:	49 8b 54 24 10       	mov    0x10(%r12),%rdx
_ZNK7pvectorIiE4sizeEv():
/home/aliha951/ipdps-artifact/gapbs-master/src/pvector.h:143
    return end_size_ - start_;
  4056b9:	4d 29 da             	sub    %r11,%r10
_ZN7pvectorIlEixEm():
/home/aliha951/ipdps-artifact/gapbs-master/src/pvector.h:116
    return start_[n];
  4056bc:	48 8b 12             	mov    (%rdx),%rdx
_ZNK7pvectorIiE4sizeEv():
/home/aliha951/ipdps-artifact/gapbs-master/src/pvector.h:143
    return end_size_ - start_;
  4056bf:	49 c1 fa 02          	sar    $0x2,%r10
  4056c3:	4c 8d 0c f2          	lea    (%rdx,%rsi,8),%r9
  4056c7:	48 c1 e6 16          	shl    $0x16,%rsi
  4056cb:	48 8d 2c c2          	lea    (%rdx,%rax,8),%rbp
  4056cf:	4c 01 de             	add    %r11,%rsi
  4056d2:	66 0f 1f 44 00 00    	nopw   0x0(%rax,%rax,1)
/home/aliha951/ipdps-artifact/gapbs-master/src/pvector.h:142
  size_t size() const {
  4056d8:	4c 89 c1             	mov    %r8,%rcx
_ZN11BuilderBaseIiiiLb1EE17ParallelPrefixSumERK7pvectorIiE._omp_fn.0():
/home/aliha951/ipdps-artifact/gapbs-master/src/builder.h:113
      size_t block_end = std::min((block + 1) * block_size, degrees.size());
  4056db:	49 81 c0 00 00 10 00 	add    $0x100000,%r8
  4056e2:	4c 89 d3             	mov    %r10,%rbx
  4056e5:	4d 39 d0             	cmp    %r10,%r8
  4056e8:	49 0f 46 d8          	cmovbe %r8,%rbx
/home/aliha951/ipdps-artifact/gapbs-master/src/builder.h:114
      for (size_t i=block * block_size; i < block_end; i++)
  4056ec:	48 39 cb             	cmp    %rcx,%rbx
  4056ef:	0f 86 cb 00 00 00    	jbe    4057c0 <_ZN11BuilderBaseIiiiLb1EE17ParallelPrefixSumERK7pvectorIiE._omp_fn.0+0x170>
  4056f5:	48 89 df             	mov    %rbx,%rdi
  4056f8:	48 29 cf             	sub    %rcx,%rdi
  4056fb:	48 8d 47 ff          	lea    -0x1(%rdi),%rax
  4056ff:	48 83 f8 02          	cmp    $0x2,%rax
  405703:	0f 86 bb 00 00 00    	jbe    4057c4 <_ZN11BuilderBaseIiiiLb1EE17ParallelPrefixSumERK7pvectorIiE._omp_fn.0+0x174>
  405709:	48 89 fa             	mov    %rdi,%rdx
  40570c:	48 89 f0             	mov    %rsi,%rax
  40570f:	66 0f ef c9          	pxor   %xmm1,%xmm1
  405713:	48 c1 ea 02          	shr    $0x2,%rdx
  405717:	48 c1 e2 04          	shl    $0x4,%rdx
  40571b:	48 01 f2             	add    %rsi,%rdx
  40571e:	66 90                	xchg   %ax,%ax
/home/aliha951/ipdps-artifact/gapbs-master/src/builder.h:115 (discriminator 2)
        lsum += degrees[i];
  405720:	f3 0f 6f 00          	movdqu (%rax),%xmm0
  405724:	66 0f 6f d4          	movdqa %xmm4,%xmm2
  405728:	48 83 c0 10          	add    $0x10,%rax
  40572c:	66 0f 66 d0          	pcmpgtd %xmm0,%xmm2
  405730:	66 0f 6f d8          	movdqa %xmm0,%xmm3
  405734:	66 0f 62 da          	punpckldq %xmm2,%xmm3
  405738:	66 0f 6a c2          	punpckhdq %xmm2,%xmm0
  40573c:	66 0f d4 cb          	paddq  %xmm3,%xmm1
  405740:	66 0f d4 c8          	paddq  %xmm0,%xmm1
/home/aliha951/ipdps-artifact/gapbs-master/src/builder.h:114 (discriminator 2)
      for (size_t i=block * block_size; i < block_end; i++)
  405744:	48 39 d0             	cmp    %rdx,%rax
  405747:	75 d7                	jne    405720 <_ZN11BuilderBaseIiiiLb1EE17ParallelPrefixSumERK7pvectorIiE._omp_fn.0+0xd0>
  405749:	66 0f 6f c1          	movdqa %xmm1,%xmm0
  40574d:	48 89 fa             	mov    %rdi,%rdx
  405750:	66 0f 73 d8 08       	psrldq $0x8,%xmm0
  405755:	48 83 e2 fc          	and    $0xfffffffffffffffc,%rdx
  405759:	66 0f d4 c1          	paddq  %xmm1,%xmm0
  40575d:	48 01 d1             	add    %rdx,%rcx
  405760:	66 48 0f 7e c0       	movq   %xmm0,%rax
  405765:	48 39 fa             	cmp    %rdi,%rdx
  405768:	74 31                	je     40579b <_ZN11BuilderBaseIiiiLb1EE17ParallelPrefixSumERK7pvectorIiE._omp_fn.0+0x14b>
/home/aliha951/ipdps-artifact/gapbs-master/src/builder.h:115
        lsum += degrees[i];
  40576a:	49 63 3c 8b          	movslq (%r11,%rcx,4),%rdi
_ZNK7pvectorIiEixEm():
/home/aliha951/ipdps-artifact/gapbs-master/src/pvector.h:120
    return start_[n];
  40576e:	48 8d 14 8d 00 00 00 	lea    0x0(,%rcx,4),%rdx
  405775:	00 
_ZN11BuilderBaseIiiiLb1EE17ParallelPrefixSumERK7pvectorIiE._omp_fn.0():
/home/aliha951/ipdps-artifact/gapbs-master/src/builder.h:115
  405776:	48 01 f8             	add    %rdi,%rax
/home/aliha951/ipdps-artifact/gapbs-master/src/builder.h:114
      for (size_t i=block * block_size; i < block_end; i++)
  405779:	48 8d 79 01          	lea    0x1(%rcx),%rdi
  40577d:	48 39 df             	cmp    %rbx,%rdi
  405780:	73 19                	jae    40579b <_ZN11BuilderBaseIiiiLb1EE17ParallelPrefixSumERK7pvectorIiE._omp_fn.0+0x14b>
/home/aliha951/ipdps-artifact/gapbs-master/src/builder.h:115
        lsum += degrees[i];
  405782:	49 63 7c 13 04       	movslq 0x4(%r11,%rdx,1),%rdi
/home/aliha951/ipdps-artifact/gapbs-master/src/builder.h:114
      for (size_t i=block * block_size; i < block_end; i++)
  405787:	48 83 c1 02          	add    $0x2,%rcx
/home/aliha951/ipdps-artifact/gapbs-master/src/builder.h:115
        lsum += degrees[i];
  40578b:	48 01 f8             	add    %rdi,%rax
/home/aliha951/ipdps-artifact/gapbs-master/src/builder.h:114
      for (size_t i=block * block_size; i < block_end; i++)
  40578e:	48 39 cb             	cmp    %rcx,%rbx
  405791:	76 08                	jbe    40579b <_ZN11BuilderBaseIiiiLb1EE17ParallelPrefixSumERK7pvectorIiE._omp_fn.0+0x14b>
/home/aliha951/ipdps-artifact/gapbs-master/src/builder.h:115
        lsum += degrees[i];
  405793:	49 63 54 13 08       	movslq 0x8(%r11,%rdx,1),%rdx
  405798:	48 01 d0             	add    %rdx,%rax
/home/aliha951/ipdps-artifact/gapbs-master/src/builder.h:116
      local_sums[block] = lsum;
  40579b:	49 89 01             	mov    %rax,(%r9)
  40579e:	49 83 c1 08          	add    $0x8,%r9
  4057a2:	48 81 c6 00 00 40 00 	add    $0x400000,%rsi
  4057a9:	49 39 e9             	cmp    %rbp,%r9
  4057ac:	0f 85 26 ff ff ff    	jne    4056d8 <_ZN11BuilderBaseIiiiLb1EE17ParallelPrefixSumERK7pvectorIiE._omp_fn.0+0x88>
/home/aliha951/ipdps-artifact/gapbs-master/src/builder.h:110
    #pragma omp parallel for
  4057b2:	5b                   	pop    %rbx
  4057b3:	5d                   	pop    %rbp
  4057b4:	41 5c                	pop    %r12
  4057b6:	c3                   	retq   
  4057b7:	66 0f 1f 84 00 00 00 	nopw   0x0(%rax,%rax,1)
  4057be:	00 00 
/home/aliha951/ipdps-artifact/gapbs-master/src/builder.h:112
      SGOffset lsum = 0;
  4057c0:	31 c0                	xor    %eax,%eax
  4057c2:	eb d7                	jmp    40579b <_ZN11BuilderBaseIiiiLb1EE17ParallelPrefixSumERK7pvectorIiE._omp_fn.0+0x14b>
  4057c4:	31 c0                	xor    %eax,%eax
  4057c6:	eb a2                	jmp    40576a <_ZN11BuilderBaseIiiiLb1EE17ParallelPrefixSumERK7pvectorIiE._omp_fn.0+0x11a>
  4057c8:	48 83 c0 01          	add    $0x1,%rax
/home/aliha951/ipdps-artifact/gapbs-master/src/builder.h:110
    #pragma omp parallel for
  4057cc:	31 d2                	xor    %edx,%edx
  4057ce:	e9 b8 fe ff ff       	jmpq   40568b <_ZN11BuilderBaseIiiiLb1EE17ParallelPrefixSumERK7pvectorIiE._omp_fn.0+0x3b>
  4057d3:	66 66 2e 0f 1f 84 00 	data16 nopw %cs:0x0(%rax,%rax,1)
  4057da:	00 00 00 00 
  4057de:	66 90                	xchg   %ax,%ax

00000000004057e0 <_ZN11BuilderBaseIiiiLb1EE17ParallelPrefixSumERK7pvectorIiE._omp_fn.1>:
_ZN11BuilderBaseIiiiLb1EE17ParallelPrefixSumERK7pvectorIiE._omp_fn.1():
/home/aliha951/ipdps-artifact/gapbs-master/src/builder.h:126
      bulk_prefix[block] = total;
      total += local_sums[block];
    }
    bulk_prefix[num_blocks] = total;
    pvector<SGOffset> prefix(degrees.size() + 1);
    #pragma omp parallel for
  4057e0:	f3 0f 1e fa          	endbr64 
  4057e4:	41 54                	push   %r12
  4057e6:	55                   	push   %rbp
  4057e7:	53                   	push   %rbx
  4057e8:	48 8b 5f 10          	mov    0x10(%rdi),%rbx
  4057ec:	48 85 db             	test   %rbx,%rbx
  4057ef:	0f 84 98 00 00 00    	je     40588d <_ZN11BuilderBaseIiiiLb1EE17ParallelPrefixSumERK7pvectorIiE._omp_fn.1+0xad>
  4057f5:	48 89 fd             	mov    %rdi,%rbp
  4057f8:	e8 93 e2 ff ff       	callq  403a90 <omp_get_num_threads@plt>
  4057fd:	41 89 c4             	mov    %eax,%r12d
  405800:	e8 6b e1 ff ff       	callq  403970 <omp_get_thread_num@plt>
  405805:	49 63 cc             	movslq %r12d,%rcx
  405808:	31 d2                	xor    %edx,%edx
  40580a:	4c 63 c8             	movslq %eax,%r9
  40580d:	48 89 d8             	mov    %rbx,%rax
  405810:	48 f7 f1             	div    %rcx
  405813:	49 39 d1             	cmp    %rdx,%r9
  405816:	72 7a                	jb     405892 <_ZN11BuilderBaseIiiiLb1EE17ParallelPrefixSumERK7pvectorIiE._omp_fn.1+0xb2>
  405818:	4c 0f af c8          	imul   %rax,%r9
  40581c:	49 01 d1             	add    %rdx,%r9
  40581f:	4c 01 c8             	add    %r9,%rax
  405822:	49 39 c1             	cmp    %rax,%r9
  405825:	73 66                	jae    40588d <_ZN11BuilderBaseIiiiLb1EE17ParallelPrefixSumERK7pvectorIiE._omp_fn.1+0xad>
/home/aliha951/ipdps-artifact/gapbs-master/src/builder.h:129
    for (size_t block=0; block < num_blocks; block++) {
      SGOffset local_total = bulk_prefix[block];
      size_t block_end = std::min((block + 1) * block_size, degrees.size());
  405827:	48 8b 4d 00          	mov    0x0(%rbp),%rcx
_ZN7pvectorIlEixEm():
/home/aliha951/ipdps-artifact/gapbs-master/src/pvector.h:116
    return start_[n];
  40582b:	48 8b 55 18          	mov    0x18(%rbp),%rdx
_ZN11BuilderBaseIiiiLb1EE17ParallelPrefixSumERK7pvectorIiE._omp_fn.1():
/home/aliha951/ipdps-artifact/gapbs-master/src/builder.h:131
      for (size_t i=block * block_size; i < block_end; i++) {
        prefix[i] = local_total;
  40582f:	48 8b 6d 08          	mov    0x8(%rbp),%rbp
_ZNK7pvectorIiE4sizeEv():
/home/aliha951/ipdps-artifact/gapbs-master/src/pvector.h:143
    return end_size_ - start_;
  405833:	4c 8b 01             	mov    (%rcx),%r8
  405836:	4c 8b 59 08          	mov    0x8(%rcx),%r11
_ZN7pvectorIlEixEm():
/home/aliha951/ipdps-artifact/gapbs-master/src/pvector.h:116
    return start_[n];
  40583a:	48 8b 12             	mov    (%rdx),%rdx
_ZNK7pvectorIiE4sizeEv():
/home/aliha951/ipdps-artifact/gapbs-master/src/pvector.h:143
    return end_size_ - start_;
  40583d:	4d 29 c3             	sub    %r8,%r11
  405840:	4e 8d 14 ca          	lea    (%rdx,%r9,8),%r10
  405844:	49 c1 fb 02          	sar    $0x2,%r11
  405848:	49 c1 e1 14          	shl    $0x14,%r9
  40584c:	48 8d 1c c2          	lea    (%rdx,%rax,8),%rbx
_ZN7pvectorIlEixEm():
/home/aliha951/ipdps-artifact/gapbs-master/src/pvector.h:115
  T_& operator[](size_t n) {
  405850:	4c 89 c8             	mov    %r9,%rax
_ZN11BuilderBaseIiiiLb1EE17ParallelPrefixSumERK7pvectorIiE._omp_fn.1():
/home/aliha951/ipdps-artifact/gapbs-master/src/builder.h:129
      size_t block_end = std::min((block + 1) * block_size, degrees.size());
  405853:	49 81 c1 00 00 10 00 	add    $0x100000,%r9
  40585a:	4c 89 de             	mov    %r11,%rsi
/home/aliha951/ipdps-artifact/gapbs-master/src/builder.h:128
      SGOffset local_total = bulk_prefix[block];
  40585d:	49 8b 12             	mov    (%r10),%rdx
_ZNK7pvectorIiE4sizeEv():
/home/aliha951/ipdps-artifact/gapbs-master/src/pvector.h:142
  size_t size() const {
  405860:	4d 39 d9             	cmp    %r11,%r9
  405863:	49 0f 46 f1          	cmovbe %r9,%rsi
_ZN11BuilderBaseIiiiLb1EE17ParallelPrefixSumERK7pvectorIiE._omp_fn.1():
/home/aliha951/ipdps-artifact/gapbs-master/src/builder.h:130
      for (size_t i=block * block_size; i < block_end; i++) {
  405867:	48 39 c6             	cmp    %rax,%rsi
  40586a:	76 18                	jbe    405884 <_ZN11BuilderBaseIiiiLb1EE17ParallelPrefixSumERK7pvectorIiE._omp_fn.1+0xa4>
_ZN7pvectorIlEixEm():
/home/aliha951/ipdps-artifact/gapbs-master/src/pvector.h:116
    return start_[n];
  40586c:	48 8b 7d 00          	mov    0x0(%rbp),%rdi
_ZN11BuilderBaseIiiiLb1EE17ParallelPrefixSumERK7pvectorIiE._omp_fn.1():
/home/aliha951/ipdps-artifact/gapbs-master/src/builder.h:132 (discriminator 2)
        local_total += degrees[i];
  405870:	49 63 0c 80          	movslq (%r8,%rax,4),%rcx
/home/aliha951/ipdps-artifact/gapbs-master/src/builder.h:131 (discriminator 2)
        prefix[i] = local_total;
  405874:	48 89 14 c7          	mov    %rdx,(%rdi,%rax,8)
/home/aliha951/ipdps-artifact/gapbs-master/src/builder.h:130 (discriminator 2)
      for (size_t i=block * block_size; i < block_end; i++) {
  405878:	48 83 c0 01          	add    $0x1,%rax
/home/aliha951/ipdps-artifact/gapbs-master/src/builder.h:132 (discriminator 2)
        local_total += degrees[i];
  40587c:	48 01 ca             	add    %rcx,%rdx
/home/aliha951/ipdps-artifact/gapbs-master/src/builder.h:130 (discriminator 2)
      for (size_t i=block * block_size; i < block_end; i++) {
  40587f:	48 39 c6             	cmp    %rax,%rsi
  405882:	75 ec                	jne    405870 <_ZN11BuilderBaseIiiiLb1EE17ParallelPrefixSumERK7pvectorIiE._omp_fn.1+0x90>
  405884:	49 83 c2 08          	add    $0x8,%r10
  405888:	49 39 da             	cmp    %rbx,%r10
  40588b:	75 c3                	jne    405850 <_ZN11BuilderBaseIiiiLb1EE17ParallelPrefixSumERK7pvectorIiE._omp_fn.1+0x70>
/home/aliha951/ipdps-artifact/gapbs-master/src/builder.h:126
    #pragma omp parallel for
  40588d:	5b                   	pop    %rbx
  40588e:	5d                   	pop    %rbp
  40588f:	41 5c                	pop    %r12
  405891:	c3                   	retq   
  405892:	48 83 c0 01          	add    $0x1,%rax
  405896:	31 d2                	xor    %edx,%edx
  405898:	e9 7b ff ff ff       	jmpq   405818 <_ZN11BuilderBaseIiiiLb1EE17ParallelPrefixSumERK7pvectorIiE._omp_fn.1+0x38>
  40589d:	0f 1f 00             	nopl   (%rax)

00000000004058a0 <_ZN11BuilderBaseIiiiLb1EE7MakeCSRERK7pvectorI8EdgePairIiiEEbPPPiS8_._omp_fn.0>:
_ZN11BuilderBaseIiiiLb1EE7MakeCSRERK7pvectorI8EdgePairIiiEEbPPPiS8_._omp_fn.0():
/home/aliha951/ipdps-artifact/gapbs-master/src/builder.h:306
               DestID_** neighs) {
    pvector<NodeID_> degrees = CountDegrees(el, transpose);
    pvector<SGOffset> offsets = ParallelPrefixSum(degrees);
    *neighs = new DestID_[offsets[num_nodes_]];
    *index = CSRGraph<NodeID_, DestID_>::GenIndex(offsets, *neighs);
    #pragma omp parallel for
  4058a0:	f3 0f 1e fa          	endbr64 
  4058a4:	41 55                	push   %r13
  4058a6:	41 54                	push   %r12
  4058a8:	55                   	push   %rbp
  4058a9:	53                   	push   %rbx
  4058aa:	48 83 ec 08          	sub    $0x8,%rsp
/home/aliha951/ipdps-artifact/gapbs-master/src/builder.h:307
    for (auto it = el.begin(); it < el.end(); it++) {
  4058ae:	48 8b 47 08          	mov    0x8(%rdi),%rax
_ZNK7pvectorI8EdgePairIiiEE5beginEv():
/home/aliha951/ipdps-artifact/gapbs-master/src/pvector.h:147
    return start_;
  4058b2:	4c 8b 20             	mov    (%rax),%r12
_ZNK7pvectorI8EdgePairIiiEE3endEv():
/home/aliha951/ipdps-artifact/gapbs-master/src/pvector.h:151
    return end_size_;
  4058b5:	4c 8b 68 08          	mov    0x8(%rax),%r13
  4058b9:	4d 39 e5             	cmp    %r12,%r13
  4058bc:	0f 86 c5 00 00 00    	jbe    405987 <_ZN11BuilderBaseIiiiLb1EE7MakeCSRERK7pvectorI8EdgePairIiiEEbPPPiS8_._omp_fn.0+0xe7>
  4058c2:	48 89 fb             	mov    %rdi,%rbx
  4058c5:	e8 c6 e1 ff ff       	callq  403a90 <omp_get_num_threads@plt>
  4058ca:	48 63 e8             	movslq %eax,%rbp
  4058cd:	e8 9e e0 ff ff       	callq  403970 <omp_get_thread_num@plt>
  4058d2:	48 63 c8             	movslq %eax,%rcx
  4058d5:	49 8d 45 07          	lea    0x7(%r13),%rax
  4058d9:	4c 29 e0             	sub    %r12,%rax
  4058dc:	48 89 c2             	mov    %rax,%rdx
  4058df:	48 8d 40 07          	lea    0x7(%rax),%rax
  4058e3:	48 0f 49 c2          	cmovns %rdx,%rax
  4058e7:	48 c1 f8 03          	sar    $0x3,%rax
  4058eb:	48 99                	cqto   
  4058ed:	48 f7 fd             	idiv   %rbp
  4058f0:	48 39 d1             	cmp    %rdx,%rcx
  4058f3:	0f 8c 9f 00 00 00    	jl     405998 <_ZN11BuilderBaseIiiiLb1EE7MakeCSRERK7pvectorI8EdgePairIiiEEbPPPiS8_._omp_fn.0+0xf8>
  4058f9:	48 0f af c8          	imul   %rax,%rcx
  4058fd:	48 01 ca             	add    %rcx,%rdx
  405900:	48 01 d0             	add    %rdx,%rax
  405903:	48 39 c2             	cmp    %rax,%rdx
  405906:	7d 7f                	jge    405987 <_ZN11BuilderBaseIiiiLb1EE7MakeCSRERK7pvectorI8EdgePairIiiEEbPPPiS8_._omp_fn.0+0xe7>
  405908:	49 8d 14 d4          	lea    (%r12,%rdx,8),%rdx
_ZN11BuilderBaseIiiiLb1EE7MakeCSRERK7pvectorI8EdgePairIiiEEbPPPiS8_._omp_fn.0():
/home/aliha951/ipdps-artifact/gapbs-master/src/builder.h:306
    #pragma omp parallel for
  40590c:	4c 8b 4b 10          	mov    0x10(%rbx),%r9
  405910:	44 0f b6 53 20       	movzbl 0x20(%rbx),%r10d
  405915:	4d 8d 24 c4          	lea    (%r12,%rax,8),%r12
  405919:	4c 8b 03             	mov    (%rbx),%r8
  40591c:	eb 2c                	jmp    40594a <_ZN11BuilderBaseIiiiLb1EE7MakeCSRERK7pvectorI8EdgePairIiiEEbPPPiS8_._omp_fn.0+0xaa>
  40591e:	66 90                	xchg   %ax,%ax
/home/aliha951/ipdps-artifact/gapbs-master/src/builder.h:309
      Edge e = *it;
      if (symmetrize_ || (!symmetrize_ && !transpose))
  405920:	45 84 d2             	test   %r10b,%r10b
  405923:	74 31                	je     405956 <_ZN11BuilderBaseIiiiLb1EE7MakeCSRERK7pvectorI8EdgePairIiiEEbPPPiS8_._omp_fn.0+0xb6>
_ZN7pvectorIlEixEm():
/home/aliha951/ipdps-artifact/gapbs-master/src/pvector.h:116
    return start_[n];
  405925:	48 8b 43 18          	mov    0x18(%rbx),%rax
_ZN11BuilderBaseIiiiLb1EE7MakeCSRERK7pvectorI8EdgePairIiiEEbPPPiS8_._omp_fn.0():
/home/aliha951/ipdps-artifact/gapbs-master/src/builder.h:312
        (*neighs)[fetch_and_add(offsets[e.u], 1)] = e.v;
      if (symmetrize_ || (!symmetrize_ && transpose))
        (*neighs)[fetch_and_add(offsets[static_cast<NodeID_>(e.v)], 1)] =
  405929:	4d 8b 19             	mov    (%r9),%r11
  40592c:	48 63 ce             	movslq %esi,%rcx
_Z13fetch_and_addIliET_RS0_T0_():
/home/aliha951/ipdps-artifact/gapbs-master/src/platform_atomics.h:26
  40592f:	be 01 00 00 00       	mov    $0x1,%esi
  405934:	48 8b 00             	mov    (%rax),%rax
  405937:	f0 48 0f c1 34 c8    	lock xadd %rsi,(%rax,%rcx,8)
  40593d:	48 83 c2 08          	add    $0x8,%rdx
_ZN11BuilderBaseIiiiLb1EE7MakeCSRERK7pvectorI8EdgePairIiiEEbPPPiS8_._omp_fn.0():
/home/aliha951/ipdps-artifact/gapbs-master/src/builder.h:312
  405941:	41 89 3c b3          	mov    %edi,(%r11,%rsi,4)
  405945:	49 39 d4             	cmp    %rdx,%r12
  405948:	76 3d                	jbe    405987 <_ZN11BuilderBaseIiiiLb1EE7MakeCSRERK7pvectorI8EdgePairIiiEEbPPPiS8_._omp_fn.0+0xe7>
/home/aliha951/ipdps-artifact/gapbs-master/src/builder.h:309
      if (symmetrize_ || (!symmetrize_ && !transpose))
  40594a:	41 80 78 08 01       	cmpb   $0x1,0x8(%r8)
/home/aliha951/ipdps-artifact/gapbs-master/src/builder.h:308
      Edge e = *it;
  40594f:	8b 3a                	mov    (%rdx),%edi
  405951:	8b 72 04             	mov    0x4(%rdx),%esi
/home/aliha951/ipdps-artifact/gapbs-master/src/builder.h:309
      if (symmetrize_ || (!symmetrize_ && !transpose))
  405954:	75 ca                	jne    405920 <_ZN11BuilderBaseIiiiLb1EE7MakeCSRERK7pvectorI8EdgePairIiiEEbPPPiS8_._omp_fn.0+0x80>
_ZN7pvectorIlEixEm():
/home/aliha951/ipdps-artifact/gapbs-master/src/pvector.h:116
  405956:	48 8b 4b 18          	mov    0x18(%rbx),%rcx
_ZN11BuilderBaseIiiiLb1EE7MakeCSRERK7pvectorI8EdgePairIiiEEbPPPiS8_._omp_fn.0():
/home/aliha951/ipdps-artifact/gapbs-master/src/builder.h:310
        (*neighs)[fetch_and_add(offsets[e.u], 1)] = e.v;
  40595a:	4d 8b 19             	mov    (%r9),%r11
  40595d:	48 63 c7             	movslq %edi,%rax
_Z13fetch_and_addIliET_RS0_T0_():
/home/aliha951/ipdps-artifact/gapbs-master/src/platform_atomics.h:26
  405960:	bd 01 00 00 00       	mov    $0x1,%ebp
  405965:	48 8b 09             	mov    (%rcx),%rcx
  405968:	f0 48 0f c1 2c c1    	lock xadd %rbp,(%rcx,%rax,8)
_ZN11BuilderBaseIiiiLb1EE7MakeCSRERK7pvectorI8EdgePairIiiEEbPPPiS8_._omp_fn.0():
/home/aliha951/ipdps-artifact/gapbs-master/src/builder.h:311
      if (symmetrize_ || (!symmetrize_ && transpose))
  40596e:	41 80 78 08 00       	cmpb   $0x0,0x8(%r8)
/home/aliha951/ipdps-artifact/gapbs-master/src/builder.h:310
        (*neighs)[fetch_and_add(offsets[e.u], 1)] = e.v;
  405973:	41 89 34 ab          	mov    %esi,(%r11,%rbp,4)
/home/aliha951/ipdps-artifact/gapbs-master/src/builder.h:311
      if (symmetrize_ || (!symmetrize_ && transpose))
  405977:	75 ac                	jne    405925 <_ZN11BuilderBaseIiiiLb1EE7MakeCSRERK7pvectorI8EdgePairIiiEEbPPPiS8_._omp_fn.0+0x85>
  405979:	45 84 d2             	test   %r10b,%r10b
  40597c:	75 a7                	jne    405925 <_ZN11BuilderBaseIiiiLb1EE7MakeCSRERK7pvectorI8EdgePairIiiEEbPPPiS8_._omp_fn.0+0x85>
  40597e:	48 83 c2 08          	add    $0x8,%rdx
  405982:	49 39 d4             	cmp    %rdx,%r12
  405985:	77 c3                	ja     40594a <_ZN11BuilderBaseIiiiLb1EE7MakeCSRERK7pvectorI8EdgePairIiiEEbPPPiS8_._omp_fn.0+0xaa>
/home/aliha951/ipdps-artifact/gapbs-master/src/builder.h:306
    #pragma omp parallel for
  405987:	48 83 c4 08          	add    $0x8,%rsp
  40598b:	5b                   	pop    %rbx
  40598c:	5d                   	pop    %rbp
  40598d:	41 5c                	pop    %r12
  40598f:	41 5d                	pop    %r13
  405991:	c3                   	retq   
  405992:	66 0f 1f 44 00 00    	nopw   0x0(%rax,%rax,1)
  405998:	48 83 c0 01          	add    $0x1,%rax
_ZNK7pvectorI8EdgePairIiiEE3endEv():
/home/aliha951/ipdps-artifact/gapbs-master/src/pvector.h:151
    return end_size_;
  40599c:	31 d2                	xor    %edx,%edx
  40599e:	e9 56 ff ff ff       	jmpq   4058f9 <_ZN11BuilderBaseIiiiLb1EE7MakeCSRERK7pvectorI8EdgePairIiiEEbPPPiS8_._omp_fn.0+0x59>
_ZN11BuilderBaseIiiiLb1EE7MakeCSRERK7pvectorI8EdgePairIiiEEbPPPiS8_._omp_fn.0():
/home/aliha951/ipdps-artifact/gapbs-master/src/pvector.h:151
  4059a3:	66 66 2e 0f 1f 84 00 	data16 nopw %cs:0x0(%rax,%rax,1)
  4059aa:	00 00 00 00 
  4059ae:	66 90                	xchg   %ax,%ax

00000000004059b0 <_ZL12open_counterjmiii.part.0>:
_ZL12open_counterjmiii.part.0():
