
../bfs_batching_nopt:     file format elf64-x86-64


Disassembly of section .init:

0000000000403000 <_init>:
_init():
  403000:	f3 0f 1e fa          	endbr64 
  403004:	48 83 ec 08          	sub    $0x8,%rsp
  403008:	48 8b 05 e1 6f 01 00 	mov    0x16fe1(%rip),%rax        # 419ff0 <__gmon_start__>
  40300f:	48 85 c0             	test   %rax,%rax
  403012:	74 02                	je     403016 <_init+0x16>
  403014:	ff d0                	callq  *%rax
  403016:	48 83 c4 08          	add    $0x8,%rsp
  40301a:	c3                   	retq   

Disassembly of section .plt:

0000000000403020 <.plt>:
  403020:	ff 35 e2 6f 01 00    	pushq  0x16fe2(%rip)        # 41a008 <_GLOBAL_OFFSET_TABLE_+0x8>
  403026:	f2 ff 25 e3 6f 01 00 	bnd jmpq *0x16fe3(%rip)        # 41a010 <_GLOBAL_OFFSET_TABLE_+0x10>
  40302d:	0f 1f 00             	nopl   (%rax)
  403030:	f3 0f 1e fa          	endbr64 
  403034:	68 00 00 00 00       	pushq  $0x0
  403039:	f2 e9 e1 ff ff ff    	bnd jmpq 403020 <.plt>
  40303f:	90                   	nop
  403040:	f3 0f 1e fa          	endbr64 
  403044:	68 01 00 00 00       	pushq  $0x1
  403049:	f2 e9 d1 ff ff ff    	bnd jmpq 403020 <.plt>
  40304f:	90                   	nop
  403050:	f3 0f 1e fa          	endbr64 
  403054:	68 02 00 00 00       	pushq  $0x2
  403059:	f2 e9 c1 ff ff ff    	bnd jmpq 403020 <.plt>
  40305f:	90                   	nop
  403060:	f3 0f 1e fa          	endbr64 
  403064:	68 03 00 00 00       	pushq  $0x3
  403069:	f2 e9 b1 ff ff ff    	bnd jmpq 403020 <.plt>
  40306f:	90                   	nop
  403070:	f3 0f 1e fa          	endbr64 
  403074:	68 04 00 00 00       	pushq  $0x4
  403079:	f2 e9 a1 ff ff ff    	bnd jmpq 403020 <.plt>
  40307f:	90                   	nop
  403080:	f3 0f 1e fa          	endbr64 
  403084:	68 05 00 00 00       	pushq  $0x5
  403089:	f2 e9 91 ff ff ff    	bnd jmpq 403020 <.plt>
  40308f:	90                   	nop
  403090:	f3 0f 1e fa          	endbr64 
  403094:	68 06 00 00 00       	pushq  $0x6
  403099:	f2 e9 81 ff ff ff    	bnd jmpq 403020 <.plt>
  40309f:	90                   	nop
  4030a0:	f3 0f 1e fa          	endbr64 
  4030a4:	68 07 00 00 00       	pushq  $0x7
  4030a9:	f2 e9 71 ff ff ff    	bnd jmpq 403020 <.plt>
  4030af:	90                   	nop
  4030b0:	f3 0f 1e fa          	endbr64 
  4030b4:	68 08 00 00 00       	pushq  $0x8
  4030b9:	f2 e9 61 ff ff ff    	bnd jmpq 403020 <.plt>
  4030bf:	90                   	nop
  4030c0:	f3 0f 1e fa          	endbr64 
  4030c4:	68 09 00 00 00       	pushq  $0x9
  4030c9:	f2 e9 51 ff ff ff    	bnd jmpq 403020 <.plt>
  4030cf:	90                   	nop
  4030d0:	f3 0f 1e fa          	endbr64 
  4030d4:	68 0a 00 00 00       	pushq  $0xa
  4030d9:	f2 e9 41 ff ff ff    	bnd jmpq 403020 <.plt>
  4030df:	90                   	nop
  4030e0:	f3 0f 1e fa          	endbr64 
  4030e4:	68 0b 00 00 00       	pushq  $0xb
  4030e9:	f2 e9 31 ff ff ff    	bnd jmpq 403020 <.plt>
  4030ef:	90                   	nop
  4030f0:	f3 0f 1e fa          	endbr64 
  4030f4:	68 0c 00 00 00       	pushq  $0xc
  4030f9:	f2 e9 21 ff ff ff    	bnd jmpq 403020 <.plt>
  4030ff:	90                   	nop
  403100:	f3 0f 1e fa          	endbr64 
  403104:	68 0d 00 00 00       	pushq  $0xd
  403109:	f2 e9 11 ff ff ff    	bnd jmpq 403020 <.plt>
  40310f:	90                   	nop
  403110:	f3 0f 1e fa          	endbr64 
  403114:	68 0e 00 00 00       	pushq  $0xe
  403119:	f2 e9 01 ff ff ff    	bnd jmpq 403020 <.plt>
  40311f:	90                   	nop
  403120:	f3 0f 1e fa          	endbr64 
  403124:	68 0f 00 00 00       	pushq  $0xf
  403129:	f2 e9 f1 fe ff ff    	bnd jmpq 403020 <.plt>
  40312f:	90                   	nop
  403130:	f3 0f 1e fa          	endbr64 
  403134:	68 10 00 00 00       	pushq  $0x10
  403139:	f2 e9 e1 fe ff ff    	bnd jmpq 403020 <.plt>
  40313f:	90                   	nop
  403140:	f3 0f 1e fa          	endbr64 
  403144:	68 11 00 00 00       	pushq  $0x11
  403149:	f2 e9 d1 fe ff ff    	bnd jmpq 403020 <.plt>
  40314f:	90                   	nop
  403150:	f3 0f 1e fa          	endbr64 
  403154:	68 12 00 00 00       	pushq  $0x12
  403159:	f2 e9 c1 fe ff ff    	bnd jmpq 403020 <.plt>
  40315f:	90                   	nop
  403160:	f3 0f 1e fa          	endbr64 
  403164:	68 13 00 00 00       	pushq  $0x13
  403169:	f2 e9 b1 fe ff ff    	bnd jmpq 403020 <.plt>
  40316f:	90                   	nop
  403170:	f3 0f 1e fa          	endbr64 
  403174:	68 14 00 00 00       	pushq  $0x14
  403179:	f2 e9 a1 fe ff ff    	bnd jmpq 403020 <.plt>
  40317f:	90                   	nop
  403180:	f3 0f 1e fa          	endbr64 
  403184:	68 15 00 00 00       	pushq  $0x15
  403189:	f2 e9 91 fe ff ff    	bnd jmpq 403020 <.plt>
  40318f:	90                   	nop
  403190:	f3 0f 1e fa          	endbr64 
  403194:	68 16 00 00 00       	pushq  $0x16
  403199:	f2 e9 81 fe ff ff    	bnd jmpq 403020 <.plt>
  40319f:	90                   	nop
  4031a0:	f3 0f 1e fa          	endbr64 
  4031a4:	68 17 00 00 00       	pushq  $0x17
  4031a9:	f2 e9 71 fe ff ff    	bnd jmpq 403020 <.plt>
  4031af:	90                   	nop
  4031b0:	f3 0f 1e fa          	endbr64 
  4031b4:	68 18 00 00 00       	pushq  $0x18
  4031b9:	f2 e9 61 fe ff ff    	bnd jmpq 403020 <.plt>
  4031bf:	90                   	nop
  4031c0:	f3 0f 1e fa          	endbr64 
  4031c4:	68 19 00 00 00       	pushq  $0x19
  4031c9:	f2 e9 51 fe ff ff    	bnd jmpq 403020 <.plt>
  4031cf:	90                   	nop
  4031d0:	f3 0f 1e fa          	endbr64 
  4031d4:	68 1a 00 00 00       	pushq  $0x1a
  4031d9:	f2 e9 41 fe ff ff    	bnd jmpq 403020 <.plt>
  4031df:	90                   	nop
  4031e0:	f3 0f 1e fa          	endbr64 
  4031e4:	68 1b 00 00 00       	pushq  $0x1b
  4031e9:	f2 e9 31 fe ff ff    	bnd jmpq 403020 <.plt>
  4031ef:	90                   	nop
  4031f0:	f3 0f 1e fa          	endbr64 
  4031f4:	68 1c 00 00 00       	pushq  $0x1c
  4031f9:	f2 e9 21 fe ff ff    	bnd jmpq 403020 <.plt>
  4031ff:	90                   	nop
  403200:	f3 0f 1e fa          	endbr64 
  403204:	68 1d 00 00 00       	pushq  $0x1d
  403209:	f2 e9 11 fe ff ff    	bnd jmpq 403020 <.plt>
  40320f:	90                   	nop
  403210:	f3 0f 1e fa          	endbr64 
  403214:	68 1e 00 00 00       	pushq  $0x1e
  403219:	f2 e9 01 fe ff ff    	bnd jmpq 403020 <.plt>
  40321f:	90                   	nop
  403220:	f3 0f 1e fa          	endbr64 
  403224:	68 1f 00 00 00       	pushq  $0x1f
  403229:	f2 e9 f1 fd ff ff    	bnd jmpq 403020 <.plt>
  40322f:	90                   	nop
  403230:	f3 0f 1e fa          	endbr64 
  403234:	68 20 00 00 00       	pushq  $0x20
  403239:	f2 e9 e1 fd ff ff    	bnd jmpq 403020 <.plt>
  40323f:	90                   	nop
  403240:	f3 0f 1e fa          	endbr64 
  403244:	68 21 00 00 00       	pushq  $0x21
  403249:	f2 e9 d1 fd ff ff    	bnd jmpq 403020 <.plt>
  40324f:	90                   	nop
  403250:	f3 0f 1e fa          	endbr64 
  403254:	68 22 00 00 00       	pushq  $0x22
  403259:	f2 e9 c1 fd ff ff    	bnd jmpq 403020 <.plt>
  40325f:	90                   	nop
  403260:	f3 0f 1e fa          	endbr64 
  403264:	68 23 00 00 00       	pushq  $0x23
  403269:	f2 e9 b1 fd ff ff    	bnd jmpq 403020 <.plt>
  40326f:	90                   	nop
  403270:	f3 0f 1e fa          	endbr64 
  403274:	68 24 00 00 00       	pushq  $0x24
  403279:	f2 e9 a1 fd ff ff    	bnd jmpq 403020 <.plt>
  40327f:	90                   	nop
  403280:	f3 0f 1e fa          	endbr64 
  403284:	68 25 00 00 00       	pushq  $0x25
  403289:	f2 e9 91 fd ff ff    	bnd jmpq 403020 <.plt>
  40328f:	90                   	nop
  403290:	f3 0f 1e fa          	endbr64 
  403294:	68 26 00 00 00       	pushq  $0x26
  403299:	f2 e9 81 fd ff ff    	bnd jmpq 403020 <.plt>
  40329f:	90                   	nop
  4032a0:	f3 0f 1e fa          	endbr64 
  4032a4:	68 27 00 00 00       	pushq  $0x27
  4032a9:	f2 e9 71 fd ff ff    	bnd jmpq 403020 <.plt>
  4032af:	90                   	nop
  4032b0:	f3 0f 1e fa          	endbr64 
  4032b4:	68 28 00 00 00       	pushq  $0x28
  4032b9:	f2 e9 61 fd ff ff    	bnd jmpq 403020 <.plt>
  4032bf:	90                   	nop
  4032c0:	f3 0f 1e fa          	endbr64 
  4032c4:	68 29 00 00 00       	pushq  $0x29
  4032c9:	f2 e9 51 fd ff ff    	bnd jmpq 403020 <.plt>
  4032cf:	90                   	nop
  4032d0:	f3 0f 1e fa          	endbr64 
  4032d4:	68 2a 00 00 00       	pushq  $0x2a
  4032d9:	f2 e9 41 fd ff ff    	bnd jmpq 403020 <.plt>
  4032df:	90                   	nop
  4032e0:	f3 0f 1e fa          	endbr64 
  4032e4:	68 2b 00 00 00       	pushq  $0x2b
  4032e9:	f2 e9 31 fd ff ff    	bnd jmpq 403020 <.plt>
  4032ef:	90                   	nop
  4032f0:	f3 0f 1e fa          	endbr64 
  4032f4:	68 2c 00 00 00       	pushq  $0x2c
  4032f9:	f2 e9 21 fd ff ff    	bnd jmpq 403020 <.plt>
  4032ff:	90                   	nop
  403300:	f3 0f 1e fa          	endbr64 
  403304:	68 2d 00 00 00       	pushq  $0x2d
  403309:	f2 e9 11 fd ff ff    	bnd jmpq 403020 <.plt>
  40330f:	90                   	nop
  403310:	f3 0f 1e fa          	endbr64 
  403314:	68 2e 00 00 00       	pushq  $0x2e
  403319:	f2 e9 01 fd ff ff    	bnd jmpq 403020 <.plt>
  40331f:	90                   	nop
  403320:	f3 0f 1e fa          	endbr64 
  403324:	68 2f 00 00 00       	pushq  $0x2f
  403329:	f2 e9 f1 fc ff ff    	bnd jmpq 403020 <.plt>
  40332f:	90                   	nop
  403330:	f3 0f 1e fa          	endbr64 
  403334:	68 30 00 00 00       	pushq  $0x30
  403339:	f2 e9 e1 fc ff ff    	bnd jmpq 403020 <.plt>
  40333f:	90                   	nop
  403340:	f3 0f 1e fa          	endbr64 
  403344:	68 31 00 00 00       	pushq  $0x31
  403349:	f2 e9 d1 fc ff ff    	bnd jmpq 403020 <.plt>
  40334f:	90                   	nop
  403350:	f3 0f 1e fa          	endbr64 
  403354:	68 32 00 00 00       	pushq  $0x32
  403359:	f2 e9 c1 fc ff ff    	bnd jmpq 403020 <.plt>
  40335f:	90                   	nop
  403360:	f3 0f 1e fa          	endbr64 
  403364:	68 33 00 00 00       	pushq  $0x33
  403369:	f2 e9 b1 fc ff ff    	bnd jmpq 403020 <.plt>
  40336f:	90                   	nop
  403370:	f3 0f 1e fa          	endbr64 
  403374:	68 34 00 00 00       	pushq  $0x34
  403379:	f2 e9 a1 fc ff ff    	bnd jmpq 403020 <.plt>
  40337f:	90                   	nop
  403380:	f3 0f 1e fa          	endbr64 
  403384:	68 35 00 00 00       	pushq  $0x35
  403389:	f2 e9 91 fc ff ff    	bnd jmpq 403020 <.plt>
  40338f:	90                   	nop
  403390:	f3 0f 1e fa          	endbr64 
  403394:	68 36 00 00 00       	pushq  $0x36
  403399:	f2 e9 81 fc ff ff    	bnd jmpq 403020 <.plt>
  40339f:	90                   	nop
  4033a0:	f3 0f 1e fa          	endbr64 
  4033a4:	68 37 00 00 00       	pushq  $0x37
  4033a9:	f2 e9 71 fc ff ff    	bnd jmpq 403020 <.plt>
  4033af:	90                   	nop
  4033b0:	f3 0f 1e fa          	endbr64 
  4033b4:	68 38 00 00 00       	pushq  $0x38
  4033b9:	f2 e9 61 fc ff ff    	bnd jmpq 403020 <.plt>
  4033bf:	90                   	nop
  4033c0:	f3 0f 1e fa          	endbr64 
  4033c4:	68 39 00 00 00       	pushq  $0x39
  4033c9:	f2 e9 51 fc ff ff    	bnd jmpq 403020 <.plt>
  4033cf:	90                   	nop
  4033d0:	f3 0f 1e fa          	endbr64 
  4033d4:	68 3a 00 00 00       	pushq  $0x3a
  4033d9:	f2 e9 41 fc ff ff    	bnd jmpq 403020 <.plt>
  4033df:	90                   	nop
  4033e0:	f3 0f 1e fa          	endbr64 
  4033e4:	68 3b 00 00 00       	pushq  $0x3b
  4033e9:	f2 e9 31 fc ff ff    	bnd jmpq 403020 <.plt>
  4033ef:	90                   	nop
  4033f0:	f3 0f 1e fa          	endbr64 
  4033f4:	68 3c 00 00 00       	pushq  $0x3c
  4033f9:	f2 e9 21 fc ff ff    	bnd jmpq 403020 <.plt>
  4033ff:	90                   	nop
  403400:	f3 0f 1e fa          	endbr64 
  403404:	68 3d 00 00 00       	pushq  $0x3d
  403409:	f2 e9 11 fc ff ff    	bnd jmpq 403020 <.plt>
  40340f:	90                   	nop
  403410:	f3 0f 1e fa          	endbr64 
  403414:	68 3e 00 00 00       	pushq  $0x3e
  403419:	f2 e9 01 fc ff ff    	bnd jmpq 403020 <.plt>
  40341f:	90                   	nop
  403420:	f3 0f 1e fa          	endbr64 
  403424:	68 3f 00 00 00       	pushq  $0x3f
  403429:	f2 e9 f1 fb ff ff    	bnd jmpq 403020 <.plt>
  40342f:	90                   	nop
  403430:	f3 0f 1e fa          	endbr64 
  403434:	68 40 00 00 00       	pushq  $0x40
  403439:	f2 e9 e1 fb ff ff    	bnd jmpq 403020 <.plt>
  40343f:	90                   	nop
  403440:	f3 0f 1e fa          	endbr64 
  403444:	68 41 00 00 00       	pushq  $0x41
  403449:	f2 e9 d1 fb ff ff    	bnd jmpq 403020 <.plt>
  40344f:	90                   	nop
  403450:	f3 0f 1e fa          	endbr64 
  403454:	68 42 00 00 00       	pushq  $0x42
  403459:	f2 e9 c1 fb ff ff    	bnd jmpq 403020 <.plt>
  40345f:	90                   	nop
  403460:	f3 0f 1e fa          	endbr64 
  403464:	68 43 00 00 00       	pushq  $0x43
  403469:	f2 e9 b1 fb ff ff    	bnd jmpq 403020 <.plt>
  40346f:	90                   	nop
  403470:	f3 0f 1e fa          	endbr64 
  403474:	68 44 00 00 00       	pushq  $0x44
  403479:	f2 e9 a1 fb ff ff    	bnd jmpq 403020 <.plt>
  40347f:	90                   	nop
  403480:	f3 0f 1e fa          	endbr64 
  403484:	68 45 00 00 00       	pushq  $0x45
  403489:	f2 e9 91 fb ff ff    	bnd jmpq 403020 <.plt>
  40348f:	90                   	nop
  403490:	f3 0f 1e fa          	endbr64 
  403494:	68 46 00 00 00       	pushq  $0x46
  403499:	f2 e9 81 fb ff ff    	bnd jmpq 403020 <.plt>
  40349f:	90                   	nop
  4034a0:	f3 0f 1e fa          	endbr64 
  4034a4:	68 47 00 00 00       	pushq  $0x47
  4034a9:	f2 e9 71 fb ff ff    	bnd jmpq 403020 <.plt>
  4034af:	90                   	nop
  4034b0:	f3 0f 1e fa          	endbr64 
  4034b4:	68 48 00 00 00       	pushq  $0x48
  4034b9:	f2 e9 61 fb ff ff    	bnd jmpq 403020 <.plt>
  4034bf:	90                   	nop
  4034c0:	f3 0f 1e fa          	endbr64 
  4034c4:	68 49 00 00 00       	pushq  $0x49
  4034c9:	f2 e9 51 fb ff ff    	bnd jmpq 403020 <.plt>
  4034cf:	90                   	nop
  4034d0:	f3 0f 1e fa          	endbr64 
  4034d4:	68 4a 00 00 00       	pushq  $0x4a
  4034d9:	f2 e9 41 fb ff ff    	bnd jmpq 403020 <.plt>
  4034df:	90                   	nop
  4034e0:	f3 0f 1e fa          	endbr64 
  4034e4:	68 4b 00 00 00       	pushq  $0x4b
  4034e9:	f2 e9 31 fb ff ff    	bnd jmpq 403020 <.plt>
  4034ef:	90                   	nop
  4034f0:	f3 0f 1e fa          	endbr64 
  4034f4:	68 4c 00 00 00       	pushq  $0x4c
  4034f9:	f2 e9 21 fb ff ff    	bnd jmpq 403020 <.plt>
  4034ff:	90                   	nop
  403500:	f3 0f 1e fa          	endbr64 
  403504:	68 4d 00 00 00       	pushq  $0x4d
  403509:	f2 e9 11 fb ff ff    	bnd jmpq 403020 <.plt>
  40350f:	90                   	nop
  403510:	f3 0f 1e fa          	endbr64 
  403514:	68 4e 00 00 00       	pushq  $0x4e
  403519:	f2 e9 01 fb ff ff    	bnd jmpq 403020 <.plt>
  40351f:	90                   	nop
  403520:	f3 0f 1e fa          	endbr64 
  403524:	68 4f 00 00 00       	pushq  $0x4f
  403529:	f2 e9 f1 fa ff ff    	bnd jmpq 403020 <.plt>
  40352f:	90                   	nop
  403530:	f3 0f 1e fa          	endbr64 
  403534:	68 50 00 00 00       	pushq  $0x50
  403539:	f2 e9 e1 fa ff ff    	bnd jmpq 403020 <.plt>
  40353f:	90                   	nop
  403540:	f3 0f 1e fa          	endbr64 
  403544:	68 51 00 00 00       	pushq  $0x51
  403549:	f2 e9 d1 fa ff ff    	bnd jmpq 403020 <.plt>
  40354f:	90                   	nop
  403550:	f3 0f 1e fa          	endbr64 
  403554:	68 52 00 00 00       	pushq  $0x52
  403559:	f2 e9 c1 fa ff ff    	bnd jmpq 403020 <.plt>
  40355f:	90                   	nop
  403560:	f3 0f 1e fa          	endbr64 
  403564:	68 53 00 00 00       	pushq  $0x53
  403569:	f2 e9 b1 fa ff ff    	bnd jmpq 403020 <.plt>
  40356f:	90                   	nop
  403570:	f3 0f 1e fa          	endbr64 
  403574:	68 54 00 00 00       	pushq  $0x54
  403579:	f2 e9 a1 fa ff ff    	bnd jmpq 403020 <.plt>
  40357f:	90                   	nop
  403580:	f3 0f 1e fa          	endbr64 
  403584:	68 55 00 00 00       	pushq  $0x55
  403589:	f2 e9 91 fa ff ff    	bnd jmpq 403020 <.plt>
  40358f:	90                   	nop
  403590:	f3 0f 1e fa          	endbr64 
  403594:	68 56 00 00 00       	pushq  $0x56
  403599:	f2 e9 81 fa ff ff    	bnd jmpq 403020 <.plt>
  40359f:	90                   	nop
  4035a0:	f3 0f 1e fa          	endbr64 
  4035a4:	68 57 00 00 00       	pushq  $0x57
  4035a9:	f2 e9 71 fa ff ff    	bnd jmpq 403020 <.plt>
  4035af:	90                   	nop
  4035b0:	f3 0f 1e fa          	endbr64 
  4035b4:	68 58 00 00 00       	pushq  $0x58
  4035b9:	f2 e9 61 fa ff ff    	bnd jmpq 403020 <.plt>
  4035bf:	90                   	nop
  4035c0:	f3 0f 1e fa          	endbr64 
  4035c4:	68 59 00 00 00       	pushq  $0x59
  4035c9:	f2 e9 51 fa ff ff    	bnd jmpq 403020 <.plt>
  4035cf:	90                   	nop
  4035d0:	f3 0f 1e fa          	endbr64 
  4035d4:	68 5a 00 00 00       	pushq  $0x5a
  4035d9:	f2 e9 41 fa ff ff    	bnd jmpq 403020 <.plt>
  4035df:	90                   	nop
  4035e0:	f3 0f 1e fa          	endbr64 
  4035e4:	68 5b 00 00 00       	pushq  $0x5b
  4035e9:	f2 e9 31 fa ff ff    	bnd jmpq 403020 <.plt>
  4035ef:	90                   	nop
  4035f0:	f3 0f 1e fa          	endbr64 
  4035f4:	68 5c 00 00 00       	pushq  $0x5c
  4035f9:	f2 e9 21 fa ff ff    	bnd jmpq 403020 <.plt>
  4035ff:	90                   	nop
  403600:	f3 0f 1e fa          	endbr64 
  403604:	68 5d 00 00 00       	pushq  $0x5d
  403609:	f2 e9 11 fa ff ff    	bnd jmpq 403020 <.plt>
  40360f:	90                   	nop
  403610:	f3 0f 1e fa          	endbr64 
  403614:	68 5e 00 00 00       	pushq  $0x5e
  403619:	f2 e9 01 fa ff ff    	bnd jmpq 403020 <.plt>
  40361f:	90                   	nop
  403620:	f3 0f 1e fa          	endbr64 
  403624:	68 5f 00 00 00       	pushq  $0x5f
  403629:	f2 e9 f1 f9 ff ff    	bnd jmpq 403020 <.plt>
  40362f:	90                   	nop
  403630:	f3 0f 1e fa          	endbr64 
  403634:	68 60 00 00 00       	pushq  $0x60
  403639:	f2 e9 e1 f9 ff ff    	bnd jmpq 403020 <.plt>
  40363f:	90                   	nop
  403640:	f3 0f 1e fa          	endbr64 
  403644:	68 61 00 00 00       	pushq  $0x61
  403649:	f2 e9 d1 f9 ff ff    	bnd jmpq 403020 <.plt>
  40364f:	90                   	nop
  403650:	f3 0f 1e fa          	endbr64 
  403654:	68 62 00 00 00       	pushq  $0x62
  403659:	f2 e9 c1 f9 ff ff    	bnd jmpq 403020 <.plt>
  40365f:	90                   	nop
  403660:	f3 0f 1e fa          	endbr64 
  403664:	68 63 00 00 00       	pushq  $0x63
  403669:	f2 e9 b1 f9 ff ff    	bnd jmpq 403020 <.plt>
  40366f:	90                   	nop
  403670:	f3 0f 1e fa          	endbr64 
  403674:	68 64 00 00 00       	pushq  $0x64
  403679:	f2 e9 a1 f9 ff ff    	bnd jmpq 403020 <.plt>
  40367f:	90                   	nop
  403680:	f3 0f 1e fa          	endbr64 
  403684:	68 65 00 00 00       	pushq  $0x65
  403689:	f2 e9 91 f9 ff ff    	bnd jmpq 403020 <.plt>
  40368f:	90                   	nop

Disassembly of section .plt.sec:

0000000000403690 <__printf_chk@plt>:
  403690:	f3 0f 1e fa          	endbr64 
  403694:	f2 ff 25 7d 69 01 00 	bnd jmpq *0x1697d(%rip)        # 41a018 <__printf_chk@GLIBC_2.3.4>
  40369b:	0f 1f 44 00 00       	nopl   0x0(%rax,%rax,1)

00000000004036a0 <_Znam@plt>:
  4036a0:	f3 0f 1e fa          	endbr64 
  4036a4:	f2 ff 25 75 69 01 00 	bnd jmpq *0x16975(%rip)        # 41a020 <_Znam@GLIBCXX_3.4>
  4036ab:	0f 1f 44 00 00       	nopl   0x0(%rax,%rax,1)

00000000004036b0 <GOMP_loop_end_nowait@plt>:
  4036b0:	f3 0f 1e fa          	endbr64 
  4036b4:	f2 ff 25 6d 69 01 00 	bnd jmpq *0x1696d(%rip)        # 41a028 <GOMP_loop_end_nowait@VERSION>
  4036bb:	0f 1f 44 00 00       	nopl   0x0(%rax,%rax,1)

00000000004036c0 <_ZNSo3putEc@plt>:
  4036c0:	f3 0f 1e fa          	endbr64 
  4036c4:	f2 ff 25 65 69 01 00 	bnd jmpq *0x16965(%rip)        # 41a030 <_ZNSo3putEc@GLIBCXX_3.4>
  4036cb:	0f 1f 44 00 00       	nopl   0x0(%rax,%rax,1)

00000000004036d0 <_ZNSt6chrono3_V212system_clock3nowEv@plt>:
  4036d0:	f3 0f 1e fa          	endbr64 
  4036d4:	f2 ff 25 5d 69 01 00 	bnd jmpq *0x1695d(%rip)        # 41a038 <_ZNSt6chrono3_V212system_clock3nowEv@GLIBCXX_3.4.19>
  4036db:	0f 1f 44 00 00       	nopl   0x0(%rax,%rax,1)

00000000004036e0 <syscall@plt>:
  4036e0:	f3 0f 1e fa          	endbr64 
  4036e4:	f2 ff 25 55 69 01 00 	bnd jmpq *0x16955(%rip)        # 41a040 <syscall@GLIBC_2.2.5>
  4036eb:	0f 1f 44 00 00       	nopl   0x0(%rax,%rax,1)

00000000004036f0 <bind@plt>:
  4036f0:	f3 0f 1e fa          	endbr64 
  4036f4:	f2 ff 25 4d 69 01 00 	bnd jmpq *0x1694d(%rip)        # 41a048 <bind@GLIBC_2.2.5>
  4036fb:	0f 1f 44 00 00       	nopl   0x0(%rax,%rax,1)

0000000000403700 <strstr@plt>:
  403700:	f3 0f 1e fa          	endbr64 
  403704:	f2 ff 25 45 69 01 00 	bnd jmpq *0x16945(%rip)        # 41a050 <strstr@GLIBC_2.2.5>
  40370b:	0f 1f 44 00 00       	nopl   0x0(%rax,%rax,1)

0000000000403710 <_ZNSt13basic_filebufIcSt11char_traitsIcEE5closeEv@plt>:
  403710:	f3 0f 1e fa          	endbr64 
  403714:	f2 ff 25 3d 69 01 00 	bnd jmpq *0x1693d(%rip)        # 41a058 <_ZNSt13basic_filebufIcSt11char_traitsIcEE5closeEv@GLIBCXX_3.4>
  40371b:	0f 1f 44 00 00       	nopl   0x0(%rax,%rax,1)

0000000000403720 <getopt@plt>:
  403720:	f3 0f 1e fa          	endbr64 
  403724:	f2 ff 25 35 69 01 00 	bnd jmpq *0x16935(%rip)        # 41a060 <getopt@GLIBC_2.2.5>
  40372b:	0f 1f 44 00 00       	nopl   0x0(%rax,%rax,1)

0000000000403730 <_ZNKSt12__basic_fileIcE7is_openEv@plt>:
  403730:	f3 0f 1e fa          	endbr64 
  403734:	f2 ff 25 2d 69 01 00 	bnd jmpq *0x1692d(%rip)        # 41a068 <_ZNKSt12__basic_fileIcE7is_openEv@GLIBCXX_3.4>
  40373b:	0f 1f 44 00 00       	nopl   0x0(%rax,%rax,1)

0000000000403740 <socket@plt>:
  403740:	f3 0f 1e fa          	endbr64 
  403744:	f2 ff 25 25 69 01 00 	bnd jmpq *0x16925(%rip)        # 41a070 <socket@GLIBC_2.2.5>
  40374b:	0f 1f 44 00 00       	nopl   0x0(%rax,%rax,1)

0000000000403750 <_ZNSt14basic_ifstreamIcSt11char_traitsIcEED1Ev@plt>:
  403750:	f3 0f 1e fa          	endbr64 
  403754:	f2 ff 25 1d 69 01 00 	bnd jmpq *0x1691d(%rip)        # 41a078 <_ZNSt14basic_ifstreamIcSt11char_traitsIcEED1Ev@GLIBCXX_3.4>
  40375b:	0f 1f 44 00 00       	nopl   0x0(%rax,%rax,1)

0000000000403760 <fork@plt>:
  403760:	f3 0f 1e fa          	endbr64 
  403764:	f2 ff 25 15 69 01 00 	bnd jmpq *0x16915(%rip)        # 41a080 <fork@GLIBC_2.2.5>
  40376b:	0f 1f 44 00 00       	nopl   0x0(%rax,%rax,1)

0000000000403770 <_ZNKSt7__cxx1112basic_stringIcSt11char_traitsIcESaIcEE7compareEPKc@plt>:
  403770:	f3 0f 1e fa          	endbr64 
  403774:	f2 ff 25 0d 69 01 00 	bnd jmpq *0x1690d(%rip)        # 41a088 <_ZNKSt7__cxx1112basic_stringIcSt11char_traitsIcESaIcEE7compareEPKc@GLIBCXX_3.4.21>
  40377b:	0f 1f 44 00 00       	nopl   0x0(%rax,%rax,1)

0000000000403780 <execlp@plt>:
  403780:	f3 0f 1e fa          	endbr64 
  403784:	f2 ff 25 05 69 01 00 	bnd jmpq *0x16905(%rip)        # 41a090 <execlp@GLIBC_2.2.5>
  40378b:	0f 1f 44 00 00       	nopl   0x0(%rax,%rax,1)

0000000000403790 <_ZNSt8ios_baseC2Ev@plt>:
  403790:	f3 0f 1e fa          	endbr64 
  403794:	f2 ff 25 fd 68 01 00 	bnd jmpq *0x168fd(%rip)        # 41a098 <_ZNSt8ios_baseC2Ev@GLIBCXX_3.4>
  40379b:	0f 1f 44 00 00       	nopl   0x0(%rax,%rax,1)

00000000004037a0 <_ZNSt7__cxx1112basic_stringIcSt11char_traitsIcESaIcEE9_M_appendEPKcm@plt>:
  4037a0:	f3 0f 1e fa          	endbr64 
  4037a4:	f2 ff 25 f5 68 01 00 	bnd jmpq *0x168f5(%rip)        # 41a0a0 <_ZNSt7__cxx1112basic_stringIcSt11char_traitsIcESaIcEE9_M_appendEPKcm@GLIBCXX_3.4.21>
  4037ab:	0f 1f 44 00 00       	nopl   0x0(%rax,%rax,1)

00000000004037b0 <recv@plt>:
  4037b0:	f3 0f 1e fa          	endbr64 
  4037b4:	f2 ff 25 ed 68 01 00 	bnd jmpq *0x168ed(%rip)        # 41a0a8 <recv@GLIBC_2.2.5>
  4037bb:	0f 1f 44 00 00       	nopl   0x0(%rax,%rax,1)

00000000004037c0 <_ZNSt8ios_baseD2Ev@plt>:
  4037c0:	f3 0f 1e fa          	endbr64 
  4037c4:	f2 ff 25 e5 68 01 00 	bnd jmpq *0x168e5(%rip)        # 41a0b0 <_ZNSt8ios_baseD2Ev@GLIBCXX_3.4>
  4037cb:	0f 1f 44 00 00       	nopl   0x0(%rax,%rax,1)

00000000004037d0 <_ZNSi4peekEv@plt>:
  4037d0:	f3 0f 1e fa          	endbr64 
  4037d4:	f2 ff 25 dd 68 01 00 	bnd jmpq *0x168dd(%rip)        # 41a0b8 <_ZNSi4peekEv@GLIBCXX_3.4>
  4037db:	0f 1f 44 00 00       	nopl   0x0(%rax,%rax,1)

00000000004037e0 <__cxa_begin_catch@plt>:
  4037e0:	f3 0f 1e fa          	endbr64 
  4037e4:	f2 ff 25 d5 68 01 00 	bnd jmpq *0x168d5(%rip)        # 41a0c0 <__cxa_begin_catch@CXXABI_1.3>
  4037eb:	0f 1f 44 00 00       	nopl   0x0(%rax,%rax,1)

00000000004037f0 <strlen@plt>:
  4037f0:	f3 0f 1e fa          	endbr64 
  4037f4:	f2 ff 25 cd 68 01 00 	bnd jmpq *0x168cd(%rip)        # 41a0c8 <strlen@GLIBC_2.2.5>
  4037fb:	0f 1f 44 00 00       	nopl   0x0(%rax,%rax,1)

0000000000403800 <_ZNSt7__cxx1119basic_istringstreamIcSt11char_traitsIcESaIcEED1Ev@plt>:
  403800:	f3 0f 1e fa          	endbr64 
  403804:	f2 ff 25 c5 68 01 00 	bnd jmpq *0x168c5(%rip)        # 41a0d0 <_ZNSt7__cxx1119basic_istringstreamIcSt11char_traitsIcESaIcEED1Ev@GLIBCXX_3.4.21>
  40380b:	0f 1f 44 00 00       	nopl   0x0(%rax,%rax,1)

0000000000403810 <send@plt>:
  403810:	f3 0f 1e fa          	endbr64 
  403814:	f2 ff 25 bd 68 01 00 	bnd jmpq *0x168bd(%rip)        # 41a0d8 <send@GLIBC_2.2.5>
  40381b:	0f 1f 44 00 00       	nopl   0x0(%rax,%rax,1)

0000000000403820 <_ZSt20__throw_length_errorPKc@plt>:
  403820:	f3 0f 1e fa          	endbr64 
  403824:	f2 ff 25 b5 68 01 00 	bnd jmpq *0x168b5(%rip)        # 41a0e0 <_ZSt20__throw_length_errorPKc@GLIBCXX_3.4>
  40382b:	0f 1f 44 00 00       	nopl   0x0(%rax,%rax,1)

0000000000403830 <memset@plt>:
  403830:	f3 0f 1e fa          	endbr64 
  403834:	f2 ff 25 ad 68 01 00 	bnd jmpq *0x168ad(%rip)        # 41a0e8 <memset@GLIBC_2.2.5>
  40383b:	0f 1f 44 00 00       	nopl   0x0(%rax,%rax,1)

0000000000403840 <getrusage@plt>:
  403840:	f3 0f 1e fa          	endbr64 
  403844:	f2 ff 25 a5 68 01 00 	bnd jmpq *0x168a5(%rip)        # 41a0f0 <getrusage@GLIBC_2.2.5>
  40384b:	0f 1f 44 00 00       	nopl   0x0(%rax,%rax,1)

0000000000403850 <munmap@plt>:
  403850:	f3 0f 1e fa          	endbr64 
  403854:	f2 ff 25 9d 68 01 00 	bnd jmpq *0x1689d(%rip)        # 41a0f8 <munmap@GLIBC_2.2.5>
  40385b:	0f 1f 44 00 00       	nopl   0x0(%rax,%rax,1)

0000000000403860 <GOMP_loop_nonmonotonic_dynamic_start@plt>:
  403860:	f3 0f 1e fa          	endbr64 
  403864:	f2 ff 25 95 68 01 00 	bnd jmpq *0x16895(%rip)        # 41a100 <GOMP_loop_nonmonotonic_dynamic_start@VERSION>
  40386b:	0f 1f 44 00 00       	nopl   0x0(%rax,%rax,1)

0000000000403870 <__snprintf_chk@plt>:
  403870:	f3 0f 1e fa          	endbr64 
  403874:	f2 ff 25 8d 68 01 00 	bnd jmpq *0x1688d(%rip)        # 41a108 <__snprintf_chk@GLIBC_2.3.4>
  40387b:	0f 1f 44 00 00       	nopl   0x0(%rax,%rax,1)

0000000000403880 <_ZNSirsERi@plt>:
  403880:	f3 0f 1e fa          	endbr64 
  403884:	f2 ff 25 85 68 01 00 	bnd jmpq *0x16885(%rip)        # 41a110 <_ZNSirsERi@GLIBCXX_3.4>
  40388b:	0f 1f 44 00 00       	nopl   0x0(%rax,%rax,1)

0000000000403890 <_ZNSi6ignoreEli@plt>:
  403890:	f3 0f 1e fa          	endbr64 
  403894:	f2 ff 25 7d 68 01 00 	bnd jmpq *0x1687d(%rip)        # 41a118 <_ZNSi6ignoreEli@GLIBCXX_3.4>
  40389b:	0f 1f 44 00 00       	nopl   0x0(%rax,%rax,1)

00000000004038a0 <_ZNSo5flushEv@plt>:
  4038a0:	f3 0f 1e fa          	endbr64 
  4038a4:	f2 ff 25 75 68 01 00 	bnd jmpq *0x16875(%rip)        # 41a120 <_ZNSo5flushEv@GLIBCXX_3.4>
  4038ab:	0f 1f 44 00 00       	nopl   0x0(%rax,%rax,1)

00000000004038b0 <_ZSt19__throw_logic_errorPKc@plt>:
  4038b0:	f3 0f 1e fa          	endbr64 
  4038b4:	f2 ff 25 6d 68 01 00 	bnd jmpq *0x1686d(%rip)        # 41a128 <_ZSt19__throw_logic_errorPKc@GLIBCXX_3.4>
  4038bb:	0f 1f 44 00 00       	nopl   0x0(%rax,%rax,1)

00000000004038c0 <memcpy@plt>:
  4038c0:	f3 0f 1e fa          	endbr64 
  4038c4:	f2 ff 25 65 68 01 00 	bnd jmpq *0x16865(%rip)        # 41a130 <memcpy@GLIBC_2.14>
  4038cb:	0f 1f 44 00 00       	nopl   0x0(%rax,%rax,1)

00000000004038d0 <perror@plt>:
  4038d0:	f3 0f 1e fa          	endbr64 
  4038d4:	f2 ff 25 5d 68 01 00 	bnd jmpq *0x1685d(%rip)        # 41a138 <perror@GLIBC_2.2.5>
  4038db:	0f 1f 44 00 00       	nopl   0x0(%rax,%rax,1)

00000000004038e0 <_ZSt2wsIcSt11char_traitsIcEERSt13basic_istreamIT_T0_ES6_@plt>:
  4038e0:	f3 0f 1e fa          	endbr64 
  4038e4:	f2 ff 25 55 68 01 00 	bnd jmpq *0x16855(%rip)        # 41a140 <_ZSt2wsIcSt11char_traitsIcEERSt13basic_istreamIT_T0_ES6_@GLIBCXX_3.4>
  4038eb:	0f 1f 44 00 00       	nopl   0x0(%rax,%rax,1)

00000000004038f0 <system@plt>:
  4038f0:	f3 0f 1e fa          	endbr64 
  4038f4:	f2 ff 25 4d 68 01 00 	bnd jmpq *0x1684d(%rip)        # 41a148 <system@GLIBC_2.2.5>
  4038fb:	0f 1f 44 00 00       	nopl   0x0(%rax,%rax,1)

0000000000403900 <__cxa_atexit@plt>:
  403900:	f3 0f 1e fa          	endbr64 
  403904:	f2 ff 25 45 68 01 00 	bnd jmpq *0x16845(%rip)        # 41a150 <__cxa_atexit@GLIBC_2.2.5>
  40390b:	0f 1f 44 00 00       	nopl   0x0(%rax,%rax,1)

0000000000403910 <_ZNSt13basic_filebufIcSt11char_traitsIcEE4openEPKcSt13_Ios_Openmode@plt>:
  403910:	f3 0f 1e fa          	endbr64 
  403914:	f2 ff 25 3d 68 01 00 	bnd jmpq *0x1683d(%rip)        # 41a158 <_ZNSt13basic_filebufIcSt11char_traitsIcEE4openEPKcSt13_Ios_Openmode@GLIBCXX_3.4>
  40391b:	0f 1f 44 00 00       	nopl   0x0(%rax,%rax,1)

0000000000403920 <clock_gettime@plt>:
  403920:	f3 0f 1e fa          	endbr64 
  403924:	f2 ff 25 35 68 01 00 	bnd jmpq *0x16835(%rip)        # 41a160 <clock_gettime@GLIBC_2.17>
  40392b:	0f 1f 44 00 00       	nopl   0x0(%rax,%rax,1)

0000000000403930 <_ZdlPv@plt>:
  403930:	f3 0f 1e fa          	endbr64 
  403934:	f2 ff 25 2d 68 01 00 	bnd jmpq *0x1682d(%rip)        # 41a168 <_ZdlPv@GLIBCXX_3.4>
  40393b:	0f 1f 44 00 00       	nopl   0x0(%rax,%rax,1)

0000000000403940 <_ZNSo9_M_insertIlEERSoT_@plt>:
  403940:	f3 0f 1e fa          	endbr64 
  403944:	f2 ff 25 25 68 01 00 	bnd jmpq *0x16825(%rip)        # 41a170 <_ZNSo9_M_insertIlEERSoT_@GLIBCXX_3.4.9>
  40394b:	0f 1f 44 00 00       	nopl   0x0(%rax,%rax,1)

0000000000403950 <__isoc99_sscanf@plt>:
  403950:	f3 0f 1e fa          	endbr64 
  403954:	f2 ff 25 1d 68 01 00 	bnd jmpq *0x1681d(%rip)        # 41a178 <__isoc99_sscanf@GLIBC_2.7>
  40395b:	0f 1f 44 00 00       	nopl   0x0(%rax,%rax,1)

0000000000403960 <fclose@plt>:
  403960:	f3 0f 1e fa          	endbr64 
  403964:	f2 ff 25 15 68 01 00 	bnd jmpq *0x16815(%rip)        # 41a180 <fclose@GLIBC_2.2.5>
  40396b:	0f 1f 44 00 00       	nopl   0x0(%rax,%rax,1)

0000000000403970 <_Znwm@plt>:
  403970:	f3 0f 1e fa          	endbr64 
  403974:	f2 ff 25 0d 68 01 00 	bnd jmpq *0x1680d(%rip)        # 41a188 <_Znwm@GLIBCXX_3.4>
  40397b:	0f 1f 44 00 00       	nopl   0x0(%rax,%rax,1)

0000000000403980 <_ZNSi10_M_extractIlEERSiRT_@plt>:
  403980:	f3 0f 1e fa          	endbr64 
  403984:	f2 ff 25 05 68 01 00 	bnd jmpq *0x16805(%rip)        # 41a190 <_ZNSi10_M_extractIlEERSiRT_@GLIBCXX_3.4.9>
  40398b:	0f 1f 44 00 00       	nopl   0x0(%rax,%rax,1)

0000000000403990 <_ZNSt13basic_filebufIcSt11char_traitsIcEEC1Ev@plt>:
  403990:	f3 0f 1e fa          	endbr64 
  403994:	f2 ff 25 fd 67 01 00 	bnd jmpq *0x167fd(%rip)        # 41a198 <_ZNSt13basic_filebufIcSt11char_traitsIcEEC1Ev@GLIBCXX_3.4>
  40399b:	0f 1f 44 00 00       	nopl   0x0(%rax,%rax,1)

00000000004039a0 <GOMP_loop_nonmonotonic_dynamic_next@plt>:
  4039a0:	f3 0f 1e fa          	endbr64 
  4039a4:	f2 ff 25 f5 67 01 00 	bnd jmpq *0x167f5(%rip)        # 41a1a0 <GOMP_loop_nonmonotonic_dynamic_next@VERSION>
  4039ab:	0f 1f 44 00 00       	nopl   0x0(%rax,%rax,1)

00000000004039b0 <__stack_chk_fail@plt>:
  4039b0:	f3 0f 1e fa          	endbr64 
  4039b4:	f2 ff 25 ed 67 01 00 	bnd jmpq *0x167ed(%rip)        # 41a1a8 <__stack_chk_fail@GLIBC_2.4>
  4039bb:	0f 1f 44 00 00       	nopl   0x0(%rax,%rax,1)

00000000004039c0 <_ZSt16__ostream_insertIcSt11char_traitsIcEERSt13basic_ostreamIT_T0_ES6_PKS3_l@plt>:
  4039c0:	f3 0f 1e fa          	endbr64 
  4039c4:	f2 ff 25 e5 67 01 00 	bnd jmpq *0x167e5(%rip)        # 41a1b0 <_ZSt16__ostream_insertIcSt11char_traitsIcEERSt13basic_ostreamIT_T0_ES6_PKS3_l@GLIBCXX_3.4.9>
  4039cb:	0f 1f 44 00 00       	nopl   0x0(%rax,%rax,1)

00000000004039d0 <_ZNKSt5ctypeIcE13_M_widen_initEv@plt>:
  4039d0:	f3 0f 1e fa          	endbr64 
  4039d4:	f2 ff 25 dd 67 01 00 	bnd jmpq *0x167dd(%rip)        # 41a1b8 <_ZNKSt5ctypeIcE13_M_widen_initEv@GLIBCXX_3.4.11>
  4039db:	0f 1f 44 00 00       	nopl   0x0(%rax,%rax,1)

00000000004039e0 <omp_get_thread_num@plt>:
  4039e0:	f3 0f 1e fa          	endbr64 
  4039e4:	f2 ff 25 d5 67 01 00 	bnd jmpq *0x167d5(%rip)        # 41a1c0 <omp_get_thread_num@VERSION>
  4039eb:	0f 1f 44 00 00       	nopl   0x0(%rax,%rax,1)

00000000004039f0 <_ZNSt7__cxx1112basic_stringIcSt11char_traitsIcESaIcEE12_M_constructEmc@plt>:
  4039f0:	f3 0f 1e fa          	endbr64 
  4039f4:	f2 ff 25 cd 67 01 00 	bnd jmpq *0x167cd(%rip)        # 41a1c8 <_ZNSt7__cxx1112basic_stringIcSt11char_traitsIcESaIcEE12_M_constructEmc@GLIBCXX_3.4.21>
  4039fb:	0f 1f 44 00 00       	nopl   0x0(%rax,%rax,1)

0000000000403a00 <fopen@plt>:
  403a00:	f3 0f 1e fa          	endbr64 
  403a04:	f2 ff 25 c5 67 01 00 	bnd jmpq *0x167c5(%rip)        # 41a1d0 <fopen@GLIBC_2.2.5>
  403a0b:	0f 1f 44 00 00       	nopl   0x0(%rax,%rax,1)

0000000000403a10 <GOMP_barrier@plt>:
  403a10:	f3 0f 1e fa          	endbr64 
  403a14:	f2 ff 25 bd 67 01 00 	bnd jmpq *0x167bd(%rip)        # 41a1d8 <GOMP_barrier@VERSION>
  403a1b:	0f 1f 44 00 00       	nopl   0x0(%rax,%rax,1)

0000000000403a20 <exit@plt>:
  403a20:	f3 0f 1e fa          	endbr64 
  403a24:	f2 ff 25 b5 67 01 00 	bnd jmpq *0x167b5(%rip)        # 41a1e0 <exit@GLIBC_2.2.5>
  403a2b:	0f 1f 44 00 00       	nopl   0x0(%rax,%rax,1)

0000000000403a30 <getenv@plt>:
  403a30:	f3 0f 1e fa          	endbr64 
  403a34:	f2 ff 25 ad 67 01 00 	bnd jmpq *0x167ad(%rip)        # 41a1e8 <getenv@GLIBC_2.2.5>
  403a3b:	0f 1f 44 00 00       	nopl   0x0(%rax,%rax,1)

0000000000403a40 <_ZNSi4readEPcl@plt>:
  403a40:	f3 0f 1e fa          	endbr64 
  403a44:	f2 ff 25 a5 67 01 00 	bnd jmpq *0x167a5(%rip)        # 41a1f0 <_ZNSi4readEPcl@GLIBCXX_3.4>
  403a4b:	0f 1f 44 00 00       	nopl   0x0(%rax,%rax,1)

0000000000403a50 <_ZSt16__throw_bad_castv@plt>:
  403a50:	f3 0f 1e fa          	endbr64 
  403a54:	f2 ff 25 9d 67 01 00 	bnd jmpq *0x1679d(%rip)        # 41a1f8 <_ZSt16__throw_bad_castv@GLIBCXX_3.4>
  403a5b:	0f 1f 44 00 00       	nopl   0x0(%rax,%rax,1)

0000000000403a60 <_ZStrsIcSt11char_traitsIcESaIcEERSt13basic_istreamIT_T0_ES7_RNSt7__cxx1112basic_stringIS4_S5_T1_EE@plt>:
  403a60:	f3 0f 1e fa          	endbr64 
  403a64:	f2 ff 25 95 67 01 00 	bnd jmpq *0x16795(%rip)        # 41a200 <_ZStrsIcSt11char_traitsIcESaIcEERSt13basic_istreamIT_T0_ES7_RNSt7__cxx1112basic_stringIS4_S5_T1_EE@GLIBCXX_3.4.21>
  403a6b:	0f 1f 44 00 00       	nopl   0x0(%rax,%rax,1)

0000000000403a70 <_ZdaPv@plt>:
  403a70:	f3 0f 1e fa          	endbr64 
  403a74:	f2 ff 25 8d 67 01 00 	bnd jmpq *0x1678d(%rip)        # 41a208 <_ZdaPv@GLIBCXX_3.4>
  403a7b:	0f 1f 44 00 00       	nopl   0x0(%rax,%rax,1)

0000000000403a80 <_ZNSt7__cxx1115basic_stringbufIcSt11char_traitsIcESaIcEE7_M_syncEPcmm@plt>:
  403a80:	f3 0f 1e fa          	endbr64 
  403a84:	f2 ff 25 85 67 01 00 	bnd jmpq *0x16785(%rip)        # 41a210 <_ZNSt7__cxx1115basic_stringbufIcSt11char_traitsIcESaIcEE7_M_syncEPcmm@GLIBCXX_3.4.21>
  403a8b:	0f 1f 44 00 00       	nopl   0x0(%rax,%rax,1)

0000000000403a90 <_ZStrsIcSt11char_traitsIcEERSt13basic_istreamIT_T0_ES6_RS3_@plt>:
  403a90:	f3 0f 1e fa          	endbr64 
  403a94:	f2 ff 25 7d 67 01 00 	bnd jmpq *0x1677d(%rip)        # 41a218 <_ZStrsIcSt11char_traitsIcEERSt13basic_istreamIT_T0_ES6_RS3_@GLIBCXX_3.4>
  403a9b:	0f 1f 44 00 00       	nopl   0x0(%rax,%rax,1)

0000000000403aa0 <malloc@plt>:
  403aa0:	f3 0f 1e fa          	endbr64 
  403aa4:	f2 ff 25 75 67 01 00 	bnd jmpq *0x16775(%rip)        # 41a220 <malloc@GLIBC_2.2.5>
  403aab:	0f 1f 44 00 00       	nopl   0x0(%rax,%rax,1)

0000000000403ab0 <_ZNSt9basic_iosIcSt11char_traitsIcEE4initEPSt15basic_streambufIcS1_E@plt>:
  403ab0:	f3 0f 1e fa          	endbr64 
  403ab4:	f2 ff 25 6d 67 01 00 	bnd jmpq *0x1676d(%rip)        # 41a228 <_ZNSt9basic_iosIcSt11char_traitsIcEE4initEPSt15basic_streambufIcS1_E@GLIBCXX_3.4>
  403abb:	0f 1f 44 00 00       	nopl   0x0(%rax,%rax,1)

0000000000403ac0 <mlock@plt>:
  403ac0:	f3 0f 1e fa          	endbr64 
  403ac4:	f2 ff 25 65 67 01 00 	bnd jmpq *0x16765(%rip)        # 41a230 <mlock@GLIBC_2.2.5>
  403acb:	0f 1f 44 00 00       	nopl   0x0(%rax,%rax,1)

0000000000403ad0 <strtol@plt>:
  403ad0:	f3 0f 1e fa          	endbr64 
  403ad4:	f2 ff 25 5d 67 01 00 	bnd jmpq *0x1675d(%rip)        # 41a238 <strtol@GLIBC_2.2.5>
  403adb:	0f 1f 44 00 00       	nopl   0x0(%rax,%rax,1)

0000000000403ae0 <ioctl@plt>:
  403ae0:	f3 0f 1e fa          	endbr64 
  403ae4:	f2 ff 25 55 67 01 00 	bnd jmpq *0x16755(%rip)        # 41a240 <ioctl@GLIBC_2.2.5>
  403aeb:	0f 1f 44 00 00       	nopl   0x0(%rax,%rax,1)

0000000000403af0 <_ZNSt6localeD1Ev@plt>:
  403af0:	f3 0f 1e fa          	endbr64 
  403af4:	f2 ff 25 4d 67 01 00 	bnd jmpq *0x1674d(%rip)        # 41a248 <_ZNSt6localeD1Ev@GLIBCXX_3.4>
  403afb:	0f 1f 44 00 00       	nopl   0x0(%rax,%rax,1)

0000000000403b00 <__cxa_throw_bad_array_new_length@plt>:
  403b00:	f3 0f 1e fa          	endbr64 
  403b04:	f2 ff 25 45 67 01 00 	bnd jmpq *0x16745(%rip)        # 41a250 <__cxa_throw_bad_array_new_length@CXXABI_1.3.8>
  403b0b:	0f 1f 44 00 00       	nopl   0x0(%rax,%rax,1)

0000000000403b10 <read@plt>:
  403b10:	f3 0f 1e fa          	endbr64 
  403b14:	f2 ff 25 3d 67 01 00 	bnd jmpq *0x1673d(%rip)        # 41a258 <read@GLIBC_2.2.5>
  403b1b:	0f 1f 44 00 00       	nopl   0x0(%rax,%rax,1)

0000000000403b20 <omp_get_num_threads@plt>:
  403b20:	f3 0f 1e fa          	endbr64 
  403b24:	f2 ff 25 35 67 01 00 	bnd jmpq *0x16735(%rip)        # 41a260 <omp_get_num_threads@VERSION>
  403b2b:	0f 1f 44 00 00       	nopl   0x0(%rax,%rax,1)

0000000000403b30 <getpid@plt>:
  403b30:	f3 0f 1e fa          	endbr64 
  403b34:	f2 ff 25 2d 67 01 00 	bnd jmpq *0x1672d(%rip)        # 41a268 <getpid@GLIBC_2.2.5>
  403b3b:	0f 1f 44 00 00       	nopl   0x0(%rax,%rax,1)

0000000000403b40 <fread@plt>:
  403b40:	f3 0f 1e fa          	endbr64 
  403b44:	f2 ff 25 25 67 01 00 	bnd jmpq *0x16725(%rip)        # 41a270 <fread@GLIBC_2.2.5>
  403b4b:	0f 1f 44 00 00       	nopl   0x0(%rax,%rax,1)

0000000000403b50 <_ZSt24__throw_out_of_range_fmtPKcz@plt>:
  403b50:	f3 0f 1e fa          	endbr64 
  403b54:	f2 ff 25 1d 67 01 00 	bnd jmpq *0x1671d(%rip)        # 41a278 <_ZSt24__throw_out_of_range_fmtPKcz@GLIBCXX_3.4.20>
  403b5b:	0f 1f 44 00 00       	nopl   0x0(%rax,%rax,1)

0000000000403b60 <_ZNSt8ios_base4InitC1Ev@plt>:
  403b60:	f3 0f 1e fa          	endbr64 
  403b64:	f2 ff 25 15 67 01 00 	bnd jmpq *0x16715(%rip)        # 41a280 <_ZNSt8ios_base4InitC1Ev@GLIBCXX_3.4>
  403b6b:	0f 1f 44 00 00       	nopl   0x0(%rax,%rax,1)

0000000000403b70 <_ZNSt13basic_filebufIcSt11char_traitsIcEED1Ev@plt>:
  403b70:	f3 0f 1e fa          	endbr64 
  403b74:	f2 ff 25 0d 67 01 00 	bnd jmpq *0x1670d(%rip)        # 41a288 <_ZNSt13basic_filebufIcSt11char_traitsIcEED1Ev@GLIBCXX_3.4>
  403b7b:	0f 1f 44 00 00       	nopl   0x0(%rax,%rax,1)

0000000000403b80 <_ZNSt7__cxx1112basic_stringIcSt11char_traitsIcESaIcEE7reserveEm@plt>:
  403b80:	f3 0f 1e fa          	endbr64 
  403b84:	f2 ff 25 05 67 01 00 	bnd jmpq *0x16705(%rip)        # 41a290 <_ZNSt7__cxx1112basic_stringIcSt11char_traitsIcESaIcEE7reserveEm@GLIBCXX_3.4.21>
  403b8b:	0f 1f 44 00 00       	nopl   0x0(%rax,%rax,1)

0000000000403b90 <fgets@plt>:
  403b90:	f3 0f 1e fa          	endbr64 
  403b94:	f2 ff 25 fd 66 01 00 	bnd jmpq *0x166fd(%rip)        # 41a298 <fgets@GLIBC_2.2.5>
  403b9b:	0f 1f 44 00 00       	nopl   0x0(%rax,%rax,1)

0000000000403ba0 <gettimeofday@plt>:
  403ba0:	f3 0f 1e fa          	endbr64 
  403ba4:	f2 ff 25 f5 66 01 00 	bnd jmpq *0x166f5(%rip)        # 41a2a0 <gettimeofday@GLIBC_2.2.5>
  403bab:	0f 1f 44 00 00       	nopl   0x0(%rax,%rax,1)

0000000000403bb0 <memmove@plt>:
  403bb0:	f3 0f 1e fa          	endbr64 
  403bb4:	f2 ff 25 ed 66 01 00 	bnd jmpq *0x166ed(%rip)        # 41a2a8 <memmove@GLIBC_2.2.5>
  403bbb:	0f 1f 44 00 00       	nopl   0x0(%rax,%rax,1)

0000000000403bc0 <__cxa_end_catch@plt>:
  403bc0:	f3 0f 1e fa          	endbr64 
  403bc4:	f2 ff 25 e5 66 01 00 	bnd jmpq *0x166e5(%rip)        # 41a2b0 <__cxa_end_catch@CXXABI_1.3>
  403bcb:	0f 1f 44 00 00       	nopl   0x0(%rax,%rax,1)

0000000000403bd0 <realloc@plt>:
  403bd0:	f3 0f 1e fa          	endbr64 
  403bd4:	f2 ff 25 dd 66 01 00 	bnd jmpq *0x166dd(%rip)        # 41a2b8 <realloc@GLIBC_2.2.5>
  403bdb:	0f 1f 44 00 00       	nopl   0x0(%rax,%rax,1)

0000000000403be0 <__fprintf_chk@plt>:
  403be0:	f3 0f 1e fa          	endbr64 
  403be4:	f2 ff 25 d5 66 01 00 	bnd jmpq *0x166d5(%rip)        # 41a2c0 <__fprintf_chk@GLIBC_2.3.4>
  403beb:	0f 1f 44 00 00       	nopl   0x0(%rax,%rax,1)

0000000000403bf0 <_ZNSt7__cxx1119basic_istringstreamIcSt11char_traitsIcESaIcEEC1ERKNS_12basic_stringIcS2_S3_EESt13_Ios_Openmode@plt>:
  403bf0:	f3 0f 1e fa          	endbr64 
  403bf4:	f2 ff 25 cd 66 01 00 	bnd jmpq *0x166cd(%rip)        # 41a2c8 <_ZNSt7__cxx1119basic_istringstreamIcSt11char_traitsIcESaIcEEC1ERKNS_12basic_stringIcS2_S3_EESt13_Ios_Openmode@GLIBCXX_3.4.21>
  403bfb:	0f 1f 44 00 00       	nopl   0x0(%rax,%rax,1)

0000000000403c00 <_ZNSt9basic_iosIcSt11char_traitsIcEE5clearESt12_Ios_Iostate@plt>:
  403c00:	f3 0f 1e fa          	endbr64 
  403c04:	f2 ff 25 c5 66 01 00 	bnd jmpq *0x166c5(%rip)        # 41a2d0 <_ZNSt9basic_iosIcSt11char_traitsIcEE5clearESt12_Ios_Iostate@GLIBCXX_3.4>
  403c0b:	0f 1f 44 00 00       	nopl   0x0(%rax,%rax,1)

0000000000403c10 <_ZNSolsEi@plt>:
  403c10:	f3 0f 1e fa          	endbr64 
  403c14:	f2 ff 25 bd 66 01 00 	bnd jmpq *0x166bd(%rip)        # 41a2d8 <_ZNSolsEi@GLIBCXX_3.4>
  403c1b:	0f 1f 44 00 00       	nopl   0x0(%rax,%rax,1)

0000000000403c20 <GOMP_parallel@plt>:
  403c20:	f3 0f 1e fa          	endbr64 
  403c24:	f2 ff 25 b5 66 01 00 	bnd jmpq *0x166b5(%rip)        # 41a2e0 <GOMP_parallel@VERSION>
  403c2b:	0f 1f 44 00 00       	nopl   0x0(%rax,%rax,1)

0000000000403c30 <omp_get_max_threads@plt>:
  403c30:	f3 0f 1e fa          	endbr64 
  403c34:	f2 ff 25 ad 66 01 00 	bnd jmpq *0x166ad(%rip)        # 41a2e8 <omp_get_max_threads@VERSION>
  403c3b:	0f 1f 44 00 00       	nopl   0x0(%rax,%rax,1)

0000000000403c40 <_Unwind_Resume@plt>:
  403c40:	f3 0f 1e fa          	endbr64 
  403c44:	f2 ff 25 a5 66 01 00 	bnd jmpq *0x166a5(%rip)        # 41a2f0 <_Unwind_Resume@GCC_3.0>
  403c4b:	0f 1f 44 00 00       	nopl   0x0(%rax,%rax,1)

0000000000403c50 <mmap@plt>:
  403c50:	f3 0f 1e fa          	endbr64 
  403c54:	f2 ff 25 9d 66 01 00 	bnd jmpq *0x1669d(%rip)        # 41a2f8 <mmap@GLIBC_2.2.5>
  403c5b:	0f 1f 44 00 00       	nopl   0x0(%rax,%rax,1)

0000000000403c60 <_ZNSt7__cxx1112basic_stringIcSt11char_traitsIcESaIcEE9_M_createERmm@plt>:
  403c60:	f3 0f 1e fa          	endbr64 
  403c64:	f2 ff 25 95 66 01 00 	bnd jmpq *0x16695(%rip)        # 41a300 <_ZNSt7__cxx1112basic_stringIcSt11char_traitsIcESaIcEE9_M_createERmm@GLIBCXX_3.4.21>
  403c6b:	0f 1f 44 00 00       	nopl   0x0(%rax,%rax,1)

0000000000403c70 <__isoc99_fscanf@plt>:
  403c70:	f3 0f 1e fa          	endbr64 
  403c74:	f2 ff 25 8d 66 01 00 	bnd jmpq *0x1668d(%rip)        # 41a308 <__isoc99_fscanf@GLIBC_2.7>
  403c7b:	0f 1f 44 00 00       	nopl   0x0(%rax,%rax,1)

0000000000403c80 <_ZSt7getlineIcSt11char_traitsIcESaIcEERSt13basic_istreamIT_T0_ES7_RNSt7__cxx1112basic_stringIS4_S5_T1_EES4_@plt>:
  403c80:	f3 0f 1e fa          	endbr64 
  403c84:	f2 ff 25 85 66 01 00 	bnd jmpq *0x16685(%rip)        # 41a310 <_ZSt7getlineIcSt11char_traitsIcESaIcEERSt13basic_istreamIT_T0_ES7_RNSt7__cxx1112basic_stringIS4_S5_T1_EES4_@GLIBCXX_3.4.21>
  403c8b:	0f 1f 44 00 00       	nopl   0x0(%rax,%rax,1)

0000000000403c90 <_ZNSt12__basic_fileIcED1Ev@plt>:
  403c90:	f3 0f 1e fa          	endbr64 
  403c94:	f2 ff 25 7d 66 01 00 	bnd jmpq *0x1667d(%rip)        # 41a318 <_ZNSt12__basic_fileIcED1Ev@GLIBCXX_3.4>
  403c9b:	0f 1f 44 00 00       	nopl   0x0(%rax,%rax,1)

0000000000403ca0 <munlock@plt>:
  403ca0:	f3 0f 1e fa          	endbr64 
  403ca4:	f2 ff 25 75 66 01 00 	bnd jmpq *0x16675(%rip)        # 41a320 <munlock@GLIBC_2.2.5>
  403cab:	0f 1f 44 00 00       	nopl   0x0(%rax,%rax,1)

0000000000403cb0 <fwrite@plt>:
  403cb0:	f3 0f 1e fa          	endbr64 
  403cb4:	f2 ff 25 6d 66 01 00 	bnd jmpq *0x1666d(%rip)        # 41a328 <fwrite@GLIBC_2.2.5>
  403cbb:	0f 1f 44 00 00       	nopl   0x0(%rax,%rax,1)

0000000000403cc0 <close@plt>:
  403cc0:	f3 0f 1e fa          	endbr64 
  403cc4:	f2 ff 25 65 66 01 00 	bnd jmpq *0x16665(%rip)        # 41a330 <close@GLIBC_2.2.5>
  403ccb:	0f 1f 44 00 00       	nopl   0x0(%rax,%rax,1)

0000000000403cd0 <_ZNKSt7__cxx1112basic_stringIcSt11char_traitsIcESaIcEE5rfindEcm@plt>:
  403cd0:	f3 0f 1e fa          	endbr64 
  403cd4:	f2 ff 25 5d 66 01 00 	bnd jmpq *0x1665d(%rip)        # 41a338 <_ZNKSt7__cxx1112basic_stringIcSt11char_traitsIcESaIcEE5rfindEcm@GLIBCXX_3.4.21>
  403cdb:	0f 1f 44 00 00       	nopl   0x0(%rax,%rax,1)

0000000000403ce0 <_ZNSt6localeC1Ev@plt>:
  403ce0:	f3 0f 1e fa          	endbr64 
  403ce4:	f2 ff 25 55 66 01 00 	bnd jmpq *0x16655(%rip)        # 41a340 <_ZNSt6localeC1Ev@GLIBCXX_3.4>
  403ceb:	0f 1f 44 00 00       	nopl   0x0(%rax,%rax,1)

Disassembly of section .text:

0000000000403cf0 <_Z10PrintLabelRKNSt7__cxx1112basic_stringIcSt11char_traitsIcESaIcEEES6_.cold>:
_ZNKSt7__cxx1112basic_stringIcSt11char_traitsIcESaIcEE7_M_dataEv():
/usr/include/c++/10/bits/basic_string.h:195 (discriminator 1)
      _M_length(size_type __length)
      { _M_string_length = __length; }

      pointer
      _M_data() const
      { return _M_dataplus._M_p; }
  403cf0:	48 8b 7c 24 10       	mov    0x10(%rsp),%rdi
_ZNSt7__cxx1112basic_stringIcSt11char_traitsIcESaIcEE10_M_disposeEv():
/usr/include/c++/10/bits/basic_string.h:239 (discriminator 1)
      _M_create(size_type&, size_type);

      void
      _M_dispose()
      {
	if (!_M_is_local())
  403cf5:	48 39 df             	cmp    %rbx,%rdi
  403cf8:	74 05                	je     403cff <_Z10PrintLabelRKNSt7__cxx1112basic_stringIcSt11char_traitsIcESaIcEEES6_.cold+0xf>
_ZN9__gnu_cxx13new_allocatorIcE10deallocateEPcm():
/usr/include/c++/10/ext/new_allocator.h:139
# endif
			      std::align_val_t(alignof(_Tp)));
	    return;
	  }
#endif
	::operator delete(__p
  403cfa:	e8 31 fc ff ff       	callq  403930 <_ZdlPv@plt>
_ZN9__gnu_cxx13new_allocatorIcED4Ev():
/usr/include/c++/10/ext/new_allocator.h:89
      ~new_allocator() _GLIBCXX_USE_NOEXCEPT { }
  403cff:	48 89 ef             	mov    %rbp,%rdi
  403d02:	e8 39 ff ff ff       	callq  403c40 <_Unwind_Resume@plt>

0000000000403d07 <_Z9PrintTimeRKNSt7__cxx1112basic_stringIcSt11char_traitsIcESaIcEEEd.cold>:
_ZNKSt7__cxx1112basic_stringIcSt11char_traitsIcESaIcEE7_M_dataEv():
/usr/include/c++/10/bits/basic_string.h:195 (discriminator 1)
      { return _M_dataplus._M_p; }
  403d07:	48 8b 7c 24 10       	mov    0x10(%rsp),%rdi
_ZNSt7__cxx1112basic_stringIcSt11char_traitsIcESaIcEE10_M_disposeEv():
/usr/include/c++/10/bits/basic_string.h:239 (discriminator 1)
	if (!_M_is_local())
  403d0c:	48 39 df             	cmp    %rbx,%rdi
  403d0f:	74 05                	je     403d16 <_Z9PrintTimeRKNSt7__cxx1112basic_stringIcSt11char_traitsIcESaIcEEEd.cold+0xf>
_ZN9__gnu_cxx13new_allocatorIcE10deallocateEPcm():
/usr/include/c++/10/ext/new_allocator.h:139
	::operator delete(__p
  403d11:	e8 1a fc ff ff       	callq  403930 <_ZdlPv@plt>
_ZN9__gnu_cxx13new_allocatorIcED4Ev():
/usr/include/c++/10/ext/new_allocator.h:89
      ~new_allocator() _GLIBCXX_USE_NOEXCEPT { }
  403d16:	48 89 ef             	mov    %rbp,%rdi
  403d19:	e8 22 ff ff ff       	callq  403c40 <_Unwind_Resume@plt>

0000000000403d1e <_Z9PrintStepRKNSt7__cxx1112basic_stringIcSt11char_traitsIcESaIcEEEl.cold>:
_ZNKSt7__cxx1112basic_stringIcSt11char_traitsIcESaIcEE7_M_dataEv():
/usr/include/c++/10/bits/basic_string.h:195 (discriminator 1)
      { return _M_dataplus._M_p; }
  403d1e:	48 8b 7c 24 10       	mov    0x10(%rsp),%rdi
_ZNSt7__cxx1112basic_stringIcSt11char_traitsIcESaIcEE10_M_disposeEv():
/usr/include/c++/10/bits/basic_string.h:239 (discriminator 1)
	if (!_M_is_local())
  403d23:	48 39 df             	cmp    %rbx,%rdi
  403d26:	74 05                	je     403d2d <_Z9PrintStepRKNSt7__cxx1112basic_stringIcSt11char_traitsIcESaIcEEEl.cold+0xf>
_ZN9__gnu_cxx13new_allocatorIcE10deallocateEPcm():
/usr/include/c++/10/ext/new_allocator.h:139
	::operator delete(__p
  403d28:	e8 03 fc ff ff       	callq  403930 <_ZdlPv@plt>
_ZN9__gnu_cxx13new_allocatorIcED4Ev():
/usr/include/c++/10/ext/new_allocator.h:89
      ~new_allocator() _GLIBCXX_USE_NOEXCEPT { }
  403d2d:	48 89 ef             	mov    %rbp,%rdi
  403d30:	e8 0b ff ff ff       	callq  403c40 <_Unwind_Resume@plt>

0000000000403d35 <_Z9PrintStepidl.cold>:
_ZNKSt7__cxx1112basic_stringIcSt11char_traitsIcESaIcEE7_M_dataEv():
/usr/include/c++/10/bits/basic_string.h:195 (discriminator 1)
      { return _M_dataplus._M_p; }
  403d35:	48 8b 7c 24 10       	mov    0x10(%rsp),%rdi
_ZNSt7__cxx1112basic_stringIcSt11char_traitsIcESaIcEE10_M_disposeEv():
/usr/include/c++/10/bits/basic_string.h:239 (discriminator 1)
	if (!_M_is_local())
  403d3a:	48 39 ef             	cmp    %rbp,%rdi
  403d3d:	74 05                	je     403d44 <_Z9PrintStepidl.cold+0xf>
_ZN9__gnu_cxx13new_allocatorIcE10deallocateEPcm():
/usr/include/c++/10/ext/new_allocator.h:139
	::operator delete(__p
  403d3f:	e8 ec fb ff ff       	callq  403930 <_ZdlPv@plt>
_ZN9__gnu_cxx13new_allocatorIcED4Ev():
/usr/include/c++/10/ext/new_allocator.h:89
      ~new_allocator() _GLIBCXX_USE_NOEXCEPT { }
  403d44:	4c 89 e7             	mov    %r12,%rdi
  403d47:	e8 f4 fe ff ff       	callq  403c40 <_Unwind_Resume@plt>

0000000000403d4c <_Z10InitParentRK8CSRGraphIiiLb1EE.cold>:
_ZN7pvectorIiEC4Em():
/home/aliha951/ipdps-artifact/gapbs-master/src/pvector.h:30
  typedef T_* iterator;

  pvector() : start_(nullptr), end_size_(nullptr), end_capacity_(nullptr) {}

  explicit pvector(size_t num_elements) {
    start_ = new T_[num_elements];
  403d4c:	e8 af fd ff ff       	callq  403b00 <__cxa_throw_bad_array_new_length@plt>

0000000000403d51 <_Z5DOBFSRK8CSRGraphIiiLb1EEibii.cold>:
_ZNKSt7__cxx1112basic_stringIcSt11char_traitsIcESaIcEE7_M_dataEv():
/usr/include/c++/10/bits/basic_string.h:195 (discriminator 4)
      { return _M_dataplus._M_p; }
  403d51:	48 8b bc 24 c0 00 00 	mov    0xc0(%rsp),%rdi
  403d58:	00 
_ZNSt7__cxx1112basic_stringIcSt11char_traitsIcESaIcEE10_M_disposeEv():
/usr/include/c++/10/bits/basic_string.h:239 (discriminator 4)
	if (!_M_is_local())
  403d59:	48 8d 84 24 d0 00 00 	lea    0xd0(%rsp),%rax
  403d60:	00 
  403d61:	48 39 c7             	cmp    %rax,%rdi
  403d64:	74 05                	je     403d6b <_Z5DOBFSRK8CSRGraphIiiLb1EEibii.cold+0x1a>
_ZN9__gnu_cxx13new_allocatorIcE10deallocateEPcm():
/usr/include/c++/10/ext/new_allocator.h:139
	::operator delete(__p
  403d66:	e8 c5 fb ff ff       	callq  403930 <_ZdlPv@plt>
_ZN7pvectorIiE16ReleaseResourcesEv():
/home/aliha951/ipdps-artifact/gapbs-master/src/pvector.h:73
    }
    return *this;
  }

  void ReleaseResources(){
    if (start_ != nullptr) {
  403d6b:	48 8b 44 24 48       	mov    0x48(%rsp),%rax
  403d70:	48 8b 38             	mov    (%rax),%rdi
  403d73:	48 85 ff             	test   %rdi,%rdi
  403d76:	74 05                	je     403d7d <_Z5DOBFSRK8CSRGraphIiiLb1EEibii.cold+0x2c>
/home/aliha951/ipdps-artifact/gapbs-master/src/pvector.h:74
      delete[] start_;
  403d78:	e8 f3 fc ff ff       	callq  403a70 <_ZdaPv@plt>
  403d7d:	48 89 ef             	mov    %rbp,%rdi
  403d80:	e8 bb fe ff ff       	callq  403c40 <_Unwind_Resume@plt>
_ZNKSt7__cxx1112basic_stringIcSt11char_traitsIcESaIcEE7_M_dataEv():
/usr/include/c++/10/bits/basic_string.h:195 (discriminator 3)
      { return _M_dataplus._M_p; }
  403d85:	48 8b bc 24 c0 00 00 	mov    0xc0(%rsp),%rdi
  403d8c:	00 
_ZNSt7__cxx1112basic_stringIcSt11char_traitsIcESaIcEE10_M_disposeEv():
/usr/include/c++/10/bits/basic_string.h:239 (discriminator 3)
	if (!_M_is_local())
  403d8d:	48 8d 84 24 d0 00 00 	lea    0xd0(%rsp),%rax
  403d94:	00 
  403d95:	48 39 c7             	cmp    %rax,%rdi
  403d98:	74 05                	je     403d9f <_Z5DOBFSRK8CSRGraphIiiLb1EEibii.cold+0x4e>
_ZN9__gnu_cxx13new_allocatorIcE10deallocateEPcm():
/usr/include/c++/10/ext/new_allocator.h:139
  403d9a:	e8 91 fb ff ff       	callq  403930 <_ZdlPv@plt>
_ZN9__gnu_cxx13new_allocatorIcED4Ev():
/usr/include/c++/10/ext/new_allocator.h:89
      ~new_allocator() _GLIBCXX_USE_NOEXCEPT { }
  403d9f:	48 89 ef             	mov    %rbp,%rdi
  403da2:	e8 99 fe ff ff       	callq  403c40 <_Unwind_Resume@plt>
_ZNKSt7__cxx1112basic_stringIcSt11char_traitsIcESaIcEE7_M_dataEv():
/usr/include/c++/10/bits/basic_string.h:195 (discriminator 4)
      { return _M_dataplus._M_p; }
  403da7:	48 8b bc 24 c0 00 00 	mov    0xc0(%rsp),%rdi
  403dae:	00 
_ZNSt7__cxx1112basic_stringIcSt11char_traitsIcESaIcEE10_M_disposeEv():
/usr/include/c++/10/bits/basic_string.h:239 (discriminator 4)
	if (!_M_is_local())
  403daf:	48 39 ef             	cmp    %rbp,%rdi
  403db2:	74 05                	je     403db9 <_Z5DOBFSRK8CSRGraphIiiLb1EEibii.cold+0x68>
_ZN9__gnu_cxx13new_allocatorIcE10deallocateEPcm():
/usr/include/c++/10/ext/new_allocator.h:139
	::operator delete(__p
  403db4:	e8 77 fb ff ff       	callq  403930 <_ZdlPv@plt>
_ZN6BitmapD4Ev():
/home/aliha951/ipdps-artifact/gapbs-master/src/bitmap.h:32
    start_ = new uint64_t[num_words];
    end_ = start_ + num_words;
  }

  ~Bitmap() {
    delete[] start_;
  403db9:	48 8b 7c 24 60       	mov    0x60(%rsp),%rdi
  403dbe:	48 85 ff             	test   %rdi,%rdi
  403dc1:	74 05                	je     403dc8 <_Z5DOBFSRK8CSRGraphIiiLb1EEibii.cold+0x77>
  403dc3:	e8 a8 fc ff ff       	callq  403a70 <_ZdaPv@plt>
  403dc8:	48 89 dd             	mov    %rbx,%rbp
  403dcb:	48 8b 7c 24 50       	mov    0x50(%rsp),%rdi
  403dd0:	48 85 ff             	test   %rdi,%rdi
  403dd3:	74 05                	je     403dda <_Z5DOBFSRK8CSRGraphIiiLb1EEibii.cold+0x89>
  403dd5:	e8 96 fc ff ff       	callq  403a70 <_ZdaPv@plt>
_ZN12SlidingQueueIiED4Ev():
/home/aliha951/ipdps-artifact/gapbs-master/src/sliding_queue.h:41
    shared = new T[shared_size];
    reset();
  }

  ~SlidingQueue() {
    delete[] shared;
  403dda:	48 8b 7c 24 70       	mov    0x70(%rsp),%rdi
  403ddf:	48 85 ff             	test   %rdi,%rdi
  403de2:	74 87                	je     403d6b <_Z5DOBFSRK8CSRGraphIiiLb1EEibii.cold+0x1a>
  403de4:	e8 87 fc ff ff       	callq  403a70 <_ZdaPv@plt>
  403de9:	eb 80                	jmp    403d6b <_Z5DOBFSRK8CSRGraphIiiLb1EEibii.cold+0x1a>
_ZN12SlidingQueueIiEC4Em():
/home/aliha951/ipdps-artifact/gapbs-master/src/sliding_queue.h:36
    shared = new T[shared_size];
  403deb:	e8 10 fd ff ff       	callq  403b00 <__cxa_throw_bad_array_new_length@plt>
_ZN7pvectorIiEC4Em():
/home/aliha951/ipdps-artifact/gapbs-master/src/pvector.h:30
    start_ = new T_[num_elements];
  403df0:	e8 0b fd ff ff       	callq  403b00 <__cxa_throw_bad_array_new_length@plt>
  403df5:	f3 0f 1e fa          	endbr64 
_ZN7pvectorIiE16ReleaseResourcesEv():
/home/aliha951/ipdps-artifact/gapbs-master/src/pvector.h:73
    if (start_ != nullptr) {
  403df9:	48 89 c5             	mov    %rax,%rbp
  403dfc:	e9 6a ff ff ff       	jmpq   403d6b <_Z5DOBFSRK8CSRGraphIiiLb1EEibii.cold+0x1a>

0000000000403e01 <_Z11BFSVerifierRK8CSRGraphIiiLb1EEiRK7pvectorIiE.cold>:
_ZN7pvectorIiEC4Em():
/home/aliha951/ipdps-artifact/gapbs-master/src/pvector.h:30
    start_ = new T_[num_elements];
  403e01:	e8 fa fc ff ff       	callq  403b00 <__cxa_throw_bad_array_new_length@plt>
_ZNSt6vectorIiSaIiEED4Ev():
/usr/include/c++/10/bits/stl_vector.h:680
       *  not touched in any way.  Managing the pointer is the user's
       *  responsibility.
       */
      ~vector() _GLIBCXX_NOEXCEPT
      {
	std::_Destroy(this->_M_impl._M_start, this->_M_impl._M_finish,
  403e06:	48 8b 7c 24 50       	mov    0x50(%rsp),%rdi
_ZNSt12_Vector_baseIiSaIiEE13_M_deallocateEPim():
/usr/include/c++/10/bits/stl_vector.h:353
	if (__p)
  403e0b:	48 85 ff             	test   %rdi,%rdi
  403e0e:	74 05                	je     403e15 <_Z11BFSVerifierRK8CSRGraphIiiLb1EEiRK7pvectorIiE.cold+0x14>
_ZN9__gnu_cxx13new_allocatorIiE10deallocateEPim():
/usr/include/c++/10/ext/new_allocator.h:139
  403e10:	e8 1b fb ff ff       	callq  403930 <_ZdlPv@plt>
_ZN7pvectorIiE16ReleaseResourcesEv():
/home/aliha951/ipdps-artifact/gapbs-master/src/pvector.h:73
    if (start_ != nullptr) {
  403e15:	48 8b 7c 24 30       	mov    0x30(%rsp),%rdi
  403e1a:	48 85 ff             	test   %rdi,%rdi
  403e1d:	74 05                	je     403e24 <_Z11BFSVerifierRK8CSRGraphIiiLb1EEiRK7pvectorIiE.cold+0x23>
/home/aliha951/ipdps-artifact/gapbs-master/src/pvector.h:74
      delete[] start_;
  403e1f:	e8 4c fc ff ff       	callq  403a70 <_ZdaPv@plt>
  403e24:	48 89 ef             	mov    %rbp,%rdi
  403e27:	e8 14 fe ff ff       	callq  403c40 <_Unwind_Resume@plt>

0000000000403e2c <main.cold>:
_ZNKSt7__cxx1112basic_stringIcSt11char_traitsIcESaIcEE7_M_dataEv():
/usr/include/c++/10/bits/basic_string.h:195
      { return _M_dataplus._M_p; }
  403e2c:	48 8b bc 24 00 01 00 	mov    0x100(%rsp),%rdi
  403e33:	00 
_ZNSt7__cxx1112basic_stringIcSt11char_traitsIcESaIcEE10_M_disposeEv():
/usr/include/c++/10/bits/basic_string.h:239
	if (!_M_is_local())
  403e34:	4c 39 ef             	cmp    %r13,%rdi
  403e37:	74 05                	je     403e3e <main.cold+0x12>
_ZN9__gnu_cxx13new_allocatorIcE10deallocateEPcm():
/usr/include/c++/10/ext/new_allocator.h:139
  403e39:	e8 f2 fa ff ff       	callq  403930 <_ZdlPv@plt>
_ZNKSt7__cxx1112basic_stringIcSt11char_traitsIcESaIcEE7_M_dataEv():
/usr/include/c++/10/bits/basic_string.h:195
      { return _M_dataplus._M_p; }
  403e3e:	48 8b bc 24 e0 00 00 	mov    0xe0(%rsp),%rdi
  403e45:	00 
_ZNSt7__cxx1112basic_stringIcSt11char_traitsIcESaIcEE10_M_disposeEv():
/usr/include/c++/10/bits/basic_string.h:239
	if (!_M_is_local())
  403e46:	4c 39 ff             	cmp    %r15,%rdi
  403e49:	74 05                	je     403e50 <main.cold+0x24>
_ZN9__gnu_cxx13new_allocatorIcE10deallocateEPcm():
/usr/include/c++/10/ext/new_allocator.h:139
  403e4b:	e8 e0 fa ff ff       	callq  403930 <_ZdlPv@plt>
_ZN7pvectorIiE16ReleaseResourcesEv():
/home/aliha951/ipdps-artifact/gapbs-master/src/pvector.h:73
    if (start_ != nullptr) {
  403e50:	48 8b bc 24 80 00 00 	mov    0x80(%rsp),%rdi
  403e57:	00 
  403e58:	48 85 ff             	test   %rdi,%rdi
  403e5b:	75 2b                	jne    403e88 <main.cold+0x5c>
_ZN8CSRGraphIiiLb1EED4Ev():
/home/aliha951/ipdps-artifact/gapbs-master/src/graph.h:166
      other.in_index_ = nullptr;
      other.in_neighbors_ = nullptr;
  }

  ~CSRGraph() {
    ReleaseResources();
  403e5d:	48 8b 7c 24 18       	mov    0x18(%rsp),%rdi
  403e62:	e8 79 80 00 00       	callq  40bee0 <_ZN8CSRGraphIiiLb1EE16ReleaseResourcesEv>
_ZN5CLAppD4Ev():
/home/aliha951/ipdps-artifact/gapbs-master/src/command_line.h:140
  int batching_mode() const { return batching_mode_; }
};



class CLApp : public CLBase {
  403e67:	48 8b 7c 24 38       	mov    0x38(%rsp),%rdi
  403e6c:	48 8d 05 b5 5c 01 00 	lea    0x15cb5(%rip),%rax        # 419b28 <_ZTV5CLApp+0x10>
  403e73:	48 89 84 24 20 01 00 	mov    %rax,0x120(%rsp)
  403e7a:	00 
  403e7b:	e8 d0 73 00 00       	callq  40b250 <_ZN6CLBaseD1Ev>
  403e80:	48 89 df             	mov    %rbx,%rdi
  403e83:	e8 b8 fd ff ff       	callq  403c40 <_Unwind_Resume@plt>
_ZN7pvectorIiE16ReleaseResourcesEv():
/home/aliha951/ipdps-artifact/gapbs-master/src/pvector.h:74
      delete[] start_;
  403e88:	e8 e3 fb ff ff       	callq  403a70 <_ZdaPv@plt>
  403e8d:	eb ce                	jmp    403e5d <main.cold+0x31>
_ZNKSt7__cxx1112basic_stringIcSt11char_traitsIcESaIcEE7_M_dataEv():
/usr/include/c++/10/bits/basic_string.h:195
      { return _M_dataplus._M_p; }
  403e8f:	48 8b bc 24 00 01 00 	mov    0x100(%rsp),%rdi
  403e96:	00 
_ZNSt7__cxx1112basic_stringIcSt11char_traitsIcESaIcEE10_M_disposeEv():
/usr/include/c++/10/bits/basic_string.h:239
	if (!_M_is_local())
  403e97:	4c 39 ef             	cmp    %r13,%rdi
  403e9a:	74 b4                	je     403e50 <main.cold+0x24>
_ZN9__gnu_cxx13new_allocatorIcE10deallocateEPcm():
/usr/include/c++/10/ext/new_allocator.h:139
  403e9c:	e8 8f fa ff ff       	callq  403930 <_ZdlPv@plt>
_ZNSt7__cxx1112basic_stringIcSt11char_traitsIcESaIcEE10_M_destroyEm():
/usr/include/c++/10/bits/basic_string.h:245
	  _M_destroy(_M_allocated_capacity);
      }

      void
      _M_destroy(size_type __size) throw()
      { _Alloc_traits::deallocate(_M_get_allocator(), _M_data(), __size + 1); }
  403ea1:	eb ad                	jmp    403e50 <main.cold+0x24>
_ZNKSt7__cxx1112basic_stringIcSt11char_traitsIcESaIcEE7_M_dataEv():
/usr/include/c++/10/bits/basic_string.h:195
      { return _M_dataplus._M_p; }
  403ea3:	48 8b bc 24 e0 0b 00 	mov    0xbe0(%rsp),%rdi
  403eaa:	00 
_ZNSt7__cxx1112basic_stringIcSt11char_traitsIcESaIcEE10_M_disposeEv():
/usr/include/c++/10/bits/basic_string.h:239
	if (!_M_is_local())
  403eab:	48 8d 84 24 f0 0b 00 	lea    0xbf0(%rsp),%rax
  403eb2:	00 
  403eb3:	48 39 c7             	cmp    %rax,%rdi
  403eb6:	74 05                	je     403ebd <main.cold+0x91>
_ZN9__gnu_cxx13new_allocatorIcE10deallocateEPcm():
/usr/include/c++/10/ext/new_allocator.h:139
  403eb8:	e8 73 fa ff ff       	callq  403930 <_ZdlPv@plt>
_ZN9__gnu_cxx13new_allocatorIcED4Ev():
/usr/include/c++/10/ext/new_allocator.h:89
      ~new_allocator() _GLIBCXX_USE_NOEXCEPT { }
  403ebd:	48 89 ef             	mov    %rbp,%rdi
  403ec0:	e8 7b fd ff ff       	callq  403c40 <_Unwind_Resume@plt>
_ZNKSt7__cxx1112basic_stringIcSt11char_traitsIcESaIcEE7_M_dataEv():
/usr/include/c++/10/bits/basic_string.h:195
      { return _M_dataplus._M_p; }
  403ec5:	48 8b bc 24 00 01 00 	mov    0x100(%rsp),%rdi
  403ecc:	00 
_ZNSt7__cxx1112basic_stringIcSt11char_traitsIcESaIcEE10_M_disposeEv():
/usr/include/c++/10/bits/basic_string.h:239
	if (!_M_is_local())
  403ecd:	4c 39 ef             	cmp    %r13,%rdi
  403ed0:	0f 84 7a ff ff ff    	je     403e50 <main.cold+0x24>
_ZN9__gnu_cxx13new_allocatorIcE10deallocateEPcm():
/usr/include/c++/10/ext/new_allocator.h:139
	::operator delete(__p
  403ed6:	e8 55 fa ff ff       	callq  403930 <_ZdlPv@plt>
_ZNSt7__cxx1112basic_stringIcSt11char_traitsIcESaIcEE10_M_destroyEm():
/usr/include/c++/10/bits/basic_string.h:245
      { _Alloc_traits::deallocate(_M_get_allocator(), _M_data(), __size + 1); }
  403edb:	e9 70 ff ff ff       	jmpq   403e50 <main.cold+0x24>
_ZNKSt7__cxx1112basic_stringIcSt11char_traitsIcESaIcEE7_M_dataEv():
/usr/include/c++/10/bits/basic_string.h:195
      { return _M_dataplus._M_p; }
  403ee0:	48 8b bc 24 00 01 00 	mov    0x100(%rsp),%rdi
  403ee7:	00 
_ZNSt7__cxx1112basic_stringIcSt11char_traitsIcESaIcEE10_M_disposeEv():
/usr/include/c++/10/bits/basic_string.h:239
	if (!_M_is_local())
  403ee8:	48 8d 84 24 10 01 00 	lea    0x110(%rsp),%rax
  403eef:	00 
  403ef0:	48 39 c7             	cmp    %rax,%rdi
  403ef3:	0f 84 64 ff ff ff    	je     403e5d <main.cold+0x31>
_ZN9__gnu_cxx13new_allocatorIcE10deallocateEPcm():
/usr/include/c++/10/ext/new_allocator.h:139
  403ef9:	e8 32 fa ff ff       	callq  403930 <_ZdlPv@plt>
_ZNSt7__cxx1112basic_stringIcSt11char_traitsIcESaIcEE10_M_destroyEm():
/usr/include/c++/10/bits/basic_string.h:245
      { _Alloc_traits::deallocate(_M_get_allocator(), _M_data(), __size + 1); }
  403efe:	e9 5a ff ff ff       	jmpq   403e5d <main.cold+0x31>
main.cold():
  403f03:	66 2e 0f 1f 84 00 00 	nopw   %cs:0x0(%rax,%rax,1)
  403f0a:	00 00 00 
  403f0d:	0f 1f 00             	nopl   (%rax)

0000000000403f10 <main>:
main():
/home/aliha951/ipdps-artifact/gapbs-master/src/bfs_batching_nopt.cc:305
  }
  return true;
}


int main(int argc, char* argv[]) {
  403f10:	f3 0f 1e fa          	endbr64 
  403f14:	41 57                	push   %r15
  403f16:	41 56                	push   %r14
  403f18:	41 55                	push   %r13
  403f1a:	41 54                	push   %r12
  403f1c:	55                   	push   %rbp
  403f1d:	53                   	push   %rbx
  403f1e:	48 81 ec 00 10 00 00 	sub    $0x1000,%rsp
  403f25:	48 83 0c 24 00       	orq    $0x0,(%rsp)
  403f2a:	48 81 ec e8 06 00 00 	sub    $0x6e8,%rsp
  403f31:	64 48 8b 04 25 28 00 	mov    %fs:0x28,%rax
  403f38:	00 00 
  403f3a:	48 89 84 24 d8 16 00 	mov    %rax,0x16d8(%rsp)
  403f41:	00 
  403f42:	31 c0                	xor    %eax,%eax
/home/aliha951/ipdps-artifact/gapbs-master/src/bfs_batching_nopt.cc:307
  initialize_perf_measurements();
  CLApp cli(argc, argv, "breadth-first search");
  403f44:	48 8d ac 24 e0 0b 00 	lea    0xbe0(%rsp),%rbp
  403f4b:	00 
/home/aliha951/ipdps-artifact/gapbs-master/src/bfs_batching_nopt.cc:305
int main(int argc, char* argv[]) {
  403f4c:	41 89 fc             	mov    %edi,%r12d
  403f4f:	49 89 f5             	mov    %rsi,%r13
_Z28initialize_perf_measurementsv():
/home/aliha951/ipdps-artifact/gapbs-master/src/profiling_utils.h:169

/* Setup counters before any threads are created by omp
 * Must be called at the begining of the program.
*/
void initialize_perf_measurements(){
  perf_ctrs = setup_counters();
  403f52:	e8 c9 2f 00 00       	callq  406f20 <_Z14setup_countersv>
main():
/home/aliha951/ipdps-artifact/gapbs-master/src/bfs_batching_nopt.cc:307
  CLApp cli(argc, argv, "breadth-first search");
  403f57:	48 8d 35 ee 13 01 00 	lea    0x113ee(%rip),%rsi        # 41534c <_IO_stdin_used+0x34c>
  403f5e:	48 89 ef             	mov    %rbp,%rdi
_Z28initialize_perf_measurementsv():
/home/aliha951/ipdps-artifact/gapbs-master/src/profiling_utils.h:169
  403f61:	48 89 05 88 b9 01 00 	mov    %rax,0x1b988(%rip)        # 41f8f0 <perf_ctrs>
  403f68:	48 89 15 89 b9 01 00 	mov    %rdx,0x1b989(%rip)        # 41f8f8 <perf_ctrs+0x8>
main():
/home/aliha951/ipdps-artifact/gapbs-master/src/bfs_batching_nopt.cc:307
  403f6f:	e8 ec 22 00 00       	callq  406260 <_ZNSt7__cxx1112basic_stringIcSt11char_traitsIcESaIcEEC2EPKcRKS3_.constprop.0>
  403f74:	48 89 e9             	mov    %rbp,%rcx
  403f77:	4c 89 ea             	mov    %r13,%rdx
  403f7a:	44 89 e6             	mov    %r12d,%esi
  403f7d:	48 8d 84 24 20 01 00 	lea    0x120(%rsp),%rax
  403f84:	00 
  403f85:	48 89 c7             	mov    %rax,%rdi
  403f88:	48 89 44 24 38       	mov    %rax,0x38(%rsp)
  403f8d:	e8 8e 95 00 00       	callq  40d520 <_ZN5CLAppC1EiPPcNSt7__cxx1112basic_stringIcSt11char_traitsIcESaIcEEE>
_ZNKSt7__cxx1112basic_stringIcSt11char_traitsIcESaIcEE7_M_dataEv():
/usr/include/c++/10/bits/basic_string.h:195
      { return _M_dataplus._M_p; }
  403f92:	48 8b bc 24 e0 0b 00 	mov    0xbe0(%rsp),%rdi
  403f99:	00 
_ZNSt7__cxx1112basic_stringIcSt11char_traitsIcESaIcEE10_M_disposeEv():
/usr/include/c++/10/bits/basic_string.h:239
	if (!_M_is_local())
  403f9a:	4c 8d ac 24 f0 0b 00 	lea    0xbf0(%rsp),%r13
  403fa1:	00 
  403fa2:	4c 39 ef             	cmp    %r13,%rdi
  403fa5:	74 05                	je     403fac <main+0x9c>
_ZN9__gnu_cxx13new_allocatorIcE10deallocateEPcm():
/usr/include/c++/10/ext/new_allocator.h:139
  403fa7:	e8 84 f9 ff ff       	callq  403930 <_ZdlPv@plt>
_ZN6CLBase9HandleArgEaPc():
/home/aliha951/ipdps-artifact/gapbs-master/src/command_line.h:100
    switch (opt) {
  403fac:	4c 8d 25 11 20 01 00 	lea    0x12011(%rip),%r12        # 415fc4 <_IO_stdin_used+0xfc4>
_ZNSt7__cxx1112basic_stringIcSt11char_traitsIcESaIcEEaSEOS4_():
/usr/include/c++/10/bits/basic_string.h:745
	    || _M_get_allocator() == __str._M_get_allocator())
	  {
	    // Just move the allocated pointer, our allocator can free it.
	    pointer __data = nullptr;
	    size_type __capacity;
	    if (!_M_is_local())
  403fb3:	4c 8d b4 24 a8 01 00 	lea    0x1a8(%rsp),%r14
  403fba:	00 
_ZN5CLApp9HandleArgEaPc():
/home/aliha951/ipdps-artifact/gapbs-master/src/command_line.h:165
    AddHelpLine('p', "", "partial execution", "false");
    AddHelpLine('z', "", "pin vertex array in memory", "false");
  }

  void HandleArg(signed char opt, char* opt_arg) override {
    switch (opt) {
  403fbb:	48 8d 1d 9a 1f 01 00 	lea    0x11f9a(%rip),%rbx        # 415f5c <_IO_stdin_used+0xf5c>
  403fc2:	66 0f 1f 44 00 00    	nopw   0x0(%rax,%rax,1)
_ZN6CLBase9ParseArgsEv():
/home/aliha951/ipdps-artifact/gapbs-master/src/command_line.h:87
    while ((c_opt = getopt(argc_, argv_, get_args_.c_str())) != -1) {
  403fc8:	48 8b 94 24 58 01 00 	mov    0x158(%rsp),%rdx
  403fcf:	00 
  403fd0:	48 8b b4 24 30 01 00 	mov    0x130(%rsp),%rsi
  403fd7:	00 
  403fd8:	8b bc 24 28 01 00 00 	mov    0x128(%rsp),%edi
  403fdf:	e8 3c f7 ff ff       	callq  403720 <getopt@plt>
  403fe4:	3c ff                	cmp    $0xff,%al
  403fe6:	0f 84 a4 00 00 00    	je     404090 <main+0x180>
_ZN5CLApp9HandleArgEaPc():
/home/aliha951/ipdps-artifact/gapbs-master/src/command_line.h:165
    switch (opt) {
  403fec:	8d 50 9f             	lea    -0x61(%rax),%edx
_ZN6CLBase9ParseArgsEv():
/home/aliha951/ipdps-artifact/gapbs-master/src/command_line.h:88
      HandleArg(c_opt, optarg);
  403fef:	48 8b 3d 8a 63 01 00 	mov    0x1638a(%rip),%rdi        # 41a380 <optarg@@GLIBC_2.2.5>
_ZN5CLApp9HandleArgEaPc():
/home/aliha951/ipdps-artifact/gapbs-master/src/command_line.h:165
    switch (opt) {
  403ff6:	80 fa 19             	cmp    $0x19,%dl
  403ff9:	77 15                	ja     404010 <main+0x100>
  403ffb:	0f b6 d2             	movzbl %dl,%edx
  403ffe:	48 63 14 93          	movslq (%rbx,%rdx,4),%rdx
  404002:	48 01 da             	add    %rbx,%rdx
  404005:	3e ff e2             	notrack jmpq *%rdx
  404008:	0f 1f 84 00 00 00 00 	nopl   0x0(%rax,%rax,1)
  40400f:	00 
_ZN6CLBase9HandleArgEaPc():
/home/aliha951/ipdps-artifact/gapbs-master/src/command_line.h:100
    switch (opt) {
  404010:	83 e8 66             	sub    $0x66,%eax
  404013:	3c 13                	cmp    $0x13,%al
  404015:	77 b1                	ja     403fc8 <main+0xb8>
  404017:	0f b6 c0             	movzbl %al,%eax
  40401a:	49 63 04 84          	movslq (%r12,%rax,4),%rax
  40401e:	4c 01 e0             	add    %r12,%rax
  404021:	3e ff e0             	notrack jmpq *%rax
_ZN5CLApp9HandleArgEaPc():
/home/aliha951/ipdps-artifact/gapbs-master/src/command_line.h:174
      case 'v': do_verify_ = true;                      break;
      case 'l': enable_logging_ = true;                 break;

      // added options for batching
      case 'p': partial_execution_ = true;              break;
      case 'z': pin_vertices_ = true;                 	break;
  404024:	c6 84 24 e3 01 00 00 	movb   $0x1,0x1e3(%rsp)
  40402b:	01 
  40402c:	eb 9a                	jmp    403fc8 <main+0xb8>
/home/aliha951/ipdps-artifact/gapbs-master/src/command_line.h:169
      case 'v': do_verify_ = true;                      break;
  40402e:	c6 84 24 e0 01 00 00 	movb   $0x1,0x1e0(%rsp)
  404035:	01 
  404036:	eb 90                	jmp    403fc8 <main+0xb8>
main():
/usr/include/stdlib.h:368
  return (int) strtol (__nptr, (char **) NULL, 10);
}
__extern_inline long int
__NTH (atol (const char *__nptr))
{
  return strtol (__nptr, (char **) NULL, 10);
  404038:	ba 0a 00 00 00       	mov    $0xa,%edx
atol():
/usr/include/stdlib.h:368
  40403d:	31 f6                	xor    %esi,%esi
  40403f:	e8 8c fa ff ff       	callq  403ad0 <strtol@plt>
_ZN5CLApp9HandleArgEaPc():
/home/aliha951/ipdps-artifact/gapbs-master/src/command_line.h:168
      case 'r': start_vertex_ = atol(opt_arg);          break;
  404044:	48 89 84 24 d8 01 00 	mov    %rax,0x1d8(%rsp)
  40404b:	00 
  40404c:	e9 77 ff ff ff       	jmpq   403fc8 <main+0xb8>
/home/aliha951/ipdps-artifact/gapbs-master/src/command_line.h:173
      case 'p': partial_execution_ = true;              break;
  404051:	c6 84 24 e2 01 00 00 	movb   $0x1,0x1e2(%rsp)
  404058:	01 
  404059:	e9 6a ff ff ff       	jmpq   403fc8 <main+0xb8>
main():
/usr/include/stdlib.h:363
  return (int) strtol (__nptr, (char **) NULL, 10);
  40405e:	ba 0a 00 00 00       	mov    $0xa,%edx
atoi():
/usr/include/stdlib.h:363
  404063:	31 f6                	xor    %esi,%esi
  404065:	e8 66 fa ff ff       	callq  403ad0 <strtol@plt>
  40406a:	89 84 24 d4 01 00 00 	mov    %eax,0x1d4(%rsp)
_ZN5CLApp9HandleArgEaPc():
/home/aliha951/ipdps-artifact/gapbs-master/src/command_line.h:167
      case 'n': num_trials_ = atoi(opt_arg);            break;
  404071:	e9 52 ff ff ff       	jmpq   403fc8 <main+0xb8>
/home/aliha951/ipdps-artifact/gapbs-master/src/command_line.h:170
      case 'l': enable_logging_ = true;                 break;
  404076:	c6 84 24 e1 01 00 00 	movb   $0x1,0x1e1(%rsp)
  40407d:	01 
  40407e:	e9 45 ff ff ff       	jmpq   403fc8 <main+0xb8>
/home/aliha951/ipdps-artifact/gapbs-master/src/command_line.h:166
      case 'a': do_analysis_ = true;                    break;
  404083:	c6 84 24 d0 01 00 00 	movb   $0x1,0x1d0(%rsp)
  40408a:	01 
  40408b:	e9 38 ff ff ff       	jmpq   403fc8 <main+0xb8>
_ZSteqIcSt11char_traitsIcESaIcEEbRKNSt7__cxx1112basic_stringIT_T0_T1_EEPKS5_():
/usr/include/c++/10/bits/basic_string.h:6199
   */
  template<typename _CharT, typename _Traits, typename _Alloc>
    inline bool
    operator==(const basic_string<_CharT, _Traits, _Alloc>& __lhs,
	       const _CharT* __rhs)
    { return __lhs.compare(__rhs) == 0; }
  404090:	48 8d bc 24 98 01 00 	lea    0x198(%rsp),%rdi
  404097:	00 
  404098:	48 8d 35 ac 11 01 00 	lea    0x111ac(%rip),%rsi        # 41524b <_IO_stdin_used+0x24b>
  40409f:	e8 cc f6 ff ff       	callq  403770 <_ZNKSt7__cxx1112basic_stringIcSt11char_traitsIcESaIcEE7compareEPKc@plt>
_ZN6CLBase9ParseArgsEv():
/home/aliha951/ipdps-artifact/gapbs-master/src/command_line.h:90
    if ((filename_ == "") && (scale_ == -1)) {
  4040a4:	85 c0                	test   %eax,%eax
  4040a6:	0f 84 c8 05 00 00    	je     404674 <main+0x764>
/home/aliha951/ipdps-artifact/gapbs-master/src/command_line.h:94
    if (scale_ != -1)
  4040ac:	83 bc 24 90 01 00 00 	cmpl   $0xffffffff,0x190(%rsp)
  4040b3:	ff 
  4040b4:	0f 85 cc 05 00 00    	jne    404686 <main+0x776>
_ZN11BuilderBaseIiiiLb1EEC4ERK6CLBase():
/home/aliha951/ipdps-artifact/gapbs-master/src/builder.h:50
  bool needs_weights_;
  bool in_place_ = false;
  int64_t num_nodes_ = -1;

 public:
  explicit BuilderBase(const CLBase &cli) : cli_(cli) {
  4040ba:	48 8b 44 24 38       	mov    0x38(%rsp),%rax
main():
/home/aliha951/ipdps-artifact/gapbs-master/src/bfs_batching_nopt.cc:312
  if (!cli.ParseArgs())
    return -1;

  Builder b(cli);
  Graph g = b.MakeGraph();
  4040bf:	48 8d 74 24 60       	lea    0x60(%rsp),%rsi
_ZN11BuilderBaseIiiiLb1EEC4ERK6CLBase():
/home/aliha951/ipdps-artifact/gapbs-master/src/builder.h:52
    symmetrize_ = cli_.symmetrize();
    needs_weights_ = !std::is_same<NodeID_, DestID_>::value;
  4040c4:	c6 44 24 69 00       	movb   $0x0,0x69(%rsp)
/home/aliha951/ipdps-artifact/gapbs-master/src/builder.h:50
  explicit BuilderBase(const CLBase &cli) : cli_(cli) {
  4040c9:	48 c7 44 24 70 ff ff 	movq   $0xffffffffffffffff,0x70(%rsp)
  4040d0:	ff ff 
  4040d2:	48 89 44 24 60       	mov    %rax,0x60(%rsp)
/home/aliha951/ipdps-artifact/gapbs-master/src/builder.h:51
    symmetrize_ = cli_.symmetrize();
  4040d7:	0f b6 84 24 b8 01 00 	movzbl 0x1b8(%rsp),%eax
  4040de:	00 
  4040df:	88 44 24 68          	mov    %al,0x68(%rsp)
/home/aliha951/ipdps-artifact/gapbs-master/src/builder.h:53
    in_place_ = cli_.in_place();
  4040e3:	0f b6 84 24 ba 01 00 	movzbl 0x1ba(%rsp),%eax
  4040ea:	00 
  4040eb:	88 44 24 6a          	mov    %al,0x6a(%rsp)
main():
/home/aliha951/ipdps-artifact/gapbs-master/src/bfs_batching_nopt.cc:312
  4040ef:	48 8d 84 24 a0 00 00 	lea    0xa0(%rsp),%rax
  4040f6:	00 
  4040f7:	48 89 c7             	mov    %rax,%rdi
  4040fa:	48 89 44 24 18       	mov    %rax,0x18(%rsp)
  4040ff:	48 89 c3             	mov    %rax,%rbx
  404102:	e8 79 ee 00 00       	callq  412f80 <_ZN11BuilderBaseIiiiLb1EE9MakeGraphEv>
/home/aliha951/ipdps-artifact/gapbs-master/src/bfs_batching_nopt.cc:313
  SourcePicker<Graph> sp(g, cli.start_vertex());
  404107:	8b 94 24 d8 01 00 00 	mov    0x1d8(%rsp),%edx
  40410e:	48 8d bc 24 f0 01 00 	lea    0x1f0(%rsp),%rdi
  404115:	00 
  404116:	48 89 de             	mov    %rbx,%rsi
  404119:	e8 62 7a 00 00       	callq  40bb80 <_ZN12SourcePickerI8CSRGraphIiiLb1EEEC1ERKS1_i>
/home/aliha951/ipdps-artifact/gapbs-master/src/bfs_batching_nopt.cc:317
  auto BFSBound = [&sp,&cli] (const Graph &g) {
    return DOBFS(g, sp.PickNext(), cli.logging_en());
  };
  SourcePicker<Graph> vsp(g, cli.start_vertex());
  40411e:	8b 94 24 d8 01 00 00 	mov    0x1d8(%rsp),%edx
  404125:	48 89 de             	mov    %rbx,%rsi
  404128:	48 89 ef             	mov    %rbp,%rdi
  40412b:	e8 50 7a 00 00       	callq  40bb80 <_ZN12SourcePickerI8CSRGraphIiiLb1EEEC1ERKS1_i>
/home/aliha951/ipdps-artifact/gapbs-master/src/bfs_batching_nopt.cc:322
  auto VerifierBound = [&vsp] (const Graph &g, const pvector<NodeID> &parent) {
    return BFSVerifier(g, vsp.PickNext(), parent);
  };

  if(cli.batching()){
  404130:	80 bc 24 bb 01 00 00 	cmpb   $0x0,0x1bb(%rsp)
  404137:	00 
  404138:	0f 84 b1 00 00 00    	je     4041ef <main+0x2df>
/home/aliha951/ipdps-artifact/gapbs-master/src/bfs_batching_nopt.cc:323
    pagefault_queue_size = cli.queue_size();
  40413e:	48 63 84 24 c0 01 00 	movslq 0x1c0(%rsp),%rax
  404145:	00 
  404146:	48 89 05 13 62 01 00 	mov    %rax,0x16213(%rip)        # 41a360 <pagefault_queue_size>
/home/aliha951/ipdps-artifact/gapbs-master/src/bfs_batching_nopt.cc:324
    batching_mode = cli.batching_mode();
  40414d:	8b 84 24 cc 01 00 00 	mov    0x1cc(%rsp),%eax
  404154:	89 05 02 62 01 00    	mov    %eax,0x16202(%rip)        # 41a35c <batching_mode>
/home/aliha951/ipdps-artifact/gapbs-master/src/bfs_batching_nopt.cc:325
    allocate_pf_status_array();
  40415a:	e8 71 79 00 00       	callq  40bad0 <_Z24allocate_pf_status_arrayv>
_Z16prepare_pmadvisev():
/home/aliha951/ipdps-artifact/gapbs-master/src/libpfq_bfs.h:320
  touch_pages(pf_status_array, 32*1024*sizeof(int));
}

// Get file descriptor required for process_madvise and store it in pidfd
inline void prepare_pmadvise(){
  if(batching_mode == P_MADVISE){
  40415f:	83 3d f6 61 01 00 01 	cmpl   $0x1,0x161f6(%rip)        # 41a35c <batching_mode>
  404166:	0f 84 e3 09 00 00    	je     404b4f <main+0xc3f>
_Z24register_pf_status_arrayv():
/home/aliha951/ipdps-artifact/gapbs-master/src/libpfq_bfs.h:328
  }
}

// syscall to register the page fault status array with the kernel
inline void register_pf_status_array(){
  syscall(550,pf_status_array,32*1024);
  40416c:	48 8b 35 e5 b3 01 00 	mov    0x1b3e5(%rip),%rsi        # 41f558 <pf_status_array>
  404173:	ba 00 80 00 00       	mov    $0x8000,%edx
  404178:	bf 26 02 00 00       	mov    $0x226,%edi
  40417d:	31 c0                	xor    %eax,%eax
  40417f:	e8 5c f5 ff ff       	callq  4036e0 <syscall@plt>
main():
/home/aliha951/ipdps-artifact/gapbs-master/src/bfs_batching_nopt.cc:328
    prepare_pmadvise();
    register_pf_status_array();
    unsigned long *ips = (unsigned long *)malloc(2 * sizeof(unsigned long));
  404184:	bf 10 00 00 00       	mov    $0x10,%edi
  404189:	e8 12 f9 ff ff       	callq  403aa0 <malloc@plt>
/home/aliha951/ipdps-artifact/gapbs-master/src/bfs_batching_nopt.cc:329
    unsigned long *ret_ips = (unsigned long *)malloc(2 * sizeof(unsigned long));
  40418e:	bf 10 00 00 00       	mov    $0x10,%edi
/home/aliha951/ipdps-artifact/gapbs-master/src/bfs_batching_nopt.cc:328
    unsigned long *ips = (unsigned long *)malloc(2 * sizeof(unsigned long));
  404193:	48 89 c5             	mov    %rax,%rbp
/home/aliha951/ipdps-artifact/gapbs-master/src/bfs_batching_nopt.cc:329
    unsigned long *ret_ips = (unsigned long *)malloc(2 * sizeof(unsigned long));
  404196:	e8 05 f9 ff ff       	callq  403aa0 <malloc@plt>
/home/aliha951/ipdps-artifact/gapbs-master/src/bfs_batching_nopt.cc:330
    ips[0] = 0x407e52;  // bu t maker
  40419b:	66 0f 6f 05 8d 20 01 	movdqa 0x1208d(%rip),%xmm0        # 416230 <_ZZNSt8__detail18__to_chars_10_implIjEEvPcjT_E8__digits+0x1f0>
  4041a2:	00 
_Z23register_ips_and_retipsPmS_i():
/home/aliha951/ipdps-artifact/gapbs-master/src/libpfq_bfs.h:333
}

// syscall to register the special PCs (ips) and their return PCs (ret_ips) with the kernel
inline void register_ips_and_retips(unsigned long *ips, unsigned long *ret_ips, int size){
  syscall(548, ips, ret_ips, size);
  4041a3:	b9 02 00 00 00       	mov    $0x2,%ecx
  4041a8:	48 89 ee             	mov    %rbp,%rsi
main():
/home/aliha951/ipdps-artifact/gapbs-master/src/bfs_batching_nopt.cc:329
    unsigned long *ret_ips = (unsigned long *)malloc(2 * sizeof(unsigned long));
  4041ab:	48 89 c2             	mov    %rax,%rdx
_Z23register_ips_and_retipsPmS_i():
/home/aliha951/ipdps-artifact/gapbs-master/src/libpfq_bfs.h:333
  4041ae:	bf 24 02 00 00       	mov    $0x224,%edi
main():
/home/aliha951/ipdps-artifact/gapbs-master/src/bfs_batching_nopt.cc:330
    ips[0] = 0x407e52;  // bu t maker
  4041b3:	0f 11 45 00          	movups %xmm0,0x0(%rbp)
/home/aliha951/ipdps-artifact/gapbs-master/src/bfs_batching_nopt.cc:331
    ret_ips[0] = 0x4;
  4041b7:	66 0f 6f 05 81 20 01 	movdqa 0x12081(%rip),%xmm0        # 416240 <_ZZNSt8__detail18__to_chars_10_implIjEEvPcjT_E8__digits+0x200>
  4041be:	00 
  4041bf:	0f 11 00             	movups %xmm0,(%rax)
_Z23register_ips_and_retipsPmS_i():
/home/aliha951/ipdps-artifact/gapbs-master/src/libpfq_bfs.h:333
  4041c2:	31 c0                	xor    %eax,%eax
  4041c4:	e8 17 f5 ff ff       	callq  4036e0 <syscall@plt>
_Z11touch_pagesPVim():
/home/aliha951/ipdps-artifact/gapbs-master/src/libpfq_bfs.h:300
    for (size_t i = 0; i < num_ints; i += 32) {
  4041c9:	48 8b 05 88 b3 01 00 	mov    0x1b388(%rip),%rax        # 41f558 <pf_status_array>
  4041d0:	48 8d 90 00 00 02 00 	lea    0x20000(%rax),%rdx
  4041d7:	66 0f 1f 84 00 00 00 	nopw   0x0(%rax,%rax,1)
  4041de:	00 00 
/home/aliha951/ipdps-artifact/gapbs-master/src/libpfq_bfs.h:301
        address[i] = 0;
  4041e0:	c7 00 00 00 00 00    	movl   $0x0,(%rax)
/home/aliha951/ipdps-artifact/gapbs-master/src/libpfq_bfs.h:300
    for (size_t i = 0; i < num_ints; i += 32) {
  4041e6:	48 83 e8 80          	sub    $0xffffffffffffff80,%rax
  4041ea:	48 39 c2             	cmp    %rax,%rdx
  4041ed:	75 f1                	jne    4041e0 <main+0x2d0>
main():
/home/aliha951/ipdps-artifact/gapbs-master/src/benchmark.h:107
template<typename GraphT_, typename GraphFunc, typename AnalysisFunc,
         typename VerifierFunc>
void BenchmarkKernel(const CLApp &cli, const GraphT_ &g,
                     GraphFunc kernel, AnalysisFunc stats,
                     VerifierFunc verify) {
  g.PrintStats();
  4041ef:	48 8b 7c 24 18       	mov    0x18(%rsp),%rdi
BenchmarkKernel<CSRGraph<int>, main(int, char**)::<lambda(const Graph&)>, void (*)(const CSRGraph<int>&, const pvector<int>&), main(int, char**)::<lambda(const Graph&, const pvector<int>&)> >():
/home/aliha951/ipdps-artifact/gapbs-master/src/benchmark.h:107
  4041f4:	e8 47 7d 00 00       	callq  40bf40 <_ZNK8CSRGraphIiiLb1EE10PrintStatsEv>
_Z16start_disk_statsPKc():
/home/aliha951/ipdps-artifact/gapbs-master/src/profiling_utils.h:300
	fprintf(f, "%d", pid);
	fclose(f);
}

inline void start_disk_stats(const char* result_file_name){
  pid_t pid = fork();
  4041f9:	e8 62 f5 ff ff       	callq  403760 <fork@plt>
/home/aliha951/ipdps-artifact/gapbs-master/src/profiling_utils.h:301
  if (pid < 0) {
  4041fe:	85 c0                	test   %eax,%eax
  404200:	0f 88 5a 0a 00 00    	js     404c60 <main+0xd50>
/home/aliha951/ipdps-artifact/gapbs-master/src/profiling_utils.h:304
    perror("fork failed");
    exit(EXIT_FAILURE);
  } else if (pid == 0) { // Child process
  404206:	0f 84 0c 0a 00 00    	je     404c18 <main+0xd08>
/home/aliha951/ipdps-artifact/gapbs-master/src/profiling_utils.h:312
    execlp("/home/aliha951/ipdps-gapbs/gather_diskstats.sh", "/home/aliha951/ipdps-gapbs/gather_diskstats.sh", result_file_name, NULL);
    perror("execlp failed");
    exit(EXIT_FAILURE);
  }
  // Parent process continues
  diskstat_pid = pid;
  40420c:	89 05 5a 61 01 00    	mov    %eax,0x1615a(%rip)        # 41a36c <diskstat_pid>
BenchmarkKernel<CSRGraph<int>, main(int, char**)::<lambda(const Graph&)>, void (*)(const CSRGraph<int>&, const pvector<int>&), main(int, char**)::<lambda(const Graph&, const pvector<int>&)> >():
/home/aliha951/ipdps-artifact/gapbs-master/src/benchmark.h:114
  
  // adding profiling markers and rusage counters for performance analysis
  long long user_instructions, kernel_instructions,
              user_time, kernel_time;
  start_disk_stats("disk.stats");
  start_taskstats();                    
  404212:	e8 29 36 00 00       	callq  407840 <_Z15start_taskstatsv>
/home/aliha951/ipdps-artifact/gapbs-master/src/benchmark.h:115
  snapshot_proc_pid(BEGIN);
  404217:	31 ff                	xor    %edi,%edi
  404219:	e8 e2 70 00 00       	callq  40b300 <_Z17snapshot_proc_pid13SnapshotPoint>
/home/aliha951/ipdps-artifact/gapbs-master/src/benchmark.h:116
  snapshot_proc_stat(BEGIN);
  40421e:	31 ff                	xor    %edi,%edi
  404220:	e8 0b 74 00 00       	callq  40b630 <_Z18snapshot_proc_stat13SnapshotPoint>
/home/aliha951/ipdps-artifact/gapbs-master/src/benchmark.h:117
  start_counters(&perf_ctrs);
  404225:	48 8d 3d c4 b6 01 00 	lea    0x1b6c4(%rip),%rdi        # 41f8f0 <perf_ctrs>
  40422c:	e8 ef 2e 00 00       	callq  407120 <_Z14start_countersP13perf_counters>
/home/aliha951/ipdps-artifact/gapbs-master/src/benchmark.h:118
  trace_marker("BenchmarkKernel_Start");
  404231:	48 8d 3d 64 11 01 00 	lea    0x11164(%rip),%rdi        # 41539c <_IO_stdin_used+0x39c>
  404238:	e8 13 2c 00 00       	callq  406e50 <_Z12trace_markerPKc>
/home/aliha951/ipdps-artifact/gapbs-master/src/benchmark.h:119
  start_time_stats();
  40423d:	e8 be 29 00 00       	callq  406c00 <_Z16start_time_statsv>
_Z19ompt_mark_roi_startv():
/home/aliha951/ipdps-artifact/gapbs-master/src/../omp_runtime_visualizer/include/runtime_visualizer_utils.h:52
  printf("[OMPT_annotation] Thread %d Annotation at %.3f ms: %s\n", 
         thread_id, timestamp / 1000.0, annotation);
}

inline void ompt_mark_roi_start() {
  ompt_annotate("ROI_START");
  404242:	48 8d 3d 69 11 01 00 	lea    0x11169(%rip),%rdi        # 4153b2 <_IO_stdin_used+0x3b2>
  404249:	e8 92 38 00 00       	callq  407ae0 <_Z13ompt_annotatePKc>
BenchmarkKernel<CSRGraph<int>, main(int, char**)::<lambda(const Graph&)>, void (*)(const CSRGraph<int>&, const pvector<int>&), main(int, char**)::<lambda(const Graph&, const pvector<int>&)> >():
/home/aliha951/ipdps-artifact/gapbs-master/src/benchmark.h:123
  ompt_mark_roi_start();

  Timer trial_timer;
  for (int iter=0; iter < cli.num_trials(); iter++) {
  40424e:	8b 8c 24 d4 01 00 00 	mov    0x1d4(%rsp),%ecx
  404255:	85 c9                	test   %ecx,%ecx
  404257:	0f 8e e3 08 00 00    	jle    404b40 <main+0xc30>
  40425d:	48 8d 84 24 80 00 00 	lea    0x80(%rsp),%rax
  404264:	00 
/home/aliha951/ipdps-artifact/gapbs-master/src/benchmark.h:108
  double total_seconds = 0;
  404265:	66 0f ef ed          	pxor   %xmm5,%xmm5
/home/aliha951/ipdps-artifact/gapbs-master/src/benchmark.h:123
  for (int iter=0; iter < cli.num_trials(); iter++) {
  404269:	c7 44 24 0c 00 00 00 	movl   $0x0,0xc(%rsp)
  404270:	00 
_ZNSt23mersenne_twister_engineImLm64ELm312ELm156ELm31ELm13043109905998158313ELm29ELm6148914691236517205ELm17ELm8202884508482404352ELm37ELm18444473444759240704ELm43ELm6364136223846793005EEclEv():
/usr/include/c++/10/bits/random.tcc:460
      if (_M_p >= state_size)
	_M_gen_rand();

      // Calculate o(x(i)).
      result_type __z = _M_x[_M_p++];
      __z ^= (__z >> __u) & __d;
  404271:	48 bb 55 55 55 55 55 	movabs $0x5555555555555555,%rbx
  404278:	55 55 55 
/usr/include/c++/10/bits/random.tcc:461
      __z ^= (__z << __s) & __b;
  40427b:	48 bd 00 00 a6 ed ff 	movabs $0x71d67fffeda60000,%rbp
  404282:	7f d6 71 
  404285:	48 89 44 24 28       	mov    %rax,0x28(%rsp)
/usr/include/c++/10/bits/random.tcc:462
      __z ^= (__z << __t) & __c;
  40428a:	49 bc 00 00 00 00 e0 	movabs $0xfff7eee000000000,%r12
  404291:	ee f7 ff 
BenchmarkKernel<CSRGraph<int>, main(int, char**)::<lambda(const Graph&)>, void (*)(const CSRGraph<int>&, const pvector<int>&), main(int, char**)::<lambda(const Graph&, const pvector<int>&)> >():
/home/aliha951/ipdps-artifact/gapbs-master/src/benchmark.h:108
  double total_seconds = 0;
  404294:	f2 0f 11 6c 24 10    	movsd  %xmm5,0x10(%rsp)
  40429a:	66 0f 1f 44 00 00    	nopw   0x0(%rax,%rax,1)
_ZN5Timer5StartEv():
/home/aliha951/ipdps-artifact/gapbs-master/src/timer.h:23
class Timer {
 public:
  Timer() {}

  void Start() {
    elapsed_time_ = start_time_ = std::chrono::high_resolution_clock::now();
  4042a0:	e8 2b f4 ff ff       	callq  4036d0 <_ZNSt6chrono3_V212system_clock3nowEv@plt>
_ZN12SourcePickerI8CSRGraphIiiLb1EEE8PickNextEv():
/home/aliha951/ipdps-artifact/gapbs-master/src/benchmark.h:58
    if (given_source_ != -1)
  4042a5:	8b 94 24 f0 01 00 00 	mov    0x1f0(%rsp),%edx
main():
/home/aliha951/ipdps-artifact/gapbs-master/src/bfs_batching_nopt.cc:315
    return DOBFS(g, sp.PickNext(), cli.logging_en());
  4042ac:	44 0f b6 ac 24 e1 01 	movzbl 0x1e1(%rsp),%r13d
  4042b3:	00 00 
_ZN5Timer5StartEv():
/home/aliha951/ipdps-artifact/gapbs-master/src/timer.h:23
  4042b5:	49 89 c6             	mov    %rax,%r14
_ZN12SourcePickerI8CSRGraphIiiLb1EEE8PickNextEv():
/home/aliha951/ipdps-artifact/gapbs-master/src/benchmark.h:58
  4042b8:	83 fa ff             	cmp    $0xffffffff,%edx
  4042bb:	0f 84 fe 03 00 00    	je     4046bf <main+0x7af>
operator()():
/home/aliha951/ipdps-artifact/gapbs-master/src/bfs_batching_nopt.cc:315
  4042c1:	48 8b 74 24 18       	mov    0x18(%rsp),%rsi
  4042c6:	48 8b 7c 24 28       	mov    0x28(%rsp),%rdi
  4042cb:	41 b9 12 00 00 00    	mov    $0x12,%r9d
  4042d1:	44 89 e9             	mov    %r13d,%ecx
  4042d4:	41 b8 0f 00 00 00    	mov    $0xf,%r8d
  4042da:	e8 21 42 00 00       	callq  408500 <_Z5DOBFSRK8CSRGraphIiiLb1EEibii>
_ZN5Timer4StopEv():
/home/aliha951/ipdps-artifact/gapbs-master/src/timer.h:27
  }

  void Stop() {
    elapsed_time_ = std::chrono::high_resolution_clock::now();
  4042df:	e8 ec f3 ff ff       	callq  4036d0 <_ZNSt6chrono3_V212system_clock3nowEv@plt>
_ZNSt6chrono20__duration_cast_implINS_8durationIdSt5ratioILl1ELl1EEEES2_ILl1ELl1000000000EEdLb1ELb0EE6__castIlS5_EES4_RKNS1_IT_T0_EE():
/usr/include/c++/10/chrono:214
	  static constexpr _ToDur
	  __cast(const duration<_Rep, _Period>& __d)
	  {
	    typedef typename _ToDur::rep			__to_rep;
	    return _ToDur(static_cast<__to_rep>(
	      static_cast<_CR>(__d.count()) / static_cast<_CR>(_CF::den)));
  4042e4:	66 0f ef c0          	pxor   %xmm0,%xmm0
_ZNSt7__cxx1112basic_stringIcSt11char_traitsIcESaIcEE12_Alloc_hiderC4EPcRKS3_():
/usr/include/c++/10/bits/basic_string.h:165
	: allocator_type(__a), _M_p(__dat) { }
  4042e8:	4c 8d ac 24 10 01 00 	lea    0x110(%rsp),%r13
  4042ef:	00 
_ZNSt11char_traitsIcE4copyEPcPKcm():
/usr/include/c++/10/bits/char_traits.h:437
	  return __s1;
#ifdef __cpp_lib_is_constant_evaluated
	if (std::is_constant_evaluated())
	  return __gnu_cxx::char_traits<char_type>::copy(__s1, __s2, __n);
#endif
	return static_cast<char_type*>(__builtin_memcpy(__s1, __s2, __n));
  4042f0:	ba 6d 65 00 00       	mov    $0x656d,%edx
_ZNSt6chronomiIlSt5ratioILl1ELl1000000000EElS2_EENSt11common_typeIJNS_8durationIT_T0_EENS4_IT1_T2_EEEE4typeERKS7_RKSA_():
/usr/include/c++/10/chrono:614
		const duration<_Rep2, _Period2>& __rhs)
      {
	typedef duration<_Rep1, _Period1>			__dur1;
	typedef duration<_Rep2, _Period2>			__dur2;
	typedef typename common_type<__dur1,__dur2>::type	__cd;
	return __cd(__cd(__lhs).count() - __cd(__rhs).count());
  4042f5:	4c 29 f0             	sub    %r14,%rax
_ZNSt7__cxx1112basic_stringIcSt11char_traitsIcESaIcEE12_Alloc_hiderC4EPcRKS3_():
/usr/include/c++/10/bits/basic_string.h:165
  4042f8:	4c 8d b4 24 00 01 00 	lea    0x100(%rsp),%r14
  4042ff:	00 
  404300:	4c 89 ac 24 00 01 00 	mov    %r13,0x100(%rsp)
  404307:	00 
_ZNSt6chrono20__duration_cast_implINS_8durationIdSt5ratioILl1ELl1EEEES2_ILl1ELl1000000000EEdLb1ELb0EE6__castIlS5_EES4_RKNS1_IT_T0_EE():
/usr/include/c++/10/chrono:214
	      static_cast<_CR>(__d.count()) / static_cast<_CR>(_CF::den)));
  404308:	f2 48 0f 2a c0       	cvtsi2sd %rax,%xmm0
BenchmarkKernel<CSRGraph<int>, main(int, char**)::<lambda(const Graph&)>, void (*)(const CSRGraph<int>&, const pvector<int>&), main(int, char**)::<lambda(const Graph&, const pvector<int>&)> >():
/home/aliha951/ipdps-artifact/gapbs-master/src/benchmark.h:127
    trial_timer.Start();
    auto result = kernel(g);
    trial_timer.Stop();
    PrintTime("Trial Time", trial_timer.Seconds());
  40430d:	4c 89 f7             	mov    %r14,%rdi
_ZNSt11char_traitsIcE4copyEPcPKcm():
/usr/include/c++/10/bits/char_traits.h:437
  404310:	48 b8 54 72 69 61 6c 	movabs $0x6954206c61697254,%rax
  404317:	20 54 69 
_ZNSt6chrono20__duration_cast_implINS_8durationIdSt5ratioILl1ELl1EEEES2_ILl1ELl1000000000EEdLb1ELb0EE6__castIlS5_EES4_RKNS1_IT_T0_EE():
/usr/include/c++/10/chrono:214
  40431a:	f2 0f 5e 05 66 1f 01 	divsd  0x11f66(%rip),%xmm0        # 416288 <_ZZNSt8__detail18__to_chars_10_implIjEEvPcjT_E8__digits+0x248>
  404321:	00 
_ZNSt11char_traitsIcE4copyEPcPKcm():
/usr/include/c++/10/bits/char_traits.h:437
  404322:	48 89 84 24 10 01 00 	mov    %rax,0x110(%rsp)
  404329:	00 
  40432a:	66 89 94 24 18 01 00 	mov    %dx,0x118(%rsp)
  404331:	00 
_ZNSt7__cxx1112basic_stringIcSt11char_traitsIcESaIcEE9_M_lengthEm():
/usr/include/c++/10/bits/basic_string.h:191
      { _M_string_length = __length; }
  404332:	48 c7 84 24 08 01 00 	movq   $0xa,0x108(%rsp)
  404339:	00 0a 00 00 00 
_ZNSt11char_traitsIcE6assignERcRKc():
/usr/include/c++/10/bits/char_traits.h:357
      { __c1 = __c2; }
  40433e:	c6 84 24 1a 01 00 00 	movb   $0x0,0x11a(%rsp)
  404345:	00 
_ZNSt6chrono20__duration_cast_implINS_8durationIdSt5ratioILl1ELl1EEEES2_ILl1ELl1000000000EEdLb1ELb0EE6__castIlS5_EES4_RKNS1_IT_T0_EE():
/usr/include/c++/10/chrono:214
  404346:	f2 0f 11 44 24 20    	movsd  %xmm0,0x20(%rsp)
BenchmarkKernel<CSRGraph<int>, main(int, char**)::<lambda(const Graph&)>, void (*)(const CSRGraph<int>&, const pvector<int>&), main(int, char**)::<lambda(const Graph&, const pvector<int>&)> >():
/home/aliha951/ipdps-artifact/gapbs-master/src/benchmark.h:127
  40434c:	e8 0f 22 00 00       	callq  406560 <_Z9PrintTimeRKNSt7__cxx1112basic_stringIcSt11char_traitsIcESaIcEEEd>
_ZNKSt7__cxx1112basic_stringIcSt11char_traitsIcESaIcEE7_M_dataEv():
/usr/include/c++/10/bits/basic_string.h:195
      { return _M_dataplus._M_p; }
  404351:	48 8b bc 24 00 01 00 	mov    0x100(%rsp),%rdi
  404358:	00 
_ZNSt7__cxx1112basic_stringIcSt11char_traitsIcESaIcEE10_M_disposeEv():
/usr/include/c++/10/bits/basic_string.h:239
	if (!_M_is_local())
  404359:	4c 39 ef             	cmp    %r13,%rdi
  40435c:	74 05                	je     404363 <main+0x453>
_ZN9__gnu_cxx13new_allocatorIcE10deallocateEPcm():
/usr/include/c++/10/ext/new_allocator.h:139
  40435e:	e8 cd f5 ff ff       	callq  403930 <_ZdlPv@plt>
BenchmarkKernel<CSRGraph<int>, main(int, char**)::<lambda(const Graph&)>, void (*)(const CSRGraph<int>&, const pvector<int>&), main(int, char**)::<lambda(const Graph&, const pvector<int>&)> >():
/home/aliha951/ipdps-artifact/gapbs-master/src/benchmark.h:128
    total_seconds += trial_timer.Seconds();
  404363:	f2 0f 10 54 24 10    	movsd  0x10(%rsp),%xmm2
  404369:	f2 0f 58 54 24 20    	addsd  0x20(%rsp),%xmm2
/home/aliha951/ipdps-artifact/gapbs-master/src/benchmark.h:129
    if (cli.do_analysis() && (iter == (cli.num_trials()-1)))
  40436f:	80 bc 24 d0 01 00 00 	cmpb   $0x0,0x1d0(%rsp)
  404376:	00 
/home/aliha951/ipdps-artifact/gapbs-master/src/benchmark.h:128
    total_seconds += trial_timer.Seconds();
  404377:	f2 0f 11 54 24 10    	movsd  %xmm2,0x10(%rsp)
/home/aliha951/ipdps-artifact/gapbs-master/src/benchmark.h:129
    if (cli.do_analysis() && (iter == (cli.num_trials()-1)))
  40437d:	74 14                	je     404393 <main+0x483>
  40437f:	8b 84 24 d4 01 00 00 	mov    0x1d4(%rsp),%eax
  404386:	83 e8 01             	sub    $0x1,%eax
  404389:	3b 44 24 0c          	cmp    0xc(%rsp),%eax
  40438d:	0f 84 bd 05 00 00    	je     404950 <main+0xa40>
/home/aliha951/ipdps-artifact/gapbs-master/src/benchmark.h:131
      stats(g, result);
    if (cli.do_verify()) {
  404393:	80 bc 24 e0 01 00 00 	cmpb   $0x0,0x1e0(%rsp)
  40439a:	00 
  40439b:	0f 84 69 01 00 00    	je     40450a <main+0x5fa>
_ZN5Timer5StartEv():
/home/aliha951/ipdps-artifact/gapbs-master/src/timer.h:23
    elapsed_time_ = start_time_ = std::chrono::high_resolution_clock::now();
  4043a1:	e8 2a f3 ff ff       	callq  4036d0 <_ZNSt6chrono3_V212system_clock3nowEv@plt>
_ZN12SourcePickerI8CSRGraphIiiLb1EEE8PickNextEv():
/home/aliha951/ipdps-artifact/gapbs-master/src/benchmark.h:58
    if (given_source_ != -1)
  4043a6:	8b b4 24 e0 0b 00 00 	mov    0xbe0(%rsp),%esi
_ZN5Timer5StartEv():
/home/aliha951/ipdps-artifact/gapbs-master/src/timer.h:23
  4043ad:	48 89 44 24 30       	mov    %rax,0x30(%rsp)
_ZN12SourcePickerI8CSRGraphIiiLb1EEE8PickNextEv():
/home/aliha951/ipdps-artifact/gapbs-master/src/benchmark.h:58
  4043b2:	83 fe ff             	cmp    $0xffffffff,%esi
  4043b5:	0f 84 36 04 00 00    	je     4047f1 <main+0x8e1>
main():
/home/aliha951/ipdps-artifact/gapbs-master/src/bfs_batching_nopt.cc:319
    return BFSVerifier(g, vsp.PickNext(), parent);
  4043bb:	48 8b 54 24 28       	mov    0x28(%rsp),%rdx
operator()():
/home/aliha951/ipdps-artifact/gapbs-master/src/bfs_batching_nopt.cc:319
  4043c0:	48 8b 7c 24 18       	mov    0x18(%rsp),%rdi
  4043c5:	e8 26 54 00 00       	callq  4097f0 <_Z11BFSVerifierRK8CSRGraphIiiLb1EEiRK7pvectorIiE>
BenchmarkKernel<CSRGraph<int>, main(int, char**)::<lambda(const Graph&)>, void (*)(const CSRGraph<int>&, const pvector<int>&), main(int, char**)::<lambda(const Graph&, const pvector<int>&)> >():
/home/aliha951/ipdps-artifact/gapbs-master/src/benchmark.h:133
      trial_timer.Start();
      PrintLabel("Verification",
  4043ca:	3c 01                	cmp    $0x1,%al
_ZNSt7__cxx1112basic_stringIcSt11char_traitsIcESaIcEE12_Alloc_hiderC4EPcRKS3_():
/usr/include/c++/10/bits/basic_string.h:165
	: allocator_type(__a), _M_p(__dat) { }
  4043cc:	4c 89 ac 24 00 01 00 	mov    %r13,0x100(%rsp)
  4043d3:	00 
  4043d4:	48 8d bc 24 f0 00 00 	lea    0xf0(%rsp),%rdi
  4043db:	00 
  4043dc:	48 8d b4 24 e0 00 00 	lea    0xe0(%rsp),%rsi
  4043e3:	00 
BenchmarkKernel<CSRGraph<int>, main(int, char**)::<lambda(const Graph&)>, void (*)(const CSRGraph<int>&, const pvector<int>&), main(int, char**)::<lambda(const Graph&, const pvector<int>&)> >():
/home/aliha951/ipdps-artifact/gapbs-master/src/benchmark.h:133
  4043e4:	19 c0                	sbb    %eax,%eax
_ZNSt11char_traitsIcE4copyEPcPKcm():
/usr/include/c++/10/bits/char_traits.h:437
	return static_cast<char_type*>(__builtin_memcpy(__s1, __s2, __n));
  4043e6:	41 c7 45 08 74 69 6f 	movl   $0x6e6f6974,0x8(%r13)
  4043ed:	6e 
_ZNSt7__cxx1112basic_stringIcSt11char_traitsIcESaIcEE12_Alloc_hiderC4EPcRKS3_():
/usr/include/c++/10/bits/basic_string.h:165
  4043ee:	49 89 ff             	mov    %rdi,%r15
BenchmarkKernel<CSRGraph<int>, main(int, char**)::<lambda(const Graph&)>, void (*)(const CSRGraph<int>&, const pvector<int>&), main(int, char**)::<lambda(const Graph&, const pvector<int>&)> >():
/home/aliha951/ipdps-artifact/gapbs-master/src/benchmark.h:133
  4043f1:	25 f6 ff f5 f8       	and    $0xf8f5fff6,%eax
_ZNSt7__cxx1112basic_stringIcSt11char_traitsIcESaIcEE12_Alloc_hiderC4EPcRKS3_():
/usr/include/c++/10/bits/basic_string.h:165
  4043f6:	48 89 bc 24 e0 00 00 	mov    %rdi,0xe0(%rsp)
  4043fd:	00 
BenchmarkKernel<CSRGraph<int>, main(int, char**)::<lambda(const Graph&)>, void (*)(const CSRGraph<int>&, const pvector<int>&), main(int, char**)::<lambda(const Graph&, const pvector<int>&)> >():
/home/aliha951/ipdps-artifact/gapbs-master/src/benchmark.h:133
  4043fe:	4c 89 f7             	mov    %r14,%rdi
  404401:	05 50 41 53 53       	add    $0x53534150,%eax
_ZNSt11char_traitsIcE6assignERcRKc():
/usr/include/c++/10/bits/char_traits.h:357
      { __c1 = __c2; }
  404406:	c6 84 24 f4 00 00 00 	movb   $0x0,0xf4(%rsp)
  40440d:	00 
_ZNSt11char_traitsIcE4copyEPcPKcm():
/usr/include/c++/10/bits/char_traits.h:437
	return static_cast<char_type*>(__builtin_memcpy(__s1, __s2, __n));
  40440e:	89 84 24 f0 00 00 00 	mov    %eax,0xf0(%rsp)
  404415:	48 b8 56 65 72 69 66 	movabs $0x6163696669726556,%rax
  40441c:	69 63 61 
  40441f:	49 89 45 00          	mov    %rax,0x0(%r13)
_ZNSt7__cxx1112basic_stringIcSt11char_traitsIcESaIcEE9_M_lengthEm():
/usr/include/c++/10/bits/basic_string.h:191
      { _M_string_length = __length; }
  404423:	48 c7 84 24 e8 00 00 	movq   $0x4,0xe8(%rsp)
  40442a:	00 04 00 00 00 
  40442f:	48 c7 84 24 08 01 00 	movq   $0xc,0x108(%rsp)
  404436:	00 0c 00 00 00 
_ZNSt11char_traitsIcE6assignERcRKc():
/usr/include/c++/10/bits/char_traits.h:357
      { __c1 = __c2; }
  40443b:	c6 84 24 1c 01 00 00 	movb   $0x0,0x11c(%rsp)
  404442:	00 
BenchmarkKernel<CSRGraph<int>, main(int, char**)::<lambda(const Graph&)>, void (*)(const CSRGraph<int>&, const pvector<int>&), main(int, char**)::<lambda(const Graph&, const pvector<int>&)> >():
/home/aliha951/ipdps-artifact/gapbs-master/src/benchmark.h:133
  404443:	e8 a8 1f 00 00       	callq  4063f0 <_Z10PrintLabelRKNSt7__cxx1112basic_stringIcSt11char_traitsIcESaIcEEES6_>
_ZNKSt7__cxx1112basic_stringIcSt11char_traitsIcESaIcEE7_M_dataEv():
/usr/include/c++/10/bits/basic_string.h:195
      { return _M_dataplus._M_p; }
  404448:	48 8b bc 24 00 01 00 	mov    0x100(%rsp),%rdi
  40444f:	00 
_ZNSt7__cxx1112basic_stringIcSt11char_traitsIcESaIcEE10_M_disposeEv():
/usr/include/c++/10/bits/basic_string.h:239
	if (!_M_is_local())
  404450:	4c 39 ef             	cmp    %r13,%rdi
  404453:	74 05                	je     40445a <main+0x54a>
_ZN9__gnu_cxx13new_allocatorIcE10deallocateEPcm():
/usr/include/c++/10/ext/new_allocator.h:139
  404455:	e8 d6 f4 ff ff       	callq  403930 <_ZdlPv@plt>
_ZNKSt7__cxx1112basic_stringIcSt11char_traitsIcESaIcEE7_M_dataEv():
/usr/include/c++/10/bits/basic_string.h:195
      { return _M_dataplus._M_p; }
  40445a:	48 8b bc 24 e0 00 00 	mov    0xe0(%rsp),%rdi
  404461:	00 
_ZNSt7__cxx1112basic_stringIcSt11char_traitsIcESaIcEE10_M_disposeEv():
/usr/include/c++/10/bits/basic_string.h:239
	if (!_M_is_local())
  404462:	4c 39 ff             	cmp    %r15,%rdi
  404465:	74 05                	je     40446c <main+0x55c>
_ZN9__gnu_cxx13new_allocatorIcE10deallocateEPcm():
/usr/include/c++/10/ext/new_allocator.h:139
  404467:	e8 c4 f4 ff ff       	callq  403930 <_ZdlPv@plt>
_ZN5Timer4StopEv():
/home/aliha951/ipdps-artifact/gapbs-master/src/timer.h:27
    elapsed_time_ = std::chrono::high_resolution_clock::now();
  40446c:	e8 5f f2 ff ff       	callq  4036d0 <_ZNSt6chrono3_V212system_clock3nowEv@plt>
_ZNSt6chrono20__duration_cast_implINS_8durationIdSt5ratioILl1ELl1EEEES2_ILl1ELl1000000000EEdLb1ELb0EE6__castIlS5_EES4_RKNS1_IT_T0_EE():
/usr/include/c++/10/chrono:214
  404471:	66 0f ef c0          	pxor   %xmm0,%xmm0
_ZNSt6chronomiIlSt5ratioILl1ELl1000000000EElS2_EENSt11common_typeIJNS_8durationIT_T0_EENS4_IT1_T2_EEEE4typeERKS7_RKSA_():
/usr/include/c++/10/chrono:614
	return __cd(__cd(__lhs).count() - __cd(__rhs).count());
  404475:	48 2b 44 24 30       	sub    0x30(%rsp),%rax
_ZNSt7__cxx1112basic_stringIcSt11char_traitsIcESaIcEE12_M_constructIPKcEEvT_S8_St20forward_iterator_tag():
/usr/include/c++/10/bits/basic_string.tcc:219

	size_type __dnew = static_cast<size_type>(std::distance(__beg, __end));

	if (__dnew > size_type(_S_local_capacity))
	  {
	    _M_data(_M_create(__dnew, size_type(0)));
  40447a:	31 d2                	xor    %edx,%edx
  40447c:	48 8d 74 24 58       	lea    0x58(%rsp),%rsi
  404481:	4c 89 f7             	mov    %r14,%rdi
_ZNSt7__cxx1112basic_stringIcSt11char_traitsIcESaIcEE12_Alloc_hiderC4EPcRKS3_():
/usr/include/c++/10/bits/basic_string.h:165
	: allocator_type(__a), _M_p(__dat) { }
  404484:	4c 89 ac 24 00 01 00 	mov    %r13,0x100(%rsp)
  40448b:	00 
_ZNSt7__cxx1112basic_stringIcSt11char_traitsIcESaIcEE12_M_constructIPKcEEvT_S8_St20forward_iterator_tag():
/usr/include/c++/10/bits/basic_string.tcc:215
	size_type __dnew = static_cast<size_type>(std::distance(__beg, __end));
  40448c:	48 c7 44 24 58 11 00 	movq   $0x11,0x58(%rsp)
  404493:	00 00 
_ZNSt6chrono20__duration_cast_implINS_8durationIdSt5ratioILl1ELl1EEEES2_ILl1ELl1000000000EEdLb1ELb0EE6__castIlS5_EES4_RKNS1_IT_T0_EE():
/usr/include/c++/10/chrono:214
	      static_cast<_CR>(__d.count()) / static_cast<_CR>(_CF::den)));
  404495:	f2 48 0f 2a c0       	cvtsi2sd %rax,%xmm0
  40449a:	f2 0f 5e 05 e6 1d 01 	divsd  0x11de6(%rip),%xmm0        # 416288 <_ZZNSt8__detail18__to_chars_10_implIjEEvPcjT_E8__digits+0x248>
  4044a1:	00 
  4044a2:	f2 0f 11 44 24 20    	movsd  %xmm0,0x20(%rsp)
_ZNSt7__cxx1112basic_stringIcSt11char_traitsIcESaIcEE12_M_constructIPKcEEvT_S8_St20forward_iterator_tag():
/usr/include/c++/10/bits/basic_string.tcc:219
	    _M_data(_M_create(__dnew, size_type(0)));
  4044a8:	e8 b3 f7 ff ff       	callq  403c60 <_ZNSt7__cxx1112basic_stringIcSt11char_traitsIcESaIcEE9_M_createERmm@plt>
_ZNSt7__cxx1112basic_stringIcSt11char_traitsIcESaIcEE11_M_capacityEm():
/usr/include/c++/10/bits/basic_string.h:219
      { _M_allocated_capacity = __capacity; }
  4044ad:	48 8b 54 24 58       	mov    0x58(%rsp),%rdx
_ZNSt11char_traitsIcE4copyEPcPKcm():
/usr/include/c++/10/bits/char_traits.h:437
	return static_cast<char_type*>(__builtin_memcpy(__s1, __s2, __n));
  4044b2:	66 0f 6f 05 96 1d 01 	movdqa 0x11d96(%rip),%xmm0        # 416250 <_ZZNSt8__detail18__to_chars_10_implIjEEvPcjT_E8__digits+0x210>
  4044b9:	00 
_ZNSt7__cxx1112basic_stringIcSt11char_traitsIcESaIcEE7_M_dataEPc():
/usr/include/c++/10/bits/basic_string.h:187
      { _M_dataplus._M_p = __p; }
  4044ba:	48 89 84 24 00 01 00 	mov    %rax,0x100(%rsp)
  4044c1:	00 
BenchmarkKernel<CSRGraph<int>, main(int, char**)::<lambda(const Graph&)>, void (*)(const CSRGraph<int>&, const pvector<int>&), main(int, char**)::<lambda(const Graph&, const pvector<int>&)> >():
/home/aliha951/ipdps-artifact/gapbs-master/src/benchmark.h:136
                 verify(std::ref(g), std::ref(result)) ? "PASS" : "FAIL");
      trial_timer.Stop();
      PrintTime("Verification Time", trial_timer.Seconds());
  4044c2:	4c 89 f7             	mov    %r14,%rdi
_ZNSt7__cxx1112basic_stringIcSt11char_traitsIcESaIcEE11_M_capacityEm():
/usr/include/c++/10/bits/basic_string.h:219
      { _M_allocated_capacity = __capacity; }
  4044c5:	48 89 94 24 10 01 00 	mov    %rdx,0x110(%rsp)
  4044cc:	00 
_ZNSt11char_traitsIcE4copyEPcPKcm():
/usr/include/c++/10/bits/char_traits.h:437
  4044cd:	0f 11 00             	movups %xmm0,(%rax)
BenchmarkKernel<CSRGraph<int>, main(int, char**)::<lambda(const Graph&)>, void (*)(const CSRGraph<int>&, const pvector<int>&), main(int, char**)::<lambda(const Graph&, const pvector<int>&)> >():
/home/aliha951/ipdps-artifact/gapbs-master/src/benchmark.h:136
  4044d0:	f2 0f 10 44 24 20    	movsd  0x20(%rsp),%xmm0
_ZNSt11char_traitsIcE4copyEPcPKcm():
/usr/include/c++/10/bits/char_traits.h:437
  4044d6:	c6 40 10 65          	movb   $0x65,0x10(%rax)
_ZNSt7__cxx1112basic_stringIcSt11char_traitsIcESaIcEE12_M_constructIPKcEEvT_S8_St20forward_iterator_tag():
/usr/include/c++/10/bits/basic_string.tcc:232
	  {
	    _M_dispose();
	    __throw_exception_again;
	  }

	_M_set_length(__dnew);
  4044da:	48 8b 44 24 58       	mov    0x58(%rsp),%rax
_ZNSt11char_traitsIcE6assignERcRKc():
/usr/include/c++/10/bits/char_traits.h:357
      { __c1 = __c2; }
  4044df:	48 8b 94 24 00 01 00 	mov    0x100(%rsp),%rdx
  4044e6:	00 
_ZNSt7__cxx1112basic_stringIcSt11char_traitsIcESaIcEE9_M_lengthEm():
/usr/include/c++/10/bits/basic_string.h:191
      { _M_string_length = __length; }
  4044e7:	48 89 84 24 08 01 00 	mov    %rax,0x108(%rsp)
  4044ee:	00 
_ZNSt11char_traitsIcE6assignERcRKc():
/usr/include/c++/10/bits/char_traits.h:357
  4044ef:	c6 04 02 00          	movb   $0x0,(%rdx,%rax,1)
BenchmarkKernel<CSRGraph<int>, main(int, char**)::<lambda(const Graph&)>, void (*)(const CSRGraph<int>&, const pvector<int>&), main(int, char**)::<lambda(const Graph&, const pvector<int>&)> >():
/home/aliha951/ipdps-artifact/gapbs-master/src/benchmark.h:136
  4044f3:	e8 68 20 00 00       	callq  406560 <_Z9PrintTimeRKNSt7__cxx1112basic_stringIcSt11char_traitsIcESaIcEEEd>
_ZNKSt7__cxx1112basic_stringIcSt11char_traitsIcESaIcEE7_M_dataEv():
/usr/include/c++/10/bits/basic_string.h:195
      { return _M_dataplus._M_p; }
  4044f8:	48 8b bc 24 00 01 00 	mov    0x100(%rsp),%rdi
  4044ff:	00 
_ZNSt7__cxx1112basic_stringIcSt11char_traitsIcESaIcEE10_M_disposeEv():
/usr/include/c++/10/bits/basic_string.h:239
	if (!_M_is_local())
  404500:	4c 39 ef             	cmp    %r13,%rdi
  404503:	74 05                	je     40450a <main+0x5fa>
_ZN9__gnu_cxx13new_allocatorIcE10deallocateEPcm():
/usr/include/c++/10/ext/new_allocator.h:139
  404505:	e8 26 f4 ff ff       	callq  403930 <_ZdlPv@plt>
BenchmarkKernel<CSRGraph<int>, main(int, char**)::<lambda(const Graph&)>, void (*)(const CSRGraph<int>&, const pvector<int>&), main(int, char**)::<lambda(const Graph&, const pvector<int>&)> >():
/home/aliha951/ipdps-artifact/gapbs-master/src/benchmark.h:138
    }
    ompt_annotate("Trial End");
  40450a:	48 8d 3d ab 0e 01 00 	lea    0x10eab(%rip),%rdi        # 4153bc <_IO_stdin_used+0x3bc>
  404511:	e8 ca 35 00 00       	callq  407ae0 <_Z13ompt_annotatePKc>
_ZN7pvectorIiE16ReleaseResourcesEv():
/home/aliha951/ipdps-artifact/gapbs-master/src/pvector.h:73
    if (start_ != nullptr) {
  404516:	48 8b bc 24 80 00 00 	mov    0x80(%rsp),%rdi
  40451d:	00 
  40451e:	48 85 ff             	test   %rdi,%rdi
  404521:	0f 84 09 04 00 00    	je     404930 <main+0xa20>
/home/aliha951/ipdps-artifact/gapbs-master/src/pvector.h:74
      delete[] start_;
  404527:	e8 44 f5 ff ff       	callq  403a70 <_ZdaPv@plt>
BenchmarkKernel<CSRGraph<int>, main(int, char**)::<lambda(const Graph&)>, void (*)(const CSRGraph<int>&, const pvector<int>&), main(int, char**)::<lambda(const Graph&, const pvector<int>&)> >():
/home/aliha951/ipdps-artifact/gapbs-master/src/benchmark.h:123
  for (int iter=0; iter < cli.num_trials(); iter++) {
  40452c:	83 44 24 0c 01       	addl   $0x1,0xc(%rsp)
  404531:	8b 44 24 0c          	mov    0xc(%rsp),%eax
  404535:	3b 84 24 d4 01 00 00 	cmp    0x1d4(%rsp),%eax
  40453c:	0f 8c 5e fd ff ff    	jl     4042a0 <main+0x390>
_Z17ompt_mark_roi_endv():
/home/aliha951/ipdps-artifact/gapbs-master/src/../omp_runtime_visualizer/include/runtime_visualizer_utils.h:56
}

inline void ompt_mark_roi_end() {
  ompt_annotate("ROI_END");
  404542:	48 8d 3d 7d 0e 01 00 	lea    0x10e7d(%rip),%rdi        # 4153c6 <_IO_stdin_used+0x3c6>
  404549:	e8 92 35 00 00       	callq  407ae0 <_Z13ompt_annotatePKc>
BenchmarkKernel<CSRGraph<int>, main(int, char**)::<lambda(const Graph&)>, void (*)(const CSRGraph<int>&, const pvector<int>&), main(int, char**)::<lambda(const Graph&, const pvector<int>&)> >():
/home/aliha951/ipdps-artifact/gapbs-master/src/benchmark.h:143
  }
  
  // adding profiling markers and rusage counters for performance analysis
  ompt_mark_roi_end();
  stop_time_stats();
  40454e:	e8 dd 26 00 00       	callq  406c30 <_Z15stop_time_statsv>
/home/aliha951/ipdps-artifact/gapbs-master/src/benchmark.h:144
  trace_marker("BenchmarkKernel_End");
  404553:	48 8d 3d 74 0e 01 00 	lea    0x10e74(%rip),%rdi        # 4153ce <_IO_stdin_used+0x3ce>
  40455a:	e8 f1 28 00 00       	callq  406e50 <_Z12trace_markerPKc>
/home/aliha951/ipdps-artifact/gapbs-master/src/benchmark.h:145
  stop_counters(&perf_ctrs, &user_time, &kernel_time ,&user_instructions, &kernel_instructions);
  40455f:	48 8d 4c 24 48       	lea    0x48(%rsp),%rcx
  404564:	48 8d 94 24 80 00 00 	lea    0x80(%rsp),%rdx
  40456b:	00 
  40456c:	48 8d 74 24 58       	lea    0x58(%rsp),%rsi
  404571:	4c 8d 44 24 50       	lea    0x50(%rsp),%r8
  404576:	48 8d 3d 73 b3 01 00 	lea    0x1b373(%rip),%rdi        # 41f8f0 <perf_ctrs>
  40457d:	e8 2e 2d 00 00       	callq  4072b0 <_Z13stop_countersP13perf_countersPxS1_S1_S1_>
/home/aliha951/ipdps-artifact/gapbs-master/src/benchmark.h:146
  snapshot_proc_stat(END);
  404582:	bf 01 00 00 00       	mov    $0x1,%edi
  404587:	e8 a4 70 00 00       	callq  40b630 <_Z18snapshot_proc_stat13SnapshotPoint>
/home/aliha951/ipdps-artifact/gapbs-master/src/benchmark.h:147
  snapshot_proc_pid(END);
  40458c:	bf 01 00 00 00       	mov    $0x1,%edi
  404591:	e8 6a 6d 00 00       	callq  40b300 <_Z17snapshot_proc_pid13SnapshotPoint>
/home/aliha951/ipdps-artifact/gapbs-master/src/benchmark.h:148
  stop_taskstats();
  404596:	e8 e5 32 00 00       	callq  407880 <_Z14stop_taskstatsv>
_Z15stop_disk_statsv():
/home/aliha951/ipdps-artifact/gapbs-master/src/profiling_utils.h:316
}

inline void stop_disk_stats() {
  if (diskstat_pid > 0) {
  40459b:	8b 05 cb 5d 01 00    	mov    0x15dcb(%rip),%eax        # 41a36c <diskstat_pid>
  4045a1:	85 c0                	test   %eax,%eax
  4045a3:	0f 8f bb 03 00 00    	jg     404964 <main+0xa54>
BenchmarkKernel<CSRGraph<int>, main(int, char**)::<lambda(const Graph&)>, void (*)(const CSRGraph<int>&, const pvector<int>&), main(int, char**)::<lambda(const Graph&, const pvector<int>&)> >():
/home/aliha951/ipdps-artifact/gapbs-master/src/benchmark.h:150
  stop_disk_stats();
  cleanup_counters(&perf_ctrs);
  4045a9:	48 8d 3d 40 b3 01 00 	lea    0x1b340(%rip),%rdi        # 41f8f0 <perf_ctrs>
  4045b0:	e8 3b 2f 00 00       	callq  4074f0 <_Z16cleanup_countersP13perf_counters>
/home/aliha951/ipdps-artifact/gapbs-master/src/benchmark.h:151
  measure_time_stats();
  4045b5:	e8 a6 26 00 00       	callq  406c60 <_Z18measure_time_statsv>
/home/aliha951/ipdps-artifact/gapbs-master/src/benchmark.h:153

  PrintTime("Average Time", total_seconds / cli.num_trials());
  4045ba:	66 0f ef c0          	pxor   %xmm0,%xmm0
  4045be:	f2 0f 10 64 24 10    	movsd  0x10(%rsp),%xmm4
  4045c4:	4c 8d b4 24 00 01 00 	lea    0x100(%rsp),%r14
  4045cb:	00 
  4045cc:	48 8d 35 0f 0e 01 00 	lea    0x10e0f(%rip),%rsi        # 4153e2 <_IO_stdin_used+0x3e2>
  4045d3:	f2 0f 2a 84 24 d4 01 	cvtsi2sdl 0x1d4(%rsp),%xmm0
  4045da:	00 00 
  4045dc:	4c 89 f7             	mov    %r14,%rdi
  4045df:	f2 0f 5e e0          	divsd  %xmm0,%xmm4
  4045e3:	66 48 0f 7e e3       	movq   %xmm4,%rbx
  4045e8:	e8 73 1c 00 00       	callq  406260 <_ZNSt7__cxx1112basic_stringIcSt11char_traitsIcESaIcEEC2EPKcRKS3_.constprop.0>
  4045ed:	66 48 0f 6e c3       	movq   %rbx,%xmm0
  4045f2:	4c 89 f7             	mov    %r14,%rdi
  4045f5:	e8 66 1f 00 00       	callq  406560 <_Z9PrintTimeRKNSt7__cxx1112basic_stringIcSt11char_traitsIcESaIcEEEd>
_ZNKSt7__cxx1112basic_stringIcSt11char_traitsIcESaIcEE7_M_dataEv():
/usr/include/c++/10/bits/basic_string.h:195
      { return _M_dataplus._M_p; }
  4045fa:	48 8b bc 24 00 01 00 	mov    0x100(%rsp),%rdi
  404601:	00 
_ZNSt7__cxx1112basic_stringIcSt11char_traitsIcESaIcEE10_M_disposeEv():
/usr/include/c++/10/bits/basic_string.h:239
	if (!_M_is_local())
  404602:	48 8d 84 24 10 01 00 	lea    0x110(%rsp),%rax
  404609:	00 
  40460a:	48 39 c7             	cmp    %rax,%rdi
  40460d:	74 05                	je     404614 <main+0x704>
_ZN9__gnu_cxx13new_allocatorIcE10deallocateEPcm():
/usr/include/c++/10/ext/new_allocator.h:139
  40460f:	e8 1c f3 ff ff       	callq  403930 <_ZdlPv@plt>
main():
/home/aliha951/ipdps-artifact/gapbs-master/src/bfs_batching_nopt.cc:342
    touch_ips(ips, ret_ips, 2);
  }

  BenchmarkKernel(cli, g, BFSBound, PrintBFSStats, VerifierBound);
  
  if(cli.batching()){
  404614:	80 bc 24 bb 01 00 00 	cmpb   $0x0,0x1bb(%rsp)
  40461b:	00 
  40461c:	0f 85 89 03 00 00    	jne    4049ab <main+0xa9b>
_ZN8CSRGraphIiiLb1EED4Ev():
/home/aliha951/ipdps-artifact/gapbs-master/src/graph.h:166
  404622:	48 8b 7c 24 18       	mov    0x18(%rsp),%rdi
main():
/home/aliha951/ipdps-artifact/gapbs-master/src/bfs_batching_nopt.cc:345
    unregister_and_free_arrays();
  }
  return 0;
  404627:	45 31 e4             	xor    %r12d,%r12d
_ZN8CSRGraphIiiLb1EED4Ev():
/home/aliha951/ipdps-artifact/gapbs-master/src/graph.h:166
  40462a:	e8 b1 78 00 00       	callq  40bee0 <_ZN8CSRGraphIiiLb1EE16ReleaseResourcesEv>
_ZN5CLAppD4Ev():
/home/aliha951/ipdps-artifact/gapbs-master/src/command_line.h:140
class CLApp : public CLBase {
  40462f:	48 8b 7c 24 38       	mov    0x38(%rsp),%rdi
  404634:	48 8d 05 ed 54 01 00 	lea    0x154ed(%rip),%rax        # 419b28 <_ZTV5CLApp+0x10>
  40463b:	48 89 84 24 20 01 00 	mov    %rax,0x120(%rsp)
  404642:	00 
  404643:	e8 08 6c 00 00       	callq  40b250 <_ZN6CLBaseD1Ev>
main():
/home/aliha951/ipdps-artifact/gapbs-master/src/bfs_batching_nopt.cc:346
}
  404648:	48 8b 84 24 d8 16 00 	mov    0x16d8(%rsp),%rax
  40464f:	00 
  404650:	64 48 2b 04 25 28 00 	sub    %fs:0x28,%rax
  404657:	00 00 
  404659:	0f 85 fc 05 00 00    	jne    404c5b <main+0xd4b>
  40465f:	48 81 c4 e8 16 00 00 	add    $0x16e8,%rsp
  404666:	44 89 e0             	mov    %r12d,%eax
  404669:	5b                   	pop    %rbx
  40466a:	5d                   	pop    %rbp
  40466b:	41 5c                	pop    %r12
  40466d:	41 5d                	pop    %r13
  40466f:	41 5e                	pop    %r14
  404671:	41 5f                	pop    %r15
  404673:	c3                   	retq   
_ZN6CLBase9ParseArgsEv():
/home/aliha951/ipdps-artifact/gapbs-master/src/command_line.h:90
    if ((filename_ == "") && (scale_ == -1)) {
  404674:	44 8b a4 24 90 01 00 	mov    0x190(%rsp),%r12d
  40467b:	00 
  40467c:	41 83 fc ff          	cmp    $0xffffffff,%r12d
  404680:	0f 84 e9 04 00 00    	je     404b6f <main+0xc5f>
/home/aliha951/ipdps-artifact/gapbs-master/src/command_line.h:95
      symmetrize_ = true;
  404686:	c6 84 24 b8 01 00 00 	movb   $0x1,0x1b8(%rsp)
  40468d:	01 
/home/aliha951/ipdps-artifact/gapbs-master/src/command_line.h:92
      return false;
  40468e:	e9 27 fa ff ff       	jmpq   4040ba <main+0x1aa>
  404693:	0f 1f 44 00 00       	nopl   0x0(%rax,%rax,1)
_ZN7UniDistIiSt23mersenne_twister_engineImLm64ELm312ELm156ELm31ELm13043109905998158313ELm29ELm6148914691236517205ELm17ELm8202884508482404352ELm37ELm18444473444759240704ELm43ELm6364136223846793005EEjEclEv():
/home/aliha951/ipdps-artifact/gapbs-master/src/generator.h:56
      return rand_num;
    if (cutoff_ != 0) {
      while (rand_num >= cutoff_)
        rand_num = rng_();
    }
    return rand_num % mod_;
  404698:	31 d2                	xor    %edx,%edx
  40469a:	f7 b4 24 cc 0b 00 00 	divl   0xbcc(%rsp)
_ZNK8CSRGraphIiiLb1EE10out_degreeEi():
/home/aliha951/ipdps-artifact/gapbs-master/src/graph.h:206
  int64_t num_edges_directed() const {
    return directed_ ? num_edges_ : 2*num_edges_;
  }

  int64_t out_degree(NodeID_ v) const {
    return out_index_[v+1] - out_index_[v];
  4046a1:	48 8b 84 24 d8 0b 00 	mov    0xbd8(%rsp),%rax
  4046a8:	00 
  4046a9:	48 8b 40 18          	mov    0x18(%rax),%rax
  4046ad:	48 63 ca             	movslq %edx,%rcx
_ZN12SourcePickerI8CSRGraphIiiLb1EEE8PickNextEv():
/home/aliha951/ipdps-artifact/gapbs-master/src/benchmark.h:63
    } while (g_.out_degree(source) == 0);
  4046b0:	48 8b 3c c8          	mov    (%rax,%rcx,8),%rdi
  4046b4:	48 39 7c c8 08       	cmp    %rdi,0x8(%rax,%rcx,8)
  4046b9:	0f 85 02 fc ff ff    	jne    4042c1 <main+0x3b1>
_ZN7UniDistIiSt23mersenne_twister_engineImLm64ELm312ELm156ELm31ELm13043109905998158313ELm29ELm6148914691236517205ELm17ELm8202884508482404352ELm37ELm18444473444759240704ELm43ELm6364136223846793005EEjEclEv():
/home/aliha951/ipdps-artifact/gapbs-master/src/generator.h:49
    uNodeID_ rand_num = rng_();
  4046bf:	4c 8b bc 24 c0 0b 00 	mov    0xbc0(%rsp),%r15
  4046c6:	00 
_ZNSt23mersenne_twister_engineImLm64ELm312ELm156ELm31ELm13043109905998158313ELm29ELm6148914691236517205ELm17ELm8202884508482404352ELm37ELm18444473444759240704ELm43ELm6364136223846793005EEclEv():
/usr/include/c++/10/bits/random.tcc:455
      if (_M_p >= state_size)
  4046c7:	49 8b 97 c0 09 00 00 	mov    0x9c0(%r15),%rdx
  4046ce:	48 81 fa 37 01 00 00 	cmp    $0x137,%rdx
  4046d5:	0f 87 1d 02 00 00    	ja     4048f8 <main+0x9e8>
/usr/include/c++/10/bits/random.tcc:459
      result_type __z = _M_x[_M_p++];
  4046db:	48 8d 4a 01          	lea    0x1(%rdx),%rcx
  4046df:	49 8b 14 d7          	mov    (%r15,%rdx,8),%rdx
  4046e3:	49 89 8f c0 09 00 00 	mov    %rcx,0x9c0(%r15)
/usr/include/c++/10/bits/random.tcc:460
      __z ^= (__z >> __u) & __d;
  4046ea:	48 89 d0             	mov    %rdx,%rax
  4046ed:	48 c1 e8 1d          	shr    $0x1d,%rax
  4046f1:	48 21 d8             	and    %rbx,%rax
  4046f4:	48 31 c2             	xor    %rax,%rdx
/usr/include/c++/10/bits/random.tcc:461
      __z ^= (__z << __s) & __b;
  4046f7:	48 89 d0             	mov    %rdx,%rax
  4046fa:	48 c1 e0 11          	shl    $0x11,%rax
  4046fe:	48 21 e8             	and    %rbp,%rax
  404701:	48 31 c2             	xor    %rax,%rdx
/usr/include/c++/10/bits/random.tcc:462
      __z ^= (__z << __t) & __c;
  404704:	48 89 d0             	mov    %rdx,%rax
  404707:	48 c1 e0 25          	shl    $0x25,%rax
  40470b:	4c 21 e0             	and    %r12,%rax
  40470e:	48 31 c2             	xor    %rax,%rdx
/usr/include/c++/10/bits/random.tcc:463
      __z ^= (__z >> __l);
  404711:	48 89 d0             	mov    %rdx,%rax
  404714:	48 c1 e8 2b          	shr    $0x2b,%rax
  404718:	48 31 c2             	xor    %rax,%rdx
_ZN7UniDistIiSt23mersenne_twister_engineImLm64ELm312ELm156ELm31ELm13043109905998158313ELm29ELm6148914691236517205ELm17ELm8202884508482404352ELm37ELm18444473444759240704ELm43ELm6364136223846793005EEjEclEv():
/home/aliha951/ipdps-artifact/gapbs-master/src/generator.h:50
    if (no_mod_)
  40471b:	80 bc 24 c8 0b 00 00 	cmpb   $0x0,0xbc8(%rsp)
  404722:	00 
  404723:	0f 85 78 ff ff ff    	jne    4046a1 <main+0x791>
/home/aliha951/ipdps-artifact/gapbs-master/src/generator.h:52
    if (cutoff_ != 0) {
  404729:	8b 8c 24 d0 0b 00 00 	mov    0xbd0(%rsp),%ecx
/home/aliha951/ipdps-artifact/gapbs-master/src/generator.h:49
    uNodeID_ rand_num = rng_();
  404730:	89 d0                	mov    %edx,%eax
/home/aliha951/ipdps-artifact/gapbs-master/src/generator.h:52
    if (cutoff_ != 0) {
  404732:	85 c9                	test   %ecx,%ecx
  404734:	0f 84 5e ff ff ff    	je     404698 <main+0x788>
/home/aliha951/ipdps-artifact/gapbs-master/src/generator.h:53
      while (rand_num >= cutoff_)
  40473a:	39 ca                	cmp    %ecx,%edx
  40473c:	73 54                	jae    404792 <main+0x882>
  40473e:	e9 55 ff ff ff       	jmpq   404698 <main+0x788>
  404743:	0f 1f 44 00 00       	nopl   0x0(%rax,%rax,1)
_ZNSt23mersenne_twister_engineImLm64ELm312ELm156ELm31ELm13043109905998158313ELm29ELm6148914691236517205ELm17ELm8202884508482404352ELm37ELm18444473444759240704ELm43ELm6364136223846793005EEclEv():
/usr/include/c++/10/bits/random.tcc:459
      result_type __z = _M_x[_M_p++];
  404748:	48 8d 72 01          	lea    0x1(%rdx),%rsi
  40474c:	49 8b 14 d7          	mov    (%r15,%rdx,8),%rdx
  404750:	49 89 b7 c0 09 00 00 	mov    %rsi,0x9c0(%r15)
/usr/include/c++/10/bits/random.tcc:460
      __z ^= (__z >> __u) & __d;
  404757:	48 89 d0             	mov    %rdx,%rax
  40475a:	48 c1 e8 1d          	shr    $0x1d,%rax
  40475e:	48 21 d8             	and    %rbx,%rax
  404761:	48 31 c2             	xor    %rax,%rdx
/usr/include/c++/10/bits/random.tcc:461
      __z ^= (__z << __s) & __b;
  404764:	48 89 d0             	mov    %rdx,%rax
  404767:	48 c1 e0 11          	shl    $0x11,%rax
  40476b:	48 21 e8             	and    %rbp,%rax
  40476e:	48 31 c2             	xor    %rax,%rdx
/usr/include/c++/10/bits/random.tcc:462
      __z ^= (__z << __t) & __c;
  404771:	48 89 d0             	mov    %rdx,%rax
  404774:	48 c1 e0 25          	shl    $0x25,%rax
  404778:	4c 21 e0             	and    %r12,%rax
  40477b:	48 31 c2             	xor    %rax,%rdx
/usr/include/c++/10/bits/random.tcc:463
      __z ^= (__z >> __l);
  40477e:	48 89 d0             	mov    %rdx,%rax
  404781:	48 c1 e8 2b          	shr    $0x2b,%rax
  404785:	48 31 c2             	xor    %rax,%rdx
_ZN7UniDistIiSt23mersenne_twister_engineImLm64ELm312ELm156ELm31ELm13043109905998158313ELm29ELm6148914691236517205ELm17ELm8202884508482404352ELm37ELm18444473444759240704ELm43ELm6364136223846793005EEjEclEv():
/home/aliha951/ipdps-artifact/gapbs-master/src/generator.h:54
        rand_num = rng_();
  404788:	89 d0                	mov    %edx,%eax
/home/aliha951/ipdps-artifact/gapbs-master/src/generator.h:53
      while (rand_num >= cutoff_)
  40478a:	39 d1                	cmp    %edx,%ecx
  40478c:	0f 87 06 ff ff ff    	ja     404698 <main+0x788>
/home/aliha951/ipdps-artifact/gapbs-master/src/generator.h:54
        rand_num = rng_();
  404792:	4c 8b bc 24 c0 0b 00 	mov    0xbc0(%rsp),%r15
  404799:	00 
_ZNSt23mersenne_twister_engineImLm64ELm312ELm156ELm31ELm13043109905998158313ELm29ELm6148914691236517205ELm17ELm8202884508482404352ELm37ELm18444473444759240704ELm43ELm6364136223846793005EEclEv():
/usr/include/c++/10/bits/random.tcc:455
      if (_M_p >= state_size)
  40479a:	49 8b 97 c0 09 00 00 	mov    0x9c0(%r15),%rdx
  4047a1:	48 81 fa 37 01 00 00 	cmp    $0x137,%rdx
  4047a8:	76 9e                	jbe    404748 <main+0x838>
/usr/include/c++/10/bits/random.tcc:456
	_M_gen_rand();
  4047aa:	4c 89 ff             	mov    %r15,%rdi
  4047ad:	e8 ee c9 00 00       	callq  4111a0 <_ZNSt23mersenne_twister_engineImLm64ELm312ELm156ELm31ELm13043109905998158313ELm29ELm6148914691236517205ELm17ELm8202884508482404352ELm37ELm18444473444759240704ELm43ELm6364136223846793005EE11_M_gen_randEv>
_ZN7UniDistIiSt23mersenne_twister_engineImLm64ELm312ELm156ELm31ELm13043109905998158313ELm29ELm6148914691236517205ELm17ELm8202884508482404352ELm37ELm18444473444759240704ELm43ELm6364136223846793005EEjEclEv():
/home/aliha951/ipdps-artifact/gapbs-master/src/generator.h:53
      while (rand_num >= cutoff_)
  4047b2:	8b 8c 24 d0 0b 00 00 	mov    0xbd0(%rsp),%ecx
_ZNSt23mersenne_twister_engineImLm64ELm312ELm156ELm31ELm13043109905998158313ELm29ELm6148914691236517205ELm17ELm8202884508482404352ELm37ELm18444473444759240704ELm43ELm6364136223846793005EEclEv():
/usr/include/c++/10/bits/random.tcc:459
      result_type __z = _M_x[_M_p++];
  4047b9:	49 8b 97 c0 09 00 00 	mov    0x9c0(%r15),%rdx
  4047c0:	eb 86                	jmp    404748 <main+0x838>
  4047c2:	66 0f 1f 44 00 00    	nopw   0x0(%rax,%rax,1)
_ZN7UniDistIiSt23mersenne_twister_engineImLm64ELm312ELm156ELm31ELm13043109905998158313ELm29ELm6148914691236517205ELm17ELm8202884508482404352ELm37ELm18444473444759240704ELm43ELm6364136223846793005EEjEclEv():
/home/aliha951/ipdps-artifact/gapbs-master/src/generator.h:56
    return rand_num % mod_;
  4047c8:	31 d2                	xor    %edx,%edx
  4047ca:	f7 b4 24 bc 15 00 00 	divl   0x15bc(%rsp)
  4047d1:	89 d6                	mov    %edx,%esi
_ZNK8CSRGraphIiiLb1EE10out_degreeEi():
/home/aliha951/ipdps-artifact/gapbs-master/src/graph.h:206
  4047d3:	48 8b 84 24 c8 15 00 	mov    0x15c8(%rsp),%rax
  4047da:	00 
  4047db:	48 63 d6             	movslq %esi,%rdx
  4047de:	48 8b 40 18          	mov    0x18(%rax),%rax
_ZN12SourcePickerI8CSRGraphIiiLb1EEE8PickNextEv():
/home/aliha951/ipdps-artifact/gapbs-master/src/benchmark.h:63
  4047e2:	48 8b 3c d0          	mov    (%rax,%rdx,8),%rdi
  4047e6:	48 39 7c d0 08       	cmp    %rdi,0x8(%rax,%rdx,8)
  4047eb:	0f 85 ca fb ff ff    	jne    4043bb <main+0x4ab>
_ZN7UniDistIiSt23mersenne_twister_engineImLm64ELm312ELm156ELm31ELm13043109905998158313ELm29ELm6148914691236517205ELm17ELm8202884508482404352ELm37ELm18444473444759240704ELm43ELm6364136223846793005EEjEclEv():
/home/aliha951/ipdps-artifact/gapbs-master/src/generator.h:49
    uNodeID_ rand_num = rng_();
  4047f1:	48 8b 84 24 b0 15 00 	mov    0x15b0(%rsp),%rax
  4047f8:	00 
_ZNSt23mersenne_twister_engineImLm64ELm312ELm156ELm31ELm13043109905998158313ELm29ELm6148914691236517205ELm17ELm8202884508482404352ELm37ELm18444473444759240704ELm43ELm6364136223846793005EEclEv():
/usr/include/c++/10/bits/random.tcc:455
      if (_M_p >= state_size)
  4047f9:	48 8b 90 c0 09 00 00 	mov    0x9c0(%rax),%rdx
  404800:	48 81 fa 37 01 00 00 	cmp    $0x137,%rdx
  404807:	0f 87 03 01 00 00    	ja     404910 <main+0xa00>
/usr/include/c++/10/bits/random.tcc:459
      result_type __z = _M_x[_M_p++];
  40480d:	48 8d 4a 01          	lea    0x1(%rdx),%rcx
  404811:	48 89 88 c0 09 00 00 	mov    %rcx,0x9c0(%rax)
  404818:	48 8b 04 d0          	mov    (%rax,%rdx,8),%rax
/usr/include/c++/10/bits/random.tcc:460
      __z ^= (__z >> __u) & __d;
  40481c:	48 89 c2             	mov    %rax,%rdx
  40481f:	48 c1 ea 1d          	shr    $0x1d,%rdx
  404823:	48 21 da             	and    %rbx,%rdx
  404826:	48 31 d0             	xor    %rdx,%rax
/usr/include/c++/10/bits/random.tcc:461
      __z ^= (__z << __s) & __b;
  404829:	48 89 c2             	mov    %rax,%rdx
  40482c:	48 c1 e2 11          	shl    $0x11,%rdx
  404830:	48 21 ea             	and    %rbp,%rdx
  404833:	48 31 d0             	xor    %rdx,%rax
/usr/include/c++/10/bits/random.tcc:462
      __z ^= (__z << __t) & __c;
  404836:	48 89 c2             	mov    %rax,%rdx
  404839:	48 c1 e2 25          	shl    $0x25,%rdx
  40483d:	4c 21 e2             	and    %r12,%rdx
  404840:	48 31 d0             	xor    %rdx,%rax
/usr/include/c++/10/bits/random.tcc:463
      __z ^= (__z >> __l);
  404843:	48 89 c6             	mov    %rax,%rsi
  404846:	48 c1 ee 2b          	shr    $0x2b,%rsi
  40484a:	48 31 c6             	xor    %rax,%rsi
_ZN7UniDistIiSt23mersenne_twister_engineImLm64ELm312ELm156ELm31ELm13043109905998158313ELm29ELm6148914691236517205ELm17ELm8202884508482404352ELm37ELm18444473444759240704ELm43ELm6364136223846793005EEjEclEv():
/home/aliha951/ipdps-artifact/gapbs-master/src/generator.h:50
    if (no_mod_)
  40484d:	80 bc 24 b8 15 00 00 	cmpb   $0x0,0x15b8(%rsp)
  404854:	00 
  404855:	0f 85 78 ff ff ff    	jne    4047d3 <main+0x8c3>
/home/aliha951/ipdps-artifact/gapbs-master/src/generator.h:52
    if (cutoff_ != 0) {
  40485b:	8b 8c 24 c0 15 00 00 	mov    0x15c0(%rsp),%ecx
/home/aliha951/ipdps-artifact/gapbs-master/src/generator.h:49
    uNodeID_ rand_num = rng_();
  404862:	89 f0                	mov    %esi,%eax
/home/aliha951/ipdps-artifact/gapbs-master/src/generator.h:52
    if (cutoff_ != 0) {
  404864:	85 c9                	test   %ecx,%ecx
  404866:	0f 84 5c ff ff ff    	je     4047c8 <main+0x8b8>
/home/aliha951/ipdps-artifact/gapbs-master/src/generator.h:53
      while (rand_num >= cutoff_)
  40486c:	39 ce                	cmp    %ecx,%esi
  40486e:	73 52                	jae    4048c2 <main+0x9b2>
  404870:	e9 53 ff ff ff       	jmpq   4047c8 <main+0x8b8>
  404875:	0f 1f 00             	nopl   (%rax)
_ZNSt23mersenne_twister_engineImLm64ELm312ELm156ELm31ELm13043109905998158313ELm29ELm6148914691236517205ELm17ELm8202884508482404352ELm37ELm18444473444759240704ELm43ELm6364136223846793005EEclEv():
/usr/include/c++/10/bits/random.tcc:459
      result_type __z = _M_x[_M_p++];
  404878:	48 8d 72 01          	lea    0x1(%rdx),%rsi
  40487c:	49 8b 14 d7          	mov    (%r15,%rdx,8),%rdx
  404880:	49 89 b7 c0 09 00 00 	mov    %rsi,0x9c0(%r15)
/usr/include/c++/10/bits/random.tcc:460
      __z ^= (__z >> __u) & __d;
  404887:	48 89 d0             	mov    %rdx,%rax
  40488a:	48 c1 e8 1d          	shr    $0x1d,%rax
  40488e:	48 21 d8             	and    %rbx,%rax
  404891:	48 31 c2             	xor    %rax,%rdx
/usr/include/c++/10/bits/random.tcc:461
      __z ^= (__z << __s) & __b;
  404894:	48 89 d0             	mov    %rdx,%rax
  404897:	48 c1 e0 11          	shl    $0x11,%rax
  40489b:	48 21 e8             	and    %rbp,%rax
  40489e:	48 31 c2             	xor    %rax,%rdx
/usr/include/c++/10/bits/random.tcc:462
      __z ^= (__z << __t) & __c;
  4048a1:	48 89 d0             	mov    %rdx,%rax
  4048a4:	48 c1 e0 25          	shl    $0x25,%rax
  4048a8:	4c 21 e0             	and    %r12,%rax
  4048ab:	48 31 c2             	xor    %rax,%rdx
/usr/include/c++/10/bits/random.tcc:463
      __z ^= (__z >> __l);
  4048ae:	48 89 d0             	mov    %rdx,%rax
  4048b1:	48 c1 e8 2b          	shr    $0x2b,%rax
  4048b5:	48 31 c2             	xor    %rax,%rdx
_ZN7UniDistIiSt23mersenne_twister_engineImLm64ELm312ELm156ELm31ELm13043109905998158313ELm29ELm6148914691236517205ELm17ELm8202884508482404352ELm37ELm18444473444759240704ELm43ELm6364136223846793005EEjEclEv():
/home/aliha951/ipdps-artifact/gapbs-master/src/generator.h:54
        rand_num = rng_();
  4048b8:	89 d0                	mov    %edx,%eax
/home/aliha951/ipdps-artifact/gapbs-master/src/generator.h:53
      while (rand_num >= cutoff_)
  4048ba:	39 ca                	cmp    %ecx,%edx
  4048bc:	0f 82 06 ff ff ff    	jb     4047c8 <main+0x8b8>
/home/aliha951/ipdps-artifact/gapbs-master/src/generator.h:54
        rand_num = rng_();
  4048c2:	4c 8b bc 24 b0 15 00 	mov    0x15b0(%rsp),%r15
  4048c9:	00 
_ZNSt23mersenne_twister_engineImLm64ELm312ELm156ELm31ELm13043109905998158313ELm29ELm6148914691236517205ELm17ELm8202884508482404352ELm37ELm18444473444759240704ELm43ELm6364136223846793005EEclEv():
/usr/include/c++/10/bits/random.tcc:455
      if (_M_p >= state_size)
  4048ca:	49 8b 97 c0 09 00 00 	mov    0x9c0(%r15),%rdx
  4048d1:	48 81 fa 37 01 00 00 	cmp    $0x137,%rdx
  4048d8:	76 9e                	jbe    404878 <main+0x968>
/usr/include/c++/10/bits/random.tcc:456
	_M_gen_rand();
  4048da:	4c 89 ff             	mov    %r15,%rdi
  4048dd:	e8 be c8 00 00       	callq  4111a0 <_ZNSt23mersenne_twister_engineImLm64ELm312ELm156ELm31ELm13043109905998158313ELm29ELm6148914691236517205ELm17ELm8202884508482404352ELm37ELm18444473444759240704ELm43ELm6364136223846793005EE11_M_gen_randEv>
_ZN7UniDistIiSt23mersenne_twister_engineImLm64ELm312ELm156ELm31ELm13043109905998158313ELm29ELm6148914691236517205ELm17ELm8202884508482404352ELm37ELm18444473444759240704ELm43ELm6364136223846793005EEjEclEv():
/home/aliha951/ipdps-artifact/gapbs-master/src/generator.h:53
      while (rand_num >= cutoff_)
  4048e2:	8b 8c 24 c0 15 00 00 	mov    0x15c0(%rsp),%ecx
_ZNSt23mersenne_twister_engineImLm64ELm312ELm156ELm31ELm13043109905998158313ELm29ELm6148914691236517205ELm17ELm8202884508482404352ELm37ELm18444473444759240704ELm43ELm6364136223846793005EEclEv():
/usr/include/c++/10/bits/random.tcc:459
      result_type __z = _M_x[_M_p++];
  4048e9:	49 8b 97 c0 09 00 00 	mov    0x9c0(%r15),%rdx
  4048f0:	eb 86                	jmp    404878 <main+0x968>
  4048f2:	66 0f 1f 44 00 00    	nopw   0x0(%rax,%rax,1)
/usr/include/c++/10/bits/random.tcc:456
	_M_gen_rand();
  4048f8:	4c 89 ff             	mov    %r15,%rdi
  4048fb:	e8 a0 c8 00 00       	callq  4111a0 <_ZNSt23mersenne_twister_engineImLm64ELm312ELm156ELm31ELm13043109905998158313ELm29ELm6148914691236517205ELm17ELm8202884508482404352ELm37ELm18444473444759240704ELm43ELm6364136223846793005EE11_M_gen_randEv>
/usr/include/c++/10/bits/random.tcc:459
      result_type __z = _M_x[_M_p++];
  404900:	49 8b 97 c0 09 00 00 	mov    0x9c0(%r15),%rdx
  404907:	e9 cf fd ff ff       	jmpq   4046db <main+0x7cb>
  40490c:	0f 1f 40 00          	nopl   0x0(%rax)
/usr/include/c++/10/bits/random.tcc:456
	_M_gen_rand();
  404910:	48 89 c7             	mov    %rax,%rdi
  404913:	48 89 44 24 20       	mov    %rax,0x20(%rsp)
  404918:	e8 83 c8 00 00       	callq  4111a0 <_ZNSt23mersenne_twister_engineImLm64ELm312ELm156ELm31ELm13043109905998158313ELm29ELm6148914691236517205ELm17ELm8202884508482404352ELm37ELm18444473444759240704ELm43ELm6364136223846793005EE11_M_gen_randEv>
/usr/include/c++/10/bits/random.tcc:459
      result_type __z = _M_x[_M_p++];
  40491d:	48 8b 44 24 20       	mov    0x20(%rsp),%rax
  404922:	48 8b 90 c0 09 00 00 	mov    0x9c0(%rax),%rdx
  404929:	e9 df fe ff ff       	jmpq   40480d <main+0x8fd>
  40492e:	66 90                	xchg   %ax,%ax
BenchmarkKernel<CSRGraph<int>, main(int, char**)::<lambda(const Graph&)>, void (*)(const CSRGraph<int>&, const pvector<int>&), main(int, char**)::<lambda(const Graph&, const pvector<int>&)> >():
/home/aliha951/ipdps-artifact/gapbs-master/src/benchmark.h:123
  for (int iter=0; iter < cli.num_trials(); iter++) {
  404930:	83 44 24 0c 01       	addl   $0x1,0xc(%rsp)
  404935:	8b 44 24 0c          	mov    0xc(%rsp),%eax
  404939:	39 84 24 d4 01 00 00 	cmp    %eax,0x1d4(%rsp)
  404940:	0f 8f 5a f9 ff ff    	jg     4042a0 <main+0x390>
  404946:	e9 f7 fb ff ff       	jmpq   404542 <main+0x632>
  40494b:	0f 1f 44 00 00       	nopl   0x0(%rax,%rax,1)
/home/aliha951/ipdps-artifact/gapbs-master/src/benchmark.h:130
      stats(g, result);
  404950:	48 8b 74 24 28       	mov    0x28(%rsp),%rsi
  404955:	48 8b 7c 24 18       	mov    0x18(%rsp),%rdi
  40495a:	e8 01 44 00 00       	callq  408d60 <_Z13PrintBFSStatsRK8CSRGraphIiiLb1EERK7pvectorIiE>
  40495f:	e9 2f fa ff ff       	jmpq   404393 <main+0x483>
main():
/usr/include/x86_64-linux-gnu/bits/stdio2.h:67
# ifdef __va_arg_pack
__fortify_function int
__NTH (snprintf (char *__restrict __s, size_t __n,
		 const char *__restrict __fmt, ...))
{
  return __builtin___snprintf_chk (__s, __n, __USE_FORTIFY_LEVEL - 1,
  404964:	4c 8d 84 24 d0 15 00 	lea    0x15d0(%rsp),%r8
  40496b:	00 
snprintf():
/usr/include/x86_64-linux-gnu/bits/stdio2.h:67
  40496c:	48 8d 35 b5 0e 01 00 	lea    0x10eb5(%rip),%rsi        # 415828 <_IO_stdin_used+0x828>
  404973:	b9 09 00 00 00       	mov    $0x9,%ecx
  404978:	4c 89 c7             	mov    %r8,%rdi
  40497b:	f3 a5                	rep movsl %ds:(%rsi),%es:(%rdi)
_Z15stop_disk_statsv():
/home/aliha951/ipdps-artifact/gapbs-master/src/profiling_utils.h:319
    char command[256];
    snprintf(command, sizeof(command), "sudo pkill -f 'gather_diskstats.sh'");
    int ret = system(command);
  40497d:	4c 89 c7             	mov    %r8,%rdi
  404980:	e8 6b ef ff ff       	callq  4038f0 <system@plt>
/home/aliha951/ipdps-artifact/gapbs-master/src/profiling_utils.h:320
    if (ret==-1)	std::cout << "could not stop diskstat gathering\n";
  404985:	83 c0 01             	add    $0x1,%eax
  404988:	0f 85 1b fc ff ff    	jne    4045a9 <main+0x699>
_ZStlsISt11char_traitsIcEERSt13basic_ostreamIcT_ES5_PKc():
/usr/include/c++/10/ostream:611
    operator<<(basic_ostream<char, _Traits>& __out, const char* __s)
    {
      if (!__s)
	__out.setstate(ios_base::badbit);
      else
	__ostream_insert(__out, __s,
  40498e:	ba 22 00 00 00       	mov    $0x22,%edx
  404993:	48 8d 35 b6 0e 01 00 	lea    0x10eb6(%rip),%rsi        # 415850 <_IO_stdin_used+0x850>
  40499a:	48 8d 3d 1f 5a 01 00 	lea    0x15a1f(%rip),%rdi        # 41a3c0 <_ZSt4cout@@GLIBCXX_3.4>
  4049a1:	e8 1a f0 ff ff       	callq  4039c0 <_ZSt16__ostream_insertIcSt11char_traitsIcEERSt13basic_ostreamIT_T0_ES6_PKS3_l@plt>
  4049a6:	e9 fe fb ff ff       	jmpq   4045a9 <main+0x699>
_Z26unregister_and_free_arraysv():
/home/aliha951/ipdps-artifact/gapbs-master/src/libpfq_bfs.h:338
}

// syscall to unregister the page fault status array, as well as ips and ret_ips, and free the allocated memory
inline void unregister_and_free_arrays(){
  syscall(548, NULL, NULL, 0);
  4049ab:	31 c9                	xor    %ecx,%ecx
  4049ad:	31 d2                	xor    %edx,%edx
  4049af:	31 f6                	xor    %esi,%esi
  4049b1:	bf 24 02 00 00       	mov    $0x224,%edi
  4049b6:	31 c0                	xor    %eax,%eax
  4049b8:	e8 23 ed ff ff       	callq  4036e0 <syscall@plt>
/home/aliha951/ipdps-artifact/gapbs-master/src/libpfq_bfs.h:339
  syscall(550, NULL, 0);
  4049bd:	31 d2                	xor    %edx,%edx
  4049bf:	31 f6                	xor    %esi,%esi
  4049c1:	bf 26 02 00 00       	mov    $0x226,%edi
  4049c6:	31 c0                	xor    %eax,%eax
  4049c8:	e8 13 ed ff ff       	callq  4036e0 <syscall@plt>
/home/aliha951/ipdps-artifact/gapbs-master/src/libpfq_bfs.h:340
  munlock(ptr, 32*1024*sizeof(int));
  4049cd:	48 8b 3d 8c ab 01 00 	mov    0x1ab8c(%rip),%rdi        # 41f560 <ptr>
  4049d4:	be 00 00 02 00       	mov    $0x20000,%esi
  4049d9:	e8 c2 f2 ff ff       	callq  403ca0 <munlock@plt>
/home/aliha951/ipdps-artifact/gapbs-master/src/libpfq_bfs.h:341
  munmap(ptr, 32*1024*sizeof(int));
  4049de:	48 8b 3d 7b ab 01 00 	mov    0x1ab7b(%rip),%rdi        # 41f560 <ptr>
  4049e5:	be 00 00 02 00       	mov    $0x20000,%esi
  4049ea:	e8 61 ee ff ff       	callq  403850 <munmap@plt>
/home/aliha951/ipdps-artifact/gapbs-master/src/libpfq_bfs.h:342
}
  4049ef:	e9 2e fc ff ff       	jmpq   404622 <main+0x712>
_ZN6CLBase9HandleArgEaPc():
/home/aliha951/ipdps-artifact/gapbs-master/src/command_line.h:106
      case 'u': uniform_ = true; scale_ = atoi(opt_arg);                break;
  4049f4:	c6 84 24 b9 01 00 00 	movb   $0x1,0x1b9(%rsp)
  4049fb:	01 
main():
/usr/include/stdlib.h:363
  4049fc:	ba 0a 00 00 00       	mov    $0xa,%edx
atoi():
/usr/include/stdlib.h:363
  404a01:	31 f6                	xor    %esi,%esi
  404a03:	e8 c8 f0 ff ff       	callq  403ad0 <strtol@plt>
  404a08:	89 84 24 90 01 00 00 	mov    %eax,0x190(%rsp)
_ZN6CLBase9HandleArgEaPc():
/home/aliha951/ipdps-artifact/gapbs-master/src/command_line.h:106
  404a0f:	e9 b4 f5 ff ff       	jmpq   403fc8 <main+0xb8>
/home/aliha951/ipdps-artifact/gapbs-master/src/command_line.h:101
      case 'f': filename_ = std::string(opt_arg);                       break;
  404a14:	48 89 fe             	mov    %rdi,%rsi
  404a17:	48 89 ef             	mov    %rbp,%rdi
  404a1a:	e8 41 18 00 00       	callq  406260 <_ZNSt7__cxx1112basic_stringIcSt11char_traitsIcESaIcEEC2EPKcRKS3_.constprop.0>
_ZNKSt7__cxx1112basic_stringIcSt11char_traitsIcESaIcEE7_M_dataEv():
/usr/include/c++/10/bits/basic_string.h:195
      { return _M_dataplus._M_p; }
  404a1f:	48 8b 84 24 e0 0b 00 	mov    0xbe0(%rsp),%rax
  404a26:	00 
  404a27:	48 8b bc 24 98 01 00 	mov    0x198(%rsp),%rdi
  404a2e:	00 
_ZNKSt7__cxx1112basic_stringIcSt11char_traitsIcESaIcEE4sizeEv():
/usr/include/c++/10/bits/basic_string.h:915
      { return _M_string_length; }
  404a2f:	48 8b 94 24 e8 0b 00 	mov    0xbe8(%rsp),%rdx
  404a36:	00 
_ZNSt7__cxx1112basic_stringIcSt11char_traitsIcESaIcEEaSEOS4_():
/usr/include/c++/10/bits/basic_string.h:731
	if (__str._M_is_local())
  404a37:	4c 39 e8             	cmp    %r13,%rax
  404a3a:	0f 84 88 01 00 00    	je     404bc8 <main+0xcb8>
/usr/include/c++/10/bits/basic_string.h:759
	    _M_capacity(__str._M_allocated_capacity);
  404a40:	f3 0f 7e 8c 24 f0 0b 	movq   0xbf0(%rsp),%xmm1
  404a47:	00 00 
/usr/include/c++/10/bits/basic_string.h:745
	    if (!_M_is_local())
  404a49:	4c 39 f7             	cmp    %r14,%rdi
  404a4c:	0f 84 50 01 00 00    	je     404ba2 <main+0xc92>
_ZNSt7__cxx1112basic_stringIcSt11char_traitsIcESaIcEE9_M_lengthEm():
/usr/include/c++/10/bits/basic_string.h:191
      { _M_string_length = __length; }
  404a52:	66 48 0f 6e c2       	movq   %rdx,%xmm0
_ZNSt7__cxx1112basic_stringIcSt11char_traitsIcESaIcEEaSEOS4_():
/usr/include/c++/10/bits/basic_string.h:751
		    __capacity = _M_allocated_capacity;
  404a57:	48 8b 8c 24 a8 01 00 	mov    0x1a8(%rsp),%rcx
  404a5e:	00 
_ZNSt7__cxx1112basic_stringIcSt11char_traitsIcESaIcEE7_M_dataEPc():
/usr/include/c++/10/bits/basic_string.h:187
      { _M_dataplus._M_p = __p; }
  404a5f:	48 89 84 24 98 01 00 	mov    %rax,0x198(%rsp)
  404a66:	00 
_ZNSt7__cxx1112basic_stringIcSt11char_traitsIcESaIcEE9_M_lengthEm():
/usr/include/c++/10/bits/basic_string.h:191
      { _M_string_length = __length; }
  404a67:	66 0f 6c c1          	punpcklqdq %xmm1,%xmm0
  404a6b:	0f 29 84 24 a0 01 00 	movaps %xmm0,0x1a0(%rsp)
  404a72:	00 
_ZNSt7__cxx1112basic_stringIcSt11char_traitsIcESaIcEEaSEOS4_():
/usr/include/c++/10/bits/basic_string.h:760
	    if (__data)
  404a73:	48 85 ff             	test   %rdi,%rdi
  404a76:	0f 84 3f 01 00 00    	je     404bbb <main+0xcab>
_ZNSt7__cxx1112basic_stringIcSt11char_traitsIcESaIcEE7_M_dataEPc():
/usr/include/c++/10/bits/basic_string.h:187
      { _M_dataplus._M_p = __p; }
  404a7c:	48 89 bc 24 e0 0b 00 	mov    %rdi,0xbe0(%rsp)
  404a83:	00 
_ZNSt7__cxx1112basic_stringIcSt11char_traitsIcESaIcEE11_M_capacityEm():
/usr/include/c++/10/bits/basic_string.h:219
      { _M_allocated_capacity = __capacity; }
  404a84:	48 89 8c 24 f0 0b 00 	mov    %rcx,0xbf0(%rsp)
  404a8b:	00 
_ZNKSt7__cxx1112basic_stringIcSt11char_traitsIcESaIcEE7_M_dataEv():
/usr/include/c++/10/bits/basic_string.h:195
      { return _M_dataplus._M_p; }
  404a8c:	48 8b 84 24 e0 0b 00 	mov    0xbe0(%rsp),%rax
  404a93:	00 
_ZNSt7__cxx1112basic_stringIcSt11char_traitsIcESaIcEE9_M_lengthEm():
/usr/include/c++/10/bits/basic_string.h:191
      { _M_string_length = __length; }
  404a94:	48 c7 84 24 e8 0b 00 	movq   $0x0,0xbe8(%rsp)
  404a9b:	00 00 00 00 00 
_ZNSt11char_traitsIcE6assignERcRKc():
/usr/include/c++/10/bits/char_traits.h:357
  404aa0:	c6 00 00             	movb   $0x0,(%rax)
_ZNKSt7__cxx1112basic_stringIcSt11char_traitsIcESaIcEE7_M_dataEv():
/usr/include/c++/10/bits/basic_string.h:195
      { return _M_dataplus._M_p; }
  404aa3:	48 8b bc 24 e0 0b 00 	mov    0xbe0(%rsp),%rdi
  404aaa:	00 
_ZNSt7__cxx1112basic_stringIcSt11char_traitsIcESaIcEE10_M_disposeEv():
/usr/include/c++/10/bits/basic_string.h:239
	if (!_M_is_local())
  404aab:	4c 39 ef             	cmp    %r13,%rdi
  404aae:	0f 84 14 f5 ff ff    	je     403fc8 <main+0xb8>
_ZN9__gnu_cxx13new_allocatorIcE10deallocateEPcm():
/usr/include/c++/10/ext/new_allocator.h:139
  404ab4:	e8 77 ee ff ff       	callq  403930 <_ZdlPv@plt>
_ZN6CLBase9HandleArgEaPc():
/home/aliha951/ipdps-artifact/gapbs-master/src/command_line.h:114
  }
  404ab9:	e9 0a f5 ff ff       	jmpq   403fc8 <main+0xb8>
main():
/usr/include/stdlib.h:363
  404abe:	ba 0a 00 00 00       	mov    $0xa,%edx
atoi():
/usr/include/stdlib.h:363
  404ac3:	31 f6                	xor    %esi,%esi
  404ac5:	e8 06 f0 ff ff       	callq  403ad0 <strtol@plt>
  404aca:	89 84 24 94 01 00 00 	mov    %eax,0x194(%rsp)
_ZN6CLBase9HandleArgEaPc():
/home/aliha951/ipdps-artifact/gapbs-master/src/command_line.h:104
      case 'k': degree_ = atoi(opt_arg);                                break;
  404ad1:	e9 f2 f4 ff ff       	jmpq   403fc8 <main+0xb8>
/home/aliha951/ipdps-artifact/gapbs-master/src/command_line.h:107
      case 'm': in_place_ = true;                                       break;
  404ad6:	c6 84 24 ba 01 00 00 	movb   $0x1,0x1ba(%rsp)
  404add:	01 
  404ade:	e9 e5 f4 ff ff       	jmpq   403fc8 <main+0xb8>
/home/aliha951/ipdps-artifact/gapbs-master/src/command_line.h:112
      case 'o': batching_mode_ = MADVISE;                               break;
  404ae3:	c7 84 24 cc 01 00 00 	movl   $0x2,0x1cc(%rsp)
  404aea:	02 00 00 00 
  404aee:	e9 d5 f4 ff ff       	jmpq   403fc8 <main+0xb8>
/home/aliha951/ipdps-artifact/gapbs-master/src/command_line.h:109
      case 'q': batching_ = true;                                       break;
  404af3:	c6 84 24 bb 01 00 00 	movb   $0x1,0x1bb(%rsp)
  404afa:	01 
  404afb:	e9 c8 f4 ff ff       	jmpq   403fc8 <main+0xb8>
/home/aliha951/ipdps-artifact/gapbs-master/src/command_line.h:105
      case 's': symmetrize_ = true;                                     break;
  404b00:	c6 84 24 b8 01 00 00 	movb   $0x1,0x1b8(%rsp)
  404b07:	01 
  404b08:	e9 bb f4 ff ff       	jmpq   403fc8 <main+0xb8>
main():
/usr/include/stdlib.h:363
  404b0d:	ba 0a 00 00 00       	mov    $0xa,%edx
atoi():
/usr/include/stdlib.h:363
  404b12:	31 f6                	xor    %esi,%esi
  404b14:	e8 b7 ef ff ff       	callq  403ad0 <strtol@plt>
  404b19:	89 84 24 c8 01 00 00 	mov    %eax,0x1c8(%rsp)
_ZN6CLBase9HandleArgEaPc():
/home/aliha951/ipdps-artifact/gapbs-master/src/command_line.h:111
      case 'x': readahead_size_ = atoi(opt_arg);                        break;
  404b20:	e9 a3 f4 ff ff       	jmpq   403fc8 <main+0xb8>
main():
/usr/include/stdlib.h:363
  404b25:	ba 0a 00 00 00       	mov    $0xa,%edx
atoi():
/usr/include/stdlib.h:363
  404b2a:	31 f6                	xor    %esi,%esi
  404b2c:	e8 9f ef ff ff       	callq  403ad0 <strtol@plt>
_ZN6CLBase9HandleArgEaPc():
/home/aliha951/ipdps-artifact/gapbs-master/src/command_line.h:110
      case 'y': queue_size_ = (long unsigned int) atoi(opt_arg);        break;
  404b31:	48 98                	cltq   
  404b33:	48 89 84 24 c0 01 00 	mov    %rax,0x1c0(%rsp)
  404b3a:	00 
  404b3b:	e9 88 f4 ff ff       	jmpq   403fc8 <main+0xb8>
BenchmarkKernel<CSRGraph<int>, main(int, char**)::<lambda(const Graph&)>, void (*)(const CSRGraph<int>&, const pvector<int>&), main(int, char**)::<lambda(const Graph&, const pvector<int>&)> >():
/home/aliha951/ipdps-artifact/gapbs-master/src/benchmark.h:108
  double total_seconds = 0;
  404b40:	66 0f ef f6          	pxor   %xmm6,%xmm6
  404b44:	f2 0f 11 74 24 10    	movsd  %xmm6,0x10(%rsp)
  404b4a:	e9 f3 f9 ff ff       	jmpq   404542 <main+0x632>
_Z16prepare_pmadvisev():
/home/aliha951/ipdps-artifact/gapbs-master/src/libpfq_bfs.h:321
    pid_t pid = getpid();
  404b4f:	e8 dc ef ff ff       	callq  403b30 <getpid@plt>
/home/aliha951/ipdps-artifact/gapbs-master/src/libpfq_bfs.h:322
    pidfd = syscall(SYS_pidfd_open, pid, 0); // this is necessary for process_madvise
  404b54:	31 d2                	xor    %edx,%edx
  404b56:	bf b2 01 00 00       	mov    $0x1b2,%edi
/home/aliha951/ipdps-artifact/gapbs-master/src/libpfq_bfs.h:321
    pid_t pid = getpid();
  404b5b:	89 c6                	mov    %eax,%esi
/home/aliha951/ipdps-artifact/gapbs-master/src/libpfq_bfs.h:322
    pidfd = syscall(SYS_pidfd_open, pid, 0); // this is necessary for process_madvise
  404b5d:	31 c0                	xor    %eax,%eax
  404b5f:	e8 7c eb ff ff       	callq  4036e0 <syscall@plt>
  404b64:	89 05 d6 a9 01 00    	mov    %eax,0x1a9d6(%rip)        # 41f540 <pidfd>
/home/aliha951/ipdps-artifact/gapbs-master/src/libpfq_bfs.h:324
}
  404b6a:	e9 fd f5 ff ff       	jmpq   40416c <main+0x25c>
_ZStlsISt11char_traitsIcEERSt13basic_ostreamIcT_ES5_PKc():
/usr/include/c++/10/ostream:611
  404b6f:	ba 2b 00 00 00       	mov    $0x2b,%edx
  404b74:	48 8d 35 4d 0c 01 00 	lea    0x10c4d(%rip),%rsi        # 4157c8 <_IO_stdin_used+0x7c8>
  404b7b:	48 8d 3d 3e 58 01 00 	lea    0x1583e(%rip),%rdi        # 41a3c0 <_ZSt4cout@@GLIBCXX_3.4>
  404b82:	e8 39 ee ff ff       	callq  4039c0 <_ZSt16__ostream_insertIcSt11char_traitsIcEERSt13basic_ostreamIT_T0_ES6_PKS3_l@plt>
_ZNSolsEPFRSoS_E():
/usr/include/c++/10/ostream:113
	return __pf(*this);
  404b87:	48 8d 3d 32 58 01 00 	lea    0x15832(%rip),%rdi        # 41a3c0 <_ZSt4cout@@GLIBCXX_3.4>
  404b8e:	e8 fd 14 00 00       	callq  406090 <_ZSt4endlIcSt11char_traitsIcEERSt13basic_ostreamIT_T0_ES6_.isra.0>
  404b93:	e9 97 fa ff ff       	jmpq   40462f <main+0x71f>
_ZN6CLBase9HandleArgEaPc():
/home/aliha951/ipdps-artifact/gapbs-master/src/command_line.h:103
      case 'h': PrintUsage();                                           break;
  404b98:	48 8b 7c 24 38       	mov    0x38(%rsp),%rdi
  404b9d:	e8 ee 5f 00 00       	callq  40ab90 <_ZN6CLBase10PrintUsageEv>
_ZNSt7__cxx1112basic_stringIcSt11char_traitsIcESaIcEE9_M_lengthEm():
/usr/include/c++/10/bits/basic_string.h:191
      { _M_string_length = __length; }
  404ba2:	66 48 0f 6e c2       	movq   %rdx,%xmm0
_ZNSt7__cxx1112basic_stringIcSt11char_traitsIcESaIcEE7_M_dataEPc():
/usr/include/c++/10/bits/basic_string.h:187
      { _M_dataplus._M_p = __p; }
  404ba7:	48 89 84 24 98 01 00 	mov    %rax,0x198(%rsp)
  404bae:	00 
_ZNSt7__cxx1112basic_stringIcSt11char_traitsIcESaIcEE9_M_lengthEm():
/usr/include/c++/10/bits/basic_string.h:191
      { _M_string_length = __length; }
  404baf:	66 0f 6c c1          	punpcklqdq %xmm1,%xmm0
  404bb3:	0f 29 84 24 a0 01 00 	movaps %xmm0,0x1a0(%rsp)
  404bba:	00 
_ZNSt7__cxx1112basic_stringIcSt11char_traitsIcESaIcEE7_M_dataEPc():
/usr/include/c++/10/bits/basic_string.h:187
      { _M_dataplus._M_p = __p; }
  404bbb:	4c 89 ac 24 e0 0b 00 	mov    %r13,0xbe0(%rsp)
  404bc2:	00 
  404bc3:	e9 c4 fe ff ff       	jmpq   404a8c <main+0xb7c>
_ZNSt7__cxx1112basic_stringIcSt11char_traitsIcESaIcEEaSEOS4_():
/usr/include/c++/10/bits/basic_string.h:734
	    if (__str.size())
  404bc8:	48 85 d2             	test   %rdx,%rdx
  404bcb:	74 1e                	je     404beb <main+0xcdb>
_ZNSt7__cxx1112basic_stringIcSt11char_traitsIcESaIcEE7_S_copyEPcPKcm():
/usr/include/c++/10/bits/basic_string.h:356
	if (__n == 1)
  404bcd:	48 83 fa 01          	cmp    $0x1,%rdx
  404bd1:	74 29                	je     404bfc <main+0xcec>
_ZNSt11char_traitsIcE4copyEPcPKcm():
/usr/include/c++/10/bits/char_traits.h:437
	return static_cast<char_type*>(__builtin_memcpy(__s1, __s2, __n));
  404bd3:	4c 89 ee             	mov    %r13,%rsi
  404bd6:	e8 e5 ec ff ff       	callq  4038c0 <memcpy@plt>
  404bdb:	48 8b bc 24 98 01 00 	mov    0x198(%rsp),%rdi
  404be2:	00 
  404be3:	48 8b 94 24 e8 0b 00 	mov    0xbe8(%rsp),%rdx
  404bea:	00 
_ZNSt7__cxx1112basic_stringIcSt11char_traitsIcESaIcEE9_M_lengthEm():
/usr/include/c++/10/bits/basic_string.h:191
      { _M_string_length = __length; }
  404beb:	48 89 94 24 a0 01 00 	mov    %rdx,0x1a0(%rsp)
  404bf2:	00 
_ZNSt11char_traitsIcE6assignERcRKc():
/usr/include/c++/10/bits/char_traits.h:357
      { __c1 = __c2; }
  404bf3:	c6 04 17 00          	movb   $0x0,(%rdi,%rdx,1)
_ZNSt7__cxx1112basic_stringIcSt11char_traitsIcESaIcEE13_M_set_lengthEm():
/usr/include/c++/10/bits/basic_string.h:226
      }
  404bf7:	e9 90 fe ff ff       	jmpq   404a8c <main+0xb7c>
_ZNSt11char_traitsIcE6assignERcRKc():
/usr/include/c++/10/bits/char_traits.h:357
  404bfc:	0f b6 84 24 f0 0b 00 	movzbl 0xbf0(%rsp),%eax
  404c03:	00 
  404c04:	88 07                	mov    %al,(%rdi)
  404c06:	48 8b bc 24 98 01 00 	mov    0x198(%rsp),%rdi
  404c0d:	00 
  404c0e:	48 8b 94 24 e8 0b 00 	mov    0xbe8(%rsp),%rdx
  404c15:	00 
  404c16:	eb d3                	jmp    404beb <main+0xcdb>
_Z16start_disk_statsPKc():
/home/aliha951/ipdps-artifact/gapbs-master/src/profiling_utils.h:306
	  move_to_cgroup(root_cgroup, getpid());
  404c18:	e8 13 ef ff ff       	callq  403b30 <getpid@plt>
  404c1d:	48 8d 3d 49 07 01 00 	lea    0x10749(%rip),%rdi        # 41536d <_IO_stdin_used+0x36d>
  404c24:	89 c6                	mov    %eax,%esi
  404c26:	e8 f5 28 00 00       	callq  407520 <_Z14move_to_cgroupPKci>
/home/aliha951/ipdps-artifact/gapbs-master/src/profiling_utils.h:307
    execlp("/home/aliha951/ipdps-gapbs/gather_diskstats.sh", "/home/aliha951/ipdps-gapbs/gather_diskstats.sh", result_file_name, NULL);
  404c2b:	48 8d 35 c6 0b 01 00 	lea    0x10bc6(%rip),%rsi        # 4157f8 <_IO_stdin_used+0x7f8>
  404c32:	31 c9                	xor    %ecx,%ecx
  404c34:	48 8d 15 48 07 01 00 	lea    0x10748(%rip),%rdx        # 415383 <_IO_stdin_used+0x383>
  404c3b:	31 c0                	xor    %eax,%eax
  404c3d:	48 89 f7             	mov    %rsi,%rdi
  404c40:	e8 3b eb ff ff       	callq  403780 <execlp@plt>
/home/aliha951/ipdps-artifact/gapbs-master/src/profiling_utils.h:308
    perror("execlp failed");
  404c45:	48 8d 3d 42 07 01 00 	lea    0x10742(%rip),%rdi        # 41538e <_IO_stdin_used+0x38e>
  404c4c:	e8 7f ec ff ff       	callq  4038d0 <perror@plt>
/home/aliha951/ipdps-artifact/gapbs-master/src/profiling_utils.h:303
    exit(EXIT_FAILURE);
  404c51:	bf 01 00 00 00       	mov    $0x1,%edi
  404c56:	e8 c5 ed ff ff       	callq  403a20 <exit@plt>
main():
/home/aliha951/ipdps-artifact/gapbs-master/src/bfs_batching_nopt.cc:346
  404c5b:	e8 50 ed ff ff       	callq  4039b0 <__stack_chk_fail@plt>
_Z16start_disk_statsPKc():
/home/aliha951/ipdps-artifact/gapbs-master/src/profiling_utils.h:302
    perror("fork failed");
  404c60:	48 8d 3d fa 06 01 00 	lea    0x106fa(%rip),%rdi        # 415361 <_IO_stdin_used+0x361>
  404c67:	e8 64 ec ff ff       	callq  4038d0 <perror@plt>
  404c6c:	eb e3                	jmp    404c51 <main+0xd41>
  404c6e:	f3 0f 1e fa          	endbr64 
_ZN7pvectorIiE16ReleaseResourcesEv():
/home/aliha951/ipdps-artifact/gapbs-master/src/pvector.h:73
    if (start_ != nullptr) {
  404c72:	48 89 c3             	mov    %rax,%rbx
  404c75:	e9 d6 f1 ff ff       	jmpq   403e50 <main.cold+0x24>
  404c7a:	f3 0f 1e fa          	endbr64 
_ZNKSt7__cxx1112basic_stringIcSt11char_traitsIcESaIcEE7_M_dataEv():
/usr/include/c++/10/bits/basic_string.h:195
      { return _M_dataplus._M_p; }
  404c7e:	48 89 c3             	mov    %rax,%rbx
  404c81:	e9 a6 f1 ff ff       	jmpq   403e2c <main.cold>
  404c86:	f3 0f 1e fa          	endbr64 
  404c8a:	48 89 c3             	mov    %rax,%rbx
  404c8d:	e9 fd f1 ff ff       	jmpq   403e8f <main.cold+0x63>
  404c92:	f3 0f 1e fa          	endbr64 
  404c96:	48 89 c5             	mov    %rax,%rbp
  404c99:	e9 05 f2 ff ff       	jmpq   403ea3 <main.cold+0x77>
  404c9e:	f3 0f 1e fa          	endbr64 
_ZN5CLAppD4Ev():
/home/aliha951/ipdps-artifact/gapbs-master/src/command_line.h:140
class CLApp : public CLBase {
  404ca2:	48 89 c3             	mov    %rax,%rbx
  404ca5:	e9 bd f1 ff ff       	jmpq   403e67 <main.cold+0x3b>
  404caa:	f3 0f 1e fa          	endbr64 
  404cae:	48 89 c3             	mov    %rax,%rbx
  404cb1:	e9 a7 f1 ff ff       	jmpq   403e5d <main.cold+0x31>
  404cb6:	f3 0f 1e fa          	endbr64 
_ZNKSt7__cxx1112basic_stringIcSt11char_traitsIcESaIcEE7_M_dataEv():
/usr/include/c++/10/bits/basic_string.h:195
  404cba:	48 89 c3             	mov    %rax,%rbx
  404cbd:	e9 03 f2 ff ff       	jmpq   403ec5 <main.cold+0x99>
  404cc2:	f3 0f 1e fa          	endbr64 
  404cc6:	48 89 c3             	mov    %rax,%rbx
  404cc9:	e9 12 f2 ff ff       	jmpq   403ee0 <main.cold+0xb4>
main():
/usr/include/c++/10/bits/basic_string.h:195
  404cce:	66 90                	xchg   %ax,%ax

0000000000404cd0 <_GLOBAL__sub_I__Z10PrintLabelRKNSt7__cxx1112basic_stringIcSt11char_traitsIcESaIcEEES6_>:
_GLOBAL__sub_I__Z10PrintLabelRKNSt7__cxx1112basic_stringIcSt11char_traitsIcESaIcEEES6_():
/home/aliha951/ipdps-artifact/gapbs-master/src/bfs_batching_nopt.cc:346
  404cd0:	f3 0f 1e fa          	endbr64 
  404cd4:	48 83 ec 08          	sub    $0x8,%rsp
/usr/include/c++/10/iostream:74
  extern wostream wclog;	/// Linked to standard error (buffered)
#endif
  ///@}

  // For construction of filebuffers for cout, cin, cerr, clog et. al.
  static ios_base::Init __ioinit;
  404cd8:	48 8d 3d 71 ad 01 00 	lea    0x1ad71(%rip),%rdi        # 41fa50 <_ZStL8__ioinit>
__static_initialization_and_destruction_0():
/usr/include/c++/10/iostream:74
  404cdf:	e8 7c ee ff ff       	callq  403b60 <_ZNSt8ios_base4InitC1Ev@plt>
  404ce4:	48 8b 3d 0d 53 01 00 	mov    0x1530d(%rip),%rdi        # 419ff8 <_ZNSt8ios_base4InitD1Ev@GLIBCXX_3.4>
  404ceb:	48 8d 15 5e 56 01 00 	lea    0x1565e(%rip),%rdx        # 41a350 <__dso_handle>
  404cf2:	48 8d 35 57 ad 01 00 	lea    0x1ad57(%rip),%rsi        # 41fa50 <_ZStL8__ioinit>
  404cf9:	e8 02 ec ff ff       	callq  403900 <__cxa_atexit@plt>
/home/aliha951/ipdps-artifact/gapbs-master/src/libpfq_bfs.h:191
vector<state> curr_queue[NR_THREADS];
  404cfe:	48 8d 05 1b 88 01 00 	lea    0x1881b(%rip),%rax        # 41d520 <curr_queue>
_ZNSt12_Vector_baseI5stateSaIS0_EE17_Vector_impl_dataC4Ev():
/usr/include/c++/10/bits/stl_vector.h:98
	: _M_start(), _M_finish(), _M_end_of_storage()
  404d05:	66 0f ef c0          	pxor   %xmm0,%xmm0
  404d09:	48 8d 90 00 18 00 00 	lea    0x1800(%rax),%rdx
  404d10:	0f 29 00             	movaps %xmm0,(%rax)
  404d13:	48 83 c0 30          	add    $0x30,%rax
  404d17:	0f 29 40 e0          	movaps %xmm0,-0x20(%rax)
  404d1b:	0f 29 40 f0          	movaps %xmm0,-0x10(%rax)
__static_initialization_and_destruction_0():
/home/aliha951/ipdps-artifact/gapbs-master/src/libpfq_bfs.h:191
  404d1f:	48 39 d0             	cmp    %rdx,%rax
  404d22:	75 ec                	jne    404d10 <_GLOBAL__sub_I__Z10PrintLabelRKNSt7__cxx1112basic_stringIcSt11char_traitsIcESaIcEEES6_+0x40>
  404d24:	48 8d 15 25 56 01 00 	lea    0x15625(%rip),%rdx        # 41a350 <__dso_handle>
  404d2b:	31 f6                	xor    %esi,%esi
  404d2d:	48 8d 3d 1c 02 00 00 	lea    0x21c(%rip),%rdi        # 404f50 <__tcf_0>
  404d34:	e8 c7 eb ff ff       	callq  403900 <__cxa_atexit@plt>
/home/aliha951/ipdps-artifact/gapbs-master/src/libpfq_bfs.h:192
vector<state> shipped_queue[NR_THREADS];
  404d39:	48 8d 05 e0 6f 01 00 	lea    0x16fe0(%rip),%rax        # 41bd20 <shipped_queue>
_ZNSt12_Vector_baseI5stateSaIS0_EE17_Vector_impl_dataC4Ev():
/usr/include/c++/10/bits/stl_vector.h:98
  404d40:	66 0f ef c0          	pxor   %xmm0,%xmm0
  404d44:	48 8d 90 00 18 00 00 	lea    0x1800(%rax),%rdx
  404d4b:	0f 1f 44 00 00       	nopl   0x0(%rax,%rax,1)
  404d50:	0f 29 00             	movaps %xmm0,(%rax)
  404d53:	48 83 c0 30          	add    $0x30,%rax
  404d57:	0f 29 40 e0          	movaps %xmm0,-0x20(%rax)
  404d5b:	0f 29 40 f0          	movaps %xmm0,-0x10(%rax)
__static_initialization_and_destruction_0():
/home/aliha951/ipdps-artifact/gapbs-master/src/libpfq_bfs.h:192
  404d5f:	48 39 d0             	cmp    %rdx,%rax
  404d62:	75 ec                	jne    404d50 <_GLOBAL__sub_I__Z10PrintLabelRKNSt7__cxx1112basic_stringIcSt11char_traitsIcESaIcEEES6_+0x80>
  404d64:	48 8d 15 e5 55 01 00 	lea    0x155e5(%rip),%rdx        # 41a350 <__dso_handle>
  404d6b:	31 f6                	xor    %esi,%esi
  404d6d:	48 8d 3d 8c 01 00 00 	lea    0x18c(%rip),%rdi        # 404f00 <__tcf_1>
  404d74:	e8 87 eb ff ff       	callq  403900 <__cxa_atexit@plt>
/home/aliha951/ipdps-artifact/gapbs-master/src/libpfq_bfs.h:193
vector<state> ready_queue[NR_THREADS];
  404d79:	48 8d 05 a0 57 01 00 	lea    0x157a0(%rip),%rax        # 41a520 <ready_queue>
_ZNSt12_Vector_baseI5stateSaIS0_EE17_Vector_impl_dataC4Ev():
/usr/include/c++/10/bits/stl_vector.h:98
  404d80:	66 0f ef c0          	pxor   %xmm0,%xmm0
  404d84:	48 8d 90 00 18 00 00 	lea    0x1800(%rax),%rdx
  404d8b:	0f 1f 44 00 00       	nopl   0x0(%rax,%rax,1)
  404d90:	0f 29 00             	movaps %xmm0,(%rax)
  404d93:	48 83 c0 30          	add    $0x30,%rax
  404d97:	0f 29 40 e0          	movaps %xmm0,-0x20(%rax)
  404d9b:	0f 29 40 f0          	movaps %xmm0,-0x10(%rax)
__static_initialization_and_destruction_0():
/home/aliha951/ipdps-artifact/gapbs-master/src/libpfq_bfs.h:193
  404d9f:	48 39 d0             	cmp    %rdx,%rax
  404da2:	75 ec                	jne    404d90 <_GLOBAL__sub_I__Z10PrintLabelRKNSt7__cxx1112basic_stringIcSt11char_traitsIcESaIcEEES6_+0xc0>
  404da4:	48 8d 15 a5 55 01 00 	lea    0x155a5(%rip),%rdx        # 41a350 <__dso_handle>
  404dab:	31 f6                	xor    %esi,%esi
  404dad:	48 8d 3d fc 00 00 00 	lea    0xfc(%rip),%rdi        # 404eb0 <__tcf_2>
_GLOBAL__sub_I__Z10PrintLabelRKNSt7__cxx1112basic_stringIcSt11char_traitsIcESaIcEEES6_():
/home/aliha951/ipdps-artifact/gapbs-master/src/bfs_batching_nopt.cc:346
  404db4:	48 83 c4 08          	add    $0x8,%rsp
__static_initialization_and_destruction_0():
/home/aliha951/ipdps-artifact/gapbs-master/src/libpfq_bfs.h:193
  404db8:	e9 43 eb ff ff       	jmpq   403900 <__cxa_atexit@plt>
_GLOBAL__sub_I__Z10PrintLabelRKNSt7__cxx1112basic_stringIcSt11char_traitsIcESaIcEEES6_():
  404dbd:	0f 1f 00             	nopl   (%rax)

0000000000404dc0 <_start>:
_start():
  404dc0:	f3 0f 1e fa          	endbr64 
  404dc4:	31 ed                	xor    %ebp,%ebp
  404dc6:	49 89 d1             	mov    %rdx,%r9
  404dc9:	5e                   	pop    %rsi
  404dca:	48 89 e2             	mov    %rsp,%rdx
  404dcd:	48 83 e4 f0          	and    $0xfffffffffffffff0,%rsp
  404dd1:	50                   	push   %rax
  404dd2:	54                   	push   %rsp
  404dd3:	49 c7 c0 e0 44 41 00 	mov    $0x4144e0,%r8
  404dda:	48 c7 c1 70 44 41 00 	mov    $0x414470,%rcx
  404de1:	48 c7 c7 10 3f 40 00 	mov    $0x403f10,%rdi
  404de8:	ff 15 fa 51 01 00    	callq  *0x151fa(%rip)        # 419fe8 <__libc_start_main@GLIBC_2.2.5>
  404dee:	f4                   	hlt    
  404def:	90                   	nop

0000000000404df0 <_dl_relocate_static_pie>:
_dl_relocate_static_pie():
  404df0:	f3 0f 1e fa          	endbr64 
  404df4:	c3                   	retq   
  404df5:	66 2e 0f 1f 84 00 00 	nopw   %cs:0x0(%rax,%rax,1)
  404dfc:	00 00 00 
  404dff:	90                   	nop

0000000000404e00 <deregister_tm_clones>:
deregister_tm_clones():
  404e00:	b8 78 a3 41 00       	mov    $0x41a378,%eax
  404e05:	48 3d 78 a3 41 00    	cmp    $0x41a378,%rax
  404e0b:	74 13                	je     404e20 <deregister_tm_clones+0x20>
  404e0d:	b8 00 00 00 00       	mov    $0x0,%eax
  404e12:	48 85 c0             	test   %rax,%rax
  404e15:	74 09                	je     404e20 <deregister_tm_clones+0x20>
  404e17:	bf 78 a3 41 00       	mov    $0x41a378,%edi
  404e1c:	ff e0                	jmpq   *%rax
  404e1e:	66 90                	xchg   %ax,%ax
  404e20:	c3                   	retq   
  404e21:	66 66 2e 0f 1f 84 00 	data16 nopw %cs:0x0(%rax,%rax,1)
  404e28:	00 00 00 00 
  404e2c:	0f 1f 40 00          	nopl   0x0(%rax)

0000000000404e30 <register_tm_clones>:
register_tm_clones():
  404e30:	be 78 a3 41 00       	mov    $0x41a378,%esi
  404e35:	48 81 ee 78 a3 41 00 	sub    $0x41a378,%rsi
  404e3c:	48 89 f0             	mov    %rsi,%rax
  404e3f:	48 c1 ee 3f          	shr    $0x3f,%rsi
  404e43:	48 c1 f8 03          	sar    $0x3,%rax
  404e47:	48 01 c6             	add    %rax,%rsi
  404e4a:	48 d1 fe             	sar    %rsi
  404e4d:	74 11                	je     404e60 <register_tm_clones+0x30>
  404e4f:	b8 00 00 00 00       	mov    $0x0,%eax
  404e54:	48 85 c0             	test   %rax,%rax
  404e57:	74 07                	je     404e60 <register_tm_clones+0x30>
  404e59:	bf 78 a3 41 00       	mov    $0x41a378,%edi
  404e5e:	ff e0                	jmpq   *%rax
  404e60:	c3                   	retq   
  404e61:	66 66 2e 0f 1f 84 00 	data16 nopw %cs:0x0(%rax,%rax,1)
  404e68:	00 00 00 00 
  404e6c:	0f 1f 40 00          	nopl   0x0(%rax)

0000000000404e70 <__do_global_dtors_aux>:
__do_global_dtors_aux():
  404e70:	f3 0f 1e fa          	endbr64 
  404e74:	80 3d 6d 56 01 00 00 	cmpb   $0x0,0x1566d(%rip)        # 41a4e8 <completed.0>
  404e7b:	75 13                	jne    404e90 <__do_global_dtors_aux+0x20>
  404e7d:	55                   	push   %rbp
  404e7e:	48 89 e5             	mov    %rsp,%rbp
  404e81:	e8 7a ff ff ff       	callq  404e00 <deregister_tm_clones>
  404e86:	c6 05 5b 56 01 00 01 	movb   $0x1,0x1565b(%rip)        # 41a4e8 <completed.0>
  404e8d:	5d                   	pop    %rbp
  404e8e:	c3                   	retq   
  404e8f:	90                   	nop
  404e90:	c3                   	retq   
  404e91:	66 66 2e 0f 1f 84 00 	data16 nopw %cs:0x0(%rax,%rax,1)
  404e98:	00 00 00 00 
  404e9c:	0f 1f 40 00          	nopl   0x0(%rax)

0000000000404ea0 <frame_dummy>:
frame_dummy():
  404ea0:	f3 0f 1e fa          	endbr64 
  404ea4:	eb 8a                	jmp    404e30 <register_tm_clones>
  404ea6:	66 2e 0f 1f 84 00 00 	nopw   %cs:0x0(%rax,%rax,1)
  404ead:	00 00 00 

0000000000404eb0 <__tcf_2>:
__tcf_2():
/home/aliha951/ipdps-artifact/gapbs-master/src/libpfq_bfs.h:193
  404eb0:	f3 0f 1e fa          	endbr64 
  404eb4:	55                   	push   %rbp
  404eb5:	53                   	push   %rbx
  404eb6:	48 8d 1d 4b 6e 01 00 	lea    0x16e4b(%rip),%rbx        # 41bd08 <ready_queue+0x17e8>
  404ebd:	48 8d ab 18 e8 ff ff 	lea    -0x17e8(%rbx),%rbp
  404ec4:	48 83 ec 08          	sub    $0x8,%rsp
  404ec8:	eb 17                	jmp    404ee1 <__tcf_2+0x31>
  404eca:	66 0f 1f 44 00 00    	nopw   0x0(%rax,%rax,1)
_ZN9__gnu_cxx13new_allocatorI5stateE10deallocateEPS1_m():
/usr/include/c++/10/ext/new_allocator.h:139
  404ed0:	e8 5b ea ff ff       	callq  403930 <_ZdlPv@plt>
__tcf_2():
/home/aliha951/ipdps-artifact/gapbs-master/src/libpfq_bfs.h:193
  404ed5:	48 8d 43 e8          	lea    -0x18(%rbx),%rax
  404ed9:	48 39 eb             	cmp    %rbp,%rbx
  404edc:	74 14                	je     404ef2 <__tcf_2+0x42>
  404ede:	48 89 c3             	mov    %rax,%rbx
_ZNSt6vectorI5stateSaIS0_EED4Ev():
/usr/include/c++/10/bits/stl_vector.h:680 (discriminator 3)
	std::_Destroy(this->_M_impl._M_start, this->_M_impl._M_finish,
  404ee1:	48 8b 3b             	mov    (%rbx),%rdi
_ZNSt12_Vector_baseI5stateSaIS0_EE13_M_deallocateEPS0_m():
/usr/include/c++/10/bits/stl_vector.h:353 (discriminator 3)
	if (__p)
  404ee4:	48 85 ff             	test   %rdi,%rdi
  404ee7:	75 e7                	jne    404ed0 <__tcf_2+0x20>
__tcf_2():
/home/aliha951/ipdps-artifact/gapbs-master/src/libpfq_bfs.h:193
  404ee9:	48 8d 43 e8          	lea    -0x18(%rbx),%rax
  404eed:	48 39 eb             	cmp    %rbp,%rbx
  404ef0:	75 ec                	jne    404ede <__tcf_2+0x2e>
  404ef2:	48 83 c4 08          	add    $0x8,%rsp
  404ef6:	5b                   	pop    %rbx
  404ef7:	5d                   	pop    %rbp
  404ef8:	c3                   	retq   
  404ef9:	0f 1f 80 00 00 00 00 	nopl   0x0(%rax)

0000000000404f00 <__tcf_1>:
__tcf_1():
/home/aliha951/ipdps-artifact/gapbs-master/src/libpfq_bfs.h:192
vector<state> shipped_queue[NR_THREADS];
  404f00:	f3 0f 1e fa          	endbr64 
  404f04:	55                   	push   %rbp
  404f05:	53                   	push   %rbx
  404f06:	48 8d 1d fb 85 01 00 	lea    0x185fb(%rip),%rbx        # 41d508 <shipped_queue+0x17e8>
  404f0d:	48 8d ab 18 e8 ff ff 	lea    -0x17e8(%rbx),%rbp
  404f14:	48 83 ec 08          	sub    $0x8,%rsp
  404f18:	eb 17                	jmp    404f31 <__tcf_1+0x31>
  404f1a:	66 0f 1f 44 00 00    	nopw   0x0(%rax,%rax,1)
_ZN9__gnu_cxx13new_allocatorI5stateE10deallocateEPS1_m():
/usr/include/c++/10/ext/new_allocator.h:139
  404f20:	e8 0b ea ff ff       	callq  403930 <_ZdlPv@plt>
__tcf_1():
/home/aliha951/ipdps-artifact/gapbs-master/src/libpfq_bfs.h:192
  404f25:	48 8d 43 e8          	lea    -0x18(%rbx),%rax
  404f29:	48 39 eb             	cmp    %rbp,%rbx
  404f2c:	74 14                	je     404f42 <__tcf_1+0x42>
  404f2e:	48 89 c3             	mov    %rax,%rbx
_ZNSt6vectorI5stateSaIS0_EED4Ev():
/usr/include/c++/10/bits/stl_vector.h:680 (discriminator 3)
	std::_Destroy(this->_M_impl._M_start, this->_M_impl._M_finish,
  404f31:	48 8b 3b             	mov    (%rbx),%rdi
_ZNSt12_Vector_baseI5stateSaIS0_EE13_M_deallocateEPS0_m():
/usr/include/c++/10/bits/stl_vector.h:353 (discriminator 3)
	if (__p)
  404f34:	48 85 ff             	test   %rdi,%rdi
  404f37:	75 e7                	jne    404f20 <__tcf_1+0x20>
__tcf_1():
/home/aliha951/ipdps-artifact/gapbs-master/src/libpfq_bfs.h:192
  404f39:	48 8d 43 e8          	lea    -0x18(%rbx),%rax
  404f3d:	48 39 eb             	cmp    %rbp,%rbx
  404f40:	75 ec                	jne    404f2e <__tcf_1+0x2e>
  404f42:	48 83 c4 08          	add    $0x8,%rsp
  404f46:	5b                   	pop    %rbx
  404f47:	5d                   	pop    %rbp
  404f48:	c3                   	retq   
  404f49:	0f 1f 80 00 00 00 00 	nopl   0x0(%rax)

0000000000404f50 <__tcf_0>:
__tcf_0():
/home/aliha951/ipdps-artifact/gapbs-master/src/libpfq_bfs.h:191
vector<state> curr_queue[NR_THREADS];
  404f50:	f3 0f 1e fa          	endbr64 
  404f54:	55                   	push   %rbp
  404f55:	53                   	push   %rbx
  404f56:	48 8d 1d ab 9d 01 00 	lea    0x19dab(%rip),%rbx        # 41ed08 <curr_queue+0x17e8>
  404f5d:	48 8d ab 18 e8 ff ff 	lea    -0x17e8(%rbx),%rbp
  404f64:	48 83 ec 08          	sub    $0x8,%rsp
  404f68:	eb 17                	jmp    404f81 <__tcf_0+0x31>
  404f6a:	66 0f 1f 44 00 00    	nopw   0x0(%rax,%rax,1)
_ZN9__gnu_cxx13new_allocatorI5stateE10deallocateEPS1_m():
/usr/include/c++/10/ext/new_allocator.h:139
  404f70:	e8 bb e9 ff ff       	callq  403930 <_ZdlPv@plt>
__tcf_0():
/home/aliha951/ipdps-artifact/gapbs-master/src/libpfq_bfs.h:191
  404f75:	48 8d 43 e8          	lea    -0x18(%rbx),%rax
  404f79:	48 39 eb             	cmp    %rbp,%rbx
  404f7c:	74 14                	je     404f92 <__tcf_0+0x42>
  404f7e:	48 89 c3             	mov    %rax,%rbx
_ZNSt6vectorI5stateSaIS0_EED4Ev():
/usr/include/c++/10/bits/stl_vector.h:680 (discriminator 3)
	std::_Destroy(this->_M_impl._M_start, this->_M_impl._M_finish,
  404f81:	48 8b 3b             	mov    (%rbx),%rdi
_ZNSt12_Vector_baseI5stateSaIS0_EE13_M_deallocateEPS0_m():
/usr/include/c++/10/bits/stl_vector.h:353 (discriminator 3)
	if (__p)
  404f84:	48 85 ff             	test   %rdi,%rdi
  404f87:	75 e7                	jne    404f70 <__tcf_0+0x20>
__tcf_0():
/home/aliha951/ipdps-artifact/gapbs-master/src/libpfq_bfs.h:191
  404f89:	48 8d 43 e8          	lea    -0x18(%rbx),%rax
  404f8d:	48 39 eb             	cmp    %rbp,%rbx
  404f90:	75 ec                	jne    404f7e <__tcf_0+0x2e>
  404f92:	48 83 c4 08          	add    $0x8,%rsp
  404f96:	5b                   	pop    %rbx
  404f97:	5d                   	pop    %rbp
  404f98:	c3                   	retq   
  404f99:	0f 1f 80 00 00 00 00 	nopl   0x0(%rax)

0000000000404fa0 <_ZL13get_family_idi>:
_ZL13get_family_idi():
/home/aliha951/ipdps-artifact/gapbs-master/src/taskstats_helper.h:30
	struct genlmsghdr g;
	char buf[512];
};

/* Ask generic netlink for the family id of TASKSTATS */
static int get_family_id(int sd) {
  404fa0:	41 54                	push   %r12
/home/aliha951/ipdps-artifact/gapbs-master/src/taskstats_helper.h:32
	struct msgtemplate req = {0};
	struct msgtemplate ans = {0};
  404fa2:	b9 42 00 00 00       	mov    $0x42,%ecx
/home/aliha951/ipdps-artifact/gapbs-master/src/taskstats_helper.h:30
static int get_family_id(int sd) {
  404fa7:	55                   	push   %rbp
  404fa8:	89 fd                	mov    %edi,%ebp
  404faa:	48 81 ec 48 04 00 00 	sub    $0x448,%rsp
  404fb1:	64 48 8b 04 25 28 00 	mov    %fs:0x28,%rax
  404fb8:	00 00 
  404fba:	48 89 84 24 38 04 00 	mov    %rax,0x438(%rsp)
  404fc1:	00 
  404fc2:	31 c0                	xor    %eax,%eax
/home/aliha951/ipdps-artifact/gapbs-master/src/taskstats_helper.h:32
	struct msgtemplate ans = {0};
  404fc4:	4c 8d a4 24 20 02 00 	lea    0x220(%rsp),%r12
  404fcb:	00 
  404fcc:	4c 89 e7             	mov    %r12,%rdi
  404fcf:	f3 48 ab             	rep stos %rax,%es:(%rdi)
/home/aliha951/ipdps-artifact/gapbs-master/src/taskstats_helper.h:31
	struct msgtemplate req = {0};
  404fd2:	b9 42 00 00 00       	mov    $0x42,%ecx
/home/aliha951/ipdps-artifact/gapbs-master/src/taskstats_helper.h:32
	struct msgtemplate ans = {0};
  404fd7:	c7 07 00 00 00 00    	movl   $0x0,(%rdi)
/home/aliha951/ipdps-artifact/gapbs-master/src/taskstats_helper.h:31
	struct msgtemplate req = {0};
  404fdd:	48 89 e7             	mov    %rsp,%rdi
  404fe0:	f3 48 ab             	rep stos %rax,%es:(%rdi)
/home/aliha951/ipdps-artifact/gapbs-master/src/taskstats_helper.h:36
	struct nlattr *na;
	int rep_len;

	req.n.nlmsg_len = NLMSG_LENGTH(GENL_HDRLEN);
  404fe3:	48 b8 14 00 00 00 10 	movabs $0x1001000000014,%rax
  404fea:	00 01 00 
  404fed:	48 89 04 24          	mov    %rax,(%rsp)
/home/aliha951/ipdps-artifact/gapbs-master/src/taskstats_helper.h:31
	struct msgtemplate req = {0};
  404ff1:	c7 07 00 00 00 00    	movl   $0x0,(%rdi)
/home/aliha951/ipdps-artifact/gapbs-master/src/taskstats_helper.h:40
	req.n.nlmsg_type = GENL_ID_CTRL;
	req.n.nlmsg_flags = NLM_F_REQUEST;
	req.n.nlmsg_seq = 0;
	req.n.nlmsg_pid = getpid();
  404ff7:	e8 34 eb ff ff       	callq  403b30 <getpid@plt>
/usr/include/x86_64-linux-gnu/bits/string_fortified.h:34

__fortify_function void *
__NTH (memcpy (void *__restrict __dest, const void *__restrict __src,
	       size_t __len))
{
  return __builtin___memcpy_chk (__dest, __src, __len, __bos0 (__dest));
  404ffc:	ba 53 00 00 00       	mov    $0x53,%edx
/home/aliha951/ipdps-artifact/gapbs-master/src/taskstats_helper.h:50
	na->nla_type = CTRL_ATTR_FAMILY_NAME;
	na->nla_len = NLA_HDRLEN + strlen(TASKSTATS_GENL_NAME) + 1;
	memcpy(NLA_DATA(na), TASKSTATS_GENL_NAME, strlen(TASKSTATS_GENL_NAME) + 1);
	req.n.nlmsg_len += NLMSG_ALIGN(na->nla_len);

	if (send(sd, &req, req.n.nlmsg_len, 0) < 0)
  405001:	31 c9                	xor    %ecx,%ecx
memcpy():
/usr/include/x86_64-linux-gnu/bits/string_fortified.h:34
  405003:	48 89 e6             	mov    %rsp,%rsi
_ZL13get_family_idi():
/home/aliha951/ipdps-artifact/gapbs-master/src/taskstats_helper.h:40
	req.n.nlmsg_pid = getpid();
  405006:	89 44 24 0c          	mov    %eax,0xc(%rsp)
/home/aliha951/ipdps-artifact/gapbs-master/src/taskstats_helper.h:41
	req.g.cmd = CTRL_CMD_GETFAMILY;
  40500a:	b8 03 01 00 00       	mov    $0x103,%eax
/home/aliha951/ipdps-artifact/gapbs-master/src/taskstats_helper.h:50
	if (send(sd, &req, req.n.nlmsg_len, 0) < 0)
  40500f:	89 ef                	mov    %ebp,%edi
/home/aliha951/ipdps-artifact/gapbs-master/src/taskstats_helper.h:41
	req.g.cmd = CTRL_CMD_GETFAMILY;
  405011:	66 89 44 24 10       	mov    %ax,0x10(%rsp)
memcpy():
/usr/include/x86_64-linux-gnu/bits/string_fortified.h:34
  405016:	48 b8 54 41 53 4b 53 	movabs $0x544154534b534154,%rax
  40501d:	54 41 54 
  405020:	48 89 44 24 18       	mov    %rax,0x18(%rsp)
_ZL13get_family_idi():
/home/aliha951/ipdps-artifact/gapbs-master/src/taskstats_helper.h:48
	req.n.nlmsg_len += NLMSG_ALIGN(na->nla_len);
  405025:	8b 04 24             	mov    (%rsp),%eax
memcpy():
/usr/include/x86_64-linux-gnu/bits/string_fortified.h:34
  405028:	66 89 54 24 20       	mov    %dx,0x20(%rsp)
_ZL13get_family_idi():
/home/aliha951/ipdps-artifact/gapbs-master/src/taskstats_helper.h:48
  40502d:	8d 50 10             	lea    0x10(%rax),%edx
/home/aliha951/ipdps-artifact/gapbs-master/src/taskstats_helper.h:46
	na->nla_len = NLA_HDRLEN + strlen(TASKSTATS_GENL_NAME) + 1;
  405030:	c7 44 24 14 0e 00 02 	movl   $0x2000e,0x14(%rsp)
  405037:	00 
/home/aliha951/ipdps-artifact/gapbs-master/src/taskstats_helper.h:48
	req.n.nlmsg_len += NLMSG_ALIGN(na->nla_len);
  405038:	89 14 24             	mov    %edx,(%rsp)
/home/aliha951/ipdps-artifact/gapbs-master/src/taskstats_helper.h:50
	if (send(sd, &req, req.n.nlmsg_len, 0) < 0)
  40503b:	e8 d0 e7 ff ff       	callq  403810 <send@plt>
  405040:	48 85 c0             	test   %rax,%rax
  405043:	78 6b                	js     4050b0 <_ZL13get_family_idi+0x110>
/usr/include/x86_64-linux-gnu/bits/socket2.h:44
	return __recv_chk (__fd, __buf, __n, __bos0 (__buf), __flags);

      if (__n > __bos0 (__buf))
	return __recv_chk_warn (__fd, __buf, __n, __bos0 (__buf), __flags);
    }
  return __recv_alias (__fd, __buf, __n, __flags);
  405045:	31 c9                	xor    %ecx,%ecx
recv():
/usr/include/x86_64-linux-gnu/bits/socket2.h:44
  405047:	ba 14 02 00 00       	mov    $0x214,%edx
  40504c:	4c 89 e6             	mov    %r12,%rsi
  40504f:	89 ef                	mov    %ebp,%edi
  405051:	e8 5a e7 ff ff       	callq  4037b0 <recv@plt>
_ZL13get_family_idi():
/home/aliha951/ipdps-artifact/gapbs-master/src/taskstats_helper.h:54
		return -1;

	rep_len = recv(sd, &ans, sizeof(ans), 0);
	if (rep_len < 0 || ans.n.nlmsg_type == NLMSG_ERROR)
  405056:	85 c0                	test   %eax,%eax
  405058:	78 56                	js     4050b0 <_ZL13get_family_idi+0x110>
/home/aliha951/ipdps-artifact/gapbs-master/src/taskstats_helper.h:54 (discriminator 1)
  40505a:	66 83 bc 24 24 02 00 	cmpw   $0x2,0x224(%rsp)
  405061:	00 02 
  405063:	74 4b                	je     4050b0 <_ZL13get_family_idi+0x110>
/home/aliha951/ipdps-artifact/gapbs-master/src/taskstats_helper.h:59
		return -1;

	/* First attr is family name we sent, second should be ID */
	na = (struct nlattr *) GENLMSG_DATA(&ans.n);
	na = (struct nlattr *) ((char*)na + NLA_ALIGN(na->nla_len));
  405065:	0f b7 84 24 34 02 00 	movzwl 0x234(%rsp),%eax
  40506c:	00 
  40506d:	83 c0 03             	add    $0x3,%eax
  405070:	25 fc ff 01 00       	and    $0x1fffc,%eax
  405075:	48 8d 84 04 34 02 00 	lea    0x234(%rsp,%rax,1),%rax
  40507c:	00 
/home/aliha951/ipdps-artifact/gapbs-master/src/taskstats_helper.h:60
	if (na->nla_type == CTRL_ATTR_FAMILY_ID)
  40507d:	66 83 78 02 01       	cmpw   $0x1,0x2(%rax)
  405082:	75 2c                	jne    4050b0 <_ZL13get_family_idi+0x110>
/home/aliha951/ipdps-artifact/gapbs-master/src/taskstats_helper.h:61
		return *(__u16 *) NLA_DATA(na);
  405084:	0f b7 40 04          	movzwl 0x4(%rax),%eax
/home/aliha951/ipdps-artifact/gapbs-master/src/taskstats_helper.h:63
	return -1;
}
  405088:	48 8b b4 24 38 04 00 	mov    0x438(%rsp),%rsi
  40508f:	00 
  405090:	64 48 2b 34 25 28 00 	sub    %fs:0x28,%rsi
  405097:	00 00 
  405099:	75 1c                	jne    4050b7 <_ZL13get_family_idi+0x117>
  40509b:	48 81 c4 48 04 00 00 	add    $0x448,%rsp
  4050a2:	5d                   	pop    %rbp
  4050a3:	41 5c                	pop    %r12
  4050a5:	c3                   	retq   
  4050a6:	66 2e 0f 1f 84 00 00 	nopw   %cs:0x0(%rax,%rax,1)
  4050ad:	00 00 00 
/home/aliha951/ipdps-artifact/gapbs-master/src/taskstats_helper.h:51
		return -1;
  4050b0:	b8 ff ff ff ff       	mov    $0xffffffff,%eax
  4050b5:	eb d1                	jmp    405088 <_ZL13get_family_idi+0xe8>
/home/aliha951/ipdps-artifact/gapbs-master/src/taskstats_helper.h:63
}
  4050b7:	e8 f4 e8 ff ff       	callq  4039b0 <__stack_chk_fail@plt>
  4050bc:	0f 1f 40 00          	nopl   0x0(%rax)

00000000004050c0 <_ZL21request_taskstats_pidiiiP9taskstatsPm>:
_ZL21request_taskstats_pidiiiP9taskstatsPm():
/home/aliha951/ipdps-artifact/gapbs-master/src/taskstats_helper.h:80
		return -1;
	}
	return sd;
}

static int request_taskstats_pid(int sd, int family_id, pid_t pid, struct taskstats *out_ts, size_t *out_len) {
  4050c0:	41 57                	push   %r15
  4050c2:	41 89 d7             	mov    %edx,%r15d
  4050c5:	41 56                	push   %r14
  4050c7:	41 55                	push   %r13
  4050c9:	41 89 fd             	mov    %edi,%r13d
  4050cc:	41 54                	push   %r12
  4050ce:	49 89 cc             	mov    %rcx,%r12
/home/aliha951/ipdps-artifact/gapbs-master/src/taskstats_helper.h:81
	struct msgtemplate req = {0};
  4050d1:	b9 42 00 00 00       	mov    $0x42,%ecx
/home/aliha951/ipdps-artifact/gapbs-master/src/taskstats_helper.h:80
static int request_taskstats_pid(int sd, int family_id, pid_t pid, struct taskstats *out_ts, size_t *out_len) {
  4050d6:	55                   	push   %rbp
/usr/include/x86_64-linux-gnu/bits/string_fortified.h:71
    {
      __warn_memset_zero_len ();
      return __dest;
    }
#endif
  return __builtin___memset_chk (__dest, __ch, __len, __bos0 (__dest));
  4050d7:	49 8d 6c 24 08       	lea    0x8(%r12),%rbp
/home/aliha951/ipdps-artifact/gapbs-master/src/taskstats_helper.h:80
  4050dc:	53                   	push   %rbx
  4050dd:	4c 89 c3             	mov    %r8,%rbx
  4050e0:	48 81 ec 48 04 00 00 	sub    $0x448,%rsp
  4050e7:	64 48 8b 04 25 28 00 	mov    %fs:0x28,%rax
  4050ee:	00 00 
  4050f0:	48 89 84 24 38 04 00 	mov    %rax,0x438(%rsp)
  4050f7:	00 
  4050f8:	31 c0                	xor    %eax,%eax
/home/aliha951/ipdps-artifact/gapbs-master/src/taskstats_helper.h:81
	struct msgtemplate req = {0};
  4050fa:	48 89 e7             	mov    %rsp,%rdi
/home/aliha951/ipdps-artifact/gapbs-master/src/taskstats_helper.h:85
	struct msgtemplate rep = {0};
	struct nlattr *na;

	*out_len = 0;
  4050fd:	49 c7 00 00 00 00 00 	movq   $0x0,(%r8)
/home/aliha951/ipdps-artifact/gapbs-master/src/taskstats_helper.h:82
	struct msgtemplate rep = {0};
  405104:	4c 8d b4 24 20 02 00 	lea    0x220(%rsp),%r14
  40510b:	00 
/home/aliha951/ipdps-artifact/gapbs-master/src/taskstats_helper.h:81
	struct msgtemplate req = {0};
  40510c:	f3 48 ab             	rep stos %rax,%es:(%rdi)
/home/aliha951/ipdps-artifact/gapbs-master/src/taskstats_helper.h:82
	struct msgtemplate rep = {0};
  40510f:	b9 42 00 00 00       	mov    $0x42,%ecx
/home/aliha951/ipdps-artifact/gapbs-master/src/taskstats_helper.h:81
	struct msgtemplate req = {0};
  405114:	c7 07 00 00 00 00    	movl   $0x0,(%rdi)
/home/aliha951/ipdps-artifact/gapbs-master/src/taskstats_helper.h:82
	struct msgtemplate rep = {0};
  40511a:	4c 89 f7             	mov    %r14,%rdi
  40511d:	f3 48 ab             	rep stos %rax,%es:(%rdi)
memset():
/usr/include/x86_64-linux-gnu/bits/string_fortified.h:71
  405120:	4c 89 e1             	mov    %r12,%rcx
_ZL21request_taskstats_pidiiiP9taskstatsPm():
/home/aliha951/ipdps-artifact/gapbs-master/src/taskstats_helper.h:82
  405123:	c7 07 00 00 00 00    	movl   $0x0,(%rdi)
memset():
/usr/include/x86_64-linux-gnu/bits/string_fortified.h:71
  405129:	48 89 ef             	mov    %rbp,%rdi
  40512c:	48 83 e7 f8          	and    $0xfffffffffffffff8,%rdi
  405130:	49 c7 04 24 00 00 00 	movq   $0x0,(%r12)
  405137:	00 
  405138:	49 c7 84 24 a8 01 00 	movq   $0x0,0x1a8(%r12)
  40513f:	00 00 00 00 00 
  405144:	48 29 f9             	sub    %rdi,%rcx
  405147:	81 c1 b0 01 00 00    	add    $0x1b0,%ecx
  40514d:	c1 e9 03             	shr    $0x3,%ecx
  405150:	f3 48 ab             	rep stos %rax,%es:(%rdi)
_ZL21request_taskstats_pidiiiP9taskstatsPm():
/home/aliha951/ipdps-artifact/gapbs-master/src/taskstats_helper.h:90
	memset(out_ts, 0, sizeof(*out_ts));

	req.n.nlmsg_len = NLMSG_LENGTH(GENL_HDRLEN);
	req.n.nlmsg_type = family_id;
	req.n.nlmsg_flags = NLM_F_REQUEST;
  405153:	b8 01 00 00 00       	mov    $0x1,%eax
/home/aliha951/ipdps-artifact/gapbs-master/src/taskstats_helper.h:89
	req.n.nlmsg_type = family_id;
  405158:	66 89 74 24 04       	mov    %si,0x4(%rsp)
/home/aliha951/ipdps-artifact/gapbs-master/src/taskstats_helper.h:88
	req.n.nlmsg_len = NLMSG_LENGTH(GENL_HDRLEN);
  40515d:	c7 04 24 14 00 00 00 	movl   $0x14,(%rsp)
/home/aliha951/ipdps-artifact/gapbs-master/src/taskstats_helper.h:90
	req.n.nlmsg_flags = NLM_F_REQUEST;
  405164:	66 89 44 24 06       	mov    %ax,0x6(%rsp)
/home/aliha951/ipdps-artifact/gapbs-master/src/taskstats_helper.h:91
	req.n.nlmsg_seq = 1;
  405169:	c7 44 24 08 01 00 00 	movl   $0x1,0x8(%rsp)
  405170:	00 
/home/aliha951/ipdps-artifact/gapbs-master/src/taskstats_helper.h:92
	req.n.nlmsg_pid = getpid();
  405171:	e8 ba e9 ff ff       	callq  403b30 <getpid@plt>
/home/aliha951/ipdps-artifact/gapbs-master/src/taskstats_helper.h:93
	req.g.cmd = TASKSTATS_CMD_GET;
  405176:	ba 01 0e 00 00       	mov    $0xe01,%edx
/home/aliha951/ipdps-artifact/gapbs-master/src/taskstats_helper.h:103
  na->nla_type = TASKSTATS_CMD_ATTR_TGID; // Use TGID to get stats for thread group (process) instead of single thread
	na->nla_len = NLA_HDRLEN + sizeof(pid);
	memcpy(NLA_DATA(na), &pid, sizeof(pid));
	req.n.nlmsg_len += NLMSG_ALIGN(na->nla_len);

	if (send(sd, &req, req.n.nlmsg_len, 0) < 0)
  40517b:	31 c9                	xor    %ecx,%ecx
  40517d:	48 89 e6             	mov    %rsp,%rsi
/home/aliha951/ipdps-artifact/gapbs-master/src/taskstats_helper.h:92
	req.n.nlmsg_pid = getpid();
  405180:	89 44 24 0c          	mov    %eax,0xc(%rsp)
/home/aliha951/ipdps-artifact/gapbs-master/src/taskstats_helper.h:101
	req.n.nlmsg_len += NLMSG_ALIGN(na->nla_len);
  405184:	8b 04 24             	mov    (%rsp),%eax
/home/aliha951/ipdps-artifact/gapbs-master/src/taskstats_helper.h:103
	if (send(sd, &req, req.n.nlmsg_len, 0) < 0)
  405187:	44 89 ef             	mov    %r13d,%edi
/home/aliha951/ipdps-artifact/gapbs-master/src/taskstats_helper.h:93
	req.g.cmd = TASKSTATS_CMD_GET;
  40518a:	66 89 54 24 10       	mov    %dx,0x10(%rsp)
/home/aliha951/ipdps-artifact/gapbs-master/src/taskstats_helper.h:101
	req.n.nlmsg_len += NLMSG_ALIGN(na->nla_len);
  40518f:	8d 50 08             	lea    0x8(%rax),%edx
/home/aliha951/ipdps-artifact/gapbs-master/src/taskstats_helper.h:99
	na->nla_len = NLA_HDRLEN + sizeof(pid);
  405192:	c7 44 24 14 08 00 02 	movl   $0x20008,0x14(%rsp)
  405199:	00 
/usr/include/x86_64-linux-gnu/bits/string_fortified.h:34
  return __builtin___memcpy_chk (__dest, __src, __len, __bos0 (__dest));
  40519a:	44 89 7c 24 18       	mov    %r15d,0x18(%rsp)
/home/aliha951/ipdps-artifact/gapbs-master/src/taskstats_helper.h:101
	req.n.nlmsg_len += NLMSG_ALIGN(na->nla_len);
  40519f:	89 14 24             	mov    %edx,(%rsp)
/home/aliha951/ipdps-artifact/gapbs-master/src/taskstats_helper.h:103
	if (send(sd, &req, req.n.nlmsg_len, 0) < 0)
  4051a2:	e8 69 e6 ff ff       	callq  403810 <send@plt>
  4051a7:	48 85 c0             	test   %rax,%rax
  4051aa:	0f 88 18 01 00 00    	js     4052c8 <_ZL21request_taskstats_pidiiiP9taskstatsPm+0x208>
/usr/include/x86_64-linux-gnu/bits/socket2.h:44
  4051b0:	31 c9                	xor    %ecx,%ecx
recv():
/usr/include/x86_64-linux-gnu/bits/socket2.h:44
  4051b2:	ba 14 02 00 00       	mov    $0x214,%edx
  4051b7:	4c 89 f6             	mov    %r14,%rsi
  4051ba:	44 89 ef             	mov    %r13d,%edi
  4051bd:	e8 ee e5 ff ff       	callq  4037b0 <recv@plt>
_ZL21request_taskstats_pidiiiP9taskstatsPm():
/home/aliha951/ipdps-artifact/gapbs-master/src/taskstats_helper.h:105
		return -1;
	if (recv(sd, &rep, sizeof(rep), 0) < 0)
  4051c2:	48 85 c0             	test   %rax,%rax
  4051c5:	0f 88 fd 00 00 00    	js     4052c8 <_ZL21request_taskstats_pidiiiP9taskstatsPm+0x208>
/home/aliha951/ipdps-artifact/gapbs-master/src/taskstats_helper.h:109
		return -1;

	na = (struct nlattr *) GENLMSG_DATA(&rep.n);
	int rem = rep.n.nlmsg_len - NLMSG_LENGTH(GENL_HDRLEN);
  4051cb:	8b 84 24 20 02 00 00 	mov    0x220(%rsp),%eax
  4051d2:	8d 70 ec             	lea    -0x14(%rax),%esi
/home/aliha951/ipdps-artifact/gapbs-master/src/taskstats_helper.h:110
	while (rem > 0 && na->nla_len >= NLA_HDRLEN && rem >= na->nla_len) {
  4051d5:	85 f6                	test   %esi,%esi
  4051d7:	0f 8e eb 00 00 00    	jle    4052c8 <_ZL21request_taskstats_pidiiiP9taskstatsPm+0x208>
/home/aliha951/ipdps-artifact/gapbs-master/src/taskstats_helper.h:108
	na = (struct nlattr *) GENLMSG_DATA(&rep.n);
  4051dd:	48 8d 8c 24 34 02 00 	lea    0x234(%rsp),%rcx
  4051e4:	00 
  4051e5:	eb 29                	jmp    405210 <_ZL21request_taskstats_pidiiiP9taskstatsPm+0x150>
  4051e7:	66 0f 1f 84 00 00 00 	nopw   0x0(%rax,%rax,1)
  4051ee:	00 00 
/home/aliha951/ipdps-artifact/gapbs-master/src/taskstats_helper.h:126
				}
				int step2 = NLA_ALIGN(n2->nla_len);
				aggr_len -= step2;
				n2 = (struct nlattr *) ((char*)n2 + step2);
			}
		} else if (na->nla_type == TASKSTATS_TYPE_STATS) {
  4051f0:	66 83 f8 03          	cmp    $0x3,%ax
  4051f4:	0f 84 26 01 00 00    	je     405320 <_ZL21request_taskstats_pidiiiP9taskstatsPm+0x260>
/home/aliha951/ipdps-artifact/gapbs-master/src/taskstats_helper.h:133
			if (payload > sizeof(*out_ts)) payload = sizeof(*out_ts);
			memcpy(out_ts, NLA_DATA(na), payload);
			*out_len = payload;
			return 0;
		}
		int step = NLA_ALIGN(na->nla_len);
  4051fa:	83 c2 03             	add    $0x3,%edx
  4051fd:	83 e2 fc             	and    $0xfffffffc,%edx
/home/aliha951/ipdps-artifact/gapbs-master/src/taskstats_helper.h:134
		rem -= step;
  405200:	29 d6                	sub    %edx,%esi
/home/aliha951/ipdps-artifact/gapbs-master/src/taskstats_helper.h:135
		na = (struct nlattr *) ((char*)na + step);
  405202:	48 63 d2             	movslq %edx,%rdx
  405205:	48 01 d1             	add    %rdx,%rcx
/home/aliha951/ipdps-artifact/gapbs-master/src/taskstats_helper.h:110
	while (rem > 0 && na->nla_len >= NLA_HDRLEN && rem >= na->nla_len) {
  405208:	85 f6                	test   %esi,%esi
  40520a:	0f 8e b8 00 00 00    	jle    4052c8 <_ZL21request_taskstats_pidiiiP9taskstatsPm+0x208>
/home/aliha951/ipdps-artifact/gapbs-master/src/taskstats_helper.h:110 (discriminator 1)
  405210:	0f b7 11             	movzwl (%rcx),%edx
  405213:	66 83 fa 03          	cmp    $0x3,%dx
  405217:	0f 86 ab 00 00 00    	jbe    4052c8 <_ZL21request_taskstats_pidiiiP9taskstatsPm+0x208>
/home/aliha951/ipdps-artifact/gapbs-master/src/taskstats_helper.h:110 (discriminator 2)
  40521d:	39 f2                	cmp    %esi,%edx
  40521f:	0f 8f a3 00 00 00    	jg     4052c8 <_ZL21request_taskstats_pidiiiP9taskstatsPm+0x208>
/home/aliha951/ipdps-artifact/gapbs-master/src/taskstats_helper.h:111
		if (na->nla_type == TASKSTATS_TYPE_AGGR_PID || na->nla_type == TASKSTATS_TYPE_AGGR_TGID) {
  405225:	0f b7 41 02          	movzwl 0x2(%rcx),%eax
  405229:	8d 78 fc             	lea    -0x4(%rax),%edi
  40522c:	66 83 ff 01          	cmp    $0x1,%di
  405230:	77 be                	ja     4051f0 <_ZL21request_taskstats_pidiiiP9taskstatsPm+0x130>
/home/aliha951/ipdps-artifact/gapbs-master/src/taskstats_helper.h:114
			while (aggr_len > 0 && n2->nla_len >= NLA_HDRLEN && aggr_len >= n2->nla_len) {
  405232:	41 89 d0             	mov    %edx,%r8d
/home/aliha951/ipdps-artifact/gapbs-master/src/taskstats_helper.h:113
			struct nlattr *n2 = (struct nlattr *) NLA_DATA(na);
  405235:	48 8d 79 04          	lea    0x4(%rcx),%rdi
/home/aliha951/ipdps-artifact/gapbs-master/src/taskstats_helper.h:114
			while (aggr_len > 0 && n2->nla_len >= NLA_HDRLEN && aggr_len >= n2->nla_len) {
  405239:	41 83 e8 04          	sub    $0x4,%r8d
  40523d:	75 1c                	jne    40525b <_ZL21request_taskstats_pidiiiP9taskstatsPm+0x19b>
  40523f:	eb b9                	jmp    4051fa <_ZL21request_taskstats_pidiiiP9taskstatsPm+0x13a>
  405241:	0f 1f 80 00 00 00 00 	nopl   0x0(%rax)
/home/aliha951/ipdps-artifact/gapbs-master/src/taskstats_helper.h:122
				int step2 = NLA_ALIGN(n2->nla_len);
  405248:	83 c0 03             	add    $0x3,%eax
  40524b:	83 e0 fc             	and    $0xfffffffc,%eax
/home/aliha951/ipdps-artifact/gapbs-master/src/taskstats_helper.h:123
				aggr_len -= step2;
  40524e:	41 29 c0             	sub    %eax,%r8d
/home/aliha951/ipdps-artifact/gapbs-master/src/taskstats_helper.h:124
				n2 = (struct nlattr *) ((char*)n2 + step2);
  405251:	48 98                	cltq   
  405253:	48 01 c7             	add    %rax,%rdi
/home/aliha951/ipdps-artifact/gapbs-master/src/taskstats_helper.h:114
			while (aggr_len > 0 && n2->nla_len >= NLA_HDRLEN && aggr_len >= n2->nla_len) {
  405256:	45 85 c0             	test   %r8d,%r8d
  405259:	7e 9f                	jle    4051fa <_ZL21request_taskstats_pidiiiP9taskstatsPm+0x13a>
/home/aliha951/ipdps-artifact/gapbs-master/src/taskstats_helper.h:114 (discriminator 1)
  40525b:	0f b7 07             	movzwl (%rdi),%eax
  40525e:	66 83 f8 03          	cmp    $0x3,%ax
  405262:	76 96                	jbe    4051fa <_ZL21request_taskstats_pidiiiP9taskstatsPm+0x13a>
/home/aliha951/ipdps-artifact/gapbs-master/src/taskstats_helper.h:114 (discriminator 2)
  405264:	44 39 c0             	cmp    %r8d,%eax
  405267:	7f 91                	jg     4051fa <_ZL21request_taskstats_pidiiiP9taskstatsPm+0x13a>
/home/aliha951/ipdps-artifact/gapbs-master/src/taskstats_helper.h:115
				if (n2->nla_type == TASKSTATS_TYPE_STATS) {
  405269:	66 83 7f 02 03       	cmpw   $0x3,0x2(%rdi)
  40526e:	75 d8                	jne    405248 <_ZL21request_taskstats_pidiiiP9taskstatsPm+0x188>
/home/aliha951/ipdps-artifact/gapbs-master/src/taskstats_helper.h:116
					size_t payload = n2->nla_len - NLA_HDRLEN;
  405270:	83 e8 04             	sub    $0x4,%eax
  405273:	ba b0 01 00 00       	mov    $0x1b0,%edx
/home/aliha951/ipdps-artifact/gapbs-master/src/taskstats_helper.h:118
					memcpy(out_ts, NLA_DATA(n2), payload);
  405278:	48 8d 77 04          	lea    0x4(%rdi),%rsi
/home/aliha951/ipdps-artifact/gapbs-master/src/taskstats_helper.h:116
					size_t payload = n2->nla_len - NLA_HDRLEN;
  40527c:	48 98                	cltq   
/home/aliha951/ipdps-artifact/gapbs-master/src/taskstats_helper.h:117
					if (payload > sizeof(*out_ts)) payload = sizeof(*out_ts);
  40527e:	48 3d b0 01 00 00    	cmp    $0x1b0,%rax
  405284:	48 0f 47 c2          	cmova  %rdx,%rax
/usr/include/x86_64-linux-gnu/bits/string_fortified.h:34
  405288:	83 f8 08             	cmp    $0x8,%eax
memcpy():
/usr/include/x86_64-linux-gnu/bits/string_fortified.h:34
  40528b:	72 6b                	jb     4052f8 <_ZL21request_taskstats_pidiiiP9taskstatsPm+0x238>
  40528d:	48 8b 57 04          	mov    0x4(%rdi),%rdx
_ZL21request_taskstats_pidiiiP9taskstatsPm():
/usr/include/x86_64-linux-gnu/bits/string_fortified.h:34
  405291:	49 89 14 24          	mov    %rdx,(%r12)
memcpy():
/usr/include/x86_64-linux-gnu/bits/string_fortified.h:34
  405295:	89 c2                	mov    %eax,%edx
  405297:	48 89 ef             	mov    %rbp,%rdi
  40529a:	48 8b 4c 16 f8       	mov    -0x8(%rsi,%rdx,1),%rcx
  40529f:	48 83 e7 f8          	and    $0xfffffffffffffff8,%rdi
  4052a3:	49 89 4c 14 f8       	mov    %rcx,-0x8(%r12,%rdx,1)
  4052a8:	49 29 fc             	sub    %rdi,%r12
  4052ab:	4c 29 e6             	sub    %r12,%rsi
  4052ae:	41 01 c4             	add    %eax,%r12d
  4052b1:	41 c1 ec 03          	shr    $0x3,%r12d
  4052b5:	44 89 e1             	mov    %r12d,%ecx
  4052b8:	f3 48 a5             	rep movsq %ds:(%rsi),%es:(%rdi)
_ZL21request_taskstats_pidiiiP9taskstatsPm():
/home/aliha951/ipdps-artifact/gapbs-master/src/taskstats_helper.h:130
			*out_len = payload;
  4052bb:	48 89 03             	mov    %rax,(%rbx)
/home/aliha951/ipdps-artifact/gapbs-master/src/taskstats_helper.h:131
			return 0;
  4052be:	31 c0                	xor    %eax,%eax
  4052c0:	eb 0b                	jmp    4052cd <_ZL21request_taskstats_pidiiiP9taskstatsPm+0x20d>
  4052c2:	66 0f 1f 44 00 00    	nopw   0x0(%rax,%rax,1)
/home/aliha951/ipdps-artifact/gapbs-master/src/taskstats_helper.h:104
		return -1;
  4052c8:	b8 ff ff ff ff       	mov    $0xffffffff,%eax
/home/aliha951/ipdps-artifact/gapbs-master/src/taskstats_helper.h:138
	}
	return -1; /* Not found */
}
  4052cd:	48 8b 9c 24 38 04 00 	mov    0x438(%rsp),%rbx
  4052d4:	00 
  4052d5:	64 48 2b 1c 25 28 00 	sub    %fs:0x28,%rbx
  4052dc:	00 00 
  4052de:	75 7c                	jne    40535c <_ZL21request_taskstats_pidiiiP9taskstatsPm+0x29c>
  4052e0:	48 81 c4 48 04 00 00 	add    $0x448,%rsp
  4052e7:	5b                   	pop    %rbx
  4052e8:	5d                   	pop    %rbp
  4052e9:	41 5c                	pop    %r12
  4052eb:	41 5d                	pop    %r13
  4052ed:	41 5e                	pop    %r14
  4052ef:	41 5f                	pop    %r15
  4052f1:	c3                   	retq   
  4052f2:	66 0f 1f 44 00 00    	nopw   0x0(%rax,%rax,1)
memcpy():
/usr/include/x86_64-linux-gnu/bits/string_fortified.h:34
  4052f8:	a8 04                	test   $0x4,%al
  4052fa:	75 4a                	jne    405346 <_ZL21request_taskstats_pidiiiP9taskstatsPm+0x286>
  4052fc:	85 c0                	test   %eax,%eax
  4052fe:	74 bb                	je     4052bb <_ZL21request_taskstats_pidiiiP9taskstatsPm+0x1fb>
  405300:	0f b6 16             	movzbl (%rsi),%edx
  405303:	41 88 14 24          	mov    %dl,(%r12)
  405307:	a8 02                	test   $0x2,%al
  405309:	74 b0                	je     4052bb <_ZL21request_taskstats_pidiiiP9taskstatsPm+0x1fb>
  40530b:	89 c2                	mov    %eax,%edx
  40530d:	0f b7 4c 16 fe       	movzwl -0x2(%rsi,%rdx,1),%ecx
  405312:	66 41 89 4c 14 fe    	mov    %cx,-0x2(%r12,%rdx,1)
  405318:	eb a1                	jmp    4052bb <_ZL21request_taskstats_pidiiiP9taskstatsPm+0x1fb>
  40531a:	66 0f 1f 44 00 00    	nopw   0x0(%rax,%rax,1)
_ZL21request_taskstats_pidiiiP9taskstatsPm():
/home/aliha951/ipdps-artifact/gapbs-master/src/taskstats_helper.h:127
			size_t payload = na->nla_len - NLA_HDRLEN;
  405320:	8d 42 fc             	lea    -0x4(%rdx),%eax
  405323:	ba b0 01 00 00       	mov    $0x1b0,%edx
/home/aliha951/ipdps-artifact/gapbs-master/src/taskstats_helper.h:129
			memcpy(out_ts, NLA_DATA(na), payload);
  405328:	48 8d 71 04          	lea    0x4(%rcx),%rsi
/home/aliha951/ipdps-artifact/gapbs-master/src/taskstats_helper.h:127
			size_t payload = na->nla_len - NLA_HDRLEN;
  40532c:	48 98                	cltq   
/home/aliha951/ipdps-artifact/gapbs-master/src/taskstats_helper.h:128
			if (payload > sizeof(*out_ts)) payload = sizeof(*out_ts);
  40532e:	48 3d b0 01 00 00    	cmp    $0x1b0,%rax
  405334:	48 0f 47 c2          	cmova  %rdx,%rax
memcpy():
/usr/include/x86_64-linux-gnu/bits/string_fortified.h:34
  405338:	83 f8 08             	cmp    $0x8,%eax
  40533b:	72 bb                	jb     4052f8 <_ZL21request_taskstats_pidiiiP9taskstatsPm+0x238>
  40533d:	48 8b 51 04          	mov    0x4(%rcx),%rdx
  405341:	e9 4b ff ff ff       	jmpq   405291 <_ZL21request_taskstats_pidiiiP9taskstatsPm+0x1d1>
  405346:	8b 16                	mov    (%rsi),%edx
  405348:	41 89 14 24          	mov    %edx,(%r12)
  40534c:	89 c2                	mov    %eax,%edx
  40534e:	8b 4c 16 fc          	mov    -0x4(%rsi,%rdx,1),%ecx
  405352:	41 89 4c 14 fc       	mov    %ecx,-0x4(%r12,%rdx,1)
  405357:	e9 5f ff ff ff       	jmpq   4052bb <_ZL21request_taskstats_pidiiiP9taskstatsPm+0x1fb>
_ZL21request_taskstats_pidiiiP9taskstatsPm():
/home/aliha951/ipdps-artifact/gapbs-master/src/taskstats_helper.h:138
}
  40535c:	e8 4f e6 ff ff       	callq  4039b0 <__stack_chk_fail@plt>
  405361:	66 66 2e 0f 1f 84 00 	data16 nopw %cs:0x0(%rax,%rax,1)
  405368:	00 00 00 00 
  40536c:	0f 1f 40 00          	nopl   0x0(%rax)

0000000000405370 <_Z12clear_queuesPFvR5stateE._omp_fn.1>:
_Z12clear_queuesPFvR5stateE._omp_fn.1():
/home/aliha951/ipdps-artifact/gapbs-master/src/libpfq_bfs.h:248
  #pragma omp parallel for
  405370:	f3 0f 1e fa          	endbr64 
  405374:	41 56                	push   %r14
  405376:	41 55                	push   %r13
  405378:	41 54                	push   %r12
  40537a:	55                   	push   %rbp
  40537b:	48 89 fd             	mov    %rdi,%rbp
  40537e:	53                   	push   %rbx
  40537f:	e8 9c e7 ff ff       	callq  403b20 <omp_get_num_threads@plt>
  405384:	89 c3                	mov    %eax,%ebx
  405386:	e8 55 e6 ff ff       	callq  4039e0 <omp_get_thread_num@plt>
  40538b:	89 c1                	mov    %eax,%ecx
  40538d:	8b 45 08             	mov    0x8(%rbp),%eax
  405390:	99                   	cltd   
  405391:	f7 fb                	idiv   %ebx
  405393:	39 d1                	cmp    %edx,%ecx
  405395:	0f 8c c0 00 00 00    	jl     40545b <_Z12clear_queuesPFvR5stateE._omp_fn.1+0xeb>
  40539b:	0f af c8             	imul   %eax,%ecx
  40539e:	01 ca                	add    %ecx,%edx
  4053a0:	8d 0c 10             	lea    (%rax,%rdx,1),%ecx
  4053a3:	39 ca                	cmp    %ecx,%edx
  4053a5:	0f 8d a7 00 00 00    	jge    405452 <_Z12clear_queuesPFvR5stateE._omp_fn.1+0xe2>
  4053ab:	48 63 d2             	movslq %edx,%rdx
  4053ae:	83 e8 01             	sub    $0x1,%eax
  4053b1:	48 8b 6d 00          	mov    0x0(%rbp),%rbp
  4053b5:	4c 8d 25 64 69 01 00 	lea    0x16964(%rip),%r12        # 41bd20 <shipped_queue>
  4053bc:	4c 8d 2c 52          	lea    (%rdx,%rdx,2),%r13
  4053c0:	48 01 c2             	add    %rax,%rdx
  4053c3:	48 8d 0d 56 81 01 00 	lea    0x18156(%rip),%rcx        # 41d520 <curr_queue>
  4053ca:	49 c1 e5 03          	shl    $0x3,%r13
  4053ce:	48 8d 14 52          	lea    (%rdx,%rdx,2),%rdx
  4053d2:	48 8d 05 5f 69 01 00 	lea    0x1695f(%rip),%rax        # 41bd38 <shipped_queue+0x18>
  4053d9:	4d 01 ec             	add    %r13,%r12
  4053dc:	4c 8d 34 d0          	lea    (%rax,%rdx,8),%r14
  4053e0:	49 01 cd             	add    %rcx,%r13
  4053e3:	0f 1f 44 00 00       	nopl   0x0(%rax,%rax,1)
_ZN9__gnu_cxx17__normal_iteratorIP5stateSt6vectorIS1_SaIS1_EEEC4ERKS2_():
/usr/include/c++/10/bits/stl_iterator.h:996 (discriminator 5)
      _GLIBCXX_CONSTEXPR __normal_iterator() _GLIBCXX_NOEXCEPT
      : _M_current(_Iterator()) { }

      explicit _GLIBCXX20_CONSTEXPR
      __normal_iterator(const _Iterator& __i) _GLIBCXX_NOEXCEPT
      : _M_current(__i) { }
  4053e8:	49 8b 1c 24          	mov    (%r12),%rbx
_Z12resume_queueRSt6vectorI5stateSaIS0_EEPFvRS0_E():
/home/aliha951/ipdps-artifact/gapbs-master/src/libpfq_bfs.h:231 (discriminator 5)
  for (auto rq_it = queue.begin(); rq_it != queue.end(); ++rq_it)
  4053ec:	49 3b 5c 24 08       	cmp    0x8(%r12),%rbx
  4053f1:	74 15                	je     405408 <_Z12clear_queuesPFvR5stateE._omp_fn.1+0x98>
  4053f3:	0f 1f 44 00 00       	nopl   0x0(%rax,%rax,1)
/home/aliha951/ipdps-artifact/gapbs-master/src/libpfq_bfs.h:233
    func(*rq_it);
  4053f8:	48 89 df             	mov    %rbx,%rdi
/home/aliha951/ipdps-artifact/gapbs-master/src/libpfq_bfs.h:231
  for (auto rq_it = queue.begin(); rq_it != queue.end(); ++rq_it)
  4053fb:	48 83 c3 18          	add    $0x18,%rbx
/home/aliha951/ipdps-artifact/gapbs-master/src/libpfq_bfs.h:233
    func(*rq_it);
  4053ff:	ff d5                	callq  *%rbp
/home/aliha951/ipdps-artifact/gapbs-master/src/libpfq_bfs.h:231
  for (auto rq_it = queue.begin(); rq_it != queue.end(); ++rq_it)
  405401:	49 39 5c 24 08       	cmp    %rbx,0x8(%r12)
  405406:	75 f0                	jne    4053f8 <_Z12clear_queuesPFvR5stateE._omp_fn.1+0x88>
_ZN9__gnu_cxx17__normal_iteratorIP5stateSt6vectorIS1_SaIS1_EEEC4ERKS2_():
/usr/include/c++/10/bits/stl_iterator.h:996
  405408:	49 8b 5d 00          	mov    0x0(%r13),%rbx
_Z12resume_queueRSt6vectorI5stateSaIS0_EEPFvRS0_E():
/home/aliha951/ipdps-artifact/gapbs-master/src/libpfq_bfs.h:231
  40540c:	49 3b 5d 08          	cmp    0x8(%r13),%rbx
  405410:	74 15                	je     405427 <_Z12clear_queuesPFvR5stateE._omp_fn.1+0xb7>
  405412:	66 0f 1f 44 00 00    	nopw   0x0(%rax,%rax,1)
/home/aliha951/ipdps-artifact/gapbs-master/src/libpfq_bfs.h:233
    func(*rq_it);
  405418:	48 89 df             	mov    %rbx,%rdi
/home/aliha951/ipdps-artifact/gapbs-master/src/libpfq_bfs.h:231
  for (auto rq_it = queue.begin(); rq_it != queue.end(); ++rq_it)
  40541b:	48 83 c3 18          	add    $0x18,%rbx
/home/aliha951/ipdps-artifact/gapbs-master/src/libpfq_bfs.h:233
    func(*rq_it);
  40541f:	ff d5                	callq  *%rbp
/home/aliha951/ipdps-artifact/gapbs-master/src/libpfq_bfs.h:231
  for (auto rq_it = queue.begin(); rq_it != queue.end(); ++rq_it)
  405421:	49 39 5d 08          	cmp    %rbx,0x8(%r13)
  405425:	75 f1                	jne    405418 <_Z12clear_queuesPFvR5stateE._omp_fn.1+0xa8>
_ZNSt6vectorI5stateSaIS0_EE5clearEv():
/usr/include/c++/10/bits/stl_vector.h:1499
       *  pointed-to memory is not touched in any way.  Managing the pointer is
       *  the user's responsibility.
       */
      void
      clear() _GLIBCXX_NOEXCEPT
      { _M_erase_at_end(this->_M_impl._M_start); }
  405427:	49 8b 45 00          	mov    0x0(%r13),%rax
_ZNSt6vectorI5stateSaIS0_EE15_M_erase_at_endEPS0_():
/usr/include/c++/10/bits/stl_vector.h:1794
      // Called by erase(q1,q2), clear(), resize(), _M_fill_assign,
      // _M_assign_aux.
      void
      _M_erase_at_end(pointer __pos) _GLIBCXX_NOEXCEPT
      {
	if (size_type __n = this->_M_impl._M_finish - __pos)
  40542b:	49 3b 45 08          	cmp    0x8(%r13),%rax
  40542f:	74 04                	je     405435 <_Z12clear_queuesPFvR5stateE._omp_fn.1+0xc5>
/usr/include/c++/10/bits/stl_vector.h:1798
	  {
	    std::_Destroy(__pos, this->_M_impl._M_finish,
			  _M_get_Tp_allocator());
	    this->_M_impl._M_finish = __pos;
  405431:	49 89 45 08          	mov    %rax,0x8(%r13)
_ZNSt6vectorI5stateSaIS0_EE5clearEv():
/usr/include/c++/10/bits/stl_vector.h:1499
      { _M_erase_at_end(this->_M_impl._M_start); }
  405435:	49 8b 04 24          	mov    (%r12),%rax
_ZNSt6vectorI5stateSaIS0_EE15_M_erase_at_endEPS0_():
/usr/include/c++/10/bits/stl_vector.h:1794
	if (size_type __n = this->_M_impl._M_finish - __pos)
  405439:	49 3b 44 24 08       	cmp    0x8(%r12),%rax
  40543e:	74 05                	je     405445 <_Z12clear_queuesPFvR5stateE._omp_fn.1+0xd5>
/usr/include/c++/10/bits/stl_vector.h:1798
	    this->_M_impl._M_finish = __pos;
  405440:	49 89 44 24 08       	mov    %rax,0x8(%r12)
  405445:	49 83 c4 18          	add    $0x18,%r12
  405449:	49 83 c5 18          	add    $0x18,%r13
  40544d:	4d 39 f4             	cmp    %r14,%r12
  405450:	75 96                	jne    4053e8 <_Z12clear_queuesPFvR5stateE._omp_fn.1+0x78>
_Z12clear_queuesPFvR5stateE._omp_fn.1():
/home/aliha951/ipdps-artifact/gapbs-master/src/libpfq_bfs.h:248
  #pragma omp parallel for
  405452:	5b                   	pop    %rbx
  405453:	5d                   	pop    %rbp
  405454:	41 5c                	pop    %r12
  405456:	41 5d                	pop    %r13
  405458:	41 5e                	pop    %r14
  40545a:	c3                   	retq   
  40545b:	83 c0 01             	add    $0x1,%eax
  40545e:	31 d2                	xor    %edx,%edx
  405460:	e9 36 ff ff ff       	jmpq   40539b <_Z12clear_queuesPFvR5stateE._omp_fn.1+0x2b>
  405465:	66 66 2e 0f 1f 84 00 	data16 nopw %cs:0x0(%rax,%rax,1)
  40546c:	00 00 00 00 

0000000000405470 <_Z13QueueToBitmapRK12SlidingQueueIiER6Bitmap._omp_fn.0>:
_Z13QueueToBitmapRK12SlidingQueueIiER6Bitmap._omp_fn.0():
/home/aliha951/ipdps-artifact/gapbs-master/src/bfs_batching_nopt.cc:144
  #pragma omp parallel for
  405470:	f3 0f 1e fa          	endbr64 
  405474:	41 55                	push   %r13
  405476:	41 54                	push   %r12
  405478:	55                   	push   %rbp
  405479:	53                   	push   %rbx
  40547a:	48 83 ec 08          	sub    $0x8,%rsp
/home/aliha951/ipdps-artifact/gapbs-master/src/bfs_batching_nopt.cc:145
  for (auto q_iter = queue.begin(); q_iter < queue.end(); q_iter++) {
  40547e:	48 8b 07             	mov    (%rdi),%rax
_ZNK12SlidingQueueIiE5beginEv():
/home/aliha951/ipdps-artifact/gapbs-master/src/sliding_queue.h:66
  }

  typedef T* iterator;

  iterator begin() const {
    return shared + shared_out_start;
  405481:	48 8b 10             	mov    (%rax),%rdx
  405484:	48 8b 48 10          	mov    0x10(%rax),%rcx
_ZNK12SlidingQueueIiE3endEv():
/home/aliha951/ipdps-artifact/gapbs-master/src/sliding_queue.h:70
  }

  iterator end() const {
    return shared + shared_out_end;
  405488:	48 8b 40 18          	mov    0x18(%rax),%rax
_ZNK12SlidingQueueIiE5beginEv():
/home/aliha951/ipdps-artifact/gapbs-master/src/sliding_queue.h:66
    return shared + shared_out_start;
  40548c:	4c 8d 24 8a          	lea    (%rdx,%rcx,4),%r12
_ZNK12SlidingQueueIiE3endEv():
/home/aliha951/ipdps-artifact/gapbs-master/src/sliding_queue.h:70
    return shared + shared_out_end;
  405490:	4c 8d 2c 82          	lea    (%rdx,%rax,4),%r13
  405494:	4d 39 e5             	cmp    %r12,%r13
  405497:	0f 86 8a 00 00 00    	jbe    405527 <_Z13QueueToBitmapRK12SlidingQueueIiER6Bitmap._omp_fn.0+0xb7>
  40549d:	48 89 fb             	mov    %rdi,%rbx
  4054a0:	e8 7b e6 ff ff       	callq  403b20 <omp_get_num_threads@plt>
  4054a5:	48 63 e8             	movslq %eax,%rbp
  4054a8:	e8 33 e5 ff ff       	callq  4039e0 <omp_get_thread_num@plt>
  4054ad:	48 63 c8             	movslq %eax,%rcx
  4054b0:	49 8d 45 03          	lea    0x3(%r13),%rax
  4054b4:	4c 29 e0             	sub    %r12,%rax
  4054b7:	48 89 c2             	mov    %rax,%rdx
  4054ba:	48 8d 40 03          	lea    0x3(%rax),%rax
  4054be:	48 0f 49 c2          	cmovns %rdx,%rax
  4054c2:	48 c1 f8 02          	sar    $0x2,%rax
  4054c6:	48 99                	cqto   
  4054c8:	48 f7 fd             	idiv   %rbp
  4054cb:	48 39 d1             	cmp    %rdx,%rcx
  4054ce:	7c 68                	jl     405538 <_Z13QueueToBitmapRK12SlidingQueueIiER6Bitmap._omp_fn.0+0xc8>
  4054d0:	48 0f af c8          	imul   %rax,%rcx
  4054d4:	48 01 ca             	add    %rcx,%rdx
  4054d7:	48 01 d0             	add    %rdx,%rax
  4054da:	48 39 c2             	cmp    %rax,%rdx
  4054dd:	7d 48                	jge    405527 <_Z13QueueToBitmapRK12SlidingQueueIiER6Bitmap._omp_fn.0+0xb7>
  4054df:	49 8d 34 94          	lea    (%r12,%rdx,4),%rsi
  4054e3:	4d 8d 14 84          	lea    (%r12,%rax,4),%r10
_ZN6Bitmap14set_bit_atomicEm():
/home/aliha951/ipdps-artifact/gapbs-master/src/bitmap.h:47

  void set_bit_atomic(size_t pos) {
    uint64_t old_val, new_val;
    do {
      old_val = start_[word_offset(pos)];
      new_val = old_val | ((uint64_t) 1l << bit_offset(pos));
  4054e7:	41 b9 01 00 00 00    	mov    $0x1,%r9d
  4054ed:	0f 1f 00             	nopl   (%rax)
_Z13QueueToBitmapRK12SlidingQueueIiER6Bitmap._omp_fn.0():
/home/aliha951/ipdps-artifact/gapbs-master/src/bfs_batching_nopt.cc:146 (discriminator 1)
    NodeID u = *q_iter;
  4054f0:	48 63 16             	movslq (%rsi),%rdx
_ZN6Bitmap14set_bit_atomicEm():
/home/aliha951/ipdps-artifact/gapbs-master/src/bitmap.h:47 (discriminator 1)
  4054f3:	4d 89 cb             	mov    %r9,%r11
_Z13QueueToBitmapRK12SlidingQueueIiER6Bitmap._omp_fn.0():
/home/aliha951/ipdps-artifact/gapbs-master/src/bfs_batching_nopt.cc:147 (discriminator 1)
    bm.set_bit_atomic(u);
  4054f6:	4c 8b 43 08          	mov    0x8(%rbx),%r8
/home/aliha951/ipdps-artifact/gapbs-master/src/bfs_batching_nopt.cc:146 (discriminator 1)
    NodeID u = *q_iter;
  4054fa:	48 89 d1             	mov    %rdx,%rcx
_ZN6Bitmap11word_offsetEm():
/home/aliha951/ipdps-artifact/gapbs-master/src/bitmap.h:65 (discriminator 1)
 private:
  uint64_t *start_;
  uint64_t *end_;

  static const uint64_t kBitsPerWord = 64;
  static uint64_t word_offset(size_t n) { return n / kBitsPerWord; }
  4054fd:	48 c1 ea 06          	shr    $0x6,%rdx
_ZN6Bitmap14set_bit_atomicEm():
/home/aliha951/ipdps-artifact/gapbs-master/src/bitmap.h:46 (discriminator 1)
      old_val = start_[word_offset(pos)];
  405501:	48 c1 e2 03          	shl    $0x3,%rdx
/home/aliha951/ipdps-artifact/gapbs-master/src/bitmap.h:47 (discriminator 1)
      new_val = old_val | ((uint64_t) 1l << bit_offset(pos));
  405505:	49 d3 e3             	shl    %cl,%r11
/home/aliha951/ipdps-artifact/gapbs-master/src/bitmap.h:46
      old_val = start_[word_offset(pos)];
  405508:	49 8b 08             	mov    (%r8),%rcx
  40550b:	48 01 d1             	add    %rdx,%rcx
  40550e:	48 8b 01             	mov    (%rcx),%rax
/home/aliha951/ipdps-artifact/gapbs-master/src/bitmap.h:47
      new_val = old_val | ((uint64_t) 1l << bit_offset(pos));
  405511:	48 89 c7             	mov    %rax,%rdi
  405514:	4c 09 df             	or     %r11,%rdi
_Z16compare_and_swapImEbRT_RKS0_S3_():
/home/aliha951/ipdps-artifact/gapbs-master/src/platform_atomics.h:31
      return __sync_fetch_and_add(&x, inc);
    }

    template<typename T>
    bool compare_and_swap(T &x, const T &old_val, const T &new_val) {
      return __sync_bool_compare_and_swap(&x, old_val, new_val);
  405517:	f0 48 0f b1 39       	lock cmpxchg %rdi,(%rcx)
_ZN6Bitmap14set_bit_atomicEm():
/home/aliha951/ipdps-artifact/gapbs-master/src/bitmap.h:48
    } while (!compare_and_swap(start_[word_offset(pos)], old_val, new_val));
  40551c:	75 ea                	jne    405508 <_Z13QueueToBitmapRK12SlidingQueueIiER6Bitmap._omp_fn.0+0x98>
  40551e:	48 83 c6 04          	add    $0x4,%rsi
  405522:	49 39 f2             	cmp    %rsi,%r10
  405525:	77 c9                	ja     4054f0 <_Z13QueueToBitmapRK12SlidingQueueIiER6Bitmap._omp_fn.0+0x80>
_Z13QueueToBitmapRK12SlidingQueueIiER6Bitmap._omp_fn.0():
/home/aliha951/ipdps-artifact/gapbs-master/src/bfs_batching_nopt.cc:144
  #pragma omp parallel for
  405527:	48 83 c4 08          	add    $0x8,%rsp
  40552b:	5b                   	pop    %rbx
  40552c:	5d                   	pop    %rbp
  40552d:	41 5c                	pop    %r12
  40552f:	41 5d                	pop    %r13
  405531:	c3                   	retq   
  405532:	66 0f 1f 44 00 00    	nopw   0x0(%rax,%rax,1)
  405538:	48 83 c0 01          	add    $0x1,%rax
_ZNK12SlidingQueueIiE3endEv():
/home/aliha951/ipdps-artifact/gapbs-master/src/sliding_queue.h:70
  40553c:	31 d2                	xor    %edx,%edx
  40553e:	eb 90                	jmp    4054d0 <_Z13QueueToBitmapRK12SlidingQueueIiER6Bitmap._omp_fn.0+0x60>

0000000000405540 <_Z10InitParentRK8CSRGraphIiiLb1EE._omp_fn.0>:
_Z10InitParentRK8CSRGraphIiiLb1EE._omp_fn.0():
/home/aliha951/ipdps-artifact/gapbs-master/src/bfs_batching_nopt.cc:167
  #pragma omp parallel for
  405540:	f3 0f 1e fa          	endbr64 
  405544:	41 54                	push   %r12
  405546:	55                   	push   %rbp
  405547:	48 89 fd             	mov    %rdi,%rbp
  40554a:	53                   	push   %rbx
/home/aliha951/ipdps-artifact/gapbs-master/src/bfs_batching_nopt.cc:168
  for (NodeID n=0; n < g.num_nodes(); n++)
  40554b:	4c 8b 27             	mov    (%rdi),%r12
_ZNK8CSRGraphIiiLb1EE9num_nodesEv():
/home/aliha951/ipdps-artifact/gapbs-master/src/graph.h:193
  int64_t num_nodes() const {
  40554e:	e8 cd e5 ff ff       	callq  403b20 <omp_get_num_threads@plt>
  405553:	89 c3                	mov    %eax,%ebx
  405555:	e8 86 e4 ff ff       	callq  4039e0 <omp_get_thread_num@plt>
  40555a:	89 c1                	mov    %eax,%ecx
_Z10InitParentRK8CSRGraphIiiLb1EE._omp_fn.0():
/home/aliha951/ipdps-artifact/gapbs-master/src/bfs_batching_nopt.cc:168
  40555c:	49 8b 44 24 08       	mov    0x8(%r12),%rax
  405561:	99                   	cltd   
  405562:	f7 fb                	idiv   %ebx
  405564:	39 d1                	cmp    %edx,%ecx
  405566:	7c 60                	jl     4055c8 <_Z10InitParentRK8CSRGraphIiiLb1EE._omp_fn.0+0x88>
  405568:	0f af c8             	imul   %eax,%ecx
  40556b:	01 ca                	add    %ecx,%edx
  40556d:	01 d0                	add    %edx,%eax
  40556f:	39 c2                	cmp    %eax,%edx
  405571:	7d 38                	jge    4055ab <_Z10InitParentRK8CSRGraphIiiLb1EE._omp_fn.0+0x6b>
_ZN7pvectorIiEixEm():
/home/aliha951/ipdps-artifact/gapbs-master/src/pvector.h:116
    reserve(num_elements);
    end_size_ = start_ + num_elements;
  }

  T_& operator[](size_t n) {
    return start_[n];
  405573:	48 8b 4d 08          	mov    0x8(%rbp),%rcx
_ZNK8CSRGraphIiiLb1EE10out_degreeEi():
/home/aliha951/ipdps-artifact/gapbs-master/src/graph.h:206
    return out_index_[v+1] - out_index_[v];
  405577:	49 8b 7c 24 18       	mov    0x18(%r12),%rdi
  40557c:	48 63 d2             	movslq %edx,%rdx
_ZN7pvectorIiEixEm():
/home/aliha951/ipdps-artifact/gapbs-master/src/pvector.h:116
  40557f:	4c 8b 01             	mov    (%rcx),%r8
  405582:	66 0f 1f 44 00 00    	nopw   0x0(%rax,%rax,1)
_ZNK8CSRGraphIiiLb1EE10out_degreeEi():
/home/aliha951/ipdps-artifact/gapbs-master/src/graph.h:206
  405588:	48 8b 4c d7 08       	mov    0x8(%rdi,%rdx,8),%rcx
  40558d:	48 8b 34 d7          	mov    (%rdi,%rdx,8),%rsi
_Z10InitParentRK8CSRGraphIiiLb1EE._omp_fn.0():
/home/aliha951/ipdps-artifact/gapbs-master/src/bfs_batching_nopt.cc:169
    parent[n] = g.out_degree(n) != 0 ? -g.out_degree(n) : -1;
  405591:	48 39 ce             	cmp    %rcx,%rsi
  405594:	74 1a                	je     4055b0 <_Z10InitParentRK8CSRGraphIiiLb1EE._omp_fn.0+0x70>
_ZNK8CSRGraphIiiLb1EE10out_degreeEi():
/home/aliha951/ipdps-artifact/gapbs-master/src/graph.h:206
  405596:	48 29 f1             	sub    %rsi,%rcx
  405599:	48 c1 f9 02          	sar    $0x2,%rcx
_Z10InitParentRK8CSRGraphIiiLb1EE._omp_fn.0():
/home/aliha951/ipdps-artifact/gapbs-master/src/bfs_batching_nopt.cc:169
  40559d:	f7 d9                	neg    %ecx
  40559f:	41 89 0c 90          	mov    %ecx,(%r8,%rdx,4)
  4055a3:	48 83 c2 01          	add    $0x1,%rdx
  4055a7:	39 d0                	cmp    %edx,%eax
  4055a9:	7f dd                	jg     405588 <_Z10InitParentRK8CSRGraphIiiLb1EE._omp_fn.0+0x48>
/home/aliha951/ipdps-artifact/gapbs-master/src/bfs_batching_nopt.cc:167
  #pragma omp parallel for
  4055ab:	5b                   	pop    %rbx
  4055ac:	5d                   	pop    %rbp
  4055ad:	41 5c                	pop    %r12
  4055af:	c3                   	retq   
/home/aliha951/ipdps-artifact/gapbs-master/src/bfs_batching_nopt.cc:169
    parent[n] = g.out_degree(n) != 0 ? -g.out_degree(n) : -1;
  4055b0:	41 c7 04 90 ff ff ff 	movl   $0xffffffff,(%r8,%rdx,4)
  4055b7:	ff 
  4055b8:	48 83 c2 01          	add    $0x1,%rdx
  4055bc:	39 d0                	cmp    %edx,%eax
  4055be:	7f c8                	jg     405588 <_Z10InitParentRK8CSRGraphIiiLb1EE._omp_fn.0+0x48>
/home/aliha951/ipdps-artifact/gapbs-master/src/bfs_batching_nopt.cc:167
  #pragma omp parallel for
  4055c0:	5b                   	pop    %rbx
  4055c1:	5d                   	pop    %rbp
  4055c2:	41 5c                	pop    %r12
  4055c4:	c3                   	retq   
  4055c5:	0f 1f 00             	nopl   (%rax)
  4055c8:	83 c0 01             	add    $0x1,%eax
/home/aliha951/ipdps-artifact/gapbs-master/src/bfs_batching_nopt.cc:168
  for (NodeID n=0; n < g.num_nodes(); n++)
  4055cb:	31 d2                	xor    %edx,%edx
  4055cd:	eb 99                	jmp    405568 <_Z10InitParentRK8CSRGraphIiiLb1EE._omp_fn.0+0x28>
  4055cf:	90                   	nop

00000000004055d0 <_Z5DOBFSRK8CSRGraphIiiLb1EEibii._omp_fn.0>:
_Z5DOBFSRK8CSRGraphIiiLb1EEibii._omp_fn.0():
/home/aliha951/ipdps-artifact/gapbs-master/src/bfs_batching_nopt.cc:229
  #pragma omp parallel for
  4055d0:	f3 0f 1e fa          	endbr64 
  4055d4:	55                   	push   %rbp
  4055d5:	48 89 fd             	mov    %rdi,%rbp
  4055d8:	53                   	push   %rbx
  4055d9:	48 83 ec 08          	sub    $0x8,%rsp
  4055dd:	e8 3e e5 ff ff       	callq  403b20 <omp_get_num_threads@plt>
  4055e2:	89 c3                	mov    %eax,%ebx
  4055e4:	e8 f7 e3 ff ff       	callq  4039e0 <omp_get_thread_num@plt>
  4055e9:	89 c1                	mov    %eax,%ecx
_ZNK8CSRGraphIiiLb1EE9num_nodesEv():
/home/aliha951/ipdps-artifact/gapbs-master/src/graph.h:194
    return num_nodes_;
  4055eb:	48 8b 45 00          	mov    0x0(%rbp),%rax
_Z5DOBFSRK8CSRGraphIiiLb1EEibii._omp_fn.0():
/home/aliha951/ipdps-artifact/gapbs-master/src/bfs_batching_nopt.cc:230
  for (NodeID n = 0; n < g.num_nodes(); n++)
  4055ef:	48 8b 40 08          	mov    0x8(%rax),%rax
  4055f3:	99                   	cltd   
  4055f4:	f7 fb                	idiv   %ebx
  4055f6:	39 d1                	cmp    %edx,%ecx
  4055f8:	7c 46                	jl     405640 <_Z5DOBFSRK8CSRGraphIiiLb1EEibii._omp_fn.0+0x70>
  4055fa:	0f af c8             	imul   %eax,%ecx
  4055fd:	01 ca                	add    %ecx,%edx
  4055ff:	8d 0c 10             	lea    (%rax,%rdx,1),%ecx
  405602:	39 ca                	cmp    %ecx,%edx
  405604:	7d 2e                	jge    405634 <_Z5DOBFSRK8CSRGraphIiiLb1EEibii._omp_fn.0+0x64>
_ZN7pvectorIiEixEm():
/home/aliha951/ipdps-artifact/gapbs-master/src/pvector.h:116
  405606:	48 8b 4d 08          	mov    0x8(%rbp),%rcx
  40560a:	83 e8 01             	sub    $0x1,%eax
  40560d:	48 8b 31             	mov    (%rcx),%rsi
  405610:	48 63 ca             	movslq %edx,%rcx
  405613:	48 8d 14 8e          	lea    (%rsi,%rcx,4),%rdx
  405617:	48 01 c1             	add    %rax,%rcx
  40561a:	48 8d 44 8e 04       	lea    0x4(%rsi,%rcx,4),%rax
  40561f:	90                   	nop
_Z5DOBFSRK8CSRGraphIiiLb1EEibii._omp_fn.0():
/home/aliha951/ipdps-artifact/gapbs-master/src/bfs_batching_nopt.cc:231
    if (parent[n] < -1)
  405620:	83 3a ff             	cmpl   $0xffffffff,(%rdx)
  405623:	7d 06                	jge    40562b <_Z5DOBFSRK8CSRGraphIiiLb1EEibii._omp_fn.0+0x5b>
/home/aliha951/ipdps-artifact/gapbs-master/src/bfs_batching_nopt.cc:232
      parent[n] = -1;
  405625:	c7 02 ff ff ff ff    	movl   $0xffffffff,(%rdx)
  40562b:	48 83 c2 04          	add    $0x4,%rdx
  40562f:	48 39 c2             	cmp    %rax,%rdx
  405632:	75 ec                	jne    405620 <_Z5DOBFSRK8CSRGraphIiiLb1EEibii._omp_fn.0+0x50>
/home/aliha951/ipdps-artifact/gapbs-master/src/bfs_batching_nopt.cc:229
  #pragma omp parallel for
  405634:	48 83 c4 08          	add    $0x8,%rsp
  405638:	5b                   	pop    %rbx
  405639:	5d                   	pop    %rbp
  40563a:	c3                   	retq   
  40563b:	0f 1f 44 00 00       	nopl   0x0(%rax,%rax,1)
  405640:	83 c0 01             	add    $0x1,%eax
/home/aliha951/ipdps-artifact/gapbs-master/src/bfs_batching_nopt.cc:230
  for (NodeID n = 0; n < g.num_nodes(); n++)
  405643:	31 d2                	xor    %edx,%edx
  405645:	eb b3                	jmp    4055fa <_Z5DOBFSRK8CSRGraphIiiLb1EEibii._omp_fn.0+0x2a>
  405647:	66 0f 1f 84 00 00 00 	nopw   0x0(%rax,%rax,1)
  40564e:	00 00 

0000000000405650 <_ZN7pvectorIiE4fillEi._omp_fn.0>:
_ZN7pvectorIiE4fillEi._omp_fn.0():
/home/aliha951/ipdps-artifact/gapbs-master/src/pvector.h:133
    *end_size_ = val;
    end_size_++;
  }

  void fill(T_ init_val) {
    #pragma omp parallel for
  405650:	f3 0f 1e fa          	endbr64 
  405654:	41 55                	push   %r13
  405656:	41 54                	push   %r12
  405658:	55                   	push   %rbp
  405659:	53                   	push   %rbx
  40565a:	48 83 ec 08          	sub    $0x8,%rsp
  40565e:	48 8b 07             	mov    (%rdi),%rax
/home/aliha951/ipdps-artifact/gapbs-master/src/pvector.h:134
    for (T_* ptr=start_; ptr < end_size_; ptr++)
  405661:	48 8b 28             	mov    (%rax),%rbp
  405664:	4c 8b 68 08          	mov    0x8(%rax),%r13
  405668:	4c 39 ed             	cmp    %r13,%rbp
  40566b:	0f 83 dd 00 00 00    	jae    40574e <_ZN7pvectorIiE4fillEi._omp_fn.0+0xfe>
  405671:	49 89 fc             	mov    %rdi,%r12
  405674:	e8 a7 e4 ff ff       	callq  403b20 <omp_get_num_threads@plt>
  405679:	48 63 d8             	movslq %eax,%rbx
  40567c:	e8 5f e3 ff ff       	callq  4039e0 <omp_get_thread_num@plt>
  405681:	48 63 c8             	movslq %eax,%rcx
  405684:	49 8d 45 03          	lea    0x3(%r13),%rax
  405688:	48 29 e8             	sub    %rbp,%rax
  40568b:	48 89 c2             	mov    %rax,%rdx
  40568e:	48 8d 40 03          	lea    0x3(%rax),%rax
  405692:	48 0f 49 c2          	cmovns %rdx,%rax
  405696:	48 c1 f8 02          	sar    $0x2,%rax
  40569a:	48 99                	cqto   
  40569c:	48 f7 fb             	idiv   %rbx
  40569f:	48 39 d1             	cmp    %rdx,%rcx
  4056a2:	0f 8c b8 00 00 00    	jl     405760 <_ZN7pvectorIiE4fillEi._omp_fn.0+0x110>
  4056a8:	48 0f af c8          	imul   %rax,%rcx
  4056ac:	48 01 ca             	add    %rcx,%rdx
  4056af:	48 01 d0             	add    %rdx,%rax
  4056b2:	48 39 c2             	cmp    %rax,%rdx
  4056b5:	0f 8d 93 00 00 00    	jge    40574e <_ZN7pvectorIiE4fillEi._omp_fn.0+0xfe>
  4056bb:	48 c1 e2 02          	shl    $0x2,%rdx
  4056bf:	48 c1 e0 02          	shl    $0x2,%rax
/home/aliha951/ipdps-artifact/gapbs-master/src/pvector.h:133
    #pragma omp parallel for
  4056c3:	41 8b 7c 24 08       	mov    0x8(%r12),%edi
  4056c8:	48 8d 74 15 00       	lea    0x0(%rbp,%rdx,1),%rsi
  4056cd:	48 01 c5             	add    %rax,%rbp
  4056d0:	48 29 d0             	sub    %rdx,%rax
  4056d3:	48 83 e8 01          	sub    $0x1,%rax
  4056d7:	4c 8d 46 01          	lea    0x1(%rsi),%r8
  4056db:	48 89 f1             	mov    %rsi,%rcx
  4056de:	48 89 c2             	mov    %rax,%rdx
  4056e1:	48 c1 ea 02          	shr    $0x2,%rdx
  4056e5:	48 83 c2 01          	add    $0x1,%rdx
  4056e9:	4c 39 c5             	cmp    %r8,%rbp
  4056ec:	41 b8 01 00 00 00    	mov    $0x1,%r8d
  4056f2:	49 0f 42 d0          	cmovb  %r8,%rdx
  4056f6:	72 3c                	jb     405734 <_ZN7pvectorIiE4fillEi._omp_fn.0+0xe4>
  4056f8:	48 83 f8 0b          	cmp    $0xb,%rax
  4056fc:	76 36                	jbe    405734 <_ZN7pvectorIiE4fillEi._omp_fn.0+0xe4>
  4056fe:	48 89 d0             	mov    %rdx,%rax
  405701:	66 0f 6e cf          	movd   %edi,%xmm1
  405705:	48 c1 e8 02          	shr    $0x2,%rax
  405709:	66 0f 70 c1 00       	pshufd $0x0,%xmm1,%xmm0
  40570e:	48 c1 e0 04          	shl    $0x4,%rax
  405712:	48 01 f0             	add    %rsi,%rax
  405715:	0f 1f 00             	nopl   (%rax)
/home/aliha951/ipdps-artifact/gapbs-master/src/pvector.h:135 (discriminator 1)
      *ptr = init_val;
  405718:	0f 11 01             	movups %xmm0,(%rcx)
  40571b:	48 83 c1 10          	add    $0x10,%rcx
  40571f:	48 39 c1             	cmp    %rax,%rcx
  405722:	75 f4                	jne    405718 <_ZN7pvectorIiE4fillEi._omp_fn.0+0xc8>
  405724:	48 89 d0             	mov    %rdx,%rax
  405727:	48 83 e0 fc          	and    $0xfffffffffffffffc,%rax
  40572b:	48 8d 34 86          	lea    (%rsi,%rax,4),%rsi
  40572f:	48 39 c2             	cmp    %rax,%rdx
  405732:	74 1a                	je     40574e <_ZN7pvectorIiE4fillEi._omp_fn.0+0xfe>
  405734:	48 8d 46 04          	lea    0x4(%rsi),%rax
/home/aliha951/ipdps-artifact/gapbs-master/src/pvector.h:135
  405738:	89 3e                	mov    %edi,(%rsi)
  40573a:	48 39 c5             	cmp    %rax,%rbp
  40573d:	76 0f                	jbe    40574e <_ZN7pvectorIiE4fillEi._omp_fn.0+0xfe>
  40573f:	48 8d 46 08          	lea    0x8(%rsi),%rax
  405743:	89 7e 04             	mov    %edi,0x4(%rsi)
  405746:	48 39 c5             	cmp    %rax,%rbp
  405749:	76 03                	jbe    40574e <_ZN7pvectorIiE4fillEi._omp_fn.0+0xfe>
  40574b:	89 7e 08             	mov    %edi,0x8(%rsi)
/home/aliha951/ipdps-artifact/gapbs-master/src/pvector.h:133
    #pragma omp parallel for
  40574e:	48 83 c4 08          	add    $0x8,%rsp
  405752:	5b                   	pop    %rbx
  405753:	5d                   	pop    %rbp
  405754:	41 5c                	pop    %r12
  405756:	41 5d                	pop    %r13
  405758:	c3                   	retq   
  405759:	0f 1f 80 00 00 00 00 	nopl   0x0(%rax)
  405760:	48 83 c0 01          	add    $0x1,%rax
/home/aliha951/ipdps-artifact/gapbs-master/src/pvector.h:134
    for (T_* ptr=start_; ptr < end_size_; ptr++)
  405764:	31 d2                	xor    %edx,%edx
  405766:	e9 3d ff ff ff       	jmpq   4056a8 <_ZN7pvectorIiE4fillEi._omp_fn.0+0x58>
  40576b:	0f 1f 44 00 00       	nopl   0x0(%rax,%rax,1)

0000000000405770 <_ZN8CSRGraphIiiLb1EE8GenIndexERK7pvectorIlEPi._omp_fn.0>:
_ZN8CSRGraphIiiLb1EE8GenIndexERK7pvectorIlEPi._omp_fn.0():
/home/aliha951/ipdps-artifact/gapbs-master/src/graph.h:245
  }

  static DestID_** GenIndex(const pvector<SGOffset> &offsets, DestID_* neighs) {
    NodeID_ length = offsets.size();
    DestID_** index = new DestID_*[length];
    #pragma omp parallel for
  405770:	f3 0f 1e fa          	endbr64 
  405774:	55                   	push   %rbp
  405775:	53                   	push   %rbx
  405776:	48 89 fb             	mov    %rdi,%rbx
  405779:	48 83 ec 08          	sub    $0x8,%rsp
  40577d:	e8 9e e3 ff ff       	callq  403b20 <omp_get_num_threads@plt>
  405782:	89 c5                	mov    %eax,%ebp
  405784:	e8 57 e2 ff ff       	callq  4039e0 <omp_get_thread_num@plt>
  405789:	89 c1                	mov    %eax,%ecx
  40578b:	8b 43 18             	mov    0x18(%rbx),%eax
  40578e:	99                   	cltd   
  40578f:	f7 fd                	idiv   %ebp
  405791:	39 d1                	cmp    %edx,%ecx
  405793:	7c 43                	jl     4057d8 <_ZN8CSRGraphIiiLb1EE8GenIndexERK7pvectorIlEPi._omp_fn.0+0x68>
  405795:	0f af c8             	imul   %eax,%ecx
  405798:	01 ca                	add    %ecx,%edx
  40579a:	01 d0                	add    %edx,%eax
  40579c:	39 c2                	cmp    %eax,%edx
  40579e:	7d 2c                	jge    4057cc <_ZN8CSRGraphIiiLb1EE8GenIndexERK7pvectorIlEPi._omp_fn.0+0x5c>
_ZNK7pvectorIlEixEm():
/home/aliha951/ipdps-artifact/gapbs-master/src/pvector.h:120
    return start_[n];
  4057a0:	48 8b 0b             	mov    (%rbx),%rcx
_ZN8CSRGraphIiiLb1EE8GenIndexERK7pvectorIlEPi._omp_fn.0():
/home/aliha951/ipdps-artifact/gapbs-master/src/graph.h:245
  4057a3:	4c 8b 43 10          	mov    0x10(%rbx),%r8
  4057a7:	48 63 d2             	movslq %edx,%rdx
  4057aa:	48 8b 7b 08          	mov    0x8(%rbx),%rdi
_ZNK7pvectorIlEixEm():
/home/aliha951/ipdps-artifact/gapbs-master/src/pvector.h:120
  4057ae:	48 8b 31             	mov    (%rcx),%rsi
  4057b1:	0f 1f 80 00 00 00 00 	nopl   0x0(%rax)
_ZN8CSRGraphIiiLb1EE8GenIndexERK7pvectorIlEPi._omp_fn.0():
/home/aliha951/ipdps-artifact/gapbs-master/src/graph.h:247 (discriminator 1)
    for (NodeID_ n=0; n < length; n++)
      index[n] = neighs + offsets[n];
  4057b8:	48 8b 0c d6          	mov    (%rsi,%rdx,8),%rcx
  4057bc:	48 8d 0c 8f          	lea    (%rdi,%rcx,4),%rcx
  4057c0:	49 89 0c d0          	mov    %rcx,(%r8,%rdx,8)
  4057c4:	48 83 c2 01          	add    $0x1,%rdx
  4057c8:	39 d0                	cmp    %edx,%eax
  4057ca:	7f ec                	jg     4057b8 <_ZN8CSRGraphIiiLb1EE8GenIndexERK7pvectorIlEPi._omp_fn.0+0x48>
/home/aliha951/ipdps-artifact/gapbs-master/src/graph.h:245
    #pragma omp parallel for
  4057cc:	48 83 c4 08          	add    $0x8,%rsp
  4057d0:	5b                   	pop    %rbx
  4057d1:	5d                   	pop    %rbp
  4057d2:	c3                   	retq   
  4057d3:	0f 1f 44 00 00       	nopl   0x0(%rax,%rax,1)
  4057d8:	83 c0 01             	add    $0x1,%eax
  4057db:	31 d2                	xor    %edx,%edx
  4057dd:	eb b6                	jmp    405795 <_ZN8CSRGraphIiiLb1EE8GenIndexERK7pvectorIlEPi._omp_fn.0+0x25>
  4057df:	90                   	nop

00000000004057e0 <_ZN7pvectorI8EdgePairIiiEE7reserveEm._omp_fn.0>:
_ZN7pvectorI8EdgePairIiiEE7reserveEm._omp_fn.0():
/home/aliha951/ipdps-artifact/gapbs-master/src/pvector.h:86
      #pragma omp parallel for
  4057e0:	f3 0f 1e fa          	endbr64 
  4057e4:	41 55                	push   %r13
  4057e6:	41 54                	push   %r12
  4057e8:	55                   	push   %rbp
  4057e9:	53                   	push   %rbx
  4057ea:	48 83 ec 08          	sub    $0x8,%rsp
  4057ee:	48 8b 07             	mov    (%rdi),%rax
_ZNK7pvectorI8EdgePairIiiEE4sizeEv():
/home/aliha951/ipdps-artifact/gapbs-master/src/pvector.h:143
  size_t capacity() const {
    return end_capacity_ - start_;
  }

  size_t size() const {
    return end_size_ - start_;
  4057f1:	4c 8b 20             	mov    (%rax),%r12
  4057f4:	48 8b 40 08          	mov    0x8(%rax),%rax
  4057f8:	4c 29 e0             	sub    %r12,%rax
  4057fb:	48 c1 f8 03          	sar    $0x3,%rax
  4057ff:	74 50                	je     405851 <_ZN7pvectorI8EdgePairIiiEE7reserveEm._omp_fn.0+0x71>
  405801:	49 89 fd             	mov    %rdi,%r13
  405804:	48 89 c3             	mov    %rax,%rbx
  405807:	e8 14 e3 ff ff       	callq  403b20 <omp_get_num_threads@plt>
  40580c:	89 c5                	mov    %eax,%ebp
  40580e:	e8 cd e1 ff ff       	callq  4039e0 <omp_get_thread_num@plt>
  405813:	48 63 f5             	movslq %ebp,%rsi
  405816:	31 d2                	xor    %edx,%edx
  405818:	48 63 c8             	movslq %eax,%rcx
  40581b:	48 89 d8             	mov    %rbx,%rax
  40581e:	48 f7 f6             	div    %rsi
  405821:	48 39 d1             	cmp    %rdx,%rcx
  405824:	72 3a                	jb     405860 <_ZN7pvectorI8EdgePairIiiEE7reserveEm._omp_fn.0+0x80>
  405826:	48 0f af c8          	imul   %rax,%rcx
  40582a:	48 01 ca             	add    %rcx,%rdx
  40582d:	48 01 d0             	add    %rdx,%rax
  405830:	48 39 c2             	cmp    %rax,%rdx
  405833:	73 1c                	jae    405851 <_ZN7pvectorI8EdgePairIiiEE7reserveEm._omp_fn.0+0x71>
_ZN7pvectorI8EdgePairIiiEE7reserveEm._omp_fn.0():
/home/aliha951/ipdps-artifact/gapbs-master/src/pvector.h:86
      #pragma omp parallel for
  405835:	49 8b 75 08          	mov    0x8(%r13),%rsi
  405839:	0f 1f 80 00 00 00 00 	nopl   0x0(%rax)
/home/aliha951/ipdps-artifact/gapbs-master/src/pvector.h:88 (discriminator 1)
        new_range[i] = start_[i];
  405840:	49 8b 0c d4          	mov    (%r12,%rdx,8),%rcx
  405844:	48 89 0c d6          	mov    %rcx,(%rsi,%rdx,8)
  405848:	48 83 c2 01          	add    $0x1,%rdx
  40584c:	48 39 d0             	cmp    %rdx,%rax
  40584f:	75 ef                	jne    405840 <_ZN7pvectorI8EdgePairIiiEE7reserveEm._omp_fn.0+0x60>
/home/aliha951/ipdps-artifact/gapbs-master/src/pvector.h:86
      #pragma omp parallel for
  405851:	48 83 c4 08          	add    $0x8,%rsp
  405855:	5b                   	pop    %rbx
  405856:	5d                   	pop    %rbp
  405857:	41 5c                	pop    %r12
  405859:	41 5d                	pop    %r13
  40585b:	c3                   	retq   
  40585c:	0f 1f 40 00          	nopl   0x0(%rax)
  405860:	48 83 c0 01          	add    $0x1,%rax
_ZNK7pvectorI8EdgePairIiiEE4sizeEv():
/home/aliha951/ipdps-artifact/gapbs-master/src/pvector.h:143
    return end_size_ - start_;
  405864:	31 d2                	xor    %edx,%edx
  405866:	eb be                	jmp    405826 <_ZN7pvectorI8EdgePairIiiEE7reserveEm._omp_fn.0+0x46>
_ZN7pvectorI8EdgePairIiiEE7reserveEm._omp_fn.0():
/home/aliha951/ipdps-artifact/gapbs-master/src/pvector.h:143
  405868:	0f 1f 84 00 00 00 00 	nopl   0x0(%rax,%rax,1)
  40586f:	00 

0000000000405870 <_ZN11BuilderBaseIiiiLb1EE12CountDegreesERK7pvectorI8EdgePairIiiEEb._omp_fn.0>:
_ZN11BuilderBaseIiiiLb1EE12CountDegreesERK7pvectorI8EdgePairIiiEEb._omp_fn.0():
/home/aliha951/ipdps-artifact/gapbs-master/src/builder.h:82
    return max_seen;
  }

  pvector<NodeID_> CountDegrees(const EdgeList &el, bool transpose) {
    pvector<NodeID_> degrees(num_nodes_, 0);
    #pragma omp parallel for
  405870:	f3 0f 1e fa          	endbr64 
  405874:	41 55                	push   %r13
  405876:	41 54                	push   %r12
  405878:	55                   	push   %rbp
  405879:	53                   	push   %rbx
  40587a:	48 83 ec 08          	sub    $0x8,%rsp
/home/aliha951/ipdps-artifact/gapbs-master/src/builder.h:83
    for (auto it = el.begin(); it < el.end(); it++) {
  40587e:	48 8b 47 08          	mov    0x8(%rdi),%rax
_ZNK7pvectorI8EdgePairIiiEE5beginEv():
/home/aliha951/ipdps-artifact/gapbs-master/src/pvector.h:147
  }

  iterator begin() const {
    return start_;
  405882:	4c 8b 20             	mov    (%rax),%r12
_ZNK7pvectorI8EdgePairIiiEE3endEv():
/home/aliha951/ipdps-artifact/gapbs-master/src/pvector.h:151
  }

  iterator end() const {
    return end_size_;
  405885:	4c 8b 68 08          	mov    0x8(%rax),%r13
  405889:	4d 39 e5             	cmp    %r12,%r13
  40588c:	0f 86 8a 00 00 00    	jbe    40591c <_ZN11BuilderBaseIiiiLb1EE12CountDegreesERK7pvectorI8EdgePairIiiEEb._omp_fn.0+0xac>
  405892:	48 89 fb             	mov    %rdi,%rbx
  405895:	e8 86 e2 ff ff       	callq  403b20 <omp_get_num_threads@plt>
  40589a:	48 63 e8             	movslq %eax,%rbp
  40589d:	e8 3e e1 ff ff       	callq  4039e0 <omp_get_thread_num@plt>
  4058a2:	48 63 c8             	movslq %eax,%rcx
  4058a5:	49 8d 45 07          	lea    0x7(%r13),%rax
  4058a9:	4c 29 e0             	sub    %r12,%rax
  4058ac:	48 89 c2             	mov    %rax,%rdx
  4058af:	48 8d 40 07          	lea    0x7(%rax),%rax
  4058b3:	48 0f 49 c2          	cmovns %rdx,%rax
  4058b7:	48 c1 f8 03          	sar    $0x3,%rax
  4058bb:	48 99                	cqto   
  4058bd:	48 f7 fd             	idiv   %rbp
  4058c0:	48 39 d1             	cmp    %rdx,%rcx
  4058c3:	7c 6b                	jl     405930 <_ZN11BuilderBaseIiiiLb1EE12CountDegreesERK7pvectorI8EdgePairIiiEEb._omp_fn.0+0xc0>
  4058c5:	48 0f af c8          	imul   %rax,%rcx
  4058c9:	48 01 ca             	add    %rcx,%rdx
  4058cc:	48 01 d0             	add    %rdx,%rax
  4058cf:	48 39 c2             	cmp    %rax,%rdx
  4058d2:	7d 48                	jge    40591c <_ZN11BuilderBaseIiiiLb1EE12CountDegreesERK7pvectorI8EdgePairIiiEEb._omp_fn.0+0xac>
  4058d4:	80 7b 18 00          	cmpb   $0x0,0x18(%rbx)
_ZN11BuilderBaseIiiiLb1EE12CountDegreesERK7pvectorI8EdgePairIiiEEb._omp_fn.0():
/home/aliha951/ipdps-artifact/gapbs-master/src/builder.h:82
    #pragma omp parallel for
  4058d8:	48 8b 3b             	mov    (%rbx),%rdi
  4058db:	49 8d 14 d4          	lea    (%r12,%rdx,8),%rdx
  4058df:	4d 8d 04 c4          	lea    (%r12,%rax,8),%r8
  4058e3:	75 53                	jne    405938 <_ZN11BuilderBaseIiiiLb1EE12CountDegreesERK7pvectorI8EdgePairIiiEEb._omp_fn.0+0xc8>
  4058e5:	0f 1f 00             	nopl   (%rax)
_ZN7pvectorIiEixEm():
/home/aliha951/ipdps-artifact/gapbs-master/src/pvector.h:116
    return start_[n];
  4058e8:	48 8b 4b 10          	mov    0x10(%rbx),%rcx
_ZN11BuilderBaseIiiiLb1EE12CountDegreesERK7pvectorI8EdgePairIiiEEb._omp_fn.0():
/home/aliha951/ipdps-artifact/gapbs-master/src/builder.h:84
      Edge e = *it;
  4058ec:	48 63 42 04          	movslq 0x4(%rdx),%rax
/home/aliha951/ipdps-artifact/gapbs-master/src/builder.h:86
      if (symmetrize_ || (!symmetrize_ && !transpose))
        fetch_and_add(degrees[e.u], 1);
  4058f0:	48 63 32             	movslq (%rdx),%rsi
_Z13fetch_and_addIiiET_RS0_T0_():
/home/aliha951/ipdps-artifact/gapbs-master/src/platform_atomics.h:26
      return __sync_fetch_and_add(&x, inc);
  4058f3:	48 8b 09             	mov    (%rcx),%rcx
  4058f6:	f0 83 04 b1 01       	lock addl $0x1,(%rcx,%rsi,4)
_ZN11BuilderBaseIiiiLb1EE12CountDegreesERK7pvectorI8EdgePairIiiEEb._omp_fn.0():
/home/aliha951/ipdps-artifact/gapbs-master/src/builder.h:87
      if ((symmetrize_ && !in_place_) || (!symmetrize_ && transpose))
  4058fb:	80 7f 08 00          	cmpb   $0x0,0x8(%rdi)
  4058ff:	74 12                	je     405913 <_ZN11BuilderBaseIiiiLb1EE12CountDegreesERK7pvectorI8EdgePairIiiEEb._omp_fn.0+0xa3>
  405901:	80 7f 0a 00          	cmpb   $0x0,0xa(%rdi)
  405905:	75 0c                	jne    405913 <_ZN11BuilderBaseIiiiLb1EE12CountDegreesERK7pvectorI8EdgePairIiiEEb._omp_fn.0+0xa3>
_ZN7pvectorIiEixEm():
/home/aliha951/ipdps-artifact/gapbs-master/src/pvector.h:116
  405907:	48 8b 4b 10          	mov    0x10(%rbx),%rcx
_Z13fetch_and_addIiiET_RS0_T0_():
/home/aliha951/ipdps-artifact/gapbs-master/src/platform_atomics.h:26
  40590b:	48 8b 09             	mov    (%rcx),%rcx
  40590e:	f0 83 04 81 01       	lock addl $0x1,(%rcx,%rax,4)
  405913:	48 83 c2 08          	add    $0x8,%rdx
  405917:	49 39 d0             	cmp    %rdx,%r8
  40591a:	77 cc                	ja     4058e8 <_ZN11BuilderBaseIiiiLb1EE12CountDegreesERK7pvectorI8EdgePairIiiEEb._omp_fn.0+0x78>
_ZN11BuilderBaseIiiiLb1EE12CountDegreesERK7pvectorI8EdgePairIiiEEb._omp_fn.0():
/home/aliha951/ipdps-artifact/gapbs-master/src/builder.h:82
    #pragma omp parallel for
  40591c:	48 83 c4 08          	add    $0x8,%rsp
  405920:	5b                   	pop    %rbx
  405921:	5d                   	pop    %rbp
  405922:	41 5c                	pop    %r12
  405924:	41 5d                	pop    %r13
  405926:	c3                   	retq   
  405927:	66 0f 1f 84 00 00 00 	nopw   0x0(%rax,%rax,1)
  40592e:	00 00 
  405930:	48 83 c0 01          	add    $0x1,%rax
_ZNK7pvectorI8EdgePairIiiEE3endEv():
/home/aliha951/ipdps-artifact/gapbs-master/src/pvector.h:151
    return end_size_;
  405934:	31 d2                	xor    %edx,%edx
  405936:	eb 8d                	jmp    4058c5 <_ZN11BuilderBaseIiiiLb1EE12CountDegreesERK7pvectorI8EdgePairIiiEEb._omp_fn.0+0x55>
_ZN11BuilderBaseIiiiLb1EE12CountDegreesERK7pvectorI8EdgePairIiiEEb._omp_fn.0():
/home/aliha951/ipdps-artifact/gapbs-master/src/builder.h:85
      if (symmetrize_ || (!symmetrize_ && !transpose))
  405938:	80 7f 08 00          	cmpb   $0x0,0x8(%rdi)
/home/aliha951/ipdps-artifact/gapbs-master/src/builder.h:84
      Edge e = *it;
  40593c:	48 63 42 04          	movslq 0x4(%rdx),%rax
/home/aliha951/ipdps-artifact/gapbs-master/src/builder.h:85
      if (symmetrize_ || (!symmetrize_ && !transpose))
  405940:	74 1b                	je     40595d <_ZN11BuilderBaseIiiiLb1EE12CountDegreesERK7pvectorI8EdgePairIiiEEb._omp_fn.0+0xed>
_ZN7pvectorIiEixEm():
/home/aliha951/ipdps-artifact/gapbs-master/src/pvector.h:116
    return start_[n];
  405942:	48 8b 4b 10          	mov    0x10(%rbx),%rcx
_ZN11BuilderBaseIiiiLb1EE12CountDegreesERK7pvectorI8EdgePairIiiEEb._omp_fn.0():
/home/aliha951/ipdps-artifact/gapbs-master/src/builder.h:86
        fetch_and_add(degrees[e.u], 1);
  405946:	48 63 32             	movslq (%rdx),%rsi
_Z13fetch_and_addIiiET_RS0_T0_():
/home/aliha951/ipdps-artifact/gapbs-master/src/platform_atomics.h:26
  405949:	48 8b 09             	mov    (%rcx),%rcx
  40594c:	f0 83 04 b1 01       	lock addl $0x1,(%rcx,%rsi,4)
_ZN11BuilderBaseIiiiLb1EE12CountDegreesERK7pvectorI8EdgePairIiiEEb._omp_fn.0():
/home/aliha951/ipdps-artifact/gapbs-master/src/builder.h:87
      if ((symmetrize_ && !in_place_) || (!symmetrize_ && transpose))
  405951:	80 7f 08 00          	cmpb   $0x0,0x8(%rdi)
  405955:	74 06                	je     40595d <_ZN11BuilderBaseIiiiLb1EE12CountDegreesERK7pvectorI8EdgePairIiiEEb._omp_fn.0+0xed>
/home/aliha951/ipdps-artifact/gapbs-master/src/builder.h:87 (discriminator 1)
  405957:	80 7f 0a 00          	cmpb   $0x0,0xa(%rdi)
  40595b:	75 0c                	jne    405969 <_ZN11BuilderBaseIiiiLb1EE12CountDegreesERK7pvectorI8EdgePairIiiEEb._omp_fn.0+0xf9>
_ZN7pvectorIiEixEm():
/home/aliha951/ipdps-artifact/gapbs-master/src/pvector.h:116
  40595d:	48 8b 4b 10          	mov    0x10(%rbx),%rcx
_Z13fetch_and_addIiiET_RS0_T0_():
/home/aliha951/ipdps-artifact/gapbs-master/src/platform_atomics.h:26
  405961:	48 8b 09             	mov    (%rcx),%rcx
  405964:	f0 83 04 81 01       	lock addl $0x1,(%rcx,%rax,4)
  405969:	48 83 c2 08          	add    $0x8,%rdx
  40596d:	49 39 d0             	cmp    %rdx,%r8
  405970:	77 c6                	ja     405938 <_ZN11BuilderBaseIiiiLb1EE12CountDegreesERK7pvectorI8EdgePairIiiEEb._omp_fn.0+0xc8>
  405972:	eb a8                	jmp    40591c <_ZN11BuilderBaseIiiiLb1EE12CountDegreesERK7pvectorI8EdgePairIiiEEb._omp_fn.0+0xac>
_ZN11BuilderBaseIiiiLb1EE12CountDegreesERK7pvectorI8EdgePairIiiEEb._omp_fn.0():
/home/aliha951/ipdps-artifact/gapbs-master/src/platform_atomics.h:26
  405974:	66 66 2e 0f 1f 84 00 	data16 nopw %cs:0x0(%rax,%rax,1)
  40597b:	00 00 00 00 
  40597f:	90                   	nop

0000000000405980 <_ZN11BuilderBaseIiiiLb1EE17ParallelPrefixSumERK7pvectorIiE._omp_fn.0>:
_ZN11BuilderBaseIiiiLb1EE17ParallelPrefixSumERK7pvectorIiE._omp_fn.0():
/home/aliha951/ipdps-artifact/gapbs-master/src/builder.h:110
  static
  pvector<SGOffset> ParallelPrefixSum(const pvector<NodeID_> &degrees) {
    const size_t block_size = 1<<20;
    const size_t num_blocks = (degrees.size() + block_size - 1) / block_size;
    pvector<SGOffset> local_sums(num_blocks);
    #pragma omp parallel for
  405980:	f3 0f 1e fa          	endbr64 
  405984:	41 54                	push   %r12
  405986:	55                   	push   %rbp
  405987:	53                   	push   %rbx
  405988:	48 8b 5f 08          	mov    0x8(%rdi),%rbx
  40598c:	48 85 db             	test   %rbx,%rbx
  40598f:	0f 84 4d 01 00 00    	je     405ae2 <_ZN11BuilderBaseIiiiLb1EE17ParallelPrefixSumERK7pvectorIiE._omp_fn.0+0x162>
  405995:	49 89 fc             	mov    %rdi,%r12
  405998:	e8 83 e1 ff ff       	callq  403b20 <omp_get_num_threads@plt>
  40599d:	89 c5                	mov    %eax,%ebp
  40599f:	e8 3c e0 ff ff       	callq  4039e0 <omp_get_thread_num@plt>
  4059a4:	48 63 cd             	movslq %ebp,%rcx
  4059a7:	31 d2                	xor    %edx,%edx
  4059a9:	48 63 f0             	movslq %eax,%rsi
  4059ac:	48 89 d8             	mov    %rbx,%rax
  4059af:	48 f7 f1             	div    %rcx
  4059b2:	48 39 d6             	cmp    %rdx,%rsi
  4059b5:	0f 82 3d 01 00 00    	jb     405af8 <_ZN11BuilderBaseIiiiLb1EE17ParallelPrefixSumERK7pvectorIiE._omp_fn.0+0x178>
  4059bb:	48 0f af f0          	imul   %rax,%rsi
  4059bf:	48 01 d6             	add    %rdx,%rsi
  4059c2:	48 01 f0             	add    %rsi,%rax
  4059c5:	48 39 c6             	cmp    %rax,%rsi
  4059c8:	0f 83 14 01 00 00    	jae    405ae2 <_ZN11BuilderBaseIiiiLb1EE17ParallelPrefixSumERK7pvectorIiE._omp_fn.0+0x162>
/home/aliha951/ipdps-artifact/gapbs-master/src/builder.h:113
    for (size_t block=0; block < num_blocks; block++) {
      SGOffset lsum = 0;
      size_t block_end = std::min((block + 1) * block_size, degrees.size());
  4059ce:	49 8b 14 24          	mov    (%r12),%rdx
  4059d2:	49 89 f0             	mov    %rsi,%r8
/home/aliha951/ipdps-artifact/gapbs-master/src/builder.h:115
      for (size_t i=block * block_size; i < block_end; i++)
        lsum += degrees[i];
  4059d5:	66 0f ef e4          	pxor   %xmm4,%xmm4
  4059d9:	49 c1 e0 14          	shl    $0x14,%r8
_ZNK7pvectorIiE4sizeEv():
/home/aliha951/ipdps-artifact/gapbs-master/src/pvector.h:143
    return end_size_ - start_;
  4059dd:	4c 8b 1a             	mov    (%rdx),%r11
  4059e0:	4c 8b 52 08          	mov    0x8(%rdx),%r10
_ZN7pvectorIlEixEm():
/home/aliha951/ipdps-artifact/gapbs-master/src/pvector.h:116
    return start_[n];
  4059e4:	49 8b 54 24 10       	mov    0x10(%r12),%rdx
_ZNK7pvectorIiE4sizeEv():
/home/aliha951/ipdps-artifact/gapbs-master/src/pvector.h:143
    return end_size_ - start_;
  4059e9:	4d 29 da             	sub    %r11,%r10
_ZN7pvectorIlEixEm():
/home/aliha951/ipdps-artifact/gapbs-master/src/pvector.h:116
    return start_[n];
  4059ec:	48 8b 12             	mov    (%rdx),%rdx
_ZNK7pvectorIiE4sizeEv():
/home/aliha951/ipdps-artifact/gapbs-master/src/pvector.h:143
    return end_size_ - start_;
  4059ef:	49 c1 fa 02          	sar    $0x2,%r10
  4059f3:	4c 8d 0c f2          	lea    (%rdx,%rsi,8),%r9
  4059f7:	48 c1 e6 16          	shl    $0x16,%rsi
  4059fb:	48 8d 2c c2          	lea    (%rdx,%rax,8),%rbp
  4059ff:	4c 01 de             	add    %r11,%rsi
  405a02:	66 0f 1f 44 00 00    	nopw   0x0(%rax,%rax,1)
/home/aliha951/ipdps-artifact/gapbs-master/src/pvector.h:142
  size_t size() const {
  405a08:	4c 89 c1             	mov    %r8,%rcx
_ZN11BuilderBaseIiiiLb1EE17ParallelPrefixSumERK7pvectorIiE._omp_fn.0():
/home/aliha951/ipdps-artifact/gapbs-master/src/builder.h:113
      size_t block_end = std::min((block + 1) * block_size, degrees.size());
  405a0b:	49 81 c0 00 00 10 00 	add    $0x100000,%r8
  405a12:	4c 89 d3             	mov    %r10,%rbx
  405a15:	4d 39 d0             	cmp    %r10,%r8
  405a18:	49 0f 46 d8          	cmovbe %r8,%rbx
/home/aliha951/ipdps-artifact/gapbs-master/src/builder.h:114
      for (size_t i=block * block_size; i < block_end; i++)
  405a1c:	48 39 cb             	cmp    %rcx,%rbx
  405a1f:	0f 86 cb 00 00 00    	jbe    405af0 <_ZN11BuilderBaseIiiiLb1EE17ParallelPrefixSumERK7pvectorIiE._omp_fn.0+0x170>
  405a25:	48 89 df             	mov    %rbx,%rdi
  405a28:	48 29 cf             	sub    %rcx,%rdi
  405a2b:	48 8d 47 ff          	lea    -0x1(%rdi),%rax
  405a2f:	48 83 f8 02          	cmp    $0x2,%rax
  405a33:	0f 86 bb 00 00 00    	jbe    405af4 <_ZN11BuilderBaseIiiiLb1EE17ParallelPrefixSumERK7pvectorIiE._omp_fn.0+0x174>
  405a39:	48 89 fa             	mov    %rdi,%rdx
  405a3c:	48 89 f0             	mov    %rsi,%rax
  405a3f:	66 0f ef c9          	pxor   %xmm1,%xmm1
  405a43:	48 c1 ea 02          	shr    $0x2,%rdx
  405a47:	48 c1 e2 04          	shl    $0x4,%rdx
  405a4b:	48 01 f2             	add    %rsi,%rdx
  405a4e:	66 90                	xchg   %ax,%ax
/home/aliha951/ipdps-artifact/gapbs-master/src/builder.h:115 (discriminator 2)
        lsum += degrees[i];
  405a50:	f3 0f 6f 00          	movdqu (%rax),%xmm0
  405a54:	66 0f 6f d4          	movdqa %xmm4,%xmm2
  405a58:	48 83 c0 10          	add    $0x10,%rax
  405a5c:	66 0f 66 d0          	pcmpgtd %xmm0,%xmm2
  405a60:	66 0f 6f d8          	movdqa %xmm0,%xmm3
  405a64:	66 0f 62 da          	punpckldq %xmm2,%xmm3
  405a68:	66 0f 6a c2          	punpckhdq %xmm2,%xmm0
  405a6c:	66 0f d4 cb          	paddq  %xmm3,%xmm1
  405a70:	66 0f d4 c8          	paddq  %xmm0,%xmm1
/home/aliha951/ipdps-artifact/gapbs-master/src/builder.h:114 (discriminator 2)
      for (size_t i=block * block_size; i < block_end; i++)
  405a74:	48 39 d0             	cmp    %rdx,%rax
  405a77:	75 d7                	jne    405a50 <_ZN11BuilderBaseIiiiLb1EE17ParallelPrefixSumERK7pvectorIiE._omp_fn.0+0xd0>
  405a79:	66 0f 6f c1          	movdqa %xmm1,%xmm0
  405a7d:	48 89 fa             	mov    %rdi,%rdx
  405a80:	66 0f 73 d8 08       	psrldq $0x8,%xmm0
  405a85:	48 83 e2 fc          	and    $0xfffffffffffffffc,%rdx
  405a89:	66 0f d4 c1          	paddq  %xmm1,%xmm0
  405a8d:	48 01 d1             	add    %rdx,%rcx
  405a90:	66 48 0f 7e c0       	movq   %xmm0,%rax
  405a95:	48 39 fa             	cmp    %rdi,%rdx
