
../cc:     file format elf64-x86-64


Disassembly of section .init:

0000000000403000 <_init>:
_init():
  403000:	f3 0f 1e fa          	endbr64 
  403004:	48 83 ec 08          	sub    $0x8,%rsp
  403008:	48 8b 05 e1 6f 01 00 	mov    0x16fe1(%rip),%rax        # 419ff0 <__gmon_start__>
  40300f:	48 85 c0             	test   %rax,%rax
  403012:	74 02                	je     403016 <_init+0x16>
  403014:	ff d0                	callq  *%rax
  403016:	48 83 c4 08          	add    $0x8,%rsp
  40301a:	c3                   	retq   

Disassembly of section .plt:

0000000000403020 <.plt>:
  403020:	ff 35 e2 6f 01 00    	pushq  0x16fe2(%rip)        # 41a008 <_GLOBAL_OFFSET_TABLE_+0x8>
  403026:	f2 ff 25 e3 6f 01 00 	bnd jmpq *0x16fe3(%rip)        # 41a010 <_GLOBAL_OFFSET_TABLE_+0x10>
  40302d:	0f 1f 00             	nopl   (%rax)
  403030:	f3 0f 1e fa          	endbr64 
  403034:	68 00 00 00 00       	pushq  $0x0
  403039:	f2 e9 e1 ff ff ff    	bnd jmpq 403020 <.plt>
  40303f:	90                   	nop
  403040:	f3 0f 1e fa          	endbr64 
  403044:	68 01 00 00 00       	pushq  $0x1
  403049:	f2 e9 d1 ff ff ff    	bnd jmpq 403020 <.plt>
  40304f:	90                   	nop
  403050:	f3 0f 1e fa          	endbr64 
  403054:	68 02 00 00 00       	pushq  $0x2
  403059:	f2 e9 c1 ff ff ff    	bnd jmpq 403020 <.plt>
  40305f:	90                   	nop
  403060:	f3 0f 1e fa          	endbr64 
  403064:	68 03 00 00 00       	pushq  $0x3
  403069:	f2 e9 b1 ff ff ff    	bnd jmpq 403020 <.plt>
  40306f:	90                   	nop
  403070:	f3 0f 1e fa          	endbr64 
  403074:	68 04 00 00 00       	pushq  $0x4
  403079:	f2 e9 a1 ff ff ff    	bnd jmpq 403020 <.plt>
  40307f:	90                   	nop
  403080:	f3 0f 1e fa          	endbr64 
  403084:	68 05 00 00 00       	pushq  $0x5
  403089:	f2 e9 91 ff ff ff    	bnd jmpq 403020 <.plt>
  40308f:	90                   	nop
  403090:	f3 0f 1e fa          	endbr64 
  403094:	68 06 00 00 00       	pushq  $0x6
  403099:	f2 e9 81 ff ff ff    	bnd jmpq 403020 <.plt>
  40309f:	90                   	nop
  4030a0:	f3 0f 1e fa          	endbr64 
  4030a4:	68 07 00 00 00       	pushq  $0x7
  4030a9:	f2 e9 71 ff ff ff    	bnd jmpq 403020 <.plt>
  4030af:	90                   	nop
  4030b0:	f3 0f 1e fa          	endbr64 
  4030b4:	68 08 00 00 00       	pushq  $0x8
  4030b9:	f2 e9 61 ff ff ff    	bnd jmpq 403020 <.plt>
  4030bf:	90                   	nop
  4030c0:	f3 0f 1e fa          	endbr64 
  4030c4:	68 09 00 00 00       	pushq  $0x9
  4030c9:	f2 e9 51 ff ff ff    	bnd jmpq 403020 <.plt>
  4030cf:	90                   	nop
  4030d0:	f3 0f 1e fa          	endbr64 
  4030d4:	68 0a 00 00 00       	pushq  $0xa
  4030d9:	f2 e9 41 ff ff ff    	bnd jmpq 403020 <.plt>
  4030df:	90                   	nop
  4030e0:	f3 0f 1e fa          	endbr64 
  4030e4:	68 0b 00 00 00       	pushq  $0xb
  4030e9:	f2 e9 31 ff ff ff    	bnd jmpq 403020 <.plt>
  4030ef:	90                   	nop
  4030f0:	f3 0f 1e fa          	endbr64 
  4030f4:	68 0c 00 00 00       	pushq  $0xc
  4030f9:	f2 e9 21 ff ff ff    	bnd jmpq 403020 <.plt>
  4030ff:	90                   	nop
  403100:	f3 0f 1e fa          	endbr64 
  403104:	68 0d 00 00 00       	pushq  $0xd
  403109:	f2 e9 11 ff ff ff    	bnd jmpq 403020 <.plt>
  40310f:	90                   	nop
  403110:	f3 0f 1e fa          	endbr64 
  403114:	68 0e 00 00 00       	pushq  $0xe
  403119:	f2 e9 01 ff ff ff    	bnd jmpq 403020 <.plt>
  40311f:	90                   	nop
  403120:	f3 0f 1e fa          	endbr64 
  403124:	68 0f 00 00 00       	pushq  $0xf
  403129:	f2 e9 f1 fe ff ff    	bnd jmpq 403020 <.plt>
  40312f:	90                   	nop
  403130:	f3 0f 1e fa          	endbr64 
  403134:	68 10 00 00 00       	pushq  $0x10
  403139:	f2 e9 e1 fe ff ff    	bnd jmpq 403020 <.plt>
  40313f:	90                   	nop
  403140:	f3 0f 1e fa          	endbr64 
  403144:	68 11 00 00 00       	pushq  $0x11
  403149:	f2 e9 d1 fe ff ff    	bnd jmpq 403020 <.plt>
  40314f:	90                   	nop
  403150:	f3 0f 1e fa          	endbr64 
  403154:	68 12 00 00 00       	pushq  $0x12
  403159:	f2 e9 c1 fe ff ff    	bnd jmpq 403020 <.plt>
  40315f:	90                   	nop
  403160:	f3 0f 1e fa          	endbr64 
  403164:	68 13 00 00 00       	pushq  $0x13
  403169:	f2 e9 b1 fe ff ff    	bnd jmpq 403020 <.plt>
  40316f:	90                   	nop
  403170:	f3 0f 1e fa          	endbr64 
  403174:	68 14 00 00 00       	pushq  $0x14
  403179:	f2 e9 a1 fe ff ff    	bnd jmpq 403020 <.plt>
  40317f:	90                   	nop
  403180:	f3 0f 1e fa          	endbr64 
  403184:	68 15 00 00 00       	pushq  $0x15
  403189:	f2 e9 91 fe ff ff    	bnd jmpq 403020 <.plt>
  40318f:	90                   	nop
  403190:	f3 0f 1e fa          	endbr64 
  403194:	68 16 00 00 00       	pushq  $0x16
  403199:	f2 e9 81 fe ff ff    	bnd jmpq 403020 <.plt>
  40319f:	90                   	nop
  4031a0:	f3 0f 1e fa          	endbr64 
  4031a4:	68 17 00 00 00       	pushq  $0x17
  4031a9:	f2 e9 71 fe ff ff    	bnd jmpq 403020 <.plt>
  4031af:	90                   	nop
  4031b0:	f3 0f 1e fa          	endbr64 
  4031b4:	68 18 00 00 00       	pushq  $0x18
  4031b9:	f2 e9 61 fe ff ff    	bnd jmpq 403020 <.plt>
  4031bf:	90                   	nop
  4031c0:	f3 0f 1e fa          	endbr64 
  4031c4:	68 19 00 00 00       	pushq  $0x19
  4031c9:	f2 e9 51 fe ff ff    	bnd jmpq 403020 <.plt>
  4031cf:	90                   	nop
  4031d0:	f3 0f 1e fa          	endbr64 
  4031d4:	68 1a 00 00 00       	pushq  $0x1a
  4031d9:	f2 e9 41 fe ff ff    	bnd jmpq 403020 <.plt>
  4031df:	90                   	nop
  4031e0:	f3 0f 1e fa          	endbr64 
  4031e4:	68 1b 00 00 00       	pushq  $0x1b
  4031e9:	f2 e9 31 fe ff ff    	bnd jmpq 403020 <.plt>
  4031ef:	90                   	nop
  4031f0:	f3 0f 1e fa          	endbr64 
  4031f4:	68 1c 00 00 00       	pushq  $0x1c
  4031f9:	f2 e9 21 fe ff ff    	bnd jmpq 403020 <.plt>
  4031ff:	90                   	nop
  403200:	f3 0f 1e fa          	endbr64 
  403204:	68 1d 00 00 00       	pushq  $0x1d
  403209:	f2 e9 11 fe ff ff    	bnd jmpq 403020 <.plt>
  40320f:	90                   	nop
  403210:	f3 0f 1e fa          	endbr64 
  403214:	68 1e 00 00 00       	pushq  $0x1e
  403219:	f2 e9 01 fe ff ff    	bnd jmpq 403020 <.plt>
  40321f:	90                   	nop
  403220:	f3 0f 1e fa          	endbr64 
  403224:	68 1f 00 00 00       	pushq  $0x1f
  403229:	f2 e9 f1 fd ff ff    	bnd jmpq 403020 <.plt>
  40322f:	90                   	nop
  403230:	f3 0f 1e fa          	endbr64 
  403234:	68 20 00 00 00       	pushq  $0x20
  403239:	f2 e9 e1 fd ff ff    	bnd jmpq 403020 <.plt>
  40323f:	90                   	nop
  403240:	f3 0f 1e fa          	endbr64 
  403244:	68 21 00 00 00       	pushq  $0x21
  403249:	f2 e9 d1 fd ff ff    	bnd jmpq 403020 <.plt>
  40324f:	90                   	nop
  403250:	f3 0f 1e fa          	endbr64 
  403254:	68 22 00 00 00       	pushq  $0x22
  403259:	f2 e9 c1 fd ff ff    	bnd jmpq 403020 <.plt>
  40325f:	90                   	nop
  403260:	f3 0f 1e fa          	endbr64 
  403264:	68 23 00 00 00       	pushq  $0x23
  403269:	f2 e9 b1 fd ff ff    	bnd jmpq 403020 <.plt>
  40326f:	90                   	nop
  403270:	f3 0f 1e fa          	endbr64 
  403274:	68 24 00 00 00       	pushq  $0x24
  403279:	f2 e9 a1 fd ff ff    	bnd jmpq 403020 <.plt>
  40327f:	90                   	nop
  403280:	f3 0f 1e fa          	endbr64 
  403284:	68 25 00 00 00       	pushq  $0x25
  403289:	f2 e9 91 fd ff ff    	bnd jmpq 403020 <.plt>
  40328f:	90                   	nop
  403290:	f3 0f 1e fa          	endbr64 
  403294:	68 26 00 00 00       	pushq  $0x26
  403299:	f2 e9 81 fd ff ff    	bnd jmpq 403020 <.plt>
  40329f:	90                   	nop
  4032a0:	f3 0f 1e fa          	endbr64 
  4032a4:	68 27 00 00 00       	pushq  $0x27
  4032a9:	f2 e9 71 fd ff ff    	bnd jmpq 403020 <.plt>
  4032af:	90                   	nop
  4032b0:	f3 0f 1e fa          	endbr64 
  4032b4:	68 28 00 00 00       	pushq  $0x28
  4032b9:	f2 e9 61 fd ff ff    	bnd jmpq 403020 <.plt>
  4032bf:	90                   	nop
  4032c0:	f3 0f 1e fa          	endbr64 
  4032c4:	68 29 00 00 00       	pushq  $0x29
  4032c9:	f2 e9 51 fd ff ff    	bnd jmpq 403020 <.plt>
  4032cf:	90                   	nop
  4032d0:	f3 0f 1e fa          	endbr64 
  4032d4:	68 2a 00 00 00       	pushq  $0x2a
  4032d9:	f2 e9 41 fd ff ff    	bnd jmpq 403020 <.plt>
  4032df:	90                   	nop
  4032e0:	f3 0f 1e fa          	endbr64 
  4032e4:	68 2b 00 00 00       	pushq  $0x2b
  4032e9:	f2 e9 31 fd ff ff    	bnd jmpq 403020 <.plt>
  4032ef:	90                   	nop
  4032f0:	f3 0f 1e fa          	endbr64 
  4032f4:	68 2c 00 00 00       	pushq  $0x2c
  4032f9:	f2 e9 21 fd ff ff    	bnd jmpq 403020 <.plt>
  4032ff:	90                   	nop
  403300:	f3 0f 1e fa          	endbr64 
  403304:	68 2d 00 00 00       	pushq  $0x2d
  403309:	f2 e9 11 fd ff ff    	bnd jmpq 403020 <.plt>
  40330f:	90                   	nop
  403310:	f3 0f 1e fa          	endbr64 
  403314:	68 2e 00 00 00       	pushq  $0x2e
  403319:	f2 e9 01 fd ff ff    	bnd jmpq 403020 <.plt>
  40331f:	90                   	nop
  403320:	f3 0f 1e fa          	endbr64 
  403324:	68 2f 00 00 00       	pushq  $0x2f
  403329:	f2 e9 f1 fc ff ff    	bnd jmpq 403020 <.plt>
  40332f:	90                   	nop
  403330:	f3 0f 1e fa          	endbr64 
  403334:	68 30 00 00 00       	pushq  $0x30
  403339:	f2 e9 e1 fc ff ff    	bnd jmpq 403020 <.plt>
  40333f:	90                   	nop
  403340:	f3 0f 1e fa          	endbr64 
  403344:	68 31 00 00 00       	pushq  $0x31
  403349:	f2 e9 d1 fc ff ff    	bnd jmpq 403020 <.plt>
  40334f:	90                   	nop
  403350:	f3 0f 1e fa          	endbr64 
  403354:	68 32 00 00 00       	pushq  $0x32
  403359:	f2 e9 c1 fc ff ff    	bnd jmpq 403020 <.plt>
  40335f:	90                   	nop
  403360:	f3 0f 1e fa          	endbr64 
  403364:	68 33 00 00 00       	pushq  $0x33
  403369:	f2 e9 b1 fc ff ff    	bnd jmpq 403020 <.plt>
  40336f:	90                   	nop
  403370:	f3 0f 1e fa          	endbr64 
  403374:	68 34 00 00 00       	pushq  $0x34
  403379:	f2 e9 a1 fc ff ff    	bnd jmpq 403020 <.plt>
  40337f:	90                   	nop
  403380:	f3 0f 1e fa          	endbr64 
  403384:	68 35 00 00 00       	pushq  $0x35
  403389:	f2 e9 91 fc ff ff    	bnd jmpq 403020 <.plt>
  40338f:	90                   	nop
  403390:	f3 0f 1e fa          	endbr64 
  403394:	68 36 00 00 00       	pushq  $0x36
  403399:	f2 e9 81 fc ff ff    	bnd jmpq 403020 <.plt>
  40339f:	90                   	nop
  4033a0:	f3 0f 1e fa          	endbr64 
  4033a4:	68 37 00 00 00       	pushq  $0x37
  4033a9:	f2 e9 71 fc ff ff    	bnd jmpq 403020 <.plt>
  4033af:	90                   	nop
  4033b0:	f3 0f 1e fa          	endbr64 
  4033b4:	68 38 00 00 00       	pushq  $0x38
  4033b9:	f2 e9 61 fc ff ff    	bnd jmpq 403020 <.plt>
  4033bf:	90                   	nop
  4033c0:	f3 0f 1e fa          	endbr64 
  4033c4:	68 39 00 00 00       	pushq  $0x39
  4033c9:	f2 e9 51 fc ff ff    	bnd jmpq 403020 <.plt>
  4033cf:	90                   	nop
  4033d0:	f3 0f 1e fa          	endbr64 
  4033d4:	68 3a 00 00 00       	pushq  $0x3a
  4033d9:	f2 e9 41 fc ff ff    	bnd jmpq 403020 <.plt>
  4033df:	90                   	nop
  4033e0:	f3 0f 1e fa          	endbr64 
  4033e4:	68 3b 00 00 00       	pushq  $0x3b
  4033e9:	f2 e9 31 fc ff ff    	bnd jmpq 403020 <.plt>
  4033ef:	90                   	nop
  4033f0:	f3 0f 1e fa          	endbr64 
  4033f4:	68 3c 00 00 00       	pushq  $0x3c
  4033f9:	f2 e9 21 fc ff ff    	bnd jmpq 403020 <.plt>
  4033ff:	90                   	nop
  403400:	f3 0f 1e fa          	endbr64 
  403404:	68 3d 00 00 00       	pushq  $0x3d
  403409:	f2 e9 11 fc ff ff    	bnd jmpq 403020 <.plt>
  40340f:	90                   	nop
  403410:	f3 0f 1e fa          	endbr64 
  403414:	68 3e 00 00 00       	pushq  $0x3e
  403419:	f2 e9 01 fc ff ff    	bnd jmpq 403020 <.plt>
  40341f:	90                   	nop
  403420:	f3 0f 1e fa          	endbr64 
  403424:	68 3f 00 00 00       	pushq  $0x3f
  403429:	f2 e9 f1 fb ff ff    	bnd jmpq 403020 <.plt>
  40342f:	90                   	nop
  403430:	f3 0f 1e fa          	endbr64 
  403434:	68 40 00 00 00       	pushq  $0x40
  403439:	f2 e9 e1 fb ff ff    	bnd jmpq 403020 <.plt>
  40343f:	90                   	nop
  403440:	f3 0f 1e fa          	endbr64 
  403444:	68 41 00 00 00       	pushq  $0x41
  403449:	f2 e9 d1 fb ff ff    	bnd jmpq 403020 <.plt>
  40344f:	90                   	nop
  403450:	f3 0f 1e fa          	endbr64 
  403454:	68 42 00 00 00       	pushq  $0x42
  403459:	f2 e9 c1 fb ff ff    	bnd jmpq 403020 <.plt>
  40345f:	90                   	nop
  403460:	f3 0f 1e fa          	endbr64 
  403464:	68 43 00 00 00       	pushq  $0x43
  403469:	f2 e9 b1 fb ff ff    	bnd jmpq 403020 <.plt>
  40346f:	90                   	nop
  403470:	f3 0f 1e fa          	endbr64 
  403474:	68 44 00 00 00       	pushq  $0x44
  403479:	f2 e9 a1 fb ff ff    	bnd jmpq 403020 <.plt>
  40347f:	90                   	nop
  403480:	f3 0f 1e fa          	endbr64 
  403484:	68 45 00 00 00       	pushq  $0x45
  403489:	f2 e9 91 fb ff ff    	bnd jmpq 403020 <.plt>
  40348f:	90                   	nop
  403490:	f3 0f 1e fa          	endbr64 
  403494:	68 46 00 00 00       	pushq  $0x46
  403499:	f2 e9 81 fb ff ff    	bnd jmpq 403020 <.plt>
  40349f:	90                   	nop
  4034a0:	f3 0f 1e fa          	endbr64 
  4034a4:	68 47 00 00 00       	pushq  $0x47
  4034a9:	f2 e9 71 fb ff ff    	bnd jmpq 403020 <.plt>
  4034af:	90                   	nop
  4034b0:	f3 0f 1e fa          	endbr64 
  4034b4:	68 48 00 00 00       	pushq  $0x48
  4034b9:	f2 e9 61 fb ff ff    	bnd jmpq 403020 <.plt>
  4034bf:	90                   	nop
  4034c0:	f3 0f 1e fa          	endbr64 
  4034c4:	68 49 00 00 00       	pushq  $0x49
  4034c9:	f2 e9 51 fb ff ff    	bnd jmpq 403020 <.plt>
  4034cf:	90                   	nop
  4034d0:	f3 0f 1e fa          	endbr64 
  4034d4:	68 4a 00 00 00       	pushq  $0x4a
  4034d9:	f2 e9 41 fb ff ff    	bnd jmpq 403020 <.plt>
  4034df:	90                   	nop
  4034e0:	f3 0f 1e fa          	endbr64 
  4034e4:	68 4b 00 00 00       	pushq  $0x4b
  4034e9:	f2 e9 31 fb ff ff    	bnd jmpq 403020 <.plt>
  4034ef:	90                   	nop
  4034f0:	f3 0f 1e fa          	endbr64 
  4034f4:	68 4c 00 00 00       	pushq  $0x4c
  4034f9:	f2 e9 21 fb ff ff    	bnd jmpq 403020 <.plt>
  4034ff:	90                   	nop
  403500:	f3 0f 1e fa          	endbr64 
  403504:	68 4d 00 00 00       	pushq  $0x4d
  403509:	f2 e9 11 fb ff ff    	bnd jmpq 403020 <.plt>
  40350f:	90                   	nop
  403510:	f3 0f 1e fa          	endbr64 
  403514:	68 4e 00 00 00       	pushq  $0x4e
  403519:	f2 e9 01 fb ff ff    	bnd jmpq 403020 <.plt>
  40351f:	90                   	nop
  403520:	f3 0f 1e fa          	endbr64 
  403524:	68 4f 00 00 00       	pushq  $0x4f
  403529:	f2 e9 f1 fa ff ff    	bnd jmpq 403020 <.plt>
  40352f:	90                   	nop
  403530:	f3 0f 1e fa          	endbr64 
  403534:	68 50 00 00 00       	pushq  $0x50
  403539:	f2 e9 e1 fa ff ff    	bnd jmpq 403020 <.plt>
  40353f:	90                   	nop
  403540:	f3 0f 1e fa          	endbr64 
  403544:	68 51 00 00 00       	pushq  $0x51
  403549:	f2 e9 d1 fa ff ff    	bnd jmpq 403020 <.plt>
  40354f:	90                   	nop
  403550:	f3 0f 1e fa          	endbr64 
  403554:	68 52 00 00 00       	pushq  $0x52
  403559:	f2 e9 c1 fa ff ff    	bnd jmpq 403020 <.plt>
  40355f:	90                   	nop
  403560:	f3 0f 1e fa          	endbr64 
  403564:	68 53 00 00 00       	pushq  $0x53
  403569:	f2 e9 b1 fa ff ff    	bnd jmpq 403020 <.plt>
  40356f:	90                   	nop
  403570:	f3 0f 1e fa          	endbr64 
  403574:	68 54 00 00 00       	pushq  $0x54
  403579:	f2 e9 a1 fa ff ff    	bnd jmpq 403020 <.plt>
  40357f:	90                   	nop
  403580:	f3 0f 1e fa          	endbr64 
  403584:	68 55 00 00 00       	pushq  $0x55
  403589:	f2 e9 91 fa ff ff    	bnd jmpq 403020 <.plt>
  40358f:	90                   	nop
  403590:	f3 0f 1e fa          	endbr64 
  403594:	68 56 00 00 00       	pushq  $0x56
  403599:	f2 e9 81 fa ff ff    	bnd jmpq 403020 <.plt>
  40359f:	90                   	nop
  4035a0:	f3 0f 1e fa          	endbr64 
  4035a4:	68 57 00 00 00       	pushq  $0x57
  4035a9:	f2 e9 71 fa ff ff    	bnd jmpq 403020 <.plt>
  4035af:	90                   	nop
  4035b0:	f3 0f 1e fa          	endbr64 
  4035b4:	68 58 00 00 00       	pushq  $0x58
  4035b9:	f2 e9 61 fa ff ff    	bnd jmpq 403020 <.plt>
  4035bf:	90                   	nop
  4035c0:	f3 0f 1e fa          	endbr64 
  4035c4:	68 59 00 00 00       	pushq  $0x59
  4035c9:	f2 e9 51 fa ff ff    	bnd jmpq 403020 <.plt>
  4035cf:	90                   	nop
  4035d0:	f3 0f 1e fa          	endbr64 
  4035d4:	68 5a 00 00 00       	pushq  $0x5a
  4035d9:	f2 e9 41 fa ff ff    	bnd jmpq 403020 <.plt>
  4035df:	90                   	nop
  4035e0:	f3 0f 1e fa          	endbr64 
  4035e4:	68 5b 00 00 00       	pushq  $0x5b
  4035e9:	f2 e9 31 fa ff ff    	bnd jmpq 403020 <.plt>
  4035ef:	90                   	nop
  4035f0:	f3 0f 1e fa          	endbr64 
  4035f4:	68 5c 00 00 00       	pushq  $0x5c
  4035f9:	f2 e9 21 fa ff ff    	bnd jmpq 403020 <.plt>
  4035ff:	90                   	nop
  403600:	f3 0f 1e fa          	endbr64 
  403604:	68 5d 00 00 00       	pushq  $0x5d
  403609:	f2 e9 11 fa ff ff    	bnd jmpq 403020 <.plt>
  40360f:	90                   	nop
  403610:	f3 0f 1e fa          	endbr64 
  403614:	68 5e 00 00 00       	pushq  $0x5e
  403619:	f2 e9 01 fa ff ff    	bnd jmpq 403020 <.plt>
  40361f:	90                   	nop
  403620:	f3 0f 1e fa          	endbr64 
  403624:	68 5f 00 00 00       	pushq  $0x5f
  403629:	f2 e9 f1 f9 ff ff    	bnd jmpq 403020 <.plt>
  40362f:	90                   	nop
  403630:	f3 0f 1e fa          	endbr64 
  403634:	68 60 00 00 00       	pushq  $0x60
  403639:	f2 e9 e1 f9 ff ff    	bnd jmpq 403020 <.plt>
  40363f:	90                   	nop
  403640:	f3 0f 1e fa          	endbr64 
  403644:	68 61 00 00 00       	pushq  $0x61
  403649:	f2 e9 d1 f9 ff ff    	bnd jmpq 403020 <.plt>
  40364f:	90                   	nop
  403650:	f3 0f 1e fa          	endbr64 
  403654:	68 62 00 00 00       	pushq  $0x62
  403659:	f2 e9 c1 f9 ff ff    	bnd jmpq 403020 <.plt>
  40365f:	90                   	nop
  403660:	f3 0f 1e fa          	endbr64 
  403664:	68 63 00 00 00       	pushq  $0x63
  403669:	f2 e9 b1 f9 ff ff    	bnd jmpq 403020 <.plt>
  40366f:	90                   	nop
  403670:	f3 0f 1e fa          	endbr64 
  403674:	68 64 00 00 00       	pushq  $0x64
  403679:	f2 e9 a1 f9 ff ff    	bnd jmpq 403020 <.plt>
  40367f:	90                   	nop

Disassembly of section .plt.sec:

0000000000403680 <__printf_chk@plt>:
  403680:	f3 0f 1e fa          	endbr64 
  403684:	f2 ff 25 8d 69 01 00 	bnd jmpq *0x1698d(%rip)        # 41a018 <__printf_chk@GLIBC_2.3.4>
  40368b:	0f 1f 44 00 00       	nopl   0x0(%rax,%rax,1)

0000000000403690 <_Znam@plt>:
  403690:	f3 0f 1e fa          	endbr64 
  403694:	f2 ff 25 85 69 01 00 	bnd jmpq *0x16985(%rip)        # 41a020 <_Znam@GLIBCXX_3.4>
  40369b:	0f 1f 44 00 00       	nopl   0x0(%rax,%rax,1)

00000000004036a0 <GOMP_loop_end_nowait@plt>:
  4036a0:	f3 0f 1e fa          	endbr64 
  4036a4:	f2 ff 25 7d 69 01 00 	bnd jmpq *0x1697d(%rip)        # 41a028 <GOMP_loop_end_nowait@VERSION>
  4036ab:	0f 1f 44 00 00       	nopl   0x0(%rax,%rax,1)

00000000004036b0 <_ZNSo3putEc@plt>:
  4036b0:	f3 0f 1e fa          	endbr64 
  4036b4:	f2 ff 25 75 69 01 00 	bnd jmpq *0x16975(%rip)        # 41a030 <_ZNSo3putEc@GLIBCXX_3.4>
  4036bb:	0f 1f 44 00 00       	nopl   0x0(%rax,%rax,1)

00000000004036c0 <_ZNSt6chrono3_V212system_clock3nowEv@plt>:
  4036c0:	f3 0f 1e fa          	endbr64 
  4036c4:	f2 ff 25 6d 69 01 00 	bnd jmpq *0x1696d(%rip)        # 41a038 <_ZNSt6chrono3_V212system_clock3nowEv@GLIBCXX_3.4.19>
  4036cb:	0f 1f 44 00 00       	nopl   0x0(%rax,%rax,1)

00000000004036d0 <syscall@plt>:
  4036d0:	f3 0f 1e fa          	endbr64 
  4036d4:	f2 ff 25 65 69 01 00 	bnd jmpq *0x16965(%rip)        # 41a040 <syscall@GLIBC_2.2.5>
  4036db:	0f 1f 44 00 00       	nopl   0x0(%rax,%rax,1)

00000000004036e0 <bind@plt>:
  4036e0:	f3 0f 1e fa          	endbr64 
  4036e4:	f2 ff 25 5d 69 01 00 	bnd jmpq *0x1695d(%rip)        # 41a048 <bind@GLIBC_2.2.5>
  4036eb:	0f 1f 44 00 00       	nopl   0x0(%rax,%rax,1)

00000000004036f0 <strstr@plt>:
  4036f0:	f3 0f 1e fa          	endbr64 
  4036f4:	f2 ff 25 55 69 01 00 	bnd jmpq *0x16955(%rip)        # 41a050 <strstr@GLIBC_2.2.5>
  4036fb:	0f 1f 44 00 00       	nopl   0x0(%rax,%rax,1)

0000000000403700 <_ZNSt13basic_filebufIcSt11char_traitsIcEE5closeEv@plt>:
  403700:	f3 0f 1e fa          	endbr64 
  403704:	f2 ff 25 4d 69 01 00 	bnd jmpq *0x1694d(%rip)        # 41a058 <_ZNSt13basic_filebufIcSt11char_traitsIcEE5closeEv@GLIBCXX_3.4>
  40370b:	0f 1f 44 00 00       	nopl   0x0(%rax,%rax,1)

0000000000403710 <getopt@plt>:
  403710:	f3 0f 1e fa          	endbr64 
  403714:	f2 ff 25 45 69 01 00 	bnd jmpq *0x16945(%rip)        # 41a060 <getopt@GLIBC_2.2.5>
  40371b:	0f 1f 44 00 00       	nopl   0x0(%rax,%rax,1)

0000000000403720 <_ZNKSt12__basic_fileIcE7is_openEv@plt>:
  403720:	f3 0f 1e fa          	endbr64 
  403724:	f2 ff 25 3d 69 01 00 	bnd jmpq *0x1693d(%rip)        # 41a068 <_ZNKSt12__basic_fileIcE7is_openEv@GLIBCXX_3.4>
  40372b:	0f 1f 44 00 00       	nopl   0x0(%rax,%rax,1)

0000000000403730 <socket@plt>:
  403730:	f3 0f 1e fa          	endbr64 
  403734:	f2 ff 25 35 69 01 00 	bnd jmpq *0x16935(%rip)        # 41a070 <socket@GLIBC_2.2.5>
  40373b:	0f 1f 44 00 00       	nopl   0x0(%rax,%rax,1)

0000000000403740 <_ZNSt14basic_ifstreamIcSt11char_traitsIcEED1Ev@plt>:
  403740:	f3 0f 1e fa          	endbr64 
  403744:	f2 ff 25 2d 69 01 00 	bnd jmpq *0x1692d(%rip)        # 41a078 <_ZNSt14basic_ifstreamIcSt11char_traitsIcEED1Ev@GLIBCXX_3.4>
  40374b:	0f 1f 44 00 00       	nopl   0x0(%rax,%rax,1)

0000000000403750 <fork@plt>:
  403750:	f3 0f 1e fa          	endbr64 
  403754:	f2 ff 25 25 69 01 00 	bnd jmpq *0x16925(%rip)        # 41a080 <fork@GLIBC_2.2.5>
  40375b:	0f 1f 44 00 00       	nopl   0x0(%rax,%rax,1)

0000000000403760 <_ZNKSt7__cxx1112basic_stringIcSt11char_traitsIcESaIcEE7compareEPKc@plt>:
  403760:	f3 0f 1e fa          	endbr64 
  403764:	f2 ff 25 1d 69 01 00 	bnd jmpq *0x1691d(%rip)        # 41a088 <_ZNKSt7__cxx1112basic_stringIcSt11char_traitsIcESaIcEE7compareEPKc@GLIBCXX_3.4.21>
  40376b:	0f 1f 44 00 00       	nopl   0x0(%rax,%rax,1)

0000000000403770 <execlp@plt>:
  403770:	f3 0f 1e fa          	endbr64 
  403774:	f2 ff 25 15 69 01 00 	bnd jmpq *0x16915(%rip)        # 41a090 <execlp@GLIBC_2.2.5>
  40377b:	0f 1f 44 00 00       	nopl   0x0(%rax,%rax,1)

0000000000403780 <_ZNSt8ios_baseC2Ev@plt>:
  403780:	f3 0f 1e fa          	endbr64 
  403784:	f2 ff 25 0d 69 01 00 	bnd jmpq *0x1690d(%rip)        # 41a098 <_ZNSt8ios_baseC2Ev@GLIBCXX_3.4>
  40378b:	0f 1f 44 00 00       	nopl   0x0(%rax,%rax,1)

0000000000403790 <_ZNSt7__cxx1112basic_stringIcSt11char_traitsIcESaIcEE9_M_appendEPKcm@plt>:
  403790:	f3 0f 1e fa          	endbr64 
  403794:	f2 ff 25 05 69 01 00 	bnd jmpq *0x16905(%rip)        # 41a0a0 <_ZNSt7__cxx1112basic_stringIcSt11char_traitsIcESaIcEE9_M_appendEPKcm@GLIBCXX_3.4.21>
  40379b:	0f 1f 44 00 00       	nopl   0x0(%rax,%rax,1)

00000000004037a0 <recv@plt>:
  4037a0:	f3 0f 1e fa          	endbr64 
  4037a4:	f2 ff 25 fd 68 01 00 	bnd jmpq *0x168fd(%rip)        # 41a0a8 <recv@GLIBC_2.2.5>
  4037ab:	0f 1f 44 00 00       	nopl   0x0(%rax,%rax,1)

00000000004037b0 <_ZNSt8ios_baseD2Ev@plt>:
  4037b0:	f3 0f 1e fa          	endbr64 
  4037b4:	f2 ff 25 f5 68 01 00 	bnd jmpq *0x168f5(%rip)        # 41a0b0 <_ZNSt8ios_baseD2Ev@GLIBCXX_3.4>
  4037bb:	0f 1f 44 00 00       	nopl   0x0(%rax,%rax,1)

00000000004037c0 <_ZSt17__throw_bad_allocv@plt>:
  4037c0:	f3 0f 1e fa          	endbr64 
  4037c4:	f2 ff 25 ed 68 01 00 	bnd jmpq *0x168ed(%rip)        # 41a0b8 <_ZSt17__throw_bad_allocv@GLIBCXX_3.4>
  4037cb:	0f 1f 44 00 00       	nopl   0x0(%rax,%rax,1)

00000000004037d0 <_ZNSi4peekEv@plt>:
  4037d0:	f3 0f 1e fa          	endbr64 
  4037d4:	f2 ff 25 e5 68 01 00 	bnd jmpq *0x168e5(%rip)        # 41a0c0 <_ZNSi4peekEv@GLIBCXX_3.4>
  4037db:	0f 1f 44 00 00       	nopl   0x0(%rax,%rax,1)

00000000004037e0 <__cxa_begin_catch@plt>:
  4037e0:	f3 0f 1e fa          	endbr64 
  4037e4:	f2 ff 25 dd 68 01 00 	bnd jmpq *0x168dd(%rip)        # 41a0c8 <__cxa_begin_catch@CXXABI_1.3>
  4037eb:	0f 1f 44 00 00       	nopl   0x0(%rax,%rax,1)

00000000004037f0 <strlen@plt>:
  4037f0:	f3 0f 1e fa          	endbr64 
  4037f4:	f2 ff 25 d5 68 01 00 	bnd jmpq *0x168d5(%rip)        # 41a0d0 <strlen@GLIBC_2.2.5>
  4037fb:	0f 1f 44 00 00       	nopl   0x0(%rax,%rax,1)

0000000000403800 <_ZNSt7__cxx1119basic_istringstreamIcSt11char_traitsIcESaIcEED1Ev@plt>:
  403800:	f3 0f 1e fa          	endbr64 
  403804:	f2 ff 25 cd 68 01 00 	bnd jmpq *0x168cd(%rip)        # 41a0d8 <_ZNSt7__cxx1119basic_istringstreamIcSt11char_traitsIcESaIcEED1Ev@GLIBCXX_3.4.21>
  40380b:	0f 1f 44 00 00       	nopl   0x0(%rax,%rax,1)

0000000000403810 <send@plt>:
  403810:	f3 0f 1e fa          	endbr64 
  403814:	f2 ff 25 c5 68 01 00 	bnd jmpq *0x168c5(%rip)        # 41a0e0 <send@GLIBC_2.2.5>
  40381b:	0f 1f 44 00 00       	nopl   0x0(%rax,%rax,1)

0000000000403820 <_ZSt20__throw_length_errorPKc@plt>:
  403820:	f3 0f 1e fa          	endbr64 
  403824:	f2 ff 25 bd 68 01 00 	bnd jmpq *0x168bd(%rip)        # 41a0e8 <_ZSt20__throw_length_errorPKc@GLIBCXX_3.4>
  40382b:	0f 1f 44 00 00       	nopl   0x0(%rax,%rax,1)

0000000000403830 <memset@plt>:
  403830:	f3 0f 1e fa          	endbr64 
  403834:	f2 ff 25 b5 68 01 00 	bnd jmpq *0x168b5(%rip)        # 41a0f0 <memset@GLIBC_2.2.5>
  40383b:	0f 1f 44 00 00       	nopl   0x0(%rax,%rax,1)

0000000000403840 <getrusage@plt>:
  403840:	f3 0f 1e fa          	endbr64 
  403844:	f2 ff 25 ad 68 01 00 	bnd jmpq *0x168ad(%rip)        # 41a0f8 <getrusage@GLIBC_2.2.5>
  40384b:	0f 1f 44 00 00       	nopl   0x0(%rax,%rax,1)

0000000000403850 <GOMP_loop_nonmonotonic_dynamic_start@plt>:
  403850:	f3 0f 1e fa          	endbr64 
  403854:	f2 ff 25 a5 68 01 00 	bnd jmpq *0x168a5(%rip)        # 41a100 <GOMP_loop_nonmonotonic_dynamic_start@VERSION>
  40385b:	0f 1f 44 00 00       	nopl   0x0(%rax,%rax,1)

0000000000403860 <__snprintf_chk@plt>:
  403860:	f3 0f 1e fa          	endbr64 
  403864:	f2 ff 25 9d 68 01 00 	bnd jmpq *0x1689d(%rip)        # 41a108 <__snprintf_chk@GLIBC_2.3.4>
  40386b:	0f 1f 44 00 00       	nopl   0x0(%rax,%rax,1)

0000000000403870 <_ZNSirsERi@plt>:
  403870:	f3 0f 1e fa          	endbr64 
  403874:	f2 ff 25 95 68 01 00 	bnd jmpq *0x16895(%rip)        # 41a110 <_ZNSirsERi@GLIBCXX_3.4>
  40387b:	0f 1f 44 00 00       	nopl   0x0(%rax,%rax,1)

0000000000403880 <_ZNSi6ignoreEli@plt>:
  403880:	f3 0f 1e fa          	endbr64 
  403884:	f2 ff 25 8d 68 01 00 	bnd jmpq *0x1688d(%rip)        # 41a118 <_ZNSi6ignoreEli@GLIBCXX_3.4>
  40388b:	0f 1f 44 00 00       	nopl   0x0(%rax,%rax,1)

0000000000403890 <_ZNSo9_M_insertImEERSoT_@plt>:
  403890:	f3 0f 1e fa          	endbr64 
  403894:	f2 ff 25 85 68 01 00 	bnd jmpq *0x16885(%rip)        # 41a120 <_ZNSo9_M_insertImEERSoT_@GLIBCXX_3.4.9>
  40389b:	0f 1f 44 00 00       	nopl   0x0(%rax,%rax,1)

00000000004038a0 <_ZNSo5flushEv@plt>:
  4038a0:	f3 0f 1e fa          	endbr64 
  4038a4:	f2 ff 25 7d 68 01 00 	bnd jmpq *0x1687d(%rip)        # 41a128 <_ZNSo5flushEv@GLIBCXX_3.4>
  4038ab:	0f 1f 44 00 00       	nopl   0x0(%rax,%rax,1)

00000000004038b0 <_ZNKSt8__detail20_Prime_rehash_policy11_M_next_bktEm@plt>:
  4038b0:	f3 0f 1e fa          	endbr64 
  4038b4:	f2 ff 25 75 68 01 00 	bnd jmpq *0x16875(%rip)        # 41a130 <_ZNKSt8__detail20_Prime_rehash_policy11_M_next_bktEm@GLIBCXX_3.4.18>
  4038bb:	0f 1f 44 00 00       	nopl   0x0(%rax,%rax,1)

00000000004038c0 <_ZSt19__throw_logic_errorPKc@plt>:
  4038c0:	f3 0f 1e fa          	endbr64 
  4038c4:	f2 ff 25 6d 68 01 00 	bnd jmpq *0x1686d(%rip)        # 41a138 <_ZSt19__throw_logic_errorPKc@GLIBCXX_3.4>
  4038cb:	0f 1f 44 00 00       	nopl   0x0(%rax,%rax,1)

00000000004038d0 <memcpy@plt>:
  4038d0:	f3 0f 1e fa          	endbr64 
  4038d4:	f2 ff 25 65 68 01 00 	bnd jmpq *0x16865(%rip)        # 41a140 <memcpy@GLIBC_2.14>
  4038db:	0f 1f 44 00 00       	nopl   0x0(%rax,%rax,1)

00000000004038e0 <perror@plt>:
  4038e0:	f3 0f 1e fa          	endbr64 
  4038e4:	f2 ff 25 5d 68 01 00 	bnd jmpq *0x1685d(%rip)        # 41a148 <perror@GLIBC_2.2.5>
  4038eb:	0f 1f 44 00 00       	nopl   0x0(%rax,%rax,1)

00000000004038f0 <_ZSt2wsIcSt11char_traitsIcEERSt13basic_istreamIT_T0_ES6_@plt>:
  4038f0:	f3 0f 1e fa          	endbr64 
  4038f4:	f2 ff 25 55 68 01 00 	bnd jmpq *0x16855(%rip)        # 41a150 <_ZSt2wsIcSt11char_traitsIcEERSt13basic_istreamIT_T0_ES6_@GLIBCXX_3.4>
  4038fb:	0f 1f 44 00 00       	nopl   0x0(%rax,%rax,1)

0000000000403900 <system@plt>:
  403900:	f3 0f 1e fa          	endbr64 
  403904:	f2 ff 25 4d 68 01 00 	bnd jmpq *0x1684d(%rip)        # 41a158 <system@GLIBC_2.2.5>
  40390b:	0f 1f 44 00 00       	nopl   0x0(%rax,%rax,1)

0000000000403910 <__cxa_atexit@plt>:
  403910:	f3 0f 1e fa          	endbr64 
  403914:	f2 ff 25 45 68 01 00 	bnd jmpq *0x16845(%rip)        # 41a160 <__cxa_atexit@GLIBC_2.2.5>
  40391b:	0f 1f 44 00 00       	nopl   0x0(%rax,%rax,1)

0000000000403920 <_ZNSt13basic_filebufIcSt11char_traitsIcEE4openEPKcSt13_Ios_Openmode@plt>:
  403920:	f3 0f 1e fa          	endbr64 
  403924:	f2 ff 25 3d 68 01 00 	bnd jmpq *0x1683d(%rip)        # 41a168 <_ZNSt13basic_filebufIcSt11char_traitsIcEE4openEPKcSt13_Ios_Openmode@GLIBCXX_3.4>
  40392b:	0f 1f 44 00 00       	nopl   0x0(%rax,%rax,1)

0000000000403930 <clock_gettime@plt>:
  403930:	f3 0f 1e fa          	endbr64 
  403934:	f2 ff 25 35 68 01 00 	bnd jmpq *0x16835(%rip)        # 41a170 <clock_gettime@GLIBC_2.17>
  40393b:	0f 1f 44 00 00       	nopl   0x0(%rax,%rax,1)

0000000000403940 <_ZdlPv@plt>:
  403940:	f3 0f 1e fa          	endbr64 
  403944:	f2 ff 25 2d 68 01 00 	bnd jmpq *0x1682d(%rip)        # 41a178 <_ZdlPv@GLIBCXX_3.4>
  40394b:	0f 1f 44 00 00       	nopl   0x0(%rax,%rax,1)

0000000000403950 <_ZNSo9_M_insertIlEERSoT_@plt>:
  403950:	f3 0f 1e fa          	endbr64 
  403954:	f2 ff 25 25 68 01 00 	bnd jmpq *0x16825(%rip)        # 41a180 <_ZNSo9_M_insertIlEERSoT_@GLIBCXX_3.4.9>
  40395b:	0f 1f 44 00 00       	nopl   0x0(%rax,%rax,1)

0000000000403960 <__isoc99_sscanf@plt>:
  403960:	f3 0f 1e fa          	endbr64 
  403964:	f2 ff 25 1d 68 01 00 	bnd jmpq *0x1681d(%rip)        # 41a188 <__isoc99_sscanf@GLIBC_2.7>
  40396b:	0f 1f 44 00 00       	nopl   0x0(%rax,%rax,1)

0000000000403970 <fclose@plt>:
  403970:	f3 0f 1e fa          	endbr64 
  403974:	f2 ff 25 15 68 01 00 	bnd jmpq *0x16815(%rip)        # 41a190 <fclose@GLIBC_2.2.5>
  40397b:	0f 1f 44 00 00       	nopl   0x0(%rax,%rax,1)

0000000000403980 <_Znwm@plt>:
  403980:	f3 0f 1e fa          	endbr64 
  403984:	f2 ff 25 0d 68 01 00 	bnd jmpq *0x1680d(%rip)        # 41a198 <_Znwm@GLIBCXX_3.4>
  40398b:	0f 1f 44 00 00       	nopl   0x0(%rax,%rax,1)

0000000000403990 <_ZNSi10_M_extractIlEERSiRT_@plt>:
  403990:	f3 0f 1e fa          	endbr64 
  403994:	f2 ff 25 05 68 01 00 	bnd jmpq *0x16805(%rip)        # 41a1a0 <_ZNSi10_M_extractIlEERSiRT_@GLIBCXX_3.4.9>
  40399b:	0f 1f 44 00 00       	nopl   0x0(%rax,%rax,1)

00000000004039a0 <_ZNSt13basic_filebufIcSt11char_traitsIcEEC1Ev@plt>:
  4039a0:	f3 0f 1e fa          	endbr64 
  4039a4:	f2 ff 25 fd 67 01 00 	bnd jmpq *0x167fd(%rip)        # 41a1a8 <_ZNSt13basic_filebufIcSt11char_traitsIcEEC1Ev@GLIBCXX_3.4>
  4039ab:	0f 1f 44 00 00       	nopl   0x0(%rax,%rax,1)

00000000004039b0 <GOMP_loop_nonmonotonic_dynamic_next@plt>:
  4039b0:	f3 0f 1e fa          	endbr64 
  4039b4:	f2 ff 25 f5 67 01 00 	bnd jmpq *0x167f5(%rip)        # 41a1b0 <GOMP_loop_nonmonotonic_dynamic_next@VERSION>
  4039bb:	0f 1f 44 00 00       	nopl   0x0(%rax,%rax,1)

00000000004039c0 <__stack_chk_fail@plt>:
  4039c0:	f3 0f 1e fa          	endbr64 
  4039c4:	f2 ff 25 ed 67 01 00 	bnd jmpq *0x167ed(%rip)        # 41a1b8 <__stack_chk_fail@GLIBC_2.4>
  4039cb:	0f 1f 44 00 00       	nopl   0x0(%rax,%rax,1)

00000000004039d0 <_ZSt16__ostream_insertIcSt11char_traitsIcEERSt13basic_ostreamIT_T0_ES6_PKS3_l@plt>:
  4039d0:	f3 0f 1e fa          	endbr64 
  4039d4:	f2 ff 25 e5 67 01 00 	bnd jmpq *0x167e5(%rip)        # 41a1c0 <_ZSt16__ostream_insertIcSt11char_traitsIcEERSt13basic_ostreamIT_T0_ES6_PKS3_l@GLIBCXX_3.4.9>
  4039db:	0f 1f 44 00 00       	nopl   0x0(%rax,%rax,1)

00000000004039e0 <_ZNKSt5ctypeIcE13_M_widen_initEv@plt>:
  4039e0:	f3 0f 1e fa          	endbr64 
  4039e4:	f2 ff 25 dd 67 01 00 	bnd jmpq *0x167dd(%rip)        # 41a1c8 <_ZNKSt5ctypeIcE13_M_widen_initEv@GLIBCXX_3.4.11>
  4039eb:	0f 1f 44 00 00       	nopl   0x0(%rax,%rax,1)

00000000004039f0 <omp_get_thread_num@plt>:
  4039f0:	f3 0f 1e fa          	endbr64 
  4039f4:	f2 ff 25 d5 67 01 00 	bnd jmpq *0x167d5(%rip)        # 41a1d0 <omp_get_thread_num@VERSION>
  4039fb:	0f 1f 44 00 00       	nopl   0x0(%rax,%rax,1)

0000000000403a00 <_ZNSt7__cxx1112basic_stringIcSt11char_traitsIcESaIcEE12_M_constructEmc@plt>:
  403a00:	f3 0f 1e fa          	endbr64 
  403a04:	f2 ff 25 cd 67 01 00 	bnd jmpq *0x167cd(%rip)        # 41a1d8 <_ZNSt7__cxx1112basic_stringIcSt11char_traitsIcESaIcEE12_M_constructEmc@GLIBCXX_3.4.21>
  403a0b:	0f 1f 44 00 00       	nopl   0x0(%rax,%rax,1)

0000000000403a10 <fopen@plt>:
  403a10:	f3 0f 1e fa          	endbr64 
  403a14:	f2 ff 25 c5 67 01 00 	bnd jmpq *0x167c5(%rip)        # 41a1e0 <fopen@GLIBC_2.2.5>
  403a1b:	0f 1f 44 00 00       	nopl   0x0(%rax,%rax,1)

0000000000403a20 <GOMP_barrier@plt>:
  403a20:	f3 0f 1e fa          	endbr64 
  403a24:	f2 ff 25 bd 67 01 00 	bnd jmpq *0x167bd(%rip)        # 41a1e8 <GOMP_barrier@VERSION>
  403a2b:	0f 1f 44 00 00       	nopl   0x0(%rax,%rax,1)

0000000000403a30 <exit@plt>:
  403a30:	f3 0f 1e fa          	endbr64 
  403a34:	f2 ff 25 b5 67 01 00 	bnd jmpq *0x167b5(%rip)        # 41a1f0 <exit@GLIBC_2.2.5>
  403a3b:	0f 1f 44 00 00       	nopl   0x0(%rax,%rax,1)

0000000000403a40 <getenv@plt>:
  403a40:	f3 0f 1e fa          	endbr64 
  403a44:	f2 ff 25 ad 67 01 00 	bnd jmpq *0x167ad(%rip)        # 41a1f8 <getenv@GLIBC_2.2.5>
  403a4b:	0f 1f 44 00 00       	nopl   0x0(%rax,%rax,1)

0000000000403a50 <_ZNSi4readEPcl@plt>:
  403a50:	f3 0f 1e fa          	endbr64 
  403a54:	f2 ff 25 a5 67 01 00 	bnd jmpq *0x167a5(%rip)        # 41a200 <_ZNSi4readEPcl@GLIBCXX_3.4>
  403a5b:	0f 1f 44 00 00       	nopl   0x0(%rax,%rax,1)

0000000000403a60 <_ZSt16__throw_bad_castv@plt>:
  403a60:	f3 0f 1e fa          	endbr64 
  403a64:	f2 ff 25 9d 67 01 00 	bnd jmpq *0x1679d(%rip)        # 41a208 <_ZSt16__throw_bad_castv@GLIBCXX_3.4>
  403a6b:	0f 1f 44 00 00       	nopl   0x0(%rax,%rax,1)

0000000000403a70 <_ZStrsIcSt11char_traitsIcESaIcEERSt13basic_istreamIT_T0_ES7_RNSt7__cxx1112basic_stringIS4_S5_T1_EE@plt>:
  403a70:	f3 0f 1e fa          	endbr64 
  403a74:	f2 ff 25 95 67 01 00 	bnd jmpq *0x16795(%rip)        # 41a210 <_ZStrsIcSt11char_traitsIcESaIcEERSt13basic_istreamIT_T0_ES7_RNSt7__cxx1112basic_stringIS4_S5_T1_EE@GLIBCXX_3.4.21>
  403a7b:	0f 1f 44 00 00       	nopl   0x0(%rax,%rax,1)

0000000000403a80 <_ZdaPv@plt>:
  403a80:	f3 0f 1e fa          	endbr64 
  403a84:	f2 ff 25 8d 67 01 00 	bnd jmpq *0x1678d(%rip)        # 41a218 <_ZdaPv@GLIBCXX_3.4>
  403a8b:	0f 1f 44 00 00       	nopl   0x0(%rax,%rax,1)

0000000000403a90 <_ZNSt7__cxx1115basic_stringbufIcSt11char_traitsIcESaIcEE7_M_syncEPcmm@plt>:
  403a90:	f3 0f 1e fa          	endbr64 
  403a94:	f2 ff 25 85 67 01 00 	bnd jmpq *0x16785(%rip)        # 41a220 <_ZNSt7__cxx1115basic_stringbufIcSt11char_traitsIcESaIcEE7_M_syncEPcmm@GLIBCXX_3.4.21>
  403a9b:	0f 1f 44 00 00       	nopl   0x0(%rax,%rax,1)

0000000000403aa0 <_ZStrsIcSt11char_traitsIcEERSt13basic_istreamIT_T0_ES6_RS3_@plt>:
  403aa0:	f3 0f 1e fa          	endbr64 
  403aa4:	f2 ff 25 7d 67 01 00 	bnd jmpq *0x1677d(%rip)        # 41a228 <_ZStrsIcSt11char_traitsIcEERSt13basic_istreamIT_T0_ES6_RS3_@GLIBCXX_3.4>
  403aab:	0f 1f 44 00 00       	nopl   0x0(%rax,%rax,1)

0000000000403ab0 <_ZNKSt8__detail20_Prime_rehash_policy14_M_need_rehashEmmm@plt>:
  403ab0:	f3 0f 1e fa          	endbr64 
  403ab4:	f2 ff 25 75 67 01 00 	bnd jmpq *0x16775(%rip)        # 41a230 <_ZNKSt8__detail20_Prime_rehash_policy14_M_need_rehashEmmm@GLIBCXX_3.4.18>
  403abb:	0f 1f 44 00 00       	nopl   0x0(%rax,%rax,1)

0000000000403ac0 <_ZNSt9basic_iosIcSt11char_traitsIcEE4initEPSt15basic_streambufIcS1_E@plt>:
  403ac0:	f3 0f 1e fa          	endbr64 
  403ac4:	f2 ff 25 6d 67 01 00 	bnd jmpq *0x1676d(%rip)        # 41a238 <_ZNSt9basic_iosIcSt11char_traitsIcEE4initEPSt15basic_streambufIcS1_E@GLIBCXX_3.4>
  403acb:	0f 1f 44 00 00       	nopl   0x0(%rax,%rax,1)

0000000000403ad0 <strtol@plt>:
  403ad0:	f3 0f 1e fa          	endbr64 
  403ad4:	f2 ff 25 65 67 01 00 	bnd jmpq *0x16765(%rip)        # 41a240 <strtol@GLIBC_2.2.5>
  403adb:	0f 1f 44 00 00       	nopl   0x0(%rax,%rax,1)

0000000000403ae0 <ioctl@plt>:
  403ae0:	f3 0f 1e fa          	endbr64 
  403ae4:	f2 ff 25 5d 67 01 00 	bnd jmpq *0x1675d(%rip)        # 41a248 <ioctl@GLIBC_2.2.5>
  403aeb:	0f 1f 44 00 00       	nopl   0x0(%rax,%rax,1)

0000000000403af0 <_ZNSt6localeD1Ev@plt>:
  403af0:	f3 0f 1e fa          	endbr64 
  403af4:	f2 ff 25 55 67 01 00 	bnd jmpq *0x16755(%rip)        # 41a250 <_ZNSt6localeD1Ev@GLIBCXX_3.4>
  403afb:	0f 1f 44 00 00       	nopl   0x0(%rax,%rax,1)

0000000000403b00 <__cxa_throw_bad_array_new_length@plt>:
  403b00:	f3 0f 1e fa          	endbr64 
  403b04:	f2 ff 25 4d 67 01 00 	bnd jmpq *0x1674d(%rip)        # 41a258 <__cxa_throw_bad_array_new_length@CXXABI_1.3.8>
  403b0b:	0f 1f 44 00 00       	nopl   0x0(%rax,%rax,1)

0000000000403b10 <read@plt>:
  403b10:	f3 0f 1e fa          	endbr64 
  403b14:	f2 ff 25 45 67 01 00 	bnd jmpq *0x16745(%rip)        # 41a260 <read@GLIBC_2.2.5>
  403b1b:	0f 1f 44 00 00       	nopl   0x0(%rax,%rax,1)

0000000000403b20 <omp_get_num_threads@plt>:
  403b20:	f3 0f 1e fa          	endbr64 
  403b24:	f2 ff 25 3d 67 01 00 	bnd jmpq *0x1673d(%rip)        # 41a268 <omp_get_num_threads@VERSION>
  403b2b:	0f 1f 44 00 00       	nopl   0x0(%rax,%rax,1)

0000000000403b30 <__cxa_rethrow@plt>:
  403b30:	f3 0f 1e fa          	endbr64 
  403b34:	f2 ff 25 35 67 01 00 	bnd jmpq *0x16735(%rip)        # 41a270 <__cxa_rethrow@CXXABI_1.3>
  403b3b:	0f 1f 44 00 00       	nopl   0x0(%rax,%rax,1)

0000000000403b40 <getpid@plt>:
  403b40:	f3 0f 1e fa          	endbr64 
  403b44:	f2 ff 25 2d 67 01 00 	bnd jmpq *0x1672d(%rip)        # 41a278 <getpid@GLIBC_2.2.5>
  403b4b:	0f 1f 44 00 00       	nopl   0x0(%rax,%rax,1)

0000000000403b50 <fread@plt>:
  403b50:	f3 0f 1e fa          	endbr64 
  403b54:	f2 ff 25 25 67 01 00 	bnd jmpq *0x16725(%rip)        # 41a280 <fread@GLIBC_2.2.5>
  403b5b:	0f 1f 44 00 00       	nopl   0x0(%rax,%rax,1)

0000000000403b60 <_ZSt24__throw_out_of_range_fmtPKcz@plt>:
  403b60:	f3 0f 1e fa          	endbr64 
  403b64:	f2 ff 25 1d 67 01 00 	bnd jmpq *0x1671d(%rip)        # 41a288 <_ZSt24__throw_out_of_range_fmtPKcz@GLIBCXX_3.4.20>
  403b6b:	0f 1f 44 00 00       	nopl   0x0(%rax,%rax,1)

0000000000403b70 <_ZNSt8ios_base4InitC1Ev@plt>:
  403b70:	f3 0f 1e fa          	endbr64 
  403b74:	f2 ff 25 15 67 01 00 	bnd jmpq *0x16715(%rip)        # 41a290 <_ZNSt8ios_base4InitC1Ev@GLIBCXX_3.4>
  403b7b:	0f 1f 44 00 00       	nopl   0x0(%rax,%rax,1)

0000000000403b80 <_ZNSt13basic_filebufIcSt11char_traitsIcEED1Ev@plt>:
  403b80:	f3 0f 1e fa          	endbr64 
  403b84:	f2 ff 25 0d 67 01 00 	bnd jmpq *0x1670d(%rip)        # 41a298 <_ZNSt13basic_filebufIcSt11char_traitsIcEED1Ev@GLIBCXX_3.4>
  403b8b:	0f 1f 44 00 00       	nopl   0x0(%rax,%rax,1)

0000000000403b90 <_ZNSt7__cxx1112basic_stringIcSt11char_traitsIcESaIcEE7reserveEm@plt>:
  403b90:	f3 0f 1e fa          	endbr64 
  403b94:	f2 ff 25 05 67 01 00 	bnd jmpq *0x16705(%rip)        # 41a2a0 <_ZNSt7__cxx1112basic_stringIcSt11char_traitsIcESaIcEE7reserveEm@GLIBCXX_3.4.21>
  403b9b:	0f 1f 44 00 00       	nopl   0x0(%rax,%rax,1)

0000000000403ba0 <fgets@plt>:
  403ba0:	f3 0f 1e fa          	endbr64 
  403ba4:	f2 ff 25 fd 66 01 00 	bnd jmpq *0x166fd(%rip)        # 41a2a8 <fgets@GLIBC_2.2.5>
  403bab:	0f 1f 44 00 00       	nopl   0x0(%rax,%rax,1)

0000000000403bb0 <gettimeofday@plt>:
  403bb0:	f3 0f 1e fa          	endbr64 
  403bb4:	f2 ff 25 f5 66 01 00 	bnd jmpq *0x166f5(%rip)        # 41a2b0 <gettimeofday@GLIBC_2.2.5>
  403bbb:	0f 1f 44 00 00       	nopl   0x0(%rax,%rax,1)

0000000000403bc0 <memmove@plt>:
  403bc0:	f3 0f 1e fa          	endbr64 
  403bc4:	f2 ff 25 ed 66 01 00 	bnd jmpq *0x166ed(%rip)        # 41a2b8 <memmove@GLIBC_2.2.5>
  403bcb:	0f 1f 44 00 00       	nopl   0x0(%rax,%rax,1)

0000000000403bd0 <__cxa_end_catch@plt>:
  403bd0:	f3 0f 1e fa          	endbr64 
  403bd4:	f2 ff 25 e5 66 01 00 	bnd jmpq *0x166e5(%rip)        # 41a2c0 <__cxa_end_catch@CXXABI_1.3>
  403bdb:	0f 1f 44 00 00       	nopl   0x0(%rax,%rax,1)

0000000000403be0 <realloc@plt>:
  403be0:	f3 0f 1e fa          	endbr64 
  403be4:	f2 ff 25 dd 66 01 00 	bnd jmpq *0x166dd(%rip)        # 41a2c8 <realloc@GLIBC_2.2.5>
  403beb:	0f 1f 44 00 00       	nopl   0x0(%rax,%rax,1)

0000000000403bf0 <__fprintf_chk@plt>:
  403bf0:	f3 0f 1e fa          	endbr64 
  403bf4:	f2 ff 25 d5 66 01 00 	bnd jmpq *0x166d5(%rip)        # 41a2d0 <__fprintf_chk@GLIBC_2.3.4>
  403bfb:	0f 1f 44 00 00       	nopl   0x0(%rax,%rax,1)

0000000000403c00 <_ZNSt7__cxx1119basic_istringstreamIcSt11char_traitsIcESaIcEEC1ERKNS_12basic_stringIcS2_S3_EESt13_Ios_Openmode@plt>:
  403c00:	f3 0f 1e fa          	endbr64 
  403c04:	f2 ff 25 cd 66 01 00 	bnd jmpq *0x166cd(%rip)        # 41a2d8 <_ZNSt7__cxx1119basic_istringstreamIcSt11char_traitsIcESaIcEEC1ERKNS_12basic_stringIcS2_S3_EESt13_Ios_Openmode@GLIBCXX_3.4.21>
  403c0b:	0f 1f 44 00 00       	nopl   0x0(%rax,%rax,1)

0000000000403c10 <_ZNSt9basic_iosIcSt11char_traitsIcEE5clearESt12_Ios_Iostate@plt>:
  403c10:	f3 0f 1e fa          	endbr64 
  403c14:	f2 ff 25 c5 66 01 00 	bnd jmpq *0x166c5(%rip)        # 41a2e0 <_ZNSt9basic_iosIcSt11char_traitsIcEE5clearESt12_Ios_Iostate@GLIBCXX_3.4>
  403c1b:	0f 1f 44 00 00       	nopl   0x0(%rax,%rax,1)

0000000000403c20 <_ZNSolsEi@plt>:
  403c20:	f3 0f 1e fa          	endbr64 
  403c24:	f2 ff 25 bd 66 01 00 	bnd jmpq *0x166bd(%rip)        # 41a2e8 <_ZNSolsEi@GLIBCXX_3.4>
  403c2b:	0f 1f 44 00 00       	nopl   0x0(%rax,%rax,1)

0000000000403c30 <GOMP_parallel@plt>:
  403c30:	f3 0f 1e fa          	endbr64 
  403c34:	f2 ff 25 b5 66 01 00 	bnd jmpq *0x166b5(%rip)        # 41a2f0 <GOMP_parallel@VERSION>
  403c3b:	0f 1f 44 00 00       	nopl   0x0(%rax,%rax,1)

0000000000403c40 <_Unwind_Resume@plt>:
  403c40:	f3 0f 1e fa          	endbr64 
  403c44:	f2 ff 25 ad 66 01 00 	bnd jmpq *0x166ad(%rip)        # 41a2f8 <_Unwind_Resume@GCC_3.0>
  403c4b:	0f 1f 44 00 00       	nopl   0x0(%rax,%rax,1)

0000000000403c50 <_ZNSt7__cxx1112basic_stringIcSt11char_traitsIcESaIcEE9_M_createERmm@plt>:
  403c50:	f3 0f 1e fa          	endbr64 
  403c54:	f2 ff 25 a5 66 01 00 	bnd jmpq *0x166a5(%rip)        # 41a300 <_ZNSt7__cxx1112basic_stringIcSt11char_traitsIcESaIcEE9_M_createERmm@GLIBCXX_3.4.21>
  403c5b:	0f 1f 44 00 00       	nopl   0x0(%rax,%rax,1)

0000000000403c60 <__isoc99_fscanf@plt>:
  403c60:	f3 0f 1e fa          	endbr64 
  403c64:	f2 ff 25 9d 66 01 00 	bnd jmpq *0x1669d(%rip)        # 41a308 <__isoc99_fscanf@GLIBC_2.7>
  403c6b:	0f 1f 44 00 00       	nopl   0x0(%rax,%rax,1)

0000000000403c70 <_ZSt7getlineIcSt11char_traitsIcESaIcEERSt13basic_istreamIT_T0_ES7_RNSt7__cxx1112basic_stringIS4_S5_T1_EES4_@plt>:
  403c70:	f3 0f 1e fa          	endbr64 
  403c74:	f2 ff 25 95 66 01 00 	bnd jmpq *0x16695(%rip)        # 41a310 <_ZSt7getlineIcSt11char_traitsIcESaIcEERSt13basic_istreamIT_T0_ES7_RNSt7__cxx1112basic_stringIS4_S5_T1_EES4_@GLIBCXX_3.4.21>
  403c7b:	0f 1f 44 00 00       	nopl   0x0(%rax,%rax,1)

0000000000403c80 <_ZNSt12__basic_fileIcED1Ev@plt>:
  403c80:	f3 0f 1e fa          	endbr64 
  403c84:	f2 ff 25 8d 66 01 00 	bnd jmpq *0x1668d(%rip)        # 41a318 <_ZNSt12__basic_fileIcED1Ev@GLIBCXX_3.4>
  403c8b:	0f 1f 44 00 00       	nopl   0x0(%rax,%rax,1)

0000000000403c90 <fwrite@plt>:
  403c90:	f3 0f 1e fa          	endbr64 
  403c94:	f2 ff 25 85 66 01 00 	bnd jmpq *0x16685(%rip)        # 41a320 <fwrite@GLIBC_2.2.5>
  403c9b:	0f 1f 44 00 00       	nopl   0x0(%rax,%rax,1)

0000000000403ca0 <close@plt>:
  403ca0:	f3 0f 1e fa          	endbr64 
  403ca4:	f2 ff 25 7d 66 01 00 	bnd jmpq *0x1667d(%rip)        # 41a328 <close@GLIBC_2.2.5>
  403cab:	0f 1f 44 00 00       	nopl   0x0(%rax,%rax,1)

0000000000403cb0 <_ZNKSt7__cxx1112basic_stringIcSt11char_traitsIcESaIcEE5rfindEcm@plt>:
  403cb0:	f3 0f 1e fa          	endbr64 
  403cb4:	f2 ff 25 75 66 01 00 	bnd jmpq *0x16675(%rip)        # 41a330 <_ZNKSt7__cxx1112basic_stringIcSt11char_traitsIcESaIcEE5rfindEcm@GLIBCXX_3.4.21>
  403cbb:	0f 1f 44 00 00       	nopl   0x0(%rax,%rax,1)

0000000000403cc0 <_ZNSt6localeC1Ev@plt>:
  403cc0:	f3 0f 1e fa          	endbr64 
  403cc4:	f2 ff 25 6d 66 01 00 	bnd jmpq *0x1666d(%rip)        # 41a338 <_ZNSt6localeC1Ev@GLIBCXX_3.4>
  403ccb:	0f 1f 44 00 00       	nopl   0x0(%rax,%rax,1)

Disassembly of section .text:

0000000000403cd0 <_Z10PrintLabelRKNSt7__cxx1112basic_stringIcSt11char_traitsIcESaIcEEES6_.cold>:
_ZNKSt7__cxx1112basic_stringIcSt11char_traitsIcESaIcEE7_M_dataEv():
/usr/include/c++/10/bits/basic_string.h:195 (discriminator 1)
      _M_length(size_type __length)
      { _M_string_length = __length; }

      pointer
      _M_data() const
      { return _M_dataplus._M_p; }
  403cd0:	48 8b 7c 24 10       	mov    0x10(%rsp),%rdi
_ZNSt7__cxx1112basic_stringIcSt11char_traitsIcESaIcEE10_M_disposeEv():
/usr/include/c++/10/bits/basic_string.h:239 (discriminator 1)
      _M_create(size_type&, size_type);

      void
      _M_dispose()
      {
	if (!_M_is_local())
  403cd5:	48 39 df             	cmp    %rbx,%rdi
  403cd8:	74 05                	je     403cdf <_Z10PrintLabelRKNSt7__cxx1112basic_stringIcSt11char_traitsIcESaIcEEES6_.cold+0xf>
_ZN9__gnu_cxx13new_allocatorIcE10deallocateEPcm():
/usr/include/c++/10/ext/new_allocator.h:139
# endif
			      std::align_val_t(alignof(_Tp)));
	    return;
	  }
#endif
	::operator delete(__p
  403cda:	e8 61 fc ff ff       	callq  403940 <_ZdlPv@plt>
_ZN9__gnu_cxx13new_allocatorIcED4Ev():
/usr/include/c++/10/ext/new_allocator.h:89
      ~new_allocator() _GLIBCXX_USE_NOEXCEPT { }
  403cdf:	48 89 ef             	mov    %rbp,%rdi
  403ce2:	e8 59 ff ff ff       	callq  403c40 <_Unwind_Resume@plt>

0000000000403ce7 <_Z9PrintTimeRKNSt7__cxx1112basic_stringIcSt11char_traitsIcESaIcEEEd.cold>:
_ZNKSt7__cxx1112basic_stringIcSt11char_traitsIcESaIcEE7_M_dataEv():
/usr/include/c++/10/bits/basic_string.h:195 (discriminator 1)
      { return _M_dataplus._M_p; }
  403ce7:	48 8b 7c 24 10       	mov    0x10(%rsp),%rdi
_ZNSt7__cxx1112basic_stringIcSt11char_traitsIcESaIcEE10_M_disposeEv():
/usr/include/c++/10/bits/basic_string.h:239 (discriminator 1)
	if (!_M_is_local())
  403cec:	48 39 df             	cmp    %rbx,%rdi
  403cef:	74 05                	je     403cf6 <_Z9PrintTimeRKNSt7__cxx1112basic_stringIcSt11char_traitsIcESaIcEEEd.cold+0xf>
_ZN9__gnu_cxx13new_allocatorIcE10deallocateEPcm():
/usr/include/c++/10/ext/new_allocator.h:139
	::operator delete(__p
  403cf1:	e8 4a fc ff ff       	callq  403940 <_ZdlPv@plt>
_ZN9__gnu_cxx13new_allocatorIcED4Ev():
/usr/include/c++/10/ext/new_allocator.h:89
      ~new_allocator() _GLIBCXX_USE_NOEXCEPT { }
  403cf6:	48 89 ef             	mov    %rbp,%rdi
  403cf9:	e8 42 ff ff ff       	callq  403c40 <_Unwind_Resume@plt>

0000000000403cfe <_Z9PrintStepRKNSt7__cxx1112basic_stringIcSt11char_traitsIcESaIcEEEl.cold>:
_ZNKSt7__cxx1112basic_stringIcSt11char_traitsIcESaIcEE7_M_dataEv():
/usr/include/c++/10/bits/basic_string.h:195 (discriminator 1)
      { return _M_dataplus._M_p; }
  403cfe:	48 8b 7c 24 10       	mov    0x10(%rsp),%rdi
_ZNSt7__cxx1112basic_stringIcSt11char_traitsIcESaIcEE10_M_disposeEv():
/usr/include/c++/10/bits/basic_string.h:239 (discriminator 1)
	if (!_M_is_local())
  403d03:	48 39 df             	cmp    %rbx,%rdi
  403d06:	74 05                	je     403d0d <_Z9PrintStepRKNSt7__cxx1112basic_stringIcSt11char_traitsIcESaIcEEEl.cold+0xf>
_ZN9__gnu_cxx13new_allocatorIcE10deallocateEPcm():
/usr/include/c++/10/ext/new_allocator.h:139
	::operator delete(__p
  403d08:	e8 33 fc ff ff       	callq  403940 <_ZdlPv@plt>
_ZN9__gnu_cxx13new_allocatorIcED4Ev():
/usr/include/c++/10/ext/new_allocator.h:89
      ~new_allocator() _GLIBCXX_USE_NOEXCEPT { }
  403d0d:	48 89 ef             	mov    %rbp,%rdi
  403d10:	e8 2b ff ff ff       	callq  403c40 <_Unwind_Resume@plt>

0000000000403d15 <_Z9PrintStepidl.cold>:
_ZNKSt7__cxx1112basic_stringIcSt11char_traitsIcESaIcEE7_M_dataEv():
/usr/include/c++/10/bits/basic_string.h:195 (discriminator 1)
      { return _M_dataplus._M_p; }
  403d15:	48 8b 7c 24 10       	mov    0x10(%rsp),%rdi
_ZNSt7__cxx1112basic_stringIcSt11char_traitsIcESaIcEE10_M_disposeEv():
/usr/include/c++/10/bits/basic_string.h:239 (discriminator 1)
	if (!_M_is_local())
  403d1a:	48 39 ef             	cmp    %rbp,%rdi
  403d1d:	74 05                	je     403d24 <_Z9PrintStepidl.cold+0xf>
_ZN9__gnu_cxx13new_allocatorIcE10deallocateEPcm():
/usr/include/c++/10/ext/new_allocator.h:139
	::operator delete(__p
  403d1f:	e8 1c fc ff ff       	callq  403940 <_ZdlPv@plt>
_ZN9__gnu_cxx13new_allocatorIcED4Ev():
/usr/include/c++/10/ext/new_allocator.h:89
      ~new_allocator() _GLIBCXX_USE_NOEXCEPT { }
  403d24:	4c 89 e7             	mov    %r12,%rdi
  403d27:	e8 14 ff ff ff       	callq  403c40 <_Unwind_Resume@plt>

0000000000403d2c <_Z21SampleFrequentElementRK7pvectorIiEbl.cold>:
_ZNSt13unordered_mapIiiSt4hashIiESt8equal_toIiESaISt4pairIKiiEEED4Ev():
/usr/include/c++/10/bits/unordered_map.h:102
   */
  template<typename _Key, typename _Tp,
	   typename _Hash = hash<_Key>,
	   typename _Pred = equal_to<_Key>,
	   typename _Alloc = allocator<std::pair<const _Key, _Tp>>>
    class unordered_map
  403d2c:	4c 89 e7             	mov    %r12,%rdi
  403d2f:	e8 8c 6f 00 00       	callq  40acc0 <_ZNSt10_HashtableIiSt4pairIKiiESaIS2_ENSt8__detail10_Select1stESt8equal_toIiESt4hashIiENS4_18_Mod_range_hashingENS4_20_Default_ranged_hashENS4_20_Prime_rehash_policyENS4_17_Hashtable_traitsILb0ELb0ELb1EEEED1Ev>
  403d34:	48 89 ef             	mov    %rbp,%rdi
  403d37:	e8 04 ff ff ff       	callq  403c40 <_Unwind_Resume@plt>
_ZNSt10_HashtableIiSt4pairIKiiESaIS2_ENSt8__detail10_Select1stESt8equal_toIiESt4hashIiENS4_18_Mod_range_hashingENS4_20_Default_ranged_hashENS4_20_Prime_rehash_policyENS4_17_Hashtable_traitsILb0ELb0ELb1EEEEC4EmRKS9_RKSA_RKSB_RKS7_RKS5_RKS3_():
/usr/include/c++/10/bits/hashtable.h:1048
	       _H1, _H2, _Hash, _RehashPolicy, _Traits>::
    _Hashtable(size_type __bkt_count_hint,
	       const _H1& __h1, const _H2& __h2, const _Hash& __h,
	       const _Equal& __eq, const _ExtractKey& __exk,
	       const allocator_type& __a)
    : _Hashtable(__h1, __h2, __h, __eq, __exk, __a)
  403d3c:	48 8d 7c 24 20       	lea    0x20(%rsp),%rdi
  403d41:	e8 7a 6f 00 00       	callq  40acc0 <_ZNSt10_HashtableIiSt4pairIKiiESaIS2_ENSt8__detail10_Select1stESt8equal_toIiESt4hashIiENS4_18_Mod_range_hashingENS4_20_Default_ranged_hashENS4_20_Prime_rehash_policyENS4_17_Hashtable_traitsILb0ELb0ELb1EEEED1Ev>
  403d46:	48 89 ef             	mov    %rbp,%rdi
  403d49:	e8 f2 fe ff ff       	callq  403c40 <_Unwind_Resume@plt>

0000000000403d4e <_Z10CCVerifierRK8CSRGraphIiiLb1EERK7pvectorIiE.cold>:
_ZNSt6vectorIiSaIiEED4Ev():
/usr/include/c++/10/bits/stl_vector.h:680
       *  not touched in any way.  Managing the pointer is the user's
       *  responsibility.
       */
      ~vector() _GLIBCXX_NOEXCEPT
      {
	std::_Destroy(this->_M_impl._M_start, this->_M_impl._M_finish,
  403d4e:	48 8b 7c 24 50       	mov    0x50(%rsp),%rdi
_ZNSt12_Vector_baseIiSaIiEE13_M_deallocateEPim():
/usr/include/c++/10/bits/stl_vector.h:353
	if (__p)
  403d53:	48 85 ff             	test   %rdi,%rdi
  403d56:	74 05                	je     403d5d <_Z10CCVerifierRK8CSRGraphIiiLb1EERK7pvectorIiE.cold+0xf>
_ZN9__gnu_cxx13new_allocatorIiE10deallocateEPim():
/usr/include/c++/10/ext/new_allocator.h:139
	::operator delete(__p
  403d58:	e8 e3 fb ff ff       	callq  403940 <_ZdlPv@plt>
_ZN6BitmapD4Ev():
/home/aliha951/ipdps-artifact/gapbs-master/src/bitmap.h:32
    start_ = new uint64_t[num_words];
    end_ = start_ + num_words;
  }

  ~Bitmap() {
    delete[] start_;
  403d5d:	4c 89 e7             	mov    %r12,%rdi
  403d60:	4c 8d 64 24 70       	lea    0x70(%rsp),%r12
  403d65:	e8 16 fd ff ff       	callq  403a80 <_ZdaPv@plt>
_ZNSt13unordered_mapIiiSt4hashIiESt8equal_toIiESaISt4pairIKiiEEED4Ev():
/usr/include/c++/10/bits/unordered_map.h:102
  403d6a:	4c 89 e7             	mov    %r12,%rdi
  403d6d:	e8 4e 6f 00 00       	callq  40acc0 <_ZNSt10_HashtableIiSt4pairIKiiESaIS2_ENSt8__detail10_Select1stESt8equal_toIiESt4hashIiENS4_18_Mod_range_hashingENS4_20_Default_ranged_hashENS4_20_Prime_rehash_policyENS4_17_Hashtable_traitsILb0ELb0ELb1EEEED1Ev>
  403d72:	48 89 ef             	mov    %rbp,%rdi
  403d75:	e8 c6 fe ff ff       	callq  403c40 <_Unwind_Resume@plt>

0000000000403d7a <_Z21SampleFrequentElementRK7pvectorIiEbl.constprop.0.cold>:
  403d7a:	4c 89 ef             	mov    %r13,%rdi
  403d7d:	e8 3e 6f 00 00       	callq  40acc0 <_ZNSt10_HashtableIiSt4pairIKiiESaIS2_ENSt8__detail10_Select1stESt8equal_toIiESt4hashIiENS4_18_Mod_range_hashingENS4_20_Default_ranged_hashENS4_20_Prime_rehash_policyENS4_17_Hashtable_traitsILb0ELb0ELb1EEEED1Ev>
  403d82:	48 89 ef             	mov    %rbp,%rdi
  403d85:	e8 b6 fe ff ff       	callq  403c40 <_Unwind_Resume@plt>
_ZNSt10_HashtableIiSt4pairIKiiESaIS2_ENSt8__detail10_Select1stESt8equal_toIiESt4hashIiENS4_18_Mod_range_hashingENS4_20_Default_ranged_hashENS4_20_Prime_rehash_policyENS4_17_Hashtable_traitsILb0ELb0ELb1EEEEC4EmRKS9_RKSA_RKSB_RKS7_RKS5_RKS3_():
/usr/include/c++/10/bits/hashtable.h:1048
  403d8a:	48 8d 7c 24 20       	lea    0x20(%rsp),%rdi
  403d8f:	e8 2c 6f 00 00       	callq  40acc0 <_ZNSt10_HashtableIiSt4pairIKiiESaIS2_ENSt8__detail10_Select1stESt8equal_toIiESt4hashIiENS4_18_Mod_range_hashingENS4_20_Default_ranged_hashENS4_20_Prime_rehash_policyENS4_17_Hashtable_traitsILb0ELb0ELb1EEEED1Ev>
  403d94:	48 89 ef             	mov    %rbp,%rdi
  403d97:	e8 a4 fe ff ff       	callq  403c40 <_Unwind_Resume@plt>

0000000000403d9c <_Z8AfforestRK8CSRGraphIiiLb1EEbi.cold>:
_ZN7pvectorIiEC4Em():
/home/aliha951/ipdps-artifact/gapbs-master/src/pvector.h:30
  typedef T_* iterator;

  pvector() : start_(nullptr), end_size_(nullptr), end_capacity_(nullptr) {}

  explicit pvector(size_t num_elements) {
    start_ = new T_[num_elements];
  403d9c:	e8 5f fd ff ff       	callq  403b00 <__cxa_throw_bad_array_new_length@plt>
_ZN7pvectorIiE16ReleaseResourcesEv():
/home/aliha951/ipdps-artifact/gapbs-master/src/pvector.h:73
    }
    return *this;
  }

  void ReleaseResources(){
    if (start_ != nullptr) {
  403da1:	49 8b 3c 24          	mov    (%r12),%rdi
  403da5:	48 85 ff             	test   %rdi,%rdi
  403da8:	74 05                	je     403daf <_Z8AfforestRK8CSRGraphIiiLb1EEbi.cold+0x13>
/home/aliha951/ipdps-artifact/gapbs-master/src/pvector.h:74
      delete[] start_;
  403daa:	e8 d1 fc ff ff       	callq  403a80 <_ZdaPv@plt>
  403daf:	48 89 ef             	mov    %rbp,%rdi
  403db2:	e8 89 fe ff ff       	callq  403c40 <_Unwind_Resume@plt>

0000000000403db7 <_Z14PrintCompStatsRK8CSRGraphIiiLb1EERK7pvectorIiE.cold>:
_ZNSt6vectorISt4pairIiiESaIS1_EED4Ev():
/usr/include/c++/10/bits/stl_vector.h:680
	std::_Destroy(this->_M_impl._M_start, this->_M_impl._M_finish,
  403db7:	48 8b 7c 24 30       	mov    0x30(%rsp),%rdi
_ZNSt12_Vector_baseISt4pairIiiESaIS1_EE13_M_deallocateEPS1_m():
/usr/include/c++/10/bits/stl_vector.h:353
	if (__p)
  403dbc:	48 85 ff             	test   %rdi,%rdi
  403dbf:	74 05                	je     403dc6 <_Z14PrintCompStatsRK8CSRGraphIiiLb1EERK7pvectorIiE.cold+0xf>
_ZN9__gnu_cxx13new_allocatorISt4pairIiiEE10deallocateEPS2_m():
/usr/include/c++/10/ext/new_allocator.h:139
  403dc1:	e8 7a fb ff ff       	callq  403940 <_ZdlPv@plt>
_ZN9__gnu_cxx13new_allocatorISt4pairIiiEED4Ev():
/usr/include/c++/10/ext/new_allocator.h:89
      ~new_allocator() _GLIBCXX_USE_NOEXCEPT { }
  403dc6:	4c 8d 64 24 50       	lea    0x50(%rsp),%r12
_ZNSt6vectorISt4pairIiiESaIS1_EED4Ev():
/usr/include/c++/10/bits/stl_vector.h:680
	std::_Destroy(this->_M_impl._M_start, this->_M_impl._M_finish,
  403dcb:	48 8b 7c 24 10       	mov    0x10(%rsp),%rdi
_ZNSt12_Vector_baseISt4pairIiiESaIS1_EE13_M_deallocateEPS1_m():
/usr/include/c++/10/bits/stl_vector.h:353
	if (__p)
  403dd0:	48 85 ff             	test   %rdi,%rdi
  403dd3:	74 05                	je     403dda <_Z14PrintCompStatsRK8CSRGraphIiiLb1EERK7pvectorIiE.cold+0x23>
_ZN9__gnu_cxx13new_allocatorISt4pairIiiEE10deallocateEPS2_m():
/usr/include/c++/10/ext/new_allocator.h:139
	::operator delete(__p
  403dd5:	e8 66 fb ff ff       	callq  403940 <_ZdlPv@plt>
_ZNSt13unordered_mapIiiSt4hashIiESt8equal_toIiESaISt4pairIKiiEEED4Ev():
/usr/include/c++/10/bits/unordered_map.h:102
  403dda:	4c 89 e7             	mov    %r12,%rdi
  403ddd:	e8 de 6e 00 00       	callq  40acc0 <_ZNSt10_HashtableIiSt4pairIKiiESaIS2_ENSt8__detail10_Select1stESt8equal_toIiESt4hashIiENS4_18_Mod_range_hashingENS4_20_Default_ranged_hashENS4_20_Prime_rehash_policyENS4_17_Hashtable_traitsILb0ELb0ELb1EEEED1Ev>
  403de2:	48 89 df             	mov    %rbx,%rdi
  403de5:	e8 56 fe ff ff       	callq  403c40 <_Unwind_Resume@plt>

0000000000403dea <main.cold>:
_ZNKSt7__cxx1112basic_stringIcSt11char_traitsIcESaIcEE7_M_dataEv():
/usr/include/c++/10/bits/basic_string.h:195
      { return _M_dataplus._M_p; }
  403dea:	48 8b bc 24 10 01 00 	mov    0x110(%rsp),%rdi
  403df1:	00 
_ZNSt7__cxx1112basic_stringIcSt11char_traitsIcESaIcEE10_M_disposeEv():
/usr/include/c++/10/bits/basic_string.h:239
	if (!_M_is_local())
  403df2:	48 39 df             	cmp    %rbx,%rdi
  403df5:	74 05                	je     403dfc <main.cold+0x12>
_ZN9__gnu_cxx13new_allocatorIcE10deallocateEPcm():
/usr/include/c++/10/ext/new_allocator.h:139
  403df7:	e8 44 fb ff ff       	callq  403940 <_ZdlPv@plt>
_ZN7pvectorIiE16ReleaseResourcesEv():
/home/aliha951/ipdps-artifact/gapbs-master/src/pvector.h:73
    if (start_ != nullptr) {
  403dfc:	48 8b 7c 24 70       	mov    0x70(%rsp),%rdi
  403e01:	48 85 ff             	test   %rdi,%rdi
  403e04:	74 05                	je     403e0b <main.cold+0x21>
/home/aliha951/ipdps-artifact/gapbs-master/src/pvector.h:74
      delete[] start_;
  403e06:	e8 75 fc ff ff       	callq  403a80 <_ZdaPv@plt>
_ZN9__gnu_cxx13new_allocatorIcED4Ev():
/usr/include/c++/10/ext/new_allocator.h:89
      ~new_allocator() _GLIBCXX_USE_NOEXCEPT { }
  403e0b:	48 89 eb             	mov    %rbp,%rbx
_ZN8CSRGraphIiiLb1EED4Ev():
/home/aliha951/ipdps-artifact/gapbs-master/src/graph.h:166
      other.in_index_ = nullptr;
      other.in_neighbors_ = nullptr;
  }

  ~CSRGraph() {
    ReleaseResources();
  403e0e:	48 8b 7c 24 30       	mov    0x30(%rsp),%rdi
  403e13:	e8 78 70 00 00       	callq  40ae90 <_ZN8CSRGraphIiiLb1EE16ReleaseResourcesEv>
_ZN5CLAppD4Ev():
/home/aliha951/ipdps-artifact/gapbs-master/src/command_line.h:140
  int batching_mode() const { return batching_mode_; }
};



class CLApp : public CLBase {
  403e18:	48 8b 7c 24 38       	mov    0x38(%rsp),%rdi
  403e1d:	48 8d 05 04 5d 01 00 	lea    0x15d04(%rip),%rax        # 419b28 <_ZTV5CLApp+0x10>
  403e24:	48 89 84 24 30 01 00 	mov    %rax,0x130(%rsp)
  403e2b:	00 
  403e2c:	e8 ff 68 00 00       	callq  40a730 <_ZN6CLBaseD1Ev>
  403e31:	48 89 df             	mov    %rbx,%rdi
  403e34:	e8 07 fe ff ff       	callq  403c40 <_Unwind_Resume@plt>
_ZN7pvectorIiE16ReleaseResourcesEv():
/home/aliha951/ipdps-artifact/gapbs-master/src/pvector.h:73
    if (start_ != nullptr) {
  403e39:	48 8b 7c 24 70       	mov    0x70(%rsp),%rdi
  403e3e:	48 85 ff             	test   %rdi,%rdi
  403e41:	74 cb                	je     403e0e <main.cold+0x24>
/home/aliha951/ipdps-artifact/gapbs-master/src/pvector.h:74
      delete[] start_;
  403e43:	e8 38 fc ff ff       	callq  403a80 <_ZdaPv@plt>
  403e48:	eb c4                	jmp    403e0e <main.cold+0x24>
_ZNKSt7__cxx1112basic_stringIcSt11char_traitsIcESaIcEE7_M_dataEv():
/usr/include/c++/10/bits/basic_string.h:195
      { return _M_dataplus._M_p; }
  403e4a:	48 8b bc 24 10 01 00 	mov    0x110(%rsp),%rdi
  403e51:	00 
_ZNSt7__cxx1112basic_stringIcSt11char_traitsIcESaIcEE10_M_disposeEv():
/usr/include/c++/10/bits/basic_string.h:239
	if (!_M_is_local())
  403e52:	48 39 df             	cmp    %rbx,%rdi
  403e55:	74 05                	je     403e5c <main.cold+0x72>
_ZN9__gnu_cxx13new_allocatorIcE10deallocateEPcm():
/usr/include/c++/10/ext/new_allocator.h:139
	::operator delete(__p
  403e57:	e8 e4 fa ff ff       	callq  403940 <_ZdlPv@plt>
_ZNKSt7__cxx1112basic_stringIcSt11char_traitsIcESaIcEE7_M_dataEv():
/usr/include/c++/10/bits/basic_string.h:195
      { return _M_dataplus._M_p; }
  403e5c:	48 8b bc 24 f0 00 00 	mov    0xf0(%rsp),%rdi
  403e63:	00 
_ZNSt7__cxx1112basic_stringIcSt11char_traitsIcESaIcEE10_M_disposeEv():
/usr/include/c++/10/bits/basic_string.h:239
	if (!_M_is_local())
  403e64:	4c 39 f7             	cmp    %r14,%rdi
  403e67:	74 93                	je     403dfc <main.cold+0x12>
_ZN9__gnu_cxx13new_allocatorIcE10deallocateEPcm():
/usr/include/c++/10/ext/new_allocator.h:139
  403e69:	e8 d2 fa ff ff       	callq  403940 <_ZdlPv@plt>
_ZNSt7__cxx1112basic_stringIcSt11char_traitsIcESaIcEE10_M_destroyEm():
/usr/include/c++/10/bits/basic_string.h:245
	  _M_destroy(_M_allocated_capacity);
      }

      void
      _M_destroy(size_type __size) throw()
      { _Alloc_traits::deallocate(_M_get_allocator(), _M_data(), __size + 1); }
  403e6e:	eb 8c                	jmp    403dfc <main.cold+0x12>
_ZNKSt7__cxx1112basic_stringIcSt11char_traitsIcESaIcEE7_M_dataEv():
/usr/include/c++/10/bits/basic_string.h:195
      { return _M_dataplus._M_p; }
  403e70:	48 8b bc 24 10 01 00 	mov    0x110(%rsp),%rdi
  403e77:	00 
_ZNSt7__cxx1112basic_stringIcSt11char_traitsIcESaIcEE10_M_disposeEv():
/usr/include/c++/10/bits/basic_string.h:239
	if (!_M_is_local())
  403e78:	48 39 df             	cmp    %rbx,%rdi
  403e7b:	0f 84 7b ff ff ff    	je     403dfc <main.cold+0x12>
_ZN9__gnu_cxx13new_allocatorIcE10deallocateEPcm():
/usr/include/c++/10/ext/new_allocator.h:139
  403e81:	e8 ba fa ff ff       	callq  403940 <_ZdlPv@plt>
_ZNSt7__cxx1112basic_stringIcSt11char_traitsIcESaIcEE10_M_destroyEm():
/usr/include/c++/10/bits/basic_string.h:245
      { _Alloc_traits::deallocate(_M_get_allocator(), _M_data(), __size + 1); }
  403e86:	e9 71 ff ff ff       	jmpq   403dfc <main.cold+0x12>
_ZNKSt7__cxx1112basic_stringIcSt11char_traitsIcESaIcEE7_M_dataEv():
/usr/include/c++/10/bits/basic_string.h:195
      { return _M_dataplus._M_p; }
  403e8b:	48 8b bc 24 10 01 00 	mov    0x110(%rsp),%rdi
  403e92:	00 
_ZNSt7__cxx1112basic_stringIcSt11char_traitsIcESaIcEE10_M_disposeEv():
/usr/include/c++/10/bits/basic_string.h:239
	if (!_M_is_local())
  403e93:	48 8d 84 24 20 01 00 	lea    0x120(%rsp),%rax
  403e9a:	00 
  403e9b:	48 39 c7             	cmp    %rax,%rdi
  403e9e:	74 05                	je     403ea5 <main.cold+0xbb>
_ZN9__gnu_cxx13new_allocatorIcE10deallocateEPcm():
/usr/include/c++/10/ext/new_allocator.h:139
  403ea0:	e8 9b fa ff ff       	callq  403940 <_ZdlPv@plt>
_ZN9__gnu_cxx13new_allocatorIcED4Ev():
/usr/include/c++/10/ext/new_allocator.h:89
      ~new_allocator() _GLIBCXX_USE_NOEXCEPT { }
  403ea5:	48 89 ef             	mov    %rbp,%rdi
  403ea8:	e8 93 fd ff ff       	callq  403c40 <_Unwind_Resume@plt>
_ZN7pvectorIiEC4Em():
/home/aliha951/ipdps-artifact/gapbs-master/src/pvector.h:30
    start_ = new T_[num_elements];
  403ead:	e8 4e fc ff ff       	callq  403b00 <__cxa_throw_bad_array_new_length@plt>
  403eb2:	f3 0f 1e fa          	endbr64 
  403eb6:	48 89 c3             	mov    %rax,%rbx
  403eb9:	e9 50 ff ff ff       	jmpq   403e0e <main.cold+0x24>
_ZNKSt7__cxx1112basic_stringIcSt11char_traitsIcESaIcEE7_M_dataEv():
/usr/include/c++/10/bits/basic_string.h:195
      { return _M_dataplus._M_p; }
  403ebe:	48 8b bc 24 10 01 00 	mov    0x110(%rsp),%rdi
  403ec5:	00 
_ZNSt7__cxx1112basic_stringIcSt11char_traitsIcESaIcEE10_M_disposeEv():
/usr/include/c++/10/bits/basic_string.h:239
	if (!_M_is_local())
  403ec6:	48 39 df             	cmp    %rbx,%rdi
  403ec9:	0f 84 3c ff ff ff    	je     403e0b <main.cold+0x21>
_ZN9__gnu_cxx13new_allocatorIcE10deallocateEPcm():
/usr/include/c++/10/ext/new_allocator.h:139
	::operator delete(__p
  403ecf:	e8 6c fa ff ff       	callq  403940 <_ZdlPv@plt>
_ZNSt7__cxx1112basic_stringIcSt11char_traitsIcESaIcEE10_M_destroyEm():
/usr/include/c++/10/bits/basic_string.h:245
      { _Alloc_traits::deallocate(_M_get_allocator(), _M_data(), __size + 1); }
  403ed4:	e9 32 ff ff ff       	jmpq   403e0b <main.cold+0x21>
main.cold():
  403ed9:	0f 1f 80 00 00 00 00 	nopl   0x0(%rax)

0000000000403ee0 <main>:
main():
/home/aliha951/ipdps-artifact/gapbs-master/src/cc.cc:220
      return false;
  return true;
}


int main(int argc, char* argv[]) {
  403ee0:	f3 0f 1e fa          	endbr64 
  403ee4:	41 57                	push   %r15
  403ee6:	41 56                	push   %r14
  403ee8:	41 55                	push   %r13
  403eea:	41 54                	push   %r12
  403eec:	49 89 f4             	mov    %rsi,%r12
  403eef:	55                   	push   %rbp
  403ef0:	89 fd                	mov    %edi,%ebp
  403ef2:	53                   	push   %rbx
  403ef3:	48 81 ec 18 03 00 00 	sub    $0x318,%rsp
  403efa:	64 48 8b 04 25 28 00 	mov    %fs:0x28,%rax
  403f01:	00 00 
  403f03:	48 89 84 24 08 03 00 	mov    %rax,0x308(%rsp)
  403f0a:	00 
  403f0b:	31 c0                	xor    %eax,%eax
/home/aliha951/ipdps-artifact/gapbs-master/src/cc.cc:222
  initialize_perf_measurements();
  CLApp cli(argc, argv, "connected-components-afforest");
  403f0d:	4c 8d ac 24 10 01 00 	lea    0x110(%rsp),%r13
  403f14:	00 
_Z28initialize_perf_measurementsv():
/home/aliha951/ipdps-artifact/gapbs-master/src/profiling_utils.h:169

/* Setup counters before any threads are created by omp
 * Must be called at the begining of the program.
*/
void initialize_perf_measurements(){
  perf_ctrs = setup_counters();
  403f15:	e8 06 2a 00 00       	callq  406920 <_Z14setup_countersv>
main():
/home/aliha951/ipdps-artifact/gapbs-master/src/cc.cc:222
  403f1a:	48 8d 35 f3 13 01 00 	lea    0x113f3(%rip),%rsi        # 415314 <_IO_stdin_used+0x314>
  403f21:	4c 89 ef             	mov    %r13,%rdi
_Z28initialize_perf_measurementsv():
/home/aliha951/ipdps-artifact/gapbs-master/src/profiling_utils.h:169
  403f24:	48 89 05 65 69 01 00 	mov    %rax,0x16965(%rip)        # 41a890 <perf_ctrs>
  403f2b:	48 89 15 66 69 01 00 	mov    %rdx,0x16966(%rip)        # 41a898 <perf_ctrs+0x8>
main():
/home/aliha951/ipdps-artifact/gapbs-master/src/cc.cc:222
  403f32:	e8 29 1d 00 00       	callq  405c60 <_ZNSt7__cxx1112basic_stringIcSt11char_traitsIcESaIcEEC2EPKcRKS3_.constprop.0>
  403f37:	4c 89 e9             	mov    %r13,%rcx
  403f3a:	4c 89 e2             	mov    %r12,%rdx
  403f3d:	89 ee                	mov    %ebp,%esi
  403f3f:	48 8d 84 24 30 01 00 	lea    0x130(%rsp),%rax
  403f46:	00 
  403f47:	48 89 c7             	mov    %rax,%rdi
  403f4a:	48 89 44 24 38       	mov    %rax,0x38(%rsp)
  403f4f:	e8 9c 87 00 00       	callq  40c6f0 <_ZN5CLAppC1EiPPcNSt7__cxx1112basic_stringIcSt11char_traitsIcESaIcEEE>
_ZNKSt7__cxx1112basic_stringIcSt11char_traitsIcESaIcEE7_M_dataEv():
/usr/include/c++/10/bits/basic_string.h:195
      { return _M_dataplus._M_p; }
  403f54:	48 8b bc 24 10 01 00 	mov    0x110(%rsp),%rdi
  403f5b:	00 
_ZNSt7__cxx1112basic_stringIcSt11char_traitsIcESaIcEE10_M_disposeEv():
/usr/include/c++/10/bits/basic_string.h:239
	if (!_M_is_local())
  403f5c:	48 8d 9c 24 20 01 00 	lea    0x120(%rsp),%rbx
  403f63:	00 
  403f64:	48 39 df             	cmp    %rbx,%rdi
  403f67:	74 05                	je     403f6e <main+0x8e>
_ZN9__gnu_cxx13new_allocatorIcE10deallocateEPcm():
/usr/include/c++/10/ext/new_allocator.h:139
  403f69:	e8 d2 f9 ff ff       	callq  403940 <_ZdlPv@plt>
_ZN6CLBase9HandleArgEaPc():
/home/aliha951/ipdps-artifact/gapbs-master/src/command_line.h:100
    switch (opt) {
  403f6e:	4c 8d 25 6f 1f 01 00 	lea    0x11f6f(%rip),%r12        # 415ee4 <_IO_stdin_used+0xee4>
_ZNSt7__cxx1112basic_stringIcSt11char_traitsIcESaIcEEaSEOS4_():
/usr/include/c++/10/bits/basic_string.h:745
	    || _M_get_allocator() == __str._M_get_allocator())
	  {
	    // Just move the allocated pointer, our allocator can free it.
	    pointer __data = nullptr;
	    size_type __capacity;
	    if (!_M_is_local())
  403f75:	4c 8d b4 24 b8 01 00 	lea    0x1b8(%rsp),%r14
  403f7c:	00 
_ZN5CLApp9HandleArgEaPc():
/home/aliha951/ipdps-artifact/gapbs-master/src/command_line.h:165
    AddHelpLine('p', "", "partial execution", "false");
    AddHelpLine('z', "", "pin vertex array in memory", "false");
  }

  void HandleArg(signed char opt, char* opt_arg) override {
    switch (opt) {
  403f7d:	48 8d 2d f8 1e 01 00 	lea    0x11ef8(%rip),%rbp        # 415e7c <_IO_stdin_used+0xe7c>
  403f84:	0f 1f 40 00          	nopl   0x0(%rax)
_ZN6CLBase9ParseArgsEv():
/home/aliha951/ipdps-artifact/gapbs-master/src/command_line.h:87
    while ((c_opt = getopt(argc_, argv_, get_args_.c_str())) != -1) {
  403f88:	48 8b 94 24 68 01 00 	mov    0x168(%rsp),%rdx
  403f8f:	00 
  403f90:	48 8b b4 24 40 01 00 	mov    0x140(%rsp),%rsi
  403f97:	00 
  403f98:	8b bc 24 38 01 00 00 	mov    0x138(%rsp),%edi
  403f9f:	e8 6c f7 ff ff       	callq  403710 <getopt@plt>
  403fa4:	3c ff                	cmp    $0xff,%al
  403fa6:	0f 84 a4 00 00 00    	je     404050 <main+0x170>
_ZN5CLApp9HandleArgEaPc():
/home/aliha951/ipdps-artifact/gapbs-master/src/command_line.h:165
    switch (opt) {
  403fac:	8d 50 9f             	lea    -0x61(%rax),%edx
_ZN6CLBase9ParseArgsEv():
/home/aliha951/ipdps-artifact/gapbs-master/src/command_line.h:88
      HandleArg(c_opt, optarg);
  403faf:	48 8b 3d ca 63 01 00 	mov    0x163ca(%rip),%rdi        # 41a380 <optarg@@GLIBC_2.2.5>
_ZN5CLApp9HandleArgEaPc():
/home/aliha951/ipdps-artifact/gapbs-master/src/command_line.h:165
    switch (opt) {
  403fb6:	80 fa 19             	cmp    $0x19,%dl
  403fb9:	77 15                	ja     403fd0 <main+0xf0>
  403fbb:	0f b6 d2             	movzbl %dl,%edx
  403fbe:	48 63 54 95 00       	movslq 0x0(%rbp,%rdx,4),%rdx
  403fc3:	48 01 ea             	add    %rbp,%rdx
  403fc6:	3e ff e2             	notrack jmpq *%rdx
  403fc9:	0f 1f 80 00 00 00 00 	nopl   0x0(%rax)
_ZN6CLBase9HandleArgEaPc():
/home/aliha951/ipdps-artifact/gapbs-master/src/command_line.h:100
    switch (opt) {
  403fd0:	83 e8 66             	sub    $0x66,%eax
  403fd3:	3c 13                	cmp    $0x13,%al
  403fd5:	77 b1                	ja     403f88 <main+0xa8>
  403fd7:	0f b6 c0             	movzbl %al,%eax
  403fda:	49 63 04 84          	movslq (%r12,%rax,4),%rax
  403fde:	4c 01 e0             	add    %r12,%rax
  403fe1:	3e ff e0             	notrack jmpq *%rax
_ZN5CLApp9HandleArgEaPc():
/home/aliha951/ipdps-artifact/gapbs-master/src/command_line.h:174
      case 'v': do_verify_ = true;                      break;
      case 'l': enable_logging_ = true;                 break;

      // added options for batching
      case 'p': partial_execution_ = true;              break;
      case 'z': pin_vertices_ = true;                 	break;
  403fe4:	c6 84 24 f3 01 00 00 	movb   $0x1,0x1f3(%rsp)
  403feb:	01 
  403fec:	eb 9a                	jmp    403f88 <main+0xa8>
/home/aliha951/ipdps-artifact/gapbs-master/src/command_line.h:169
      case 'v': do_verify_ = true;                      break;
  403fee:	c6 84 24 f0 01 00 00 	movb   $0x1,0x1f0(%rsp)
  403ff5:	01 
  403ff6:	eb 90                	jmp    403f88 <main+0xa8>
main():
/usr/include/stdlib.h:368
  return (int) strtol (__nptr, (char **) NULL, 10);
}
__extern_inline long int
__NTH (atol (const char *__nptr))
{
  return strtol (__nptr, (char **) NULL, 10);
  403ff8:	ba 0a 00 00 00       	mov    $0xa,%edx
atol():
/usr/include/stdlib.h:368
  403ffd:	31 f6                	xor    %esi,%esi
  403fff:	e8 cc fa ff ff       	callq  403ad0 <strtol@plt>
_ZN5CLApp9HandleArgEaPc():
/home/aliha951/ipdps-artifact/gapbs-master/src/command_line.h:168
      case 'r': start_vertex_ = atol(opt_arg);          break;
  404004:	48 89 84 24 e8 01 00 	mov    %rax,0x1e8(%rsp)
  40400b:	00 
  40400c:	e9 77 ff ff ff       	jmpq   403f88 <main+0xa8>
/home/aliha951/ipdps-artifact/gapbs-master/src/command_line.h:173
      case 'p': partial_execution_ = true;              break;
  404011:	c6 84 24 f2 01 00 00 	movb   $0x1,0x1f2(%rsp)
  404018:	01 
  404019:	e9 6a ff ff ff       	jmpq   403f88 <main+0xa8>
main():
/usr/include/stdlib.h:363
  return (int) strtol (__nptr, (char **) NULL, 10);
  40401e:	ba 0a 00 00 00       	mov    $0xa,%edx
atoi():
/usr/include/stdlib.h:363
  404023:	31 f6                	xor    %esi,%esi
  404025:	e8 a6 fa ff ff       	callq  403ad0 <strtol@plt>
  40402a:	89 84 24 e4 01 00 00 	mov    %eax,0x1e4(%rsp)
_ZN5CLApp9HandleArgEaPc():
/home/aliha951/ipdps-artifact/gapbs-master/src/command_line.h:167
      case 'n': num_trials_ = atoi(opt_arg);            break;
  404031:	e9 52 ff ff ff       	jmpq   403f88 <main+0xa8>
/home/aliha951/ipdps-artifact/gapbs-master/src/command_line.h:170
      case 'l': enable_logging_ = true;                 break;
  404036:	c6 84 24 f1 01 00 00 	movb   $0x1,0x1f1(%rsp)
  40403d:	01 
  40403e:	e9 45 ff ff ff       	jmpq   403f88 <main+0xa8>
/home/aliha951/ipdps-artifact/gapbs-master/src/command_line.h:166
      case 'a': do_analysis_ = true;                    break;
  404043:	c6 84 24 e0 01 00 00 	movb   $0x1,0x1e0(%rsp)
  40404a:	01 
  40404b:	e9 38 ff ff ff       	jmpq   403f88 <main+0xa8>
_ZSteqIcSt11char_traitsIcESaIcEEbRKNSt7__cxx1112basic_stringIT_T0_T1_EEPKS5_():
/usr/include/c++/10/bits/basic_string.h:6199
   */
  template<typename _CharT, typename _Traits, typename _Alloc>
    inline bool
    operator==(const basic_string<_CharT, _Traits, _Alloc>& __lhs,
	       const _CharT* __rhs)
    { return __lhs.compare(__rhs) == 0; }
  404050:	48 8d bc 24 a8 01 00 	lea    0x1a8(%rsp),%rdi
  404057:	00 
  404058:	48 8d 35 ec 11 01 00 	lea    0x111ec(%rip),%rsi        # 41524b <_IO_stdin_used+0x24b>
  40405f:	e8 fc f6 ff ff       	callq  403760 <_ZNKSt7__cxx1112basic_stringIcSt11char_traitsIcESaIcEE7compareEPKc@plt>
_ZN6CLBase9ParseArgsEv():
/home/aliha951/ipdps-artifact/gapbs-master/src/command_line.h:90
    if ((filename_ == "") && (scale_ == -1)) {
  404064:	85 c0                	test   %eax,%eax
  404066:	0f 84 7a 05 00 00    	je     4045e6 <main+0x706>
/home/aliha951/ipdps-artifact/gapbs-master/src/command_line.h:94
    if (scale_ != -1)
  40406c:	83 bc 24 a0 01 00 00 	cmpl   $0xffffffff,0x1a0(%rsp)
  404073:	ff 
  404074:	0f 85 7e 05 00 00    	jne    4045f8 <main+0x718>
_ZN11BuilderBaseIiiiLb1EEC4ERK6CLBase():
/home/aliha951/ipdps-artifact/gapbs-master/src/builder.h:50
  bool needs_weights_;
  bool in_place_ = false;
  int64_t num_nodes_ = -1;

 public:
  explicit BuilderBase(const CLBase &cli) : cli_(cli) {
  40407a:	48 8b 44 24 38       	mov    0x38(%rsp),%rax
main():
/home/aliha951/ipdps-artifact/gapbs-master/src/cc.cc:226
  if (!cli.ParseArgs())
    return -1;
  Builder b(cli);
  Graph g = b.MakeGraph();
  40407f:	48 8d 74 24 50       	lea    0x50(%rsp),%rsi
_ZN11BuilderBaseIiiiLb1EEC4ERK6CLBase():
/home/aliha951/ipdps-artifact/gapbs-master/src/builder.h:52
    symmetrize_ = cli_.symmetrize();
    needs_weights_ = !std::is_same<NodeID_, DestID_>::value;
  404084:	c6 44 24 59 00       	movb   $0x0,0x59(%rsp)
/home/aliha951/ipdps-artifact/gapbs-master/src/builder.h:50
  explicit BuilderBase(const CLBase &cli) : cli_(cli) {
  404089:	48 c7 44 24 60 ff ff 	movq   $0xffffffffffffffff,0x60(%rsp)
  404090:	ff ff 
  404092:	48 89 44 24 50       	mov    %rax,0x50(%rsp)
/home/aliha951/ipdps-artifact/gapbs-master/src/builder.h:51
    symmetrize_ = cli_.symmetrize();
  404097:	0f b6 84 24 c8 01 00 	movzbl 0x1c8(%rsp),%eax
  40409e:	00 
  40409f:	88 44 24 58          	mov    %al,0x58(%rsp)
/home/aliha951/ipdps-artifact/gapbs-master/src/builder.h:53
    in_place_ = cli_.in_place();
  4040a3:	0f b6 84 24 ca 01 00 	movzbl 0x1ca(%rsp),%eax
  4040aa:	00 
  4040ab:	88 44 24 5a          	mov    %al,0x5a(%rsp)
main():
/home/aliha951/ipdps-artifact/gapbs-master/src/cc.cc:226
  4040af:	48 8d 84 24 b0 00 00 	lea    0xb0(%rsp),%rax
  4040b6:	00 
  4040b7:	48 89 c7             	mov    %rax,%rdi
  4040ba:	48 89 44 24 30       	mov    %rax,0x30(%rsp)
  4040bf:	49 89 c7             	mov    %rax,%r15
  4040c2:	e8 19 ea 00 00       	callq  412ae0 <_ZN11BuilderBaseIiiiLb1EE9MakeGraphEv>
/home/aliha951/ipdps-artifact/gapbs-master/src/benchmark.h:107
template<typename GraphT_, typename GraphFunc, typename AnalysisFunc,
         typename VerifierFunc>
void BenchmarkKernel(const CLApp &cli, const GraphT_ &g,
                     GraphFunc kernel, AnalysisFunc stats,
                     VerifierFunc verify) {
  g.PrintStats();
  4040c7:	4c 89 ff             	mov    %r15,%rdi
BenchmarkKernel<CSRGraph<int>, main(int, char**)::<lambda(const Graph&)>, void (*)(const CSRGraph<int>&, const pvector<int>&), bool (*)(const CSRGraph<int>&, const pvector<int>&)>():
/home/aliha951/ipdps-artifact/gapbs-master/src/benchmark.h:107
  4040ca:	e8 21 6e 00 00       	callq  40aef0 <_ZNK8CSRGraphIiiLb1EE10PrintStatsEv>
_Z16start_disk_statsPKc():
/home/aliha951/ipdps-artifact/gapbs-master/src/profiling_utils.h:300
	fprintf(f, "%d", pid);
	fclose(f);
}

inline void start_disk_stats(const char* result_file_name){
  pid_t pid = fork();
  4040cf:	e8 7c f6 ff ff       	callq  403750 <fork@plt>
/home/aliha951/ipdps-artifact/gapbs-master/src/profiling_utils.h:301
  if (pid < 0) {
  4040d4:	85 c0                	test   %eax,%eax
  4040d6:	0f 88 d1 07 00 00    	js     4048ad <main+0x9cd>
/home/aliha951/ipdps-artifact/gapbs-master/src/profiling_utils.h:304
    perror("fork failed");
    exit(EXIT_FAILURE);
  } else if (pid == 0) { // Child process
  4040dc:	0f 84 e1 07 00 00    	je     4048c3 <main+0x9e3>
/home/aliha951/ipdps-artifact/gapbs-master/src/profiling_utils.h:312
    execlp("/home/aliha951/ipdps-gapbs/gather_diskstats.sh", "/home/aliha951/ipdps-gapbs/gather_diskstats.sh", result_file_name, NULL);
    perror("execlp failed");
    exit(EXIT_FAILURE);
  }
  // Parent process continues
  diskstat_pid = pid;
  4040e2:	89 05 6c 62 01 00    	mov    %eax,0x1626c(%rip)        # 41a354 <diskstat_pid>
BenchmarkKernel<CSRGraph<int>, main(int, char**)::<lambda(const Graph&)>, void (*)(const CSRGraph<int>&, const pvector<int>&), bool (*)(const CSRGraph<int>&, const pvector<int>&)>():
/home/aliha951/ipdps-artifact/gapbs-master/src/benchmark.h:114
  
  // adding profiling markers and rusage counters for performance analysis
  long long user_instructions, kernel_instructions,
              user_time, kernel_time;
  start_disk_stats("disk.stats");
  start_taskstats();                    
  4040e8:	e8 53 31 00 00       	callq  407240 <_Z15start_taskstatsv>
/home/aliha951/ipdps-artifact/gapbs-master/src/benchmark.h:115
  snapshot_proc_pid(BEGIN);
  4040ed:	31 ff                	xor    %edi,%edi
  4040ef:	e8 ec 66 00 00       	callq  40a7e0 <_Z17snapshot_proc_pid13SnapshotPoint>
/home/aliha951/ipdps-artifact/gapbs-master/src/benchmark.h:116
  snapshot_proc_stat(BEGIN);
  4040f4:	31 ff                	xor    %edi,%edi
  4040f6:	e8 15 6a 00 00       	callq  40ab10 <_Z18snapshot_proc_stat13SnapshotPoint>
/home/aliha951/ipdps-artifact/gapbs-master/src/benchmark.h:117
  start_counters(&perf_ctrs);
  4040fb:	48 8d 3d 8e 67 01 00 	lea    0x1678e(%rip),%rdi        # 41a890 <perf_ctrs>
  404102:	e8 19 2a 00 00       	callq  406b20 <_Z14start_countersP13perf_counters>
/home/aliha951/ipdps-artifact/gapbs-master/src/benchmark.h:118
  trace_marker("BenchmarkKernel_Start");
  404107:	48 8d 3d 5f 12 01 00 	lea    0x1125f(%rip),%rdi        # 41536d <_IO_stdin_used+0x36d>
  40410e:	e8 3d 27 00 00       	callq  406850 <_Z12trace_markerPKc>
/home/aliha951/ipdps-artifact/gapbs-master/src/benchmark.h:119
  start_time_stats();
  404113:	e8 e8 24 00 00       	callq  406600 <_Z16start_time_statsv>
_Z19ompt_mark_roi_startv():
/home/aliha951/ipdps-artifact/gapbs-master/src/../omp_runtime_visualizer/include/runtime_visualizer_utils.h:52
  printf("[OMPT_annotation] Thread %d Annotation at %.3f ms: %s\n", 
         thread_id, timestamp / 1000.0, annotation);
}

inline void ompt_mark_roi_start() {
  ompt_annotate("ROI_START");
  404118:	48 8d 3d 64 12 01 00 	lea    0x11264(%rip),%rdi        # 415383 <_IO_stdin_used+0x383>
  40411f:	e8 bc 33 00 00       	callq  4074e0 <_Z13ompt_annotatePKc>
BenchmarkKernel<CSRGraph<int>, main(int, char**)::<lambda(const Graph&)>, void (*)(const CSRGraph<int>&, const pvector<int>&), bool (*)(const CSRGraph<int>&, const pvector<int>&)>():
/home/aliha951/ipdps-artifact/gapbs-master/src/benchmark.h:123
  ompt_mark_roi_start();

  Timer trial_timer;
  for (int iter=0; iter < cli.num_trials(); iter++) {
  404124:	8b 8c 24 e4 01 00 00 	mov    0x1e4(%rsp),%ecx
  40412b:	85 c9                	test   %ecx,%ecx
  40412d:	0f 8e c2 06 00 00    	jle    4047f5 <main+0x915>
/home/aliha951/ipdps-artifact/gapbs-master/src/benchmark.h:108
  double total_seconds = 0;
  404133:	66 0f ef c9          	pxor   %xmm1,%xmm1
  404137:	f3 0f 7e 7c 24 30    	movq   0x30(%rsp),%xmm7
  40413d:	4c 8d 7c 24 70       	lea    0x70(%rsp),%r15
/home/aliha951/ipdps-artifact/gapbs-master/src/benchmark.h:123
  for (int iter=0; iter < cli.num_trials(); iter++) {
  404142:	45 31 e4             	xor    %r12d,%r12d
/home/aliha951/ipdps-artifact/gapbs-master/src/benchmark.h:108
  double total_seconds = 0;
  404145:	f2 0f 11 4c 24 18    	movsd  %xmm1,0x18(%rsp)
  40414b:	66 49 0f 6e cf       	movq   %r15,%xmm1
  404150:	66 0f 6c f9          	punpcklqdq %xmm1,%xmm7
  404154:	0f 29 3c 24          	movaps %xmm7,(%rsp)
  404158:	0f 1f 84 00 00 00 00 	nopl   0x0(%rax,%rax,1)
  40415f:	00 
_ZN5Timer5StartEv():
/home/aliha951/ipdps-artifact/gapbs-master/src/timer.h:23
class Timer {
 public:
  Timer() {}

  void Start() {
    elapsed_time_ = start_time_ = std::chrono::high_resolution_clock::now();
  404160:	e8 5b f5 ff ff       	callq  4036c0 <_ZNSt6chrono3_V212system_clock3nowEv@plt>
_Z8AfforestRK8CSRGraphIiiLb1EEbi():
/home/aliha951/ipdps-artifact/gapbs-master/src/cc.cc:97
  pvector<NodeID> comp(g.num_nodes());
  404165:	48 8b ac 24 b8 00 00 	mov    0xb8(%rsp),%rbp
  40416c:	00 
_ZN5Timer5StartEv():
/home/aliha951/ipdps-artifact/gapbs-master/src/timer.h:23
  40416d:	48 89 44 24 28       	mov    %rax,0x28(%rsp)
main():
/home/aliha951/ipdps-artifact/gapbs-master/src/cc.cc:227
  auto CCBound = [&cli](const Graph& gr){ return Afforest(gr, cli.logging_en()); };
  404172:	0f b6 84 24 f1 01 00 	movzbl 0x1f1(%rsp),%eax
  404179:	00 
operator()():
/home/aliha951/ipdps-artifact/gapbs-master/src/cc.cc:227
  40417a:	89 44 24 20          	mov    %eax,0x20(%rsp)
_ZN7pvectorIiEC4Em():
/home/aliha951/ipdps-artifact/gapbs-master/src/pvector.h:30
  40417e:	48 b8 fe ff ff ff ff 	movabs $0x1ffffffffffffffe,%rax
  404185:	ff ff 1f 
  404188:	48 39 c5             	cmp    %rax,%rbp
  40418b:	0f 87 1c fd ff ff    	ja     403ead <main.cold+0xc3>
  404191:	48 c1 e5 02          	shl    $0x2,%rbp
  404195:	48 89 ef             	mov    %rbp,%rdi
  404198:	e8 f3 f4 ff ff       	callq  403690 <_Znam@plt>
/home/aliha951/ipdps-artifact/gapbs-master/src/pvector.h:31
    end_size_ = start_ + num_elements;
  40419d:	48 01 c5             	add    %rax,%rbp
_Z8AfforestRK8CSRGraphIiiLb1EEbi():
/home/aliha951/ipdps-artifact/gapbs-master/src/cc.cc:100
  #pragma omp parallel for
  4041a0:	66 0f 6f 24 24       	movdqa (%rsp),%xmm4
  4041a5:	31 c9                	xor    %ecx,%ecx
  4041a7:	31 d2                	xor    %edx,%edx
_ZN7pvectorIiEC4Em():
/home/aliha951/ipdps-artifact/gapbs-master/src/pvector.h:31
  4041a9:	48 89 6c 24 78       	mov    %rbp,0x78(%rsp)
  4041ae:	48 8d 3d 8b 0d 00 00 	lea    0xd8b(%rip),%rdi        # 404f40 <_Z8AfforestRK8CSRGraphIiiLb1EEbi._omp_fn.0>
_Z8AfforestRK8CSRGraphIiiLb1EEbi():
/home/aliha951/ipdps-artifact/gapbs-master/src/cc.cc:106
  for (int r = 0; r < neighbor_rounds; ++r) {
  4041b5:	45 31 f6             	xor    %r14d,%r14d
_ZN7pvectorIiEC4Em():
/home/aliha951/ipdps-artifact/gapbs-master/src/pvector.h:32
    end_capacity_ = end_size_;
  4041b8:	48 89 ac 24 80 00 00 	mov    %rbp,0x80(%rsp)
  4041bf:	00 
_Z8AfforestRK8CSRGraphIiiLb1EEbi():
/home/aliha951/ipdps-artifact/gapbs-master/src/cc.cc:100
  #pragma omp parallel for
  4041c0:	48 8d ac 24 90 00 00 	lea    0x90(%rsp),%rbp
  4041c7:	00 
  4041c8:	48 89 ee             	mov    %rbp,%rsi
_ZN7pvectorIiEC4Em():
/home/aliha951/ipdps-artifact/gapbs-master/src/pvector.h:30
    start_ = new T_[num_elements];
  4041cb:	48 89 44 24 70       	mov    %rax,0x70(%rsp)
_Z8AfforestRK8CSRGraphIiiLb1EEbi():
/home/aliha951/ipdps-artifact/gapbs-master/src/cc.cc:100
  4041d0:	0f 29 a4 24 90 00 00 	movaps %xmm4,0x90(%rsp)
  4041d7:	00 
  4041d8:	e8 53 fa ff ff       	callq  403c30 <GOMP_parallel@plt>
/home/aliha951/ipdps-artifact/gapbs-master/src/cc.cc:106
  for (int r = 0; r < neighbor_rounds; ++r) {
  4041dd:	eb 07                	jmp    4041e6 <main+0x306>
  4041df:	90                   	nop
  4041e0:	41 be 01 00 00 00    	mov    $0x1,%r14d
/home/aliha951/ipdps-artifact/gapbs-master/src/cc.cc:107
  #pragma omp parallel for schedule(dynamic,16384)
  4041e6:	66 0f 6f 14 24       	movdqa (%rsp),%xmm2
  4041eb:	31 c9                	xor    %ecx,%ecx
  4041ed:	31 d2                	xor    %edx,%edx
  4041ef:	48 89 ee             	mov    %rbp,%rsi
  4041f2:	48 8d 3d e7 34 00 00 	lea    0x34e7(%rip),%rdi        # 4076e0 <_Z8AfforestRK8CSRGraphIiiLb1EEbi._omp_fn.1>
  4041f9:	44 89 b4 24 a0 00 00 	mov    %r14d,0xa0(%rsp)
  404200:	00 
  404201:	0f 29 94 24 90 00 00 	movaps %xmm2,0x90(%rsp)
  404208:	00 
  404209:	e8 22 fa ff ff       	callq  403c30 <GOMP_parallel@plt>
_Z8CompressRK8CSRGraphIiiLb1EER7pvectorIiE():
/home/aliha951/ipdps-artifact/gapbs-master/src/cc.cc:60
  #pragma omp parallel for schedule(dynamic, 16384)
  40420e:	66 0f 6f 14 24       	movdqa (%rsp),%xmm2
  404213:	31 c9                	xor    %ecx,%ecx
  404215:	31 d2                	xor    %edx,%edx
  404217:	48 89 ee             	mov    %rbp,%rsi
  40421a:	48 8d 3d 4f 0c 00 00 	lea    0xc4f(%rip),%rdi        # 404e70 <_Z8CompressRK8CSRGraphIiiLb1EER7pvectorIiE._omp_fn.0>
  404221:	0f 29 94 24 90 00 00 	movaps %xmm2,0x90(%rsp)
  404228:	00 
  404229:	e8 02 fa ff ff       	callq  403c30 <GOMP_parallel@plt>
_Z8AfforestRK8CSRGraphIiiLb1EEbi():
/home/aliha951/ipdps-artifact/gapbs-master/src/cc.cc:106
  for (int r = 0; r < neighbor_rounds; ++r) {
  40422e:	41 83 fe 01          	cmp    $0x1,%r14d
  404232:	75 ac                	jne    4041e0 <main+0x300>
/home/aliha951/ipdps-artifact/gapbs-master/src/cc.cc:120
  NodeID c = SampleFrequentElement(comp, logging_enabled);
  404234:	8b 74 24 20          	mov    0x20(%rsp),%esi
  404238:	4c 89 ff             	mov    %r15,%rdi
  40423b:	e8 40 42 00 00       	callq  408480 <_Z21SampleFrequentElementRK7pvectorIiEbl.constprop.0>
/home/aliha951/ipdps-artifact/gapbs-master/src/cc.cc:123
  if (!g.directed()) {
  404240:	80 bc 24 b0 00 00 00 	cmpb   $0x0,0xb0(%rsp)
  404247:	00 
/home/aliha951/ipdps-artifact/gapbs-master/src/cc.cc:124
    #pragma omp parallel for schedule(dynamic, 16384)
  404248:	89 84 24 a4 00 00 00 	mov    %eax,0xa4(%rsp)
  40424f:	c7 84 24 a0 00 00 00 	movl   $0x2,0xa0(%rsp)
  404256:	02 00 00 00 
/home/aliha951/ipdps-artifact/gapbs-master/src/cc.cc:123
  if (!g.directed()) {
  40425a:	0f 85 a8 03 00 00    	jne    404608 <main+0x728>
/home/aliha951/ipdps-artifact/gapbs-master/src/cc.cc:124
    #pragma omp parallel for schedule(dynamic, 16384)
  404260:	66 0f 6f 3c 24       	movdqa (%rsp),%xmm7
  404265:	31 c9                	xor    %ecx,%ecx
  404267:	31 d2                	xor    %edx,%edx
  404269:	48 89 ee             	mov    %rbp,%rsi
  40426c:	48 8d 3d 6d 18 00 00 	lea    0x186d(%rip),%rdi        # 405ae0 <_Z8AfforestRK8CSRGraphIiiLb1EEbi._omp_fn.2>
  404273:	0f 29 bc 24 90 00 00 	movaps %xmm7,0x90(%rsp)
  40427a:	00 
  40427b:	e8 b0 f9 ff ff       	callq  403c30 <GOMP_parallel@plt>
_Z8CompressRK8CSRGraphIiiLb1EER7pvectorIiE():
/home/aliha951/ipdps-artifact/gapbs-master/src/cc.cc:60
  #pragma omp parallel for schedule(dynamic, 16384)
  404280:	66 0f 6f 2c 24       	movdqa (%rsp),%xmm5
  404285:	31 d2                	xor    %edx,%edx
  404287:	48 8d 3d e2 0b 00 00 	lea    0xbe2(%rip),%rdi        # 404e70 <_Z8CompressRK8CSRGraphIiiLb1EER7pvectorIiE._omp_fn.0>
  40428e:	31 c9                	xor    %ecx,%ecx
  404290:	48 89 ee             	mov    %rbp,%rsi
  404293:	0f 29 ac 24 90 00 00 	movaps %xmm5,0x90(%rsp)
  40429a:	00 
  40429b:	e8 90 f9 ff ff       	callq  403c30 <GOMP_parallel@plt>
_ZN5Timer4StopEv():
/home/aliha951/ipdps-artifact/gapbs-master/src/timer.h:27
  }

  void Stop() {
    elapsed_time_ = std::chrono::high_resolution_clock::now();
  4042a0:	e8 1b f4 ff ff       	callq  4036c0 <_ZNSt6chrono3_V212system_clock3nowEv@plt>
_ZNSt6chrono20__duration_cast_implINS_8durationIdSt5ratioILl1ELl1EEEES2_ILl1ELl1000000000EEdLb1ELb0EE6__castIlS5_EES4_RKNS1_IT_T0_EE():
/usr/include/c++/10/chrono:214
	  static constexpr _ToDur
	  __cast(const duration<_Rep, _Period>& __d)
	  {
	    typedef typename _ToDur::rep			__to_rep;
	    return _ToDur(static_cast<__to_rep>(
	      static_cast<_CR>(__d.count()) / static_cast<_CR>(_CF::den)));
  4042a5:	66 0f ef c0          	pxor   %xmm0,%xmm0
BenchmarkKernel<CSRGraph<int>, main(int, char**)::<lambda(const Graph&)>, void (*)(const CSRGraph<int>&, const pvector<int>&), bool (*)(const CSRGraph<int>&, const pvector<int>&)>():
/home/aliha951/ipdps-artifact/gapbs-master/src/benchmark.h:127
    trial_timer.Start();
    auto result = kernel(g);
    trial_timer.Stop();
    PrintTime("Trial Time", trial_timer.Seconds());
  4042a9:	4c 89 ef             	mov    %r13,%rdi
_ZNSt6chronomiIlSt5ratioILl1ELl1000000000EElS2_EENSt11common_typeIJNS_8durationIT_T0_EENS4_IT1_T2_EEEE4typeERKS7_RKSA_():
/usr/include/c++/10/chrono:614
		const duration<_Rep2, _Period2>& __rhs)
      {
	typedef duration<_Rep1, _Period1>			__dur1;
	typedef duration<_Rep2, _Period2>			__dur2;
	typedef typename common_type<__dur1,__dur2>::type	__cd;
	return __cd(__cd(__lhs).count() - __cd(__rhs).count());
  4042ac:	48 2b 44 24 28       	sub    0x28(%rsp),%rax
_ZNSt6chrono20__duration_cast_implINS_8durationIdSt5ratioILl1ELl1EEEES2_ILl1ELl1000000000EEdLb1ELb0EE6__castIlS5_EES4_RKNS1_IT_T0_EE():
/usr/include/c++/10/chrono:214
	      static_cast<_CR>(__d.count()) / static_cast<_CR>(_CF::den)));
  4042b1:	f2 48 0f 2a c0       	cvtsi2sd %rax,%xmm0
_ZNSt11char_traitsIcE4copyEPcPKcm():
/usr/include/c++/10/bits/char_traits.h:437
	  return __s1;
#ifdef __cpp_lib_is_constant_evaluated
	if (std::is_constant_evaluated())
	  return __gnu_cxx::char_traits<char_type>::copy(__s1, __s2, __n);
#endif
	return static_cast<char_type*>(__builtin_memcpy(__s1, __s2, __n));
  4042b6:	ba 6d 65 00 00       	mov    $0x656d,%edx
  4042bb:	48 b8 54 72 69 61 6c 	movabs $0x6954206c61697254,%rax
  4042c2:	20 54 69 
_ZNSt7__cxx1112basic_stringIcSt11char_traitsIcESaIcEE12_Alloc_hiderC4EPcRKS3_():
/usr/include/c++/10/bits/basic_string.h:165
	: allocator_type(__a), _M_p(__dat) { }
  4042c5:	48 89 9c 24 10 01 00 	mov    %rbx,0x110(%rsp)
  4042cc:	00 
_ZNSt11char_traitsIcE4copyEPcPKcm():
/usr/include/c++/10/bits/char_traits.h:437
  4042cd:	48 89 03             	mov    %rax,(%rbx)
_ZNSt6chrono20__duration_cast_implINS_8durationIdSt5ratioILl1ELl1EEEES2_ILl1ELl1000000000EEdLb1ELb0EE6__castIlS5_EES4_RKNS1_IT_T0_EE():
/usr/include/c++/10/chrono:214
  4042d0:	f2 0f 5e 05 28 1f 01 	divsd  0x11f28(%rip),%xmm0        # 416200 <_ZZNSt8__detail18__to_chars_10_implIjEEvPcjT_E8__digits+0x2a0>
  4042d7:	00 
_ZNSt11char_traitsIcE4copyEPcPKcm():
/usr/include/c++/10/bits/char_traits.h:437
  4042d8:	66 89 53 08          	mov    %dx,0x8(%rbx)
_ZNSt6chrono20__duration_cast_implINS_8durationIdSt5ratioILl1ELl1EEEES2_ILl1ELl1000000000EEdLb1ELb0EE6__castIlS5_EES4_RKNS1_IT_T0_EE():
/usr/include/c++/10/chrono:214
  4042dc:	f2 0f 11 44 24 20    	movsd  %xmm0,0x20(%rsp)
_ZNSt7__cxx1112basic_stringIcSt11char_traitsIcESaIcEE9_M_lengthEm():
/usr/include/c++/10/bits/basic_string.h:191
      { _M_string_length = __length; }
  4042e2:	48 c7 84 24 18 01 00 	movq   $0xa,0x118(%rsp)
  4042e9:	00 0a 00 00 00 
_ZNSt11char_traitsIcE6assignERcRKc():
/usr/include/c++/10/bits/char_traits.h:357
      { __c1 = __c2; }
  4042ee:	c6 84 24 2a 01 00 00 	movb   $0x0,0x12a(%rsp)
  4042f5:	00 
BenchmarkKernel<CSRGraph<int>, main(int, char**)::<lambda(const Graph&)>, void (*)(const CSRGraph<int>&, const pvector<int>&), bool (*)(const CSRGraph<int>&, const pvector<int>&)>():
/home/aliha951/ipdps-artifact/gapbs-master/src/benchmark.h:127
  4042f6:	e8 65 1c 00 00       	callq  405f60 <_Z9PrintTimeRKNSt7__cxx1112basic_stringIcSt11char_traitsIcESaIcEEEd>
_ZNKSt7__cxx1112basic_stringIcSt11char_traitsIcESaIcEE7_M_dataEv():
/usr/include/c++/10/bits/basic_string.h:195
      { return _M_dataplus._M_p; }
  4042fb:	48 8b bc 24 10 01 00 	mov    0x110(%rsp),%rdi
  404302:	00 
_ZNSt7__cxx1112basic_stringIcSt11char_traitsIcESaIcEE10_M_disposeEv():
/usr/include/c++/10/bits/basic_string.h:239
	if (!_M_is_local())
  404303:	48 39 df             	cmp    %rbx,%rdi
  404306:	74 05                	je     40430d <main+0x42d>
_ZN9__gnu_cxx13new_allocatorIcE10deallocateEPcm():
/usr/include/c++/10/ext/new_allocator.h:139
  404308:	e8 33 f6 ff ff       	callq  403940 <_ZdlPv@plt>
BenchmarkKernel<CSRGraph<int>, main(int, char**)::<lambda(const Graph&)>, void (*)(const CSRGraph<int>&, const pvector<int>&), bool (*)(const CSRGraph<int>&, const pvector<int>&)>():
/home/aliha951/ipdps-artifact/gapbs-master/src/benchmark.h:128
    total_seconds += trial_timer.Seconds();
  40430d:	f2 0f 10 5c 24 18    	movsd  0x18(%rsp),%xmm3
  404313:	f2 0f 58 5c 24 20    	addsd  0x20(%rsp),%xmm3
/home/aliha951/ipdps-artifact/gapbs-master/src/benchmark.h:129
    if (cli.do_analysis() && (iter == (cli.num_trials()-1)))
  404319:	80 bc 24 e0 01 00 00 	cmpb   $0x0,0x1e0(%rsp)
  404320:	00 
/home/aliha951/ipdps-artifact/gapbs-master/src/benchmark.h:128
    total_seconds += trial_timer.Seconds();
  404321:	f2 0f 11 5c 24 18    	movsd  %xmm3,0x18(%rsp)
/home/aliha951/ipdps-artifact/gapbs-master/src/benchmark.h:129
    if (cli.do_analysis() && (iter == (cli.num_trials()-1)))
  404327:	74 13                	je     40433c <main+0x45c>
  404329:	8b 84 24 e4 01 00 00 	mov    0x1e4(%rsp),%eax
  404330:	83 e8 01             	sub    $0x1,%eax
  404333:	44 39 e0             	cmp    %r12d,%eax
  404336:	0f 84 14 03 00 00    	je     404650 <main+0x770>
/home/aliha951/ipdps-artifact/gapbs-master/src/benchmark.h:131
      stats(g, result);
    if (cli.do_verify()) {
  40433c:	80 bc 24 f0 01 00 00 	cmpb   $0x0,0x1f0(%rsp)
  404343:	00 
  404344:	0f 84 57 01 00 00    	je     4044a1 <main+0x5c1>
_ZN5Timer5StartEv():
/home/aliha951/ipdps-artifact/gapbs-master/src/timer.h:23
    elapsed_time_ = start_time_ = std::chrono::high_resolution_clock::now();
  40434a:	e8 71 f3 ff ff       	callq  4036c0 <_ZNSt6chrono3_V212system_clock3nowEv@plt>
BenchmarkKernel<CSRGraph<int>, main(int, char**)::<lambda(const Graph&)>, void (*)(const CSRGraph<int>&, const pvector<int>&), bool (*)(const CSRGraph<int>&, const pvector<int>&)>():
/home/aliha951/ipdps-artifact/gapbs-master/src/benchmark.h:134
      trial_timer.Start();
      PrintLabel("Verification",
                 verify(std::ref(g), std::ref(result)) ? "PASS" : "FAIL");
  40434f:	48 8b 7c 24 30       	mov    0x30(%rsp),%rdi
  404354:	4c 89 fe             	mov    %r15,%rsi
_ZN5Timer5StartEv():
/home/aliha951/ipdps-artifact/gapbs-master/src/timer.h:23
  404357:	48 89 44 24 20       	mov    %rax,0x20(%rsp)
BenchmarkKernel<CSRGraph<int>, main(int, char**)::<lambda(const Graph&)>, void (*)(const CSRGraph<int>&, const pvector<int>&), bool (*)(const CSRGraph<int>&, const pvector<int>&)>():
/home/aliha951/ipdps-artifact/gapbs-master/src/benchmark.h:134
  40435c:	e8 bf 3b 00 00       	callq  407f20 <_Z10CCVerifierRK8CSRGraphIiiLb1EERK7pvectorIiE>
/home/aliha951/ipdps-artifact/gapbs-master/src/benchmark.h:133
      PrintLabel("Verification",
  404361:	3c 01                	cmp    $0x1,%al
_ZNSt7__cxx1112basic_stringIcSt11char_traitsIcESaIcEE12_Alloc_hiderC4EPcRKS3_():
/usr/include/c++/10/bits/basic_string.h:165
	: allocator_type(__a), _M_p(__dat) { }
  404363:	48 89 9c 24 10 01 00 	mov    %rbx,0x110(%rsp)
  40436a:	00 
BenchmarkKernel<CSRGraph<int>, main(int, char**)::<lambda(const Graph&)>, void (*)(const CSRGraph<int>&, const pvector<int>&), bool (*)(const CSRGraph<int>&, const pvector<int>&)>():
/home/aliha951/ipdps-artifact/gapbs-master/src/benchmark.h:133
  40436b:	4c 89 ef             	mov    %r13,%rdi
_ZNSt7__cxx1112basic_stringIcSt11char_traitsIcESaIcEE12_Alloc_hiderC4EPcRKS3_():
/usr/include/c++/10/bits/basic_string.h:165
  40436e:	4c 8d b4 24 00 01 00 	lea    0x100(%rsp),%r14
  404375:	00 
BenchmarkKernel<CSRGraph<int>, main(int, char**)::<lambda(const Graph&)>, void (*)(const CSRGraph<int>&, const pvector<int>&), bool (*)(const CSRGraph<int>&, const pvector<int>&)>():
/home/aliha951/ipdps-artifact/gapbs-master/src/benchmark.h:133
  404376:	19 c0                	sbb    %eax,%eax
_ZNSt11char_traitsIcE4copyEPcPKcm():
/usr/include/c++/10/bits/char_traits.h:437
	return static_cast<char_type*>(__builtin_memcpy(__s1, __s2, __n));
  404378:	c7 43 08 74 69 6f 6e 	movl   $0x6e6f6974,0x8(%rbx)
_ZNSt7__cxx1112basic_stringIcSt11char_traitsIcESaIcEE12_Alloc_hiderC4EPcRKS3_():
/usr/include/c++/10/bits/basic_string.h:165
  40437f:	48 8d b4 24 f0 00 00 	lea    0xf0(%rsp),%rsi
  404386:	00 
BenchmarkKernel<CSRGraph<int>, main(int, char**)::<lambda(const Graph&)>, void (*)(const CSRGraph<int>&, const pvector<int>&), bool (*)(const CSRGraph<int>&, const pvector<int>&)>():
/home/aliha951/ipdps-artifact/gapbs-master/src/benchmark.h:133
  404387:	25 f6 ff f5 f8       	and    $0xf8f5fff6,%eax
_ZNSt7__cxx1112basic_stringIcSt11char_traitsIcESaIcEE12_Alloc_hiderC4EPcRKS3_():
/usr/include/c++/10/bits/basic_string.h:165
  40438c:	4c 89 b4 24 f0 00 00 	mov    %r14,0xf0(%rsp)
  404393:	00 
BenchmarkKernel<CSRGraph<int>, main(int, char**)::<lambda(const Graph&)>, void (*)(const CSRGraph<int>&, const pvector<int>&), bool (*)(const CSRGraph<int>&, const pvector<int>&)>():
/home/aliha951/ipdps-artifact/gapbs-master/src/benchmark.h:133
  404394:	05 50 41 53 53       	add    $0x53534150,%eax
_ZNSt11char_traitsIcE6assignERcRKc():
/usr/include/c++/10/bits/char_traits.h:357
      { __c1 = __c2; }
  404399:	c6 84 24 04 01 00 00 	movb   $0x0,0x104(%rsp)
  4043a0:	00 
_ZNSt11char_traitsIcE4copyEPcPKcm():
/usr/include/c++/10/bits/char_traits.h:437
	return static_cast<char_type*>(__builtin_memcpy(__s1, __s2, __n));
  4043a1:	89 84 24 00 01 00 00 	mov    %eax,0x100(%rsp)
  4043a8:	48 b8 56 65 72 69 66 	movabs $0x6163696669726556,%rax
  4043af:	69 63 61 
  4043b2:	48 89 03             	mov    %rax,(%rbx)
_ZNSt7__cxx1112basic_stringIcSt11char_traitsIcESaIcEE9_M_lengthEm():
/usr/include/c++/10/bits/basic_string.h:191
      { _M_string_length = __length; }
  4043b5:	48 c7 84 24 f8 00 00 	movq   $0x4,0xf8(%rsp)
  4043bc:	00 04 00 00 00 
  4043c1:	48 c7 84 24 18 01 00 	movq   $0xc,0x118(%rsp)
  4043c8:	00 0c 00 00 00 
_ZNSt11char_traitsIcE6assignERcRKc():
/usr/include/c++/10/bits/char_traits.h:357
      { __c1 = __c2; }
  4043cd:	c6 84 24 2c 01 00 00 	movb   $0x0,0x12c(%rsp)
  4043d4:	00 
BenchmarkKernel<CSRGraph<int>, main(int, char**)::<lambda(const Graph&)>, void (*)(const CSRGraph<int>&, const pvector<int>&), bool (*)(const CSRGraph<int>&, const pvector<int>&)>():
/home/aliha951/ipdps-artifact/gapbs-master/src/benchmark.h:133
  4043d5:	e8 16 1a 00 00       	callq  405df0 <_Z10PrintLabelRKNSt7__cxx1112basic_stringIcSt11char_traitsIcESaIcEEES6_>
_ZNKSt7__cxx1112basic_stringIcSt11char_traitsIcESaIcEE7_M_dataEv():
/usr/include/c++/10/bits/basic_string.h:195
      { return _M_dataplus._M_p; }
  4043da:	48 8b bc 24 10 01 00 	mov    0x110(%rsp),%rdi
  4043e1:	00 
_ZNSt7__cxx1112basic_stringIcSt11char_traitsIcESaIcEE10_M_disposeEv():
/usr/include/c++/10/bits/basic_string.h:239
	if (!_M_is_local())
  4043e2:	48 39 df             	cmp    %rbx,%rdi
  4043e5:	74 05                	je     4043ec <main+0x50c>
_ZN9__gnu_cxx13new_allocatorIcE10deallocateEPcm():
/usr/include/c++/10/ext/new_allocator.h:139
  4043e7:	e8 54 f5 ff ff       	callq  403940 <_ZdlPv@plt>
_ZNKSt7__cxx1112basic_stringIcSt11char_traitsIcESaIcEE7_M_dataEv():
/usr/include/c++/10/bits/basic_string.h:195
      { return _M_dataplus._M_p; }
  4043ec:	48 8b bc 24 f0 00 00 	mov    0xf0(%rsp),%rdi
  4043f3:	00 
_ZNSt7__cxx1112basic_stringIcSt11char_traitsIcESaIcEE10_M_disposeEv():
/usr/include/c++/10/bits/basic_string.h:239
	if (!_M_is_local())
  4043f4:	4c 39 f7             	cmp    %r14,%rdi
  4043f7:	74 05                	je     4043fe <main+0x51e>
_ZN9__gnu_cxx13new_allocatorIcE10deallocateEPcm():
/usr/include/c++/10/ext/new_allocator.h:139
  4043f9:	e8 42 f5 ff ff       	callq  403940 <_ZdlPv@plt>
_ZN5Timer4StopEv():
/home/aliha951/ipdps-artifact/gapbs-master/src/timer.h:27
    elapsed_time_ = std::chrono::high_resolution_clock::now();
  4043fe:	e8 bd f2 ff ff       	callq  4036c0 <_ZNSt6chrono3_V212system_clock3nowEv@plt>
_ZNSt6chrono20__duration_cast_implINS_8durationIdSt5ratioILl1ELl1EEEES2_ILl1ELl1000000000EEdLb1ELb0EE6__castIlS5_EES4_RKNS1_IT_T0_EE():
/usr/include/c++/10/chrono:214
  404403:	66 0f ef c0          	pxor   %xmm0,%xmm0
_ZNSt6chronomiIlSt5ratioILl1ELl1000000000EElS2_EENSt11common_typeIJNS_8durationIT_T0_EENS4_IT1_T2_EEEE4typeERKS7_RKSA_():
/usr/include/c++/10/chrono:614
	return __cd(__cd(__lhs).count() - __cd(__rhs).count());
  404407:	48 2b 44 24 20       	sub    0x20(%rsp),%rax
_ZNSt7__cxx1112basic_stringIcSt11char_traitsIcESaIcEE12_M_constructIPKcEEvT_S8_St20forward_iterator_tag():
/usr/include/c++/10/bits/basic_string.tcc:219

	size_type __dnew = static_cast<size_type>(std::distance(__beg, __end));

	if (__dnew > size_type(_S_local_capacity))
	  {
	    _M_data(_M_create(__dnew, size_type(0)));
  40440c:	31 d2                	xor    %edx,%edx
  40440e:	48 89 ee             	mov    %rbp,%rsi
_ZNSt6chrono20__duration_cast_implINS_8durationIdSt5ratioILl1ELl1EEEES2_ILl1ELl1000000000EEdLb1ELb0EE6__castIlS5_EES4_RKNS1_IT_T0_EE():
/usr/include/c++/10/chrono:214
	      static_cast<_CR>(__d.count()) / static_cast<_CR>(_CF::den)));
  404411:	f2 48 0f 2a c0       	cvtsi2sd %rax,%xmm0
_ZNSt7__cxx1112basic_stringIcSt11char_traitsIcESaIcEE12_M_constructIPKcEEvT_S8_St20forward_iterator_tag():
/usr/include/c++/10/bits/basic_string.tcc:219
  404416:	4c 89 ef             	mov    %r13,%rdi
_ZNSt6chrono20__duration_cast_implINS_8durationIdSt5ratioILl1ELl1EEEES2_ILl1ELl1000000000EEdLb1ELb0EE6__castIlS5_EES4_RKNS1_IT_T0_EE():
/usr/include/c++/10/chrono:214
  404419:	f2 0f 5e 05 df 1d 01 	divsd  0x11ddf(%rip),%xmm0        # 416200 <_ZZNSt8__detail18__to_chars_10_implIjEEvPcjT_E8__digits+0x2a0>
  404420:	00 
_ZNSt7__cxx1112basic_stringIcSt11char_traitsIcESaIcEE12_Alloc_hiderC4EPcRKS3_():
/usr/include/c++/10/bits/basic_string.h:165
	: allocator_type(__a), _M_p(__dat) { }
  404421:	48 89 9c 24 10 01 00 	mov    %rbx,0x110(%rsp)
  404428:	00 
_ZNSt6chrono20__duration_cast_implINS_8durationIdSt5ratioILl1ELl1EEEES2_ILl1ELl1000000000EEdLb1ELb0EE6__castIlS5_EES4_RKNS1_IT_T0_EE():
/usr/include/c++/10/chrono:214
  404429:	66 49 0f 7e c6       	movq   %xmm0,%r14
_ZNSt7__cxx1112basic_stringIcSt11char_traitsIcESaIcEE12_M_constructIPKcEEvT_S8_St20forward_iterator_tag():
/usr/include/c++/10/bits/basic_string.tcc:215
	size_type __dnew = static_cast<size_type>(std::distance(__beg, __end));
  40442e:	48 c7 84 24 90 00 00 	movq   $0x11,0x90(%rsp)
  404435:	00 11 00 00 00 
/usr/include/c++/10/bits/basic_string.tcc:219
	    _M_data(_M_create(__dnew, size_type(0)));
  40443a:	e8 11 f8 ff ff       	callq  403c50 <_ZNSt7__cxx1112basic_stringIcSt11char_traitsIcESaIcEE9_M_createERmm@plt>
_ZNSt7__cxx1112basic_stringIcSt11char_traitsIcESaIcEE11_M_capacityEm():
/usr/include/c++/10/bits/basic_string.h:219
      { _M_allocated_capacity = __capacity; }
  40443f:	48 8b 94 24 90 00 00 	mov    0x90(%rsp),%rdx
  404446:	00 
_ZNSt11char_traitsIcE4copyEPcPKcm():
/usr/include/c++/10/bits/char_traits.h:437
	return static_cast<char_type*>(__builtin_memcpy(__s1, __s2, __n));
  404447:	66 0f 6f 05 61 1d 01 	movdqa 0x11d61(%rip),%xmm0        # 4161b0 <_ZZNSt8__detail18__to_chars_10_implIjEEvPcjT_E8__digits+0x250>
  40444e:	00 
_ZNSt7__cxx1112basic_stringIcSt11char_traitsIcESaIcEE7_M_dataEPc():
/usr/include/c++/10/bits/basic_string.h:187
      { _M_dataplus._M_p = __p; }
  40444f:	48 89 84 24 10 01 00 	mov    %rax,0x110(%rsp)
  404456:	00 
BenchmarkKernel<CSRGraph<int>, main(int, char**)::<lambda(const Graph&)>, void (*)(const CSRGraph<int>&, const pvector<int>&), bool (*)(const CSRGraph<int>&, const pvector<int>&)>():
/home/aliha951/ipdps-artifact/gapbs-master/src/benchmark.h:136
      trial_timer.Stop();
      PrintTime("Verification Time", trial_timer.Seconds());
  404457:	4c 89 ef             	mov    %r13,%rdi
_ZNSt7__cxx1112basic_stringIcSt11char_traitsIcESaIcEE11_M_capacityEm():
/usr/include/c++/10/bits/basic_string.h:219
      { _M_allocated_capacity = __capacity; }
  40445a:	48 89 94 24 20 01 00 	mov    %rdx,0x120(%rsp)
  404461:	00 
_ZNSt11char_traitsIcE4copyEPcPKcm():
/usr/include/c++/10/bits/char_traits.h:437
  404462:	0f 11 00             	movups %xmm0,(%rax)
BenchmarkKernel<CSRGraph<int>, main(int, char**)::<lambda(const Graph&)>, void (*)(const CSRGraph<int>&, const pvector<int>&), bool (*)(const CSRGraph<int>&, const pvector<int>&)>():
/home/aliha951/ipdps-artifact/gapbs-master/src/benchmark.h:136
  404465:	66 49 0f 6e c6       	movq   %r14,%xmm0
_ZNSt11char_traitsIcE4copyEPcPKcm():
/usr/include/c++/10/bits/char_traits.h:437
  40446a:	c6 40 10 65          	movb   $0x65,0x10(%rax)
_ZNSt7__cxx1112basic_stringIcSt11char_traitsIcESaIcEE12_M_constructIPKcEEvT_S8_St20forward_iterator_tag():
/usr/include/c++/10/bits/basic_string.tcc:232
	  {
	    _M_dispose();
	    __throw_exception_again;
	  }

	_M_set_length(__dnew);
  40446e:	48 8b 84 24 90 00 00 	mov    0x90(%rsp),%rax
  404475:	00 
_ZNSt11char_traitsIcE6assignERcRKc():
/usr/include/c++/10/bits/char_traits.h:357
      { __c1 = __c2; }
  404476:	48 8b 94 24 10 01 00 	mov    0x110(%rsp),%rdx
  40447d:	00 
_ZNSt7__cxx1112basic_stringIcSt11char_traitsIcESaIcEE9_M_lengthEm():
/usr/include/c++/10/bits/basic_string.h:191
      { _M_string_length = __length; }
  40447e:	48 89 84 24 18 01 00 	mov    %rax,0x118(%rsp)
  404485:	00 
_ZNSt11char_traitsIcE6assignERcRKc():
/usr/include/c++/10/bits/char_traits.h:357
  404486:	c6 04 02 00          	movb   $0x0,(%rdx,%rax,1)
BenchmarkKernel<CSRGraph<int>, main(int, char**)::<lambda(const Graph&)>, void (*)(const CSRGraph<int>&, const pvector<int>&), bool (*)(const CSRGraph<int>&, const pvector<int>&)>():
/home/aliha951/ipdps-artifact/gapbs-master/src/benchmark.h:136
  40448a:	e8 d1 1a 00 00       	callq  405f60 <_Z9PrintTimeRKNSt7__cxx1112basic_stringIcSt11char_traitsIcESaIcEEEd>
_ZNKSt7__cxx1112basic_stringIcSt11char_traitsIcESaIcEE7_M_dataEv():
/usr/include/c++/10/bits/basic_string.h:195
      { return _M_dataplus._M_p; }
  40448f:	48 8b bc 24 10 01 00 	mov    0x110(%rsp),%rdi
  404496:	00 
_ZNSt7__cxx1112basic_stringIcSt11char_traitsIcESaIcEE10_M_disposeEv():
/usr/include/c++/10/bits/basic_string.h:239
	if (!_M_is_local())
  404497:	48 39 df             	cmp    %rbx,%rdi
  40449a:	74 05                	je     4044a1 <main+0x5c1>
_ZN9__gnu_cxx13new_allocatorIcE10deallocateEPcm():
/usr/include/c++/10/ext/new_allocator.h:139
  40449c:	e8 9f f4 ff ff       	callq  403940 <_ZdlPv@plt>
BenchmarkKernel<CSRGraph<int>, main(int, char**)::<lambda(const Graph&)>, void (*)(const CSRGraph<int>&, const pvector<int>&), bool (*)(const CSRGraph<int>&, const pvector<int>&)>():
/home/aliha951/ipdps-artifact/gapbs-master/src/benchmark.h:138
    }
    ompt_annotate("Trial End");
  4044a1:	48 8d 3d e5 0e 01 00 	lea    0x10ee5(%rip),%rdi        # 41538d <_IO_stdin_used+0x38d>
  4044a8:	e8 33 30 00 00       	callq  4074e0 <_Z13ompt_annotatePKc>
_ZN7pvectorIiE16ReleaseResourcesEv():
/home/aliha951/ipdps-artifact/gapbs-master/src/pvector.h:73
    if (start_ != nullptr) {
  4044ad:	48 8b 7c 24 70       	mov    0x70(%rsp),%rdi
  4044b2:	48 85 ff             	test   %rdi,%rdi
  4044b5:	0f 84 75 01 00 00    	je     404630 <main+0x750>
/home/aliha951/ipdps-artifact/gapbs-master/src/pvector.h:74
      delete[] start_;
  4044bb:	e8 c0 f5 ff ff       	callq  403a80 <_ZdaPv@plt>
BenchmarkKernel<CSRGraph<int>, main(int, char**)::<lambda(const Graph&)>, void (*)(const CSRGraph<int>&, const pvector<int>&), bool (*)(const CSRGraph<int>&, const pvector<int>&)>():
/home/aliha951/ipdps-artifact/gapbs-master/src/benchmark.h:123
  for (int iter=0; iter < cli.num_trials(); iter++) {
  4044c0:	41 83 c4 01          	add    $0x1,%r12d
  4044c4:	44 3b a4 24 e4 01 00 	cmp    0x1e4(%rsp),%r12d
  4044cb:	00 
  4044cc:	0f 8c 8e fc ff ff    	jl     404160 <main+0x280>
_Z17ompt_mark_roi_endv():
/home/aliha951/ipdps-artifact/gapbs-master/src/../omp_runtime_visualizer/include/runtime_visualizer_utils.h:56
}

inline void ompt_mark_roi_end() {
  ompt_annotate("ROI_END");
  4044d2:	48 8d 3d be 0e 01 00 	lea    0x10ebe(%rip),%rdi        # 415397 <_IO_stdin_used+0x397>
  4044d9:	e8 02 30 00 00       	callq  4074e0 <_Z13ompt_annotatePKc>
BenchmarkKernel<CSRGraph<int>, main(int, char**)::<lambda(const Graph&)>, void (*)(const CSRGraph<int>&, const pvector<int>&), bool (*)(const CSRGraph<int>&, const pvector<int>&)>():
/home/aliha951/ipdps-artifact/gapbs-master/src/benchmark.h:143
  }
  
  // adding profiling markers and rusage counters for performance analysis
  ompt_mark_roi_end();
  stop_time_stats();
  4044de:	e8 4d 21 00 00       	callq  406630 <_Z15stop_time_statsv>
/home/aliha951/ipdps-artifact/gapbs-master/src/benchmark.h:144
  trace_marker("BenchmarkKernel_End");
  4044e3:	48 8d 3d b5 0e 01 00 	lea    0x10eb5(%rip),%rdi        # 41539f <_IO_stdin_used+0x39f>
  4044ea:	e8 61 23 00 00       	callq  406850 <_Z12trace_markerPKc>
/home/aliha951/ipdps-artifact/gapbs-master/src/benchmark.h:145
  stop_counters(&perf_ctrs, &user_time, &kernel_time ,&user_instructions, &kernel_instructions);
  4044ef:	48 8d 4c 24 40       	lea    0x40(%rsp),%rcx
  4044f4:	48 8d 94 24 90 00 00 	lea    0x90(%rsp),%rdx
  4044fb:	00 
  4044fc:	48 8d 74 24 70       	lea    0x70(%rsp),%rsi
  404501:	4c 8d 44 24 48       	lea    0x48(%rsp),%r8
  404506:	48 8d 3d 83 63 01 00 	lea    0x16383(%rip),%rdi        # 41a890 <perf_ctrs>
  40450d:	e8 9e 27 00 00       	callq  406cb0 <_Z13stop_countersP13perf_countersPxS1_S1_S1_>
/home/aliha951/ipdps-artifact/gapbs-master/src/benchmark.h:146
  snapshot_proc_stat(END);
  404512:	bf 01 00 00 00       	mov    $0x1,%edi
  404517:	e8 f4 65 00 00       	callq  40ab10 <_Z18snapshot_proc_stat13SnapshotPoint>
/home/aliha951/ipdps-artifact/gapbs-master/src/benchmark.h:147
  snapshot_proc_pid(END);
  40451c:	bf 01 00 00 00       	mov    $0x1,%edi
  404521:	e8 ba 62 00 00       	callq  40a7e0 <_Z17snapshot_proc_pid13SnapshotPoint>
/home/aliha951/ipdps-artifact/gapbs-master/src/benchmark.h:148
  stop_taskstats();
  404526:	e8 55 2d 00 00       	callq  407280 <_Z14stop_taskstatsv>
_Z15stop_disk_statsv():
/home/aliha951/ipdps-artifact/gapbs-master/src/profiling_utils.h:316
}

inline void stop_disk_stats() {
  if (diskstat_pid > 0) {
  40452b:	8b 05 23 5e 01 00    	mov    0x15e23(%rip),%eax        # 41a354 <diskstat_pid>
  404531:	85 c0                	test   %eax,%eax
  404533:	0f 8f 29 01 00 00    	jg     404662 <main+0x782>
BenchmarkKernel<CSRGraph<int>, main(int, char**)::<lambda(const Graph&)>, void (*)(const CSRGraph<int>&, const pvector<int>&), bool (*)(const CSRGraph<int>&, const pvector<int>&)>():
/home/aliha951/ipdps-artifact/gapbs-master/src/benchmark.h:150
  stop_disk_stats();
  cleanup_counters(&perf_ctrs);
  404539:	48 8d 3d 50 63 01 00 	lea    0x16350(%rip),%rdi        # 41a890 <perf_ctrs>
  404540:	e8 ab 29 00 00       	callq  406ef0 <_Z16cleanup_countersP13perf_counters>
/home/aliha951/ipdps-artifact/gapbs-master/src/benchmark.h:151
  measure_time_stats();
  404545:	e8 16 21 00 00       	callq  406660 <_Z18measure_time_statsv>
/home/aliha951/ipdps-artifact/gapbs-master/src/benchmark.h:153

  PrintTime("Average Time", total_seconds / cli.num_trials());
  40454a:	66 0f ef c0          	pxor   %xmm0,%xmm0
  40454e:	f2 0f 10 4c 24 18    	movsd  0x18(%rsp),%xmm1
  404554:	48 8d 35 58 0e 01 00 	lea    0x10e58(%rip),%rsi        # 4153b3 <_IO_stdin_used+0x3b3>
  40455b:	4c 89 ef             	mov    %r13,%rdi
  40455e:	f2 0f 2a 84 24 e4 01 	cvtsi2sdl 0x1e4(%rsp),%xmm0
  404565:	00 00 
  404567:	f2 0f 5e c8          	divsd  %xmm0,%xmm1
  40456b:	66 48 0f 7e cd       	movq   %xmm1,%rbp
  404570:	e8 eb 16 00 00       	callq  405c60 <_ZNSt7__cxx1112basic_stringIcSt11char_traitsIcESaIcEEC2EPKcRKS3_.constprop.0>
  404575:	66 48 0f 6e c5       	movq   %rbp,%xmm0
  40457a:	4c 89 ef             	mov    %r13,%rdi
  40457d:	e8 de 19 00 00       	callq  405f60 <_Z9PrintTimeRKNSt7__cxx1112basic_stringIcSt11char_traitsIcESaIcEEEd>
_ZNKSt7__cxx1112basic_stringIcSt11char_traitsIcESaIcEE7_M_dataEv():
/usr/include/c++/10/bits/basic_string.h:195
      { return _M_dataplus._M_p; }
  404582:	48 8b bc 24 10 01 00 	mov    0x110(%rsp),%rdi
  404589:	00 
_ZNSt7__cxx1112basic_stringIcSt11char_traitsIcESaIcEE10_M_disposeEv():
/usr/include/c++/10/bits/basic_string.h:239
	if (!_M_is_local())
  40458a:	48 39 df             	cmp    %rbx,%rdi
  40458d:	74 05                	je     404594 <main+0x6b4>
_ZN9__gnu_cxx13new_allocatorIcE10deallocateEPcm():
/usr/include/c++/10/ext/new_allocator.h:139
  40458f:	e8 ac f3 ff ff       	callq  403940 <_ZdlPv@plt>
_ZN8CSRGraphIiiLb1EED4Ev():
/home/aliha951/ipdps-artifact/gapbs-master/src/graph.h:166
  404594:	48 8b 7c 24 30       	mov    0x30(%rsp),%rdi
main():
/home/aliha951/ipdps-artifact/gapbs-master/src/cc.cc:229
  BenchmarkKernel(cli, g, CCBound, PrintCompStats, CCVerifier);
  return 0;
  404599:	45 31 e4             	xor    %r12d,%r12d
_ZN8CSRGraphIiiLb1EED4Ev():
/home/aliha951/ipdps-artifact/gapbs-master/src/graph.h:166
  40459c:	e8 ef 68 00 00       	callq  40ae90 <_ZN8CSRGraphIiiLb1EE16ReleaseResourcesEv>
_ZN5CLAppD4Ev():
/home/aliha951/ipdps-artifact/gapbs-master/src/command_line.h:140
class CLApp : public CLBase {
  4045a1:	48 8b 7c 24 38       	mov    0x38(%rsp),%rdi
  4045a6:	48 8d 05 7b 55 01 00 	lea    0x1557b(%rip),%rax        # 419b28 <_ZTV5CLApp+0x10>
  4045ad:	48 89 84 24 30 01 00 	mov    %rax,0x130(%rsp)
  4045b4:	00 
  4045b5:	e8 76 61 00 00       	callq  40a730 <_ZN6CLBaseD1Ev>
main():
/home/aliha951/ipdps-artifact/gapbs-master/src/cc.cc:230
}
  4045ba:	48 8b 84 24 08 03 00 	mov    0x308(%rsp),%rax
  4045c1:	00 
  4045c2:	64 48 2b 04 25 28 00 	sub    %fs:0x28,%rax
  4045c9:	00 00 
  4045cb:	0f 85 2d 03 00 00    	jne    4048fe <main+0xa1e>
  4045d1:	48 81 c4 18 03 00 00 	add    $0x318,%rsp
  4045d8:	44 89 e0             	mov    %r12d,%eax
  4045db:	5b                   	pop    %rbx
  4045dc:	5d                   	pop    %rbp
  4045dd:	41 5c                	pop    %r12
  4045df:	41 5d                	pop    %r13
  4045e1:	41 5e                	pop    %r14
  4045e3:	41 5f                	pop    %r15
  4045e5:	c3                   	retq   
_ZN6CLBase9ParseArgsEv():
/home/aliha951/ipdps-artifact/gapbs-master/src/command_line.h:90
    if ((filename_ == "") && (scale_ == -1)) {
  4045e6:	44 8b a4 24 a0 01 00 	mov    0x1a0(%rsp),%r12d
  4045ed:	00 
  4045ee:	41 83 fc ff          	cmp    $0xffffffff,%r12d
  4045f2:	0f 84 0c 02 00 00    	je     404804 <main+0x924>
/home/aliha951/ipdps-artifact/gapbs-master/src/command_line.h:95
      symmetrize_ = true;
  4045f8:	c6 84 24 c8 01 00 00 	movb   $0x1,0x1c8(%rsp)
  4045ff:	01 
/home/aliha951/ipdps-artifact/gapbs-master/src/command_line.h:92
      return false;
  404600:	e9 75 fa ff ff       	jmpq   40407a <main+0x19a>
  404605:	0f 1f 00             	nopl   (%rax)
_Z8AfforestRK8CSRGraphIiiLb1EEbi():
/home/aliha951/ipdps-artifact/gapbs-master/src/cc.cc:135
    #pragma omp parallel for schedule(dynamic, 16384)
  404608:	66 0f 6f 0c 24       	movdqa (%rsp),%xmm1
  40460d:	31 c9                	xor    %ecx,%ecx
  40460f:	31 d2                	xor    %edx,%edx
  404611:	48 89 ee             	mov    %rbp,%rsi
  404614:	48 8d 3d c5 31 00 00 	lea    0x31c5(%rip),%rdi        # 4077e0 <_Z8AfforestRK8CSRGraphIiiLb1EEbi._omp_fn.3>
  40461b:	0f 29 8c 24 90 00 00 	movaps %xmm1,0x90(%rsp)
  404622:	00 
  404623:	e8 08 f6 ff ff       	callq  403c30 <GOMP_parallel@plt>
  404628:	e9 53 fc ff ff       	jmpq   404280 <main+0x3a0>
  40462d:	0f 1f 00             	nopl   (%rax)
BenchmarkKernel<CSRGraph<int>, main(int, char**)::<lambda(const Graph&)>, void (*)(const CSRGraph<int>&, const pvector<int>&), bool (*)(const CSRGraph<int>&, const pvector<int>&)>():
/home/aliha951/ipdps-artifact/gapbs-master/src/benchmark.h:123
  for (int iter=0; iter < cli.num_trials(); iter++) {
  404630:	41 83 c4 01          	add    $0x1,%r12d
  404634:	44 39 a4 24 e4 01 00 	cmp    %r12d,0x1e4(%rsp)
  40463b:	00 
  40463c:	0f 8f 1e fb ff ff    	jg     404160 <main+0x280>
  404642:	e9 8b fe ff ff       	jmpq   4044d2 <main+0x5f2>
  404647:	66 0f 1f 84 00 00 00 	nopw   0x0(%rax,%rax,1)
  40464e:	00 00 
/home/aliha951/ipdps-artifact/gapbs-master/src/benchmark.h:130
      stats(g, result);
  404650:	48 8b 7c 24 30       	mov    0x30(%rsp),%rdi
  404655:	4c 89 fe             	mov    %r15,%rsi
  404658:	e8 53 43 00 00       	callq  4089b0 <_Z14PrintCompStatsRK8CSRGraphIiiLb1EERK7pvectorIiE>
  40465d:	e9 da fc ff ff       	jmpq   40433c <main+0x45c>
main():
/usr/include/x86_64-linux-gnu/bits/stdio2.h:67
# ifdef __va_arg_pack
__fortify_function int
__NTH (snprintf (char *__restrict __s, size_t __n,
		 const char *__restrict __fmt, ...))
{
  return __builtin___snprintf_chk (__s, __n, __USE_FORTIFY_LEVEL - 1,
  404662:	4c 8d 84 24 00 02 00 	lea    0x200(%rsp),%r8
  404669:	00 
snprintf():
/usr/include/x86_64-linux-gnu/bits/stdio2.h:67
  40466a:	48 8d 35 b7 11 01 00 	lea    0x111b7(%rip),%rsi        # 415828 <_IO_stdin_used+0x828>
  404671:	b9 09 00 00 00       	mov    $0x9,%ecx
  404676:	4c 89 c7             	mov    %r8,%rdi
  404679:	f3 a5                	rep movsl %ds:(%rsi),%es:(%rdi)
_Z15stop_disk_statsv():
/home/aliha951/ipdps-artifact/gapbs-master/src/profiling_utils.h:319
    char command[256];
    snprintf(command, sizeof(command), "sudo pkill -f 'gather_diskstats.sh'");
    int ret = system(command);
  40467b:	4c 89 c7             	mov    %r8,%rdi
  40467e:	e8 7d f2 ff ff       	callq  403900 <system@plt>
/home/aliha951/ipdps-artifact/gapbs-master/src/profiling_utils.h:320
    if (ret==-1)	std::cout << "could not stop diskstat gathering\n";
  404683:	83 c0 01             	add    $0x1,%eax
  404686:	0f 85 ad fe ff ff    	jne    404539 <main+0x659>
_ZStlsISt11char_traitsIcEERSt13basic_ostreamIcT_ES5_PKc():
/usr/include/c++/10/ostream:611
    operator<<(basic_ostream<char, _Traits>& __out, const char* __s)
    {
      if (!__s)
	__out.setstate(ios_base::badbit);
      else
	__ostream_insert(__out, __s,
  40468c:	ba 22 00 00 00       	mov    $0x22,%edx
  404691:	48 8d 35 b8 11 01 00 	lea    0x111b8(%rip),%rsi        # 415850 <_IO_stdin_used+0x850>
  404698:	48 8d 3d 21 5d 01 00 	lea    0x15d21(%rip),%rdi        # 41a3c0 <_ZSt4cout@@GLIBCXX_3.4>
  40469f:	e8 2c f3 ff ff       	callq  4039d0 <_ZSt16__ostream_insertIcSt11char_traitsIcEERSt13basic_ostreamIT_T0_ES6_PKS3_l@plt>
  4046a4:	e9 90 fe ff ff       	jmpq   404539 <main+0x659>
_ZN6CLBase9HandleArgEaPc():
/home/aliha951/ipdps-artifact/gapbs-master/src/command_line.h:106
      case 'u': uniform_ = true; scale_ = atoi(opt_arg);                break;
  4046a9:	c6 84 24 c9 01 00 00 	movb   $0x1,0x1c9(%rsp)
  4046b0:	01 
main():
/usr/include/stdlib.h:363
  4046b1:	ba 0a 00 00 00       	mov    $0xa,%edx
atoi():
/usr/include/stdlib.h:363
  4046b6:	31 f6                	xor    %esi,%esi
  4046b8:	e8 13 f4 ff ff       	callq  403ad0 <strtol@plt>
  4046bd:	89 84 24 a0 01 00 00 	mov    %eax,0x1a0(%rsp)
_ZN6CLBase9HandleArgEaPc():
/home/aliha951/ipdps-artifact/gapbs-master/src/command_line.h:106
  4046c4:	e9 bf f8 ff ff       	jmpq   403f88 <main+0xa8>
main():
/usr/include/stdlib.h:363
  4046c9:	ba 0a 00 00 00       	mov    $0xa,%edx
atoi():
/usr/include/stdlib.h:363
  4046ce:	31 f6                	xor    %esi,%esi
  4046d0:	e8 fb f3 ff ff       	callq  403ad0 <strtol@plt>
  4046d5:	89 84 24 d8 01 00 00 	mov    %eax,0x1d8(%rsp)
_ZN6CLBase9HandleArgEaPc():
/home/aliha951/ipdps-artifact/gapbs-master/src/command_line.h:111
      case 'x': readahead_size_ = atoi(opt_arg);                        break;
  4046dc:	e9 a7 f8 ff ff       	jmpq   403f88 <main+0xa8>
main():
/usr/include/stdlib.h:363
  4046e1:	ba 0a 00 00 00       	mov    $0xa,%edx
atoi():
/usr/include/stdlib.h:363
  4046e6:	31 f6                	xor    %esi,%esi
  4046e8:	e8 e3 f3 ff ff       	callq  403ad0 <strtol@plt>
_ZN6CLBase9HandleArgEaPc():
/home/aliha951/ipdps-artifact/gapbs-master/src/command_line.h:110
      case 'y': queue_size_ = (long unsigned int) atoi(opt_arg);        break;
  4046ed:	48 98                	cltq   
  4046ef:	48 89 84 24 d0 01 00 	mov    %rax,0x1d0(%rsp)
  4046f6:	00 
  4046f7:	e9 8c f8 ff ff       	jmpq   403f88 <main+0xa8>
main():
/usr/include/stdlib.h:363
  4046fc:	ba 0a 00 00 00       	mov    $0xa,%edx
atoi():
/usr/include/stdlib.h:363
  404701:	31 f6                	xor    %esi,%esi
  404703:	e8 c8 f3 ff ff       	callq  403ad0 <strtol@plt>
  404708:	89 84 24 a4 01 00 00 	mov    %eax,0x1a4(%rsp)
_ZN6CLBase9HandleArgEaPc():
/home/aliha951/ipdps-artifact/gapbs-master/src/command_line.h:104
      case 'k': degree_ = atoi(opt_arg);                                break;
  40470f:	e9 74 f8 ff ff       	jmpq   403f88 <main+0xa8>
/home/aliha951/ipdps-artifact/gapbs-master/src/command_line.h:107
      case 'm': in_place_ = true;                                       break;
  404714:	c6 84 24 ca 01 00 00 	movb   $0x1,0x1ca(%rsp)
  40471b:	01 
  40471c:	e9 67 f8 ff ff       	jmpq   403f88 <main+0xa8>
/home/aliha951/ipdps-artifact/gapbs-master/src/command_line.h:112
      case 'o': batching_mode_ = MADVISE;                               break;
  404721:	c7 84 24 dc 01 00 00 	movl   $0x2,0x1dc(%rsp)
  404728:	02 00 00 00 
  40472c:	e9 57 f8 ff ff       	jmpq   403f88 <main+0xa8>
/home/aliha951/ipdps-artifact/gapbs-master/src/command_line.h:109
      case 'q': batching_ = true;                                       break;
  404731:	c6 84 24 cb 01 00 00 	movb   $0x1,0x1cb(%rsp)
  404738:	01 
  404739:	e9 4a f8 ff ff       	jmpq   403f88 <main+0xa8>
/home/aliha951/ipdps-artifact/gapbs-master/src/command_line.h:101
      case 'f': filename_ = std::string(opt_arg);                       break;
  40473e:	48 89 fe             	mov    %rdi,%rsi
  404741:	4c 89 ef             	mov    %r13,%rdi
  404744:	e8 17 15 00 00       	callq  405c60 <_ZNSt7__cxx1112basic_stringIcSt11char_traitsIcESaIcEEC2EPKcRKS3_.constprop.0>
_ZNKSt7__cxx1112basic_stringIcSt11char_traitsIcESaIcEE7_M_dataEv():
/usr/include/c++/10/bits/basic_string.h:195
      { return _M_dataplus._M_p; }
  404749:	48 8b 84 24 10 01 00 	mov    0x110(%rsp),%rax
  404750:	00 
  404751:	48 8b bc 24 a8 01 00 	mov    0x1a8(%rsp),%rdi
  404758:	00 
_ZNKSt7__cxx1112basic_stringIcSt11char_traitsIcESaIcEE4sizeEv():
/usr/include/c++/10/bits/basic_string.h:915
      { return _M_string_length; }
  404759:	48 8b 94 24 18 01 00 	mov    0x118(%rsp),%rdx
  404760:	00 
_ZNSt7__cxx1112basic_stringIcSt11char_traitsIcESaIcEEaSEOS4_():
/usr/include/c++/10/bits/basic_string.h:731
	if (__str._M_is_local())
  404761:	48 39 d8             	cmp    %rbx,%rax
  404764:	0f 84 f3 00 00 00    	je     40485d <main+0x97d>
/usr/include/c++/10/bits/basic_string.h:759
	    _M_capacity(__str._M_allocated_capacity);
  40476a:	f3 0f 7e 8c 24 20 01 	movq   0x120(%rsp),%xmm1
  404771:	00 00 
/usr/include/c++/10/bits/basic_string.h:745
	    if (!_M_is_local())
  404773:	4c 39 f7             	cmp    %r14,%rdi
  404776:	0f 84 bb 00 00 00    	je     404837 <main+0x957>
_ZNSt7__cxx1112basic_stringIcSt11char_traitsIcESaIcEE9_M_lengthEm():
/usr/include/c++/10/bits/basic_string.h:191
      { _M_string_length = __length; }
  40477c:	66 48 0f 6e c2       	movq   %rdx,%xmm0
_ZNSt7__cxx1112basic_stringIcSt11char_traitsIcESaIcEEaSEOS4_():
/usr/include/c++/10/bits/basic_string.h:751
		    __capacity = _M_allocated_capacity;
  404781:	48 8b 8c 24 b8 01 00 	mov    0x1b8(%rsp),%rcx
  404788:	00 
_ZNSt7__cxx1112basic_stringIcSt11char_traitsIcESaIcEE7_M_dataEPc():
/usr/include/c++/10/bits/basic_string.h:187
      { _M_dataplus._M_p = __p; }
  404789:	48 89 84 24 a8 01 00 	mov    %rax,0x1a8(%rsp)
  404790:	00 
_ZNSt7__cxx1112basic_stringIcSt11char_traitsIcESaIcEE9_M_lengthEm():
/usr/include/c++/10/bits/basic_string.h:191
      { _M_string_length = __length; }
  404791:	66 0f 6c c1          	punpcklqdq %xmm1,%xmm0
  404795:	0f 29 84 24 b0 01 00 	movaps %xmm0,0x1b0(%rsp)
  40479c:	00 
_ZNSt7__cxx1112basic_stringIcSt11char_traitsIcESaIcEEaSEOS4_():
/usr/include/c++/10/bits/basic_string.h:760
	    if (__data)
  40479d:	48 85 ff             	test   %rdi,%rdi
  4047a0:	0f 84 aa 00 00 00    	je     404850 <main+0x970>
_ZNSt7__cxx1112basic_stringIcSt11char_traitsIcESaIcEE7_M_dataEPc():
/usr/include/c++/10/bits/basic_string.h:187
      { _M_dataplus._M_p = __p; }
  4047a6:	48 89 bc 24 10 01 00 	mov    %rdi,0x110(%rsp)
  4047ad:	00 
_ZNSt7__cxx1112basic_stringIcSt11char_traitsIcESaIcEE11_M_capacityEm():
/usr/include/c++/10/bits/basic_string.h:219
      { _M_allocated_capacity = __capacity; }
  4047ae:	48 89 8c 24 20 01 00 	mov    %rcx,0x120(%rsp)
  4047b5:	00 
_ZNKSt7__cxx1112basic_stringIcSt11char_traitsIcESaIcEE7_M_dataEv():
/usr/include/c++/10/bits/basic_string.h:195
      { return _M_dataplus._M_p; }
  4047b6:	48 8b 84 24 10 01 00 	mov    0x110(%rsp),%rax
  4047bd:	00 
_ZNSt7__cxx1112basic_stringIcSt11char_traitsIcESaIcEE9_M_lengthEm():
/usr/include/c++/10/bits/basic_string.h:191
      { _M_string_length = __length; }
  4047be:	48 c7 84 24 18 01 00 	movq   $0x0,0x118(%rsp)
  4047c5:	00 00 00 00 00 
_ZNSt11char_traitsIcE6assignERcRKc():
/usr/include/c++/10/bits/char_traits.h:357
  4047ca:	c6 00 00             	movb   $0x0,(%rax)
_ZNKSt7__cxx1112basic_stringIcSt11char_traitsIcESaIcEE7_M_dataEv():
/usr/include/c++/10/bits/basic_string.h:195
      { return _M_dataplus._M_p; }
  4047cd:	48 8b bc 24 10 01 00 	mov    0x110(%rsp),%rdi
  4047d4:	00 
_ZNSt7__cxx1112basic_stringIcSt11char_traitsIcESaIcEE10_M_disposeEv():
/usr/include/c++/10/bits/basic_string.h:239
	if (!_M_is_local())
  4047d5:	48 39 df             	cmp    %rbx,%rdi
  4047d8:	0f 84 aa f7 ff ff    	je     403f88 <main+0xa8>
_ZN9__gnu_cxx13new_allocatorIcE10deallocateEPcm():
/usr/include/c++/10/ext/new_allocator.h:139
  4047de:	e8 5d f1 ff ff       	callq  403940 <_ZdlPv@plt>
_ZN6CLBase9HandleArgEaPc():
/home/aliha951/ipdps-artifact/gapbs-master/src/command_line.h:114
  }
  4047e3:	e9 a0 f7 ff ff       	jmpq   403f88 <main+0xa8>
/home/aliha951/ipdps-artifact/gapbs-master/src/command_line.h:105
      case 's': symmetrize_ = true;                                     break;
  4047e8:	c6 84 24 c8 01 00 00 	movb   $0x1,0x1c8(%rsp)
  4047ef:	01 
  4047f0:	e9 93 f7 ff ff       	jmpq   403f88 <main+0xa8>
BenchmarkKernel<CSRGraph<int>, main(int, char**)::<lambda(const Graph&)>, void (*)(const CSRGraph<int>&, const pvector<int>&), bool (*)(const CSRGraph<int>&, const pvector<int>&)>():
/home/aliha951/ipdps-artifact/gapbs-master/src/benchmark.h:108
  double total_seconds = 0;
  4047f5:	66 0f ef ff          	pxor   %xmm7,%xmm7
  4047f9:	f2 0f 11 7c 24 18    	movsd  %xmm7,0x18(%rsp)
  4047ff:	e9 ce fc ff ff       	jmpq   4044d2 <main+0x5f2>
_ZStlsISt11char_traitsIcEERSt13basic_ostreamIcT_ES5_PKc():
/usr/include/c++/10/ostream:611
  404804:	ba 2b 00 00 00       	mov    $0x2b,%edx
  404809:	48 8d 35 b8 0f 01 00 	lea    0x10fb8(%rip),%rsi        # 4157c8 <_IO_stdin_used+0x7c8>
  404810:	48 8d 3d a9 5b 01 00 	lea    0x15ba9(%rip),%rdi        # 41a3c0 <_ZSt4cout@@GLIBCXX_3.4>
  404817:	e8 b4 f1 ff ff       	callq  4039d0 <_ZSt16__ostream_insertIcSt11char_traitsIcEERSt13basic_ostreamIT_T0_ES6_PKS3_l@plt>
_ZNSolsEPFRSoS_E():
/usr/include/c++/10/ostream:113
	return __pf(*this);
  40481c:	48 8d 3d 9d 5b 01 00 	lea    0x15b9d(%rip),%rdi        # 41a3c0 <_ZSt4cout@@GLIBCXX_3.4>
  404823:	e8 38 12 00 00       	callq  405a60 <_ZSt4endlIcSt11char_traitsIcEERSt13basic_ostreamIT_T0_ES6_.isra.0>
  404828:	e9 74 fd ff ff       	jmpq   4045a1 <main+0x6c1>
_ZN6CLBase9HandleArgEaPc():
/home/aliha951/ipdps-artifact/gapbs-master/src/command_line.h:103
      case 'h': PrintUsage();                                           break;
  40482d:	48 8b 7c 24 38       	mov    0x38(%rsp),%rdi
  404832:	e8 39 58 00 00       	callq  40a070 <_ZN6CLBase10PrintUsageEv>
_ZNSt7__cxx1112basic_stringIcSt11char_traitsIcESaIcEE9_M_lengthEm():
/usr/include/c++/10/bits/basic_string.h:191
      { _M_string_length = __length; }
  404837:	66 48 0f 6e c2       	movq   %rdx,%xmm0
_ZNSt7__cxx1112basic_stringIcSt11char_traitsIcESaIcEE7_M_dataEPc():
/usr/include/c++/10/bits/basic_string.h:187
      { _M_dataplus._M_p = __p; }
  40483c:	48 89 84 24 a8 01 00 	mov    %rax,0x1a8(%rsp)
  404843:	00 
_ZNSt7__cxx1112basic_stringIcSt11char_traitsIcESaIcEE9_M_lengthEm():
/usr/include/c++/10/bits/basic_string.h:191
      { _M_string_length = __length; }
  404844:	66 0f 6c c1          	punpcklqdq %xmm1,%xmm0
  404848:	0f 29 84 24 b0 01 00 	movaps %xmm0,0x1b0(%rsp)
  40484f:	00 
_ZNSt7__cxx1112basic_stringIcSt11char_traitsIcESaIcEE7_M_dataEPc():
/usr/include/c++/10/bits/basic_string.h:187
      { _M_dataplus._M_p = __p; }
  404850:	48 89 9c 24 10 01 00 	mov    %rbx,0x110(%rsp)
  404857:	00 
  404858:	e9 59 ff ff ff       	jmpq   4047b6 <main+0x8d6>
_ZNSt7__cxx1112basic_stringIcSt11char_traitsIcESaIcEEaSEOS4_():
/usr/include/c++/10/bits/basic_string.h:734
	    if (__str.size())
  40485d:	48 85 d2             	test   %rdx,%rdx
  404860:	74 1e                	je     404880 <main+0x9a0>
_ZNSt7__cxx1112basic_stringIcSt11char_traitsIcESaIcEE7_S_copyEPcPKcm():
/usr/include/c++/10/bits/basic_string.h:356
	if (__n == 1)
  404862:	48 83 fa 01          	cmp    $0x1,%rdx
  404866:	74 29                	je     404891 <main+0x9b1>
_ZNSt11char_traitsIcE4copyEPcPKcm():
/usr/include/c++/10/bits/char_traits.h:437
	return static_cast<char_type*>(__builtin_memcpy(__s1, __s2, __n));
  404868:	48 89 de             	mov    %rbx,%rsi
  40486b:	e8 60 f0 ff ff       	callq  4038d0 <memcpy@plt>
  404870:	48 8b bc 24 a8 01 00 	mov    0x1a8(%rsp),%rdi
  404877:	00 
  404878:	48 8b 94 24 18 01 00 	mov    0x118(%rsp),%rdx
  40487f:	00 
_ZNSt7__cxx1112basic_stringIcSt11char_traitsIcESaIcEE9_M_lengthEm():
/usr/include/c++/10/bits/basic_string.h:191
      { _M_string_length = __length; }
  404880:	48 89 94 24 b0 01 00 	mov    %rdx,0x1b0(%rsp)
  404887:	00 
_ZNSt11char_traitsIcE6assignERcRKc():
/usr/include/c++/10/bits/char_traits.h:357
      { __c1 = __c2; }
  404888:	c6 04 17 00          	movb   $0x0,(%rdi,%rdx,1)
_ZNSt7__cxx1112basic_stringIcSt11char_traitsIcESaIcEE13_M_set_lengthEm():
/usr/include/c++/10/bits/basic_string.h:226
      }
  40488c:	e9 25 ff ff ff       	jmpq   4047b6 <main+0x8d6>
_ZNSt11char_traitsIcE6assignERcRKc():
/usr/include/c++/10/bits/char_traits.h:357
  404891:	0f b6 84 24 20 01 00 	movzbl 0x120(%rsp),%eax
  404898:	00 
  404899:	88 07                	mov    %al,(%rdi)
  40489b:	48 8b bc 24 a8 01 00 	mov    0x1a8(%rsp),%rdi
  4048a2:	00 
  4048a3:	48 8b 94 24 18 01 00 	mov    0x118(%rsp),%rdx
  4048aa:	00 
  4048ab:	eb d3                	jmp    404880 <main+0x9a0>
_Z16start_disk_statsPKc():
/home/aliha951/ipdps-artifact/gapbs-master/src/profiling_utils.h:302
    perror("fork failed");
  4048ad:	48 8d 3d 7e 0a 01 00 	lea    0x10a7e(%rip),%rdi        # 415332 <_IO_stdin_used+0x332>
  4048b4:	e8 27 f0 ff ff       	callq  4038e0 <perror@plt>
/home/aliha951/ipdps-artifact/gapbs-master/src/profiling_utils.h:303
    exit(EXIT_FAILURE);
  4048b9:	bf 01 00 00 00       	mov    $0x1,%edi
  4048be:	e8 6d f1 ff ff       	callq  403a30 <exit@plt>
/home/aliha951/ipdps-artifact/gapbs-master/src/profiling_utils.h:306
	  move_to_cgroup(root_cgroup, getpid());
  4048c3:	e8 78 f2 ff ff       	callq  403b40 <getpid@plt>
  4048c8:	48 8d 3d 6f 0a 01 00 	lea    0x10a6f(%rip),%rdi        # 41533e <_IO_stdin_used+0x33e>
  4048cf:	89 c6                	mov    %eax,%esi
  4048d1:	e8 4a 26 00 00       	callq  406f20 <_Z14move_to_cgroupPKci>
/home/aliha951/ipdps-artifact/gapbs-master/src/profiling_utils.h:307
    execlp("/home/aliha951/ipdps-gapbs/gather_diskstats.sh", "/home/aliha951/ipdps-gapbs/gather_diskstats.sh", result_file_name, NULL);
  4048d6:	48 8d 35 1b 0f 01 00 	lea    0x10f1b(%rip),%rsi        # 4157f8 <_IO_stdin_used+0x7f8>
  4048dd:	31 c9                	xor    %ecx,%ecx
  4048df:	48 8d 15 6e 0a 01 00 	lea    0x10a6e(%rip),%rdx        # 415354 <_IO_stdin_used+0x354>
  4048e6:	31 c0                	xor    %eax,%eax
  4048e8:	48 89 f7             	mov    %rsi,%rdi
  4048eb:	e8 80 ee ff ff       	callq  403770 <execlp@plt>
/home/aliha951/ipdps-artifact/gapbs-master/src/profiling_utils.h:308
    perror("execlp failed");
  4048f0:	48 8d 3d 68 0a 01 00 	lea    0x10a68(%rip),%rdi        # 41535f <_IO_stdin_used+0x35f>
  4048f7:	e8 e4 ef ff ff       	callq  4038e0 <perror@plt>
  4048fc:	eb bb                	jmp    4048b9 <main+0x9d9>
main():
/home/aliha951/ipdps-artifact/gapbs-master/src/cc.cc:230
}
  4048fe:	e8 bd f0 ff ff       	callq  4039c0 <__stack_chk_fail@plt>
  404903:	f3 0f 1e fa          	endbr64 
_ZNKSt7__cxx1112basic_stringIcSt11char_traitsIcESaIcEE7_M_dataEv():
/usr/include/c++/10/bits/basic_string.h:195
      { return _M_dataplus._M_p; }
  404907:	48 89 c5             	mov    %rax,%rbp
  40490a:	e9 db f4 ff ff       	jmpq   403dea <main.cold>
  40490f:	f3 0f 1e fa          	endbr64 
_ZN7pvectorIiE16ReleaseResourcesEv():
/home/aliha951/ipdps-artifact/gapbs-master/src/pvector.h:73
    if (start_ != nullptr) {
  404913:	48 89 c3             	mov    %rax,%rbx
  404916:	e9 1e f5 ff ff       	jmpq   403e39 <main.cold+0x4f>
  40491b:	f3 0f 1e fa          	endbr64 
  40491f:	48 89 c5             	mov    %rax,%rbp
  404922:	e9 d5 f4 ff ff       	jmpq   403dfc <main.cold+0x12>
  404927:	f3 0f 1e fa          	endbr64 
_ZNKSt7__cxx1112basic_stringIcSt11char_traitsIcESaIcEE7_M_dataEv():
/usr/include/c++/10/bits/basic_string.h:195
  40492b:	48 89 c5             	mov    %rax,%rbp
  40492e:	e9 17 f5 ff ff       	jmpq   403e4a <main.cold+0x60>
  404933:	f3 0f 1e fa          	endbr64 
  404937:	48 89 c5             	mov    %rax,%rbp
  40493a:	e9 31 f5 ff ff       	jmpq   403e70 <main.cold+0x86>
  40493f:	f3 0f 1e fa          	endbr64 
  404943:	48 89 c5             	mov    %rax,%rbp
  404946:	e9 40 f5 ff ff       	jmpq   403e8b <main.cold+0xa1>
  40494b:	f3 0f 1e fa          	endbr64 
_ZN5CLAppD4Ev():
/home/aliha951/ipdps-artifact/gapbs-master/src/command_line.h:140
class CLApp : public CLBase {
  40494f:	48 89 c3             	mov    %rax,%rbx
  404952:	e9 c1 f4 ff ff       	jmpq   403e18 <main.cold+0x2e>
  404957:	f3 0f 1e fa          	endbr64 
  40495b:	e9 56 f5 ff ff       	jmpq   403eb6 <main.cold+0xcc>
  404960:	f3 0f 1e fa          	endbr64 
_ZNKSt7__cxx1112basic_stringIcSt11char_traitsIcESaIcEE7_M_dataEv():
/usr/include/c++/10/bits/basic_string.h:195
  404964:	48 89 c5             	mov    %rax,%rbp
  404967:	e9 52 f5 ff ff       	jmpq   403ebe <main.cold+0xd4>
main():
/usr/include/c++/10/bits/basic_string.h:195
  40496c:	0f 1f 40 00          	nopl   0x0(%rax)

0000000000404970 <_GLOBAL__sub_I__Z10PrintLabelRKNSt7__cxx1112basic_stringIcSt11char_traitsIcESaIcEEES6_>:
_GLOBAL__sub_I__Z10PrintLabelRKNSt7__cxx1112basic_stringIcSt11char_traitsIcESaIcEEES6_():
/home/aliha951/ipdps-artifact/gapbs-master/src/cc.cc:230
  404970:	f3 0f 1e fa          	endbr64 
  404974:	48 83 ec 08          	sub    $0x8,%rsp
/usr/include/c++/10/iostream:74
  extern wostream wclog;	/// Linked to standard error (buffered)
#endif
  ///@}

  // For construction of filebuffers for cout, cin, cerr, clog et. al.
  static ios_base::Init __ioinit;
  404978:	48 8d 3d 71 60 01 00 	lea    0x16071(%rip),%rdi        # 41a9f0 <_ZStL8__ioinit>
__static_initialization_and_destruction_0():
/usr/include/c++/10/iostream:74
  40497f:	e8 ec f1 ff ff       	callq  403b70 <_ZNSt8ios_base4InitC1Ev@plt>
  404984:	48 8b 3d 6d 56 01 00 	mov    0x1566d(%rip),%rdi        # 419ff8 <_ZNSt8ios_base4InitD1Ev@GLIBCXX_3.4>
_GLOBAL__sub_I__Z10PrintLabelRKNSt7__cxx1112basic_stringIcSt11char_traitsIcESaIcEEES6_():
/home/aliha951/ipdps-artifact/gapbs-master/src/cc.cc:230
  40498b:	48 83 c4 08          	add    $0x8,%rsp
__static_initialization_and_destruction_0():
/usr/include/c++/10/iostream:74
  40498f:	48 8d 15 b2 59 01 00 	lea    0x159b2(%rip),%rdx        # 41a348 <__dso_handle>
  404996:	48 8d 35 53 60 01 00 	lea    0x16053(%rip),%rsi        # 41a9f0 <_ZStL8__ioinit>
  40499d:	e9 6e ef ff ff       	jmpq   403910 <__cxa_atexit@plt>
_GLOBAL__sub_I__Z10PrintLabelRKNSt7__cxx1112basic_stringIcSt11char_traitsIcESaIcEEES6_():
  4049a2:	66 2e 0f 1f 84 00 00 	nopw   %cs:0x0(%rax,%rax,1)
  4049a9:	00 00 00 
  4049ac:	0f 1f 40 00          	nopl   0x0(%rax)

00000000004049b0 <_start>:
_start():
  4049b0:	f3 0f 1e fa          	endbr64 
  4049b4:	31 ed                	xor    %ebp,%ebp
  4049b6:	49 89 d1             	mov    %rdx,%r9
  4049b9:	5e                   	pop    %rsi
  4049ba:	48 89 e2             	mov    %rsp,%rdx
  4049bd:	48 83 e4 f0          	and    $0xfffffffffffffff0,%rsp
  4049c1:	50                   	push   %rax
  4049c2:	54                   	push   %rsp
  4049c3:	49 c7 c0 60 40 41 00 	mov    $0x414060,%r8
  4049ca:	48 c7 c1 f0 3f 41 00 	mov    $0x413ff0,%rcx
  4049d1:	48 c7 c7 e0 3e 40 00 	mov    $0x403ee0,%rdi
  4049d8:	ff 15 0a 56 01 00    	callq  *0x1560a(%rip)        # 419fe8 <__libc_start_main@GLIBC_2.2.5>
  4049de:	f4                   	hlt    
  4049df:	90                   	nop

00000000004049e0 <_dl_relocate_static_pie>:
_dl_relocate_static_pie():
  4049e0:	f3 0f 1e fa          	endbr64 
  4049e4:	c3                   	retq   
  4049e5:	66 2e 0f 1f 84 00 00 	nopw   %cs:0x0(%rax,%rax,1)
  4049ec:	00 00 00 
  4049ef:	90                   	nop

00000000004049f0 <deregister_tm_clones>:
deregister_tm_clones():
  4049f0:	b8 60 a3 41 00       	mov    $0x41a360,%eax
  4049f5:	48 3d 60 a3 41 00    	cmp    $0x41a360,%rax
  4049fb:	74 13                	je     404a10 <deregister_tm_clones+0x20>
  4049fd:	b8 00 00 00 00       	mov    $0x0,%eax
  404a02:	48 85 c0             	test   %rax,%rax
  404a05:	74 09                	je     404a10 <deregister_tm_clones+0x20>
  404a07:	bf 60 a3 41 00       	mov    $0x41a360,%edi
  404a0c:	ff e0                	jmpq   *%rax
  404a0e:	66 90                	xchg   %ax,%ax
  404a10:	c3                   	retq   
  404a11:	66 66 2e 0f 1f 84 00 	data16 nopw %cs:0x0(%rax,%rax,1)
  404a18:	00 00 00 00 
  404a1c:	0f 1f 40 00          	nopl   0x0(%rax)

0000000000404a20 <register_tm_clones>:
register_tm_clones():
  404a20:	be 60 a3 41 00       	mov    $0x41a360,%esi
  404a25:	48 81 ee 60 a3 41 00 	sub    $0x41a360,%rsi
  404a2c:	48 89 f0             	mov    %rsi,%rax
  404a2f:	48 c1 ee 3f          	shr    $0x3f,%rsi
  404a33:	48 c1 f8 03          	sar    $0x3,%rax
  404a37:	48 01 c6             	add    %rax,%rsi
  404a3a:	48 d1 fe             	sar    %rsi
  404a3d:	74 11                	je     404a50 <register_tm_clones+0x30>
  404a3f:	b8 00 00 00 00       	mov    $0x0,%eax
  404a44:	48 85 c0             	test   %rax,%rax
  404a47:	74 07                	je     404a50 <register_tm_clones+0x30>
  404a49:	bf 60 a3 41 00       	mov    $0x41a360,%edi
  404a4e:	ff e0                	jmpq   *%rax
  404a50:	c3                   	retq   
  404a51:	66 66 2e 0f 1f 84 00 	data16 nopw %cs:0x0(%rax,%rax,1)
  404a58:	00 00 00 00 
  404a5c:	0f 1f 40 00          	nopl   0x0(%rax)

0000000000404a60 <__do_global_dtors_aux>:
__do_global_dtors_aux():
  404a60:	f3 0f 1e fa          	endbr64 
  404a64:	80 3d 7d 5a 01 00 00 	cmpb   $0x0,0x15a7d(%rip)        # 41a4e8 <completed.0>
  404a6b:	75 13                	jne    404a80 <__do_global_dtors_aux+0x20>
  404a6d:	55                   	push   %rbp
  404a6e:	48 89 e5             	mov    %rsp,%rbp
  404a71:	e8 7a ff ff ff       	callq  4049f0 <deregister_tm_clones>
  404a76:	c6 05 6b 5a 01 00 01 	movb   $0x1,0x15a6b(%rip)        # 41a4e8 <completed.0>
  404a7d:	5d                   	pop    %rbp
  404a7e:	c3                   	retq   
  404a7f:	90                   	nop
  404a80:	c3                   	retq   
  404a81:	66 66 2e 0f 1f 84 00 	data16 nopw %cs:0x0(%rax,%rax,1)
  404a88:	00 00 00 00 
  404a8c:	0f 1f 40 00          	nopl   0x0(%rax)

0000000000404a90 <frame_dummy>:
frame_dummy():
  404a90:	f3 0f 1e fa          	endbr64 
  404a94:	eb 8a                	jmp    404a20 <register_tm_clones>
  404a96:	66 2e 0f 1f 84 00 00 	nopw   %cs:0x0(%rax,%rax,1)
  404a9d:	00 00 00 

0000000000404aa0 <_ZL13get_family_idi>:
_ZL13get_family_idi():
/home/aliha951/ipdps-artifact/gapbs-master/src/taskstats_helper.h:30
	struct genlmsghdr g;
	char buf[512];
};

/* Ask generic netlink for the family id of TASKSTATS */
static int get_family_id(int sd) {
  404aa0:	41 54                	push   %r12
/home/aliha951/ipdps-artifact/gapbs-master/src/taskstats_helper.h:32
	struct msgtemplate req = {0};
	struct msgtemplate ans = {0};
  404aa2:	b9 42 00 00 00       	mov    $0x42,%ecx
/home/aliha951/ipdps-artifact/gapbs-master/src/taskstats_helper.h:30
static int get_family_id(int sd) {
  404aa7:	55                   	push   %rbp
  404aa8:	89 fd                	mov    %edi,%ebp
  404aaa:	48 81 ec 48 04 00 00 	sub    $0x448,%rsp
  404ab1:	64 48 8b 04 25 28 00 	mov    %fs:0x28,%rax
  404ab8:	00 00 
  404aba:	48 89 84 24 38 04 00 	mov    %rax,0x438(%rsp)
  404ac1:	00 
  404ac2:	31 c0                	xor    %eax,%eax
/home/aliha951/ipdps-artifact/gapbs-master/src/taskstats_helper.h:32
	struct msgtemplate ans = {0};
  404ac4:	4c 8d a4 24 20 02 00 	lea    0x220(%rsp),%r12
  404acb:	00 
  404acc:	4c 89 e7             	mov    %r12,%rdi
  404acf:	f3 48 ab             	rep stos %rax,%es:(%rdi)
/home/aliha951/ipdps-artifact/gapbs-master/src/taskstats_helper.h:31
	struct msgtemplate req = {0};
  404ad2:	b9 42 00 00 00       	mov    $0x42,%ecx
/home/aliha951/ipdps-artifact/gapbs-master/src/taskstats_helper.h:32
	struct msgtemplate ans = {0};
  404ad7:	c7 07 00 00 00 00    	movl   $0x0,(%rdi)
/home/aliha951/ipdps-artifact/gapbs-master/src/taskstats_helper.h:31
	struct msgtemplate req = {0};
  404add:	48 89 e7             	mov    %rsp,%rdi
  404ae0:	f3 48 ab             	rep stos %rax,%es:(%rdi)
/home/aliha951/ipdps-artifact/gapbs-master/src/taskstats_helper.h:36
	struct nlattr *na;
	int rep_len;

	req.n.nlmsg_len = NLMSG_LENGTH(GENL_HDRLEN);
  404ae3:	48 b8 14 00 00 00 10 	movabs $0x1001000000014,%rax
  404aea:	00 01 00 
  404aed:	48 89 04 24          	mov    %rax,(%rsp)
/home/aliha951/ipdps-artifact/gapbs-master/src/taskstats_helper.h:31
	struct msgtemplate req = {0};
  404af1:	c7 07 00 00 00 00    	movl   $0x0,(%rdi)
/home/aliha951/ipdps-artifact/gapbs-master/src/taskstats_helper.h:40
	req.n.nlmsg_type = GENL_ID_CTRL;
	req.n.nlmsg_flags = NLM_F_REQUEST;
	req.n.nlmsg_seq = 0;
	req.n.nlmsg_pid = getpid();
  404af7:	e8 44 f0 ff ff       	callq  403b40 <getpid@plt>
/usr/include/x86_64-linux-gnu/bits/string_fortified.h:34

__fortify_function void *
__NTH (memcpy (void *__restrict __dest, const void *__restrict __src,
	       size_t __len))
{
  return __builtin___memcpy_chk (__dest, __src, __len, __bos0 (__dest));
  404afc:	ba 53 00 00 00       	mov    $0x53,%edx
/home/aliha951/ipdps-artifact/gapbs-master/src/taskstats_helper.h:50
	na->nla_type = CTRL_ATTR_FAMILY_NAME;
	na->nla_len = NLA_HDRLEN + strlen(TASKSTATS_GENL_NAME) + 1;
	memcpy(NLA_DATA(na), TASKSTATS_GENL_NAME, strlen(TASKSTATS_GENL_NAME) + 1);
	req.n.nlmsg_len += NLMSG_ALIGN(na->nla_len);

	if (send(sd, &req, req.n.nlmsg_len, 0) < 0)
  404b01:	31 c9                	xor    %ecx,%ecx
memcpy():
/usr/include/x86_64-linux-gnu/bits/string_fortified.h:34
  404b03:	48 89 e6             	mov    %rsp,%rsi
_ZL13get_family_idi():
/home/aliha951/ipdps-artifact/gapbs-master/src/taskstats_helper.h:40
	req.n.nlmsg_pid = getpid();
  404b06:	89 44 24 0c          	mov    %eax,0xc(%rsp)
/home/aliha951/ipdps-artifact/gapbs-master/src/taskstats_helper.h:41
	req.g.cmd = CTRL_CMD_GETFAMILY;
  404b0a:	b8 03 01 00 00       	mov    $0x103,%eax
/home/aliha951/ipdps-artifact/gapbs-master/src/taskstats_helper.h:50
	if (send(sd, &req, req.n.nlmsg_len, 0) < 0)
  404b0f:	89 ef                	mov    %ebp,%edi
/home/aliha951/ipdps-artifact/gapbs-master/src/taskstats_helper.h:41
	req.g.cmd = CTRL_CMD_GETFAMILY;
  404b11:	66 89 44 24 10       	mov    %ax,0x10(%rsp)
memcpy():
/usr/include/x86_64-linux-gnu/bits/string_fortified.h:34
  404b16:	48 b8 54 41 53 4b 53 	movabs $0x544154534b534154,%rax
  404b1d:	54 41 54 
  404b20:	48 89 44 24 18       	mov    %rax,0x18(%rsp)
_ZL13get_family_idi():
/home/aliha951/ipdps-artifact/gapbs-master/src/taskstats_helper.h:48
	req.n.nlmsg_len += NLMSG_ALIGN(na->nla_len);
  404b25:	8b 04 24             	mov    (%rsp),%eax
memcpy():
/usr/include/x86_64-linux-gnu/bits/string_fortified.h:34
  404b28:	66 89 54 24 20       	mov    %dx,0x20(%rsp)
_ZL13get_family_idi():
/home/aliha951/ipdps-artifact/gapbs-master/src/taskstats_helper.h:48
  404b2d:	8d 50 10             	lea    0x10(%rax),%edx
/home/aliha951/ipdps-artifact/gapbs-master/src/taskstats_helper.h:46
	na->nla_len = NLA_HDRLEN + strlen(TASKSTATS_GENL_NAME) + 1;
  404b30:	c7 44 24 14 0e 00 02 	movl   $0x2000e,0x14(%rsp)
  404b37:	00 
/home/aliha951/ipdps-artifact/gapbs-master/src/taskstats_helper.h:48
	req.n.nlmsg_len += NLMSG_ALIGN(na->nla_len);
  404b38:	89 14 24             	mov    %edx,(%rsp)
/home/aliha951/ipdps-artifact/gapbs-master/src/taskstats_helper.h:50
	if (send(sd, &req, req.n.nlmsg_len, 0) < 0)
  404b3b:	e8 d0 ec ff ff       	callq  403810 <send@plt>
  404b40:	48 85 c0             	test   %rax,%rax
  404b43:	78 6b                	js     404bb0 <_ZL13get_family_idi+0x110>
/usr/include/x86_64-linux-gnu/bits/socket2.h:44
	return __recv_chk (__fd, __buf, __n, __bos0 (__buf), __flags);

      if (__n > __bos0 (__buf))
	return __recv_chk_warn (__fd, __buf, __n, __bos0 (__buf), __flags);
    }
  return __recv_alias (__fd, __buf, __n, __flags);
  404b45:	31 c9                	xor    %ecx,%ecx
recv():
/usr/include/x86_64-linux-gnu/bits/socket2.h:44
  404b47:	ba 14 02 00 00       	mov    $0x214,%edx
  404b4c:	4c 89 e6             	mov    %r12,%rsi
  404b4f:	89 ef                	mov    %ebp,%edi
  404b51:	e8 4a ec ff ff       	callq  4037a0 <recv@plt>
_ZL13get_family_idi():
/home/aliha951/ipdps-artifact/gapbs-master/src/taskstats_helper.h:54
		return -1;

	rep_len = recv(sd, &ans, sizeof(ans), 0);
	if (rep_len < 0 || ans.n.nlmsg_type == NLMSG_ERROR)
  404b56:	85 c0                	test   %eax,%eax
  404b58:	78 56                	js     404bb0 <_ZL13get_family_idi+0x110>
/home/aliha951/ipdps-artifact/gapbs-master/src/taskstats_helper.h:54 (discriminator 1)
  404b5a:	66 83 bc 24 24 02 00 	cmpw   $0x2,0x224(%rsp)
  404b61:	00 02 
  404b63:	74 4b                	je     404bb0 <_ZL13get_family_idi+0x110>
/home/aliha951/ipdps-artifact/gapbs-master/src/taskstats_helper.h:59
		return -1;

	/* First attr is family name we sent, second should be ID */
	na = (struct nlattr *) GENLMSG_DATA(&ans.n);
	na = (struct nlattr *) ((char*)na + NLA_ALIGN(na->nla_len));
  404b65:	0f b7 84 24 34 02 00 	movzwl 0x234(%rsp),%eax
  404b6c:	00 
  404b6d:	83 c0 03             	add    $0x3,%eax
  404b70:	25 fc ff 01 00       	and    $0x1fffc,%eax
  404b75:	48 8d 84 04 34 02 00 	lea    0x234(%rsp,%rax,1),%rax
  404b7c:	00 
/home/aliha951/ipdps-artifact/gapbs-master/src/taskstats_helper.h:60
	if (na->nla_type == CTRL_ATTR_FAMILY_ID)
  404b7d:	66 83 78 02 01       	cmpw   $0x1,0x2(%rax)
  404b82:	75 2c                	jne    404bb0 <_ZL13get_family_idi+0x110>
/home/aliha951/ipdps-artifact/gapbs-master/src/taskstats_helper.h:61
		return *(__u16 *) NLA_DATA(na);
  404b84:	0f b7 40 04          	movzwl 0x4(%rax),%eax
/home/aliha951/ipdps-artifact/gapbs-master/src/taskstats_helper.h:63
	return -1;
}
  404b88:	48 8b b4 24 38 04 00 	mov    0x438(%rsp),%rsi
  404b8f:	00 
  404b90:	64 48 2b 34 25 28 00 	sub    %fs:0x28,%rsi
  404b97:	00 00 
  404b99:	75 1c                	jne    404bb7 <_ZL13get_family_idi+0x117>
  404b9b:	48 81 c4 48 04 00 00 	add    $0x448,%rsp
  404ba2:	5d                   	pop    %rbp
  404ba3:	41 5c                	pop    %r12
  404ba5:	c3                   	retq   
  404ba6:	66 2e 0f 1f 84 00 00 	nopw   %cs:0x0(%rax,%rax,1)
  404bad:	00 00 00 
/home/aliha951/ipdps-artifact/gapbs-master/src/taskstats_helper.h:51
		return -1;
  404bb0:	b8 ff ff ff ff       	mov    $0xffffffff,%eax
  404bb5:	eb d1                	jmp    404b88 <_ZL13get_family_idi+0xe8>
/home/aliha951/ipdps-artifact/gapbs-master/src/taskstats_helper.h:63
}
  404bb7:	e8 04 ee ff ff       	callq  4039c0 <__stack_chk_fail@plt>
  404bbc:	0f 1f 40 00          	nopl   0x0(%rax)

0000000000404bc0 <_ZL21request_taskstats_pidiiiP9taskstatsPm>:
_ZL21request_taskstats_pidiiiP9taskstatsPm():
/home/aliha951/ipdps-artifact/gapbs-master/src/taskstats_helper.h:80
		return -1;
	}
	return sd;
}

static int request_taskstats_pid(int sd, int family_id, pid_t pid, struct taskstats *out_ts, size_t *out_len) {
  404bc0:	41 57                	push   %r15
  404bc2:	41 89 d7             	mov    %edx,%r15d
  404bc5:	41 56                	push   %r14
  404bc7:	41 55                	push   %r13
  404bc9:	41 89 fd             	mov    %edi,%r13d
  404bcc:	41 54                	push   %r12
  404bce:	49 89 cc             	mov    %rcx,%r12
/home/aliha951/ipdps-artifact/gapbs-master/src/taskstats_helper.h:81
	struct msgtemplate req = {0};
  404bd1:	b9 42 00 00 00       	mov    $0x42,%ecx
/home/aliha951/ipdps-artifact/gapbs-master/src/taskstats_helper.h:80
static int request_taskstats_pid(int sd, int family_id, pid_t pid, struct taskstats *out_ts, size_t *out_len) {
  404bd6:	55                   	push   %rbp
/usr/include/x86_64-linux-gnu/bits/string_fortified.h:71
    {
      __warn_memset_zero_len ();
      return __dest;
    }
#endif
  return __builtin___memset_chk (__dest, __ch, __len, __bos0 (__dest));
  404bd7:	49 8d 6c 24 08       	lea    0x8(%r12),%rbp
/home/aliha951/ipdps-artifact/gapbs-master/src/taskstats_helper.h:80
  404bdc:	53                   	push   %rbx
  404bdd:	4c 89 c3             	mov    %r8,%rbx
  404be0:	48 81 ec 48 04 00 00 	sub    $0x448,%rsp
  404be7:	64 48 8b 04 25 28 00 	mov    %fs:0x28,%rax
  404bee:	00 00 
  404bf0:	48 89 84 24 38 04 00 	mov    %rax,0x438(%rsp)
  404bf7:	00 
  404bf8:	31 c0                	xor    %eax,%eax
/home/aliha951/ipdps-artifact/gapbs-master/src/taskstats_helper.h:81
	struct msgtemplate req = {0};
  404bfa:	48 89 e7             	mov    %rsp,%rdi
/home/aliha951/ipdps-artifact/gapbs-master/src/taskstats_helper.h:85
	struct msgtemplate rep = {0};
	struct nlattr *na;

	*out_len = 0;
  404bfd:	49 c7 00 00 00 00 00 	movq   $0x0,(%r8)
/home/aliha951/ipdps-artifact/gapbs-master/src/taskstats_helper.h:82
	struct msgtemplate rep = {0};
  404c04:	4c 8d b4 24 20 02 00 	lea    0x220(%rsp),%r14
  404c0b:	00 
/home/aliha951/ipdps-artifact/gapbs-master/src/taskstats_helper.h:81
	struct msgtemplate req = {0};
  404c0c:	f3 48 ab             	rep stos %rax,%es:(%rdi)
/home/aliha951/ipdps-artifact/gapbs-master/src/taskstats_helper.h:82
	struct msgtemplate rep = {0};
  404c0f:	b9 42 00 00 00       	mov    $0x42,%ecx
/home/aliha951/ipdps-artifact/gapbs-master/src/taskstats_helper.h:81
	struct msgtemplate req = {0};
  404c14:	c7 07 00 00 00 00    	movl   $0x0,(%rdi)
/home/aliha951/ipdps-artifact/gapbs-master/src/taskstats_helper.h:82
	struct msgtemplate rep = {0};
  404c1a:	4c 89 f7             	mov    %r14,%rdi
  404c1d:	f3 48 ab             	rep stos %rax,%es:(%rdi)
memset():
/usr/include/x86_64-linux-gnu/bits/string_fortified.h:71
  404c20:	4c 89 e1             	mov    %r12,%rcx
_ZL21request_taskstats_pidiiiP9taskstatsPm():
/home/aliha951/ipdps-artifact/gapbs-master/src/taskstats_helper.h:82
  404c23:	c7 07 00 00 00 00    	movl   $0x0,(%rdi)
memset():
/usr/include/x86_64-linux-gnu/bits/string_fortified.h:71
  404c29:	48 89 ef             	mov    %rbp,%rdi
  404c2c:	48 83 e7 f8          	and    $0xfffffffffffffff8,%rdi
  404c30:	49 c7 04 24 00 00 00 	movq   $0x0,(%r12)
  404c37:	00 
  404c38:	49 c7 84 24 a8 01 00 	movq   $0x0,0x1a8(%r12)
  404c3f:	00 00 00 00 00 
  404c44:	48 29 f9             	sub    %rdi,%rcx
  404c47:	81 c1 b0 01 00 00    	add    $0x1b0,%ecx
  404c4d:	c1 e9 03             	shr    $0x3,%ecx
  404c50:	f3 48 ab             	rep stos %rax,%es:(%rdi)
_ZL21request_taskstats_pidiiiP9taskstatsPm():
/home/aliha951/ipdps-artifact/gapbs-master/src/taskstats_helper.h:90
	memset(out_ts, 0, sizeof(*out_ts));

	req.n.nlmsg_len = NLMSG_LENGTH(GENL_HDRLEN);
	req.n.nlmsg_type = family_id;
	req.n.nlmsg_flags = NLM_F_REQUEST;
  404c53:	b8 01 00 00 00       	mov    $0x1,%eax
/home/aliha951/ipdps-artifact/gapbs-master/src/taskstats_helper.h:89
	req.n.nlmsg_type = family_id;
  404c58:	66 89 74 24 04       	mov    %si,0x4(%rsp)
/home/aliha951/ipdps-artifact/gapbs-master/src/taskstats_helper.h:88
	req.n.nlmsg_len = NLMSG_LENGTH(GENL_HDRLEN);
  404c5d:	c7 04 24 14 00 00 00 	movl   $0x14,(%rsp)
/home/aliha951/ipdps-artifact/gapbs-master/src/taskstats_helper.h:90
	req.n.nlmsg_flags = NLM_F_REQUEST;
  404c64:	66 89 44 24 06       	mov    %ax,0x6(%rsp)
/home/aliha951/ipdps-artifact/gapbs-master/src/taskstats_helper.h:91
	req.n.nlmsg_seq = 1;
  404c69:	c7 44 24 08 01 00 00 	movl   $0x1,0x8(%rsp)
  404c70:	00 
/home/aliha951/ipdps-artifact/gapbs-master/src/taskstats_helper.h:92
	req.n.nlmsg_pid = getpid();
  404c71:	e8 ca ee ff ff       	callq  403b40 <getpid@plt>
/home/aliha951/ipdps-artifact/gapbs-master/src/taskstats_helper.h:93
	req.g.cmd = TASKSTATS_CMD_GET;
  404c76:	ba 01 0e 00 00       	mov    $0xe01,%edx
/home/aliha951/ipdps-artifact/gapbs-master/src/taskstats_helper.h:103
  na->nla_type = TASKSTATS_CMD_ATTR_TGID; // Use TGID to get stats for thread group (process) instead of single thread
	na->nla_len = NLA_HDRLEN + sizeof(pid);
	memcpy(NLA_DATA(na), &pid, sizeof(pid));
	req.n.nlmsg_len += NLMSG_ALIGN(na->nla_len);

	if (send(sd, &req, req.n.nlmsg_len, 0) < 0)
  404c7b:	31 c9                	xor    %ecx,%ecx
  404c7d:	48 89 e6             	mov    %rsp,%rsi
/home/aliha951/ipdps-artifact/gapbs-master/src/taskstats_helper.h:92
	req.n.nlmsg_pid = getpid();
  404c80:	89 44 24 0c          	mov    %eax,0xc(%rsp)
/home/aliha951/ipdps-artifact/gapbs-master/src/taskstats_helper.h:101
	req.n.nlmsg_len += NLMSG_ALIGN(na->nla_len);
  404c84:	8b 04 24             	mov    (%rsp),%eax
/home/aliha951/ipdps-artifact/gapbs-master/src/taskstats_helper.h:103
	if (send(sd, &req, req.n.nlmsg_len, 0) < 0)
  404c87:	44 89 ef             	mov    %r13d,%edi
/home/aliha951/ipdps-artifact/gapbs-master/src/taskstats_helper.h:93
	req.g.cmd = TASKSTATS_CMD_GET;
  404c8a:	66 89 54 24 10       	mov    %dx,0x10(%rsp)
/home/aliha951/ipdps-artifact/gapbs-master/src/taskstats_helper.h:101
	req.n.nlmsg_len += NLMSG_ALIGN(na->nla_len);
  404c8f:	8d 50 08             	lea    0x8(%rax),%edx
/home/aliha951/ipdps-artifact/gapbs-master/src/taskstats_helper.h:99
	na->nla_len = NLA_HDRLEN + sizeof(pid);
  404c92:	c7 44 24 14 08 00 02 	movl   $0x20008,0x14(%rsp)
  404c99:	00 
/usr/include/x86_64-linux-gnu/bits/string_fortified.h:34
  return __builtin___memcpy_chk (__dest, __src, __len, __bos0 (__dest));
  404c9a:	44 89 7c 24 18       	mov    %r15d,0x18(%rsp)
/home/aliha951/ipdps-artifact/gapbs-master/src/taskstats_helper.h:101
	req.n.nlmsg_len += NLMSG_ALIGN(na->nla_len);
  404c9f:	89 14 24             	mov    %edx,(%rsp)
/home/aliha951/ipdps-artifact/gapbs-master/src/taskstats_helper.h:103
	if (send(sd, &req, req.n.nlmsg_len, 0) < 0)
  404ca2:	e8 69 eb ff ff       	callq  403810 <send@plt>
  404ca7:	48 85 c0             	test   %rax,%rax
  404caa:	0f 88 18 01 00 00    	js     404dc8 <_ZL21request_taskstats_pidiiiP9taskstatsPm+0x208>
/usr/include/x86_64-linux-gnu/bits/socket2.h:44
  404cb0:	31 c9                	xor    %ecx,%ecx
recv():
/usr/include/x86_64-linux-gnu/bits/socket2.h:44
  404cb2:	ba 14 02 00 00       	mov    $0x214,%edx
  404cb7:	4c 89 f6             	mov    %r14,%rsi
  404cba:	44 89 ef             	mov    %r13d,%edi
  404cbd:	e8 de ea ff ff       	callq  4037a0 <recv@plt>
_ZL21request_taskstats_pidiiiP9taskstatsPm():
/home/aliha951/ipdps-artifact/gapbs-master/src/taskstats_helper.h:105
		return -1;
	if (recv(sd, &rep, sizeof(rep), 0) < 0)
  404cc2:	48 85 c0             	test   %rax,%rax
  404cc5:	0f 88 fd 00 00 00    	js     404dc8 <_ZL21request_taskstats_pidiiiP9taskstatsPm+0x208>
/home/aliha951/ipdps-artifact/gapbs-master/src/taskstats_helper.h:109
		return -1;

	na = (struct nlattr *) GENLMSG_DATA(&rep.n);
	int rem = rep.n.nlmsg_len - NLMSG_LENGTH(GENL_HDRLEN);
  404ccb:	8b 84 24 20 02 00 00 	mov    0x220(%rsp),%eax
  404cd2:	8d 70 ec             	lea    -0x14(%rax),%esi
/home/aliha951/ipdps-artifact/gapbs-master/src/taskstats_helper.h:110
	while (rem > 0 && na->nla_len >= NLA_HDRLEN && rem >= na->nla_len) {
  404cd5:	85 f6                	test   %esi,%esi
  404cd7:	0f 8e eb 00 00 00    	jle    404dc8 <_ZL21request_taskstats_pidiiiP9taskstatsPm+0x208>
/home/aliha951/ipdps-artifact/gapbs-master/src/taskstats_helper.h:108
	na = (struct nlattr *) GENLMSG_DATA(&rep.n);
  404cdd:	48 8d 8c 24 34 02 00 	lea    0x234(%rsp),%rcx
  404ce4:	00 
  404ce5:	eb 29                	jmp    404d10 <_ZL21request_taskstats_pidiiiP9taskstatsPm+0x150>
  404ce7:	66 0f 1f 84 00 00 00 	nopw   0x0(%rax,%rax,1)
  404cee:	00 00 
/home/aliha951/ipdps-artifact/gapbs-master/src/taskstats_helper.h:126
				}
				int step2 = NLA_ALIGN(n2->nla_len);
				aggr_len -= step2;
				n2 = (struct nlattr *) ((char*)n2 + step2);
			}
		} else if (na->nla_type == TASKSTATS_TYPE_STATS) {
  404cf0:	66 83 f8 03          	cmp    $0x3,%ax
  404cf4:	0f 84 26 01 00 00    	je     404e20 <_ZL21request_taskstats_pidiiiP9taskstatsPm+0x260>
/home/aliha951/ipdps-artifact/gapbs-master/src/taskstats_helper.h:133
			if (payload > sizeof(*out_ts)) payload = sizeof(*out_ts);
			memcpy(out_ts, NLA_DATA(na), payload);
			*out_len = payload;
			return 0;
		}
		int step = NLA_ALIGN(na->nla_len);
  404cfa:	83 c2 03             	add    $0x3,%edx
  404cfd:	83 e2 fc             	and    $0xfffffffc,%edx
/home/aliha951/ipdps-artifact/gapbs-master/src/taskstats_helper.h:134
		rem -= step;
  404d00:	29 d6                	sub    %edx,%esi
/home/aliha951/ipdps-artifact/gapbs-master/src/taskstats_helper.h:135
		na = (struct nlattr *) ((char*)na + step);
  404d02:	48 63 d2             	movslq %edx,%rdx
  404d05:	48 01 d1             	add    %rdx,%rcx
/home/aliha951/ipdps-artifact/gapbs-master/src/taskstats_helper.h:110
	while (rem > 0 && na->nla_len >= NLA_HDRLEN && rem >= na->nla_len) {
  404d08:	85 f6                	test   %esi,%esi
  404d0a:	0f 8e b8 00 00 00    	jle    404dc8 <_ZL21request_taskstats_pidiiiP9taskstatsPm+0x208>
/home/aliha951/ipdps-artifact/gapbs-master/src/taskstats_helper.h:110 (discriminator 1)
  404d10:	0f b7 11             	movzwl (%rcx),%edx
  404d13:	66 83 fa 03          	cmp    $0x3,%dx
  404d17:	0f 86 ab 00 00 00    	jbe    404dc8 <_ZL21request_taskstats_pidiiiP9taskstatsPm+0x208>
/home/aliha951/ipdps-artifact/gapbs-master/src/taskstats_helper.h:110 (discriminator 2)
  404d1d:	39 f2                	cmp    %esi,%edx
  404d1f:	0f 8f a3 00 00 00    	jg     404dc8 <_ZL21request_taskstats_pidiiiP9taskstatsPm+0x208>
/home/aliha951/ipdps-artifact/gapbs-master/src/taskstats_helper.h:111
		if (na->nla_type == TASKSTATS_TYPE_AGGR_PID || na->nla_type == TASKSTATS_TYPE_AGGR_TGID) {
  404d25:	0f b7 41 02          	movzwl 0x2(%rcx),%eax
  404d29:	8d 78 fc             	lea    -0x4(%rax),%edi
  404d2c:	66 83 ff 01          	cmp    $0x1,%di
  404d30:	77 be                	ja     404cf0 <_ZL21request_taskstats_pidiiiP9taskstatsPm+0x130>
/home/aliha951/ipdps-artifact/gapbs-master/src/taskstats_helper.h:114
			while (aggr_len > 0 && n2->nla_len >= NLA_HDRLEN && aggr_len >= n2->nla_len) {
  404d32:	41 89 d0             	mov    %edx,%r8d
/home/aliha951/ipdps-artifact/gapbs-master/src/taskstats_helper.h:113
			struct nlattr *n2 = (struct nlattr *) NLA_DATA(na);
  404d35:	48 8d 79 04          	lea    0x4(%rcx),%rdi
/home/aliha951/ipdps-artifact/gapbs-master/src/taskstats_helper.h:114
			while (aggr_len > 0 && n2->nla_len >= NLA_HDRLEN && aggr_len >= n2->nla_len) {
  404d39:	41 83 e8 04          	sub    $0x4,%r8d
  404d3d:	75 1c                	jne    404d5b <_ZL21request_taskstats_pidiiiP9taskstatsPm+0x19b>
  404d3f:	eb b9                	jmp    404cfa <_ZL21request_taskstats_pidiiiP9taskstatsPm+0x13a>
  404d41:	0f 1f 80 00 00 00 00 	nopl   0x0(%rax)
/home/aliha951/ipdps-artifact/gapbs-master/src/taskstats_helper.h:122
				int step2 = NLA_ALIGN(n2->nla_len);
  404d48:	83 c0 03             	add    $0x3,%eax
  404d4b:	83 e0 fc             	and    $0xfffffffc,%eax
/home/aliha951/ipdps-artifact/gapbs-master/src/taskstats_helper.h:123
				aggr_len -= step2;
  404d4e:	41 29 c0             	sub    %eax,%r8d
/home/aliha951/ipdps-artifact/gapbs-master/src/taskstats_helper.h:124
				n2 = (struct nlattr *) ((char*)n2 + step2);
  404d51:	48 98                	cltq   
  404d53:	48 01 c7             	add    %rax,%rdi
/home/aliha951/ipdps-artifact/gapbs-master/src/taskstats_helper.h:114
			while (aggr_len > 0 && n2->nla_len >= NLA_HDRLEN && aggr_len >= n2->nla_len) {
  404d56:	45 85 c0             	test   %r8d,%r8d
  404d59:	7e 9f                	jle    404cfa <_ZL21request_taskstats_pidiiiP9taskstatsPm+0x13a>
/home/aliha951/ipdps-artifact/gapbs-master/src/taskstats_helper.h:114 (discriminator 1)
  404d5b:	0f b7 07             	movzwl (%rdi),%eax
  404d5e:	66 83 f8 03          	cmp    $0x3,%ax
  404d62:	76 96                	jbe    404cfa <_ZL21request_taskstats_pidiiiP9taskstatsPm+0x13a>
/home/aliha951/ipdps-artifact/gapbs-master/src/taskstats_helper.h:114 (discriminator 2)
  404d64:	44 39 c0             	cmp    %r8d,%eax
  404d67:	7f 91                	jg     404cfa <_ZL21request_taskstats_pidiiiP9taskstatsPm+0x13a>
/home/aliha951/ipdps-artifact/gapbs-master/src/taskstats_helper.h:115
				if (n2->nla_type == TASKSTATS_TYPE_STATS) {
  404d69:	66 83 7f 02 03       	cmpw   $0x3,0x2(%rdi)
  404d6e:	75 d8                	jne    404d48 <_ZL21request_taskstats_pidiiiP9taskstatsPm+0x188>
/home/aliha951/ipdps-artifact/gapbs-master/src/taskstats_helper.h:116
					size_t payload = n2->nla_len - NLA_HDRLEN;
  404d70:	83 e8 04             	sub    $0x4,%eax
  404d73:	ba b0 01 00 00       	mov    $0x1b0,%edx
/home/aliha951/ipdps-artifact/gapbs-master/src/taskstats_helper.h:118
					memcpy(out_ts, NLA_DATA(n2), payload);
  404d78:	48 8d 77 04          	lea    0x4(%rdi),%rsi
/home/aliha951/ipdps-artifact/gapbs-master/src/taskstats_helper.h:116
					size_t payload = n2->nla_len - NLA_HDRLEN;
  404d7c:	48 98                	cltq   
/home/aliha951/ipdps-artifact/gapbs-master/src/taskstats_helper.h:117
					if (payload > sizeof(*out_ts)) payload = sizeof(*out_ts);
  404d7e:	48 3d b0 01 00 00    	cmp    $0x1b0,%rax
  404d84:	48 0f 47 c2          	cmova  %rdx,%rax
/usr/include/x86_64-linux-gnu/bits/string_fortified.h:34
  404d88:	83 f8 08             	cmp    $0x8,%eax
memcpy():
/usr/include/x86_64-linux-gnu/bits/string_fortified.h:34
  404d8b:	72 6b                	jb     404df8 <_ZL21request_taskstats_pidiiiP9taskstatsPm+0x238>
  404d8d:	48 8b 57 04          	mov    0x4(%rdi),%rdx
_ZL21request_taskstats_pidiiiP9taskstatsPm():
/usr/include/x86_64-linux-gnu/bits/string_fortified.h:34
  404d91:	49 89 14 24          	mov    %rdx,(%r12)
memcpy():
/usr/include/x86_64-linux-gnu/bits/string_fortified.h:34
  404d95:	89 c2                	mov    %eax,%edx
  404d97:	48 89 ef             	mov    %rbp,%rdi
  404d9a:	48 8b 4c 16 f8       	mov    -0x8(%rsi,%rdx,1),%rcx
  404d9f:	48 83 e7 f8          	and    $0xfffffffffffffff8,%rdi
  404da3:	49 89 4c 14 f8       	mov    %rcx,-0x8(%r12,%rdx,1)
  404da8:	49 29 fc             	sub    %rdi,%r12
  404dab:	4c 29 e6             	sub    %r12,%rsi
  404dae:	41 01 c4             	add    %eax,%r12d
  404db1:	41 c1 ec 03          	shr    $0x3,%r12d
  404db5:	44 89 e1             	mov    %r12d,%ecx
  404db8:	f3 48 a5             	rep movsq %ds:(%rsi),%es:(%rdi)
_ZL21request_taskstats_pidiiiP9taskstatsPm():
/home/aliha951/ipdps-artifact/gapbs-master/src/taskstats_helper.h:130
			*out_len = payload;
  404dbb:	48 89 03             	mov    %rax,(%rbx)
/home/aliha951/ipdps-artifact/gapbs-master/src/taskstats_helper.h:131
			return 0;
  404dbe:	31 c0                	xor    %eax,%eax
  404dc0:	eb 0b                	jmp    404dcd <_ZL21request_taskstats_pidiiiP9taskstatsPm+0x20d>
  404dc2:	66 0f 1f 44 00 00    	nopw   0x0(%rax,%rax,1)
/home/aliha951/ipdps-artifact/gapbs-master/src/taskstats_helper.h:104
		return -1;
  404dc8:	b8 ff ff ff ff       	mov    $0xffffffff,%eax
/home/aliha951/ipdps-artifact/gapbs-master/src/taskstats_helper.h:138
	}
	return -1; /* Not found */
}
  404dcd:	48 8b 9c 24 38 04 00 	mov    0x438(%rsp),%rbx
  404dd4:	00 
  404dd5:	64 48 2b 1c 25 28 00 	sub    %fs:0x28,%rbx
  404ddc:	00 00 
  404dde:	75 7c                	jne    404e5c <_ZL21request_taskstats_pidiiiP9taskstatsPm+0x29c>
  404de0:	48 81 c4 48 04 00 00 	add    $0x448,%rsp
  404de7:	5b                   	pop    %rbx
  404de8:	5d                   	pop    %rbp
  404de9:	41 5c                	pop    %r12
  404deb:	41 5d                	pop    %r13
  404ded:	41 5e                	pop    %r14
  404def:	41 5f                	pop    %r15
  404df1:	c3                   	retq   
  404df2:	66 0f 1f 44 00 00    	nopw   0x0(%rax,%rax,1)
memcpy():
/usr/include/x86_64-linux-gnu/bits/string_fortified.h:34
  404df8:	a8 04                	test   $0x4,%al
  404dfa:	75 4a                	jne    404e46 <_ZL21request_taskstats_pidiiiP9taskstatsPm+0x286>
  404dfc:	85 c0                	test   %eax,%eax
  404dfe:	74 bb                	je     404dbb <_ZL21request_taskstats_pidiiiP9taskstatsPm+0x1fb>
  404e00:	0f b6 16             	movzbl (%rsi),%edx
  404e03:	41 88 14 24          	mov    %dl,(%r12)
  404e07:	a8 02                	test   $0x2,%al
  404e09:	74 b0                	je     404dbb <_ZL21request_taskstats_pidiiiP9taskstatsPm+0x1fb>
  404e0b:	89 c2                	mov    %eax,%edx
  404e0d:	0f b7 4c 16 fe       	movzwl -0x2(%rsi,%rdx,1),%ecx
  404e12:	66 41 89 4c 14 fe    	mov    %cx,-0x2(%r12,%rdx,1)
  404e18:	eb a1                	jmp    404dbb <_ZL21request_taskstats_pidiiiP9taskstatsPm+0x1fb>
  404e1a:	66 0f 1f 44 00 00    	nopw   0x0(%rax,%rax,1)
_ZL21request_taskstats_pidiiiP9taskstatsPm():
/home/aliha951/ipdps-artifact/gapbs-master/src/taskstats_helper.h:127
			size_t payload = na->nla_len - NLA_HDRLEN;
  404e20:	8d 42 fc             	lea    -0x4(%rdx),%eax
  404e23:	ba b0 01 00 00       	mov    $0x1b0,%edx
/home/aliha951/ipdps-artifact/gapbs-master/src/taskstats_helper.h:129
			memcpy(out_ts, NLA_DATA(na), payload);
  404e28:	48 8d 71 04          	lea    0x4(%rcx),%rsi
/home/aliha951/ipdps-artifact/gapbs-master/src/taskstats_helper.h:127
			size_t payload = na->nla_len - NLA_HDRLEN;
  404e2c:	48 98                	cltq   
/home/aliha951/ipdps-artifact/gapbs-master/src/taskstats_helper.h:128
			if (payload > sizeof(*out_ts)) payload = sizeof(*out_ts);
  404e2e:	48 3d b0 01 00 00    	cmp    $0x1b0,%rax
  404e34:	48 0f 47 c2          	cmova  %rdx,%rax
memcpy():
/usr/include/x86_64-linux-gnu/bits/string_fortified.h:34
  404e38:	83 f8 08             	cmp    $0x8,%eax
  404e3b:	72 bb                	jb     404df8 <_ZL21request_taskstats_pidiiiP9taskstatsPm+0x238>
  404e3d:	48 8b 51 04          	mov    0x4(%rcx),%rdx
  404e41:	e9 4b ff ff ff       	jmpq   404d91 <_ZL21request_taskstats_pidiiiP9taskstatsPm+0x1d1>
  404e46:	8b 16                	mov    (%rsi),%edx
  404e48:	41 89 14 24          	mov    %edx,(%r12)
  404e4c:	89 c2                	mov    %eax,%edx
  404e4e:	8b 4c 16 fc          	mov    -0x4(%rsi,%rdx,1),%ecx
  404e52:	41 89 4c 14 fc       	mov    %ecx,-0x4(%r12,%rdx,1)
  404e57:	e9 5f ff ff ff       	jmpq   404dbb <_ZL21request_taskstats_pidiiiP9taskstatsPm+0x1fb>
_ZL21request_taskstats_pidiiiP9taskstatsPm():
/home/aliha951/ipdps-artifact/gapbs-master/src/taskstats_helper.h:138
}
  404e5c:	e8 5f eb ff ff       	callq  4039c0 <__stack_chk_fail@plt>
  404e61:	66 66 2e 0f 1f 84 00 	data16 nopw %cs:0x0(%rax,%rax,1)
  404e68:	00 00 00 00 
  404e6c:	0f 1f 40 00          	nopl   0x0(%rax)

0000000000404e70 <_Z8CompressRK8CSRGraphIiiLb1EER7pvectorIiE._omp_fn.0>:
_Z8CompressRK8CSRGraphIiiLb1EER7pvectorIiE._omp_fn.0():
/home/aliha951/ipdps-artifact/gapbs-master/src/cc.cc:60
  #pragma omp parallel for schedule(dynamic, 16384)
  404e70:	f3 0f 1e fa          	endbr64 
  404e74:	41 54                	push   %r12
  404e76:	b9 00 40 00 00       	mov    $0x4000,%ecx
  404e7b:	ba 01 00 00 00       	mov    $0x1,%edx
  404e80:	55                   	push   %rbp
  404e81:	53                   	push   %rbx
  404e82:	48 89 fb             	mov    %rdi,%rbx
  404e85:	48 83 ec 20          	sub    $0x20,%rsp
  404e89:	64 48 8b 04 25 28 00 	mov    %fs:0x28,%rax
  404e90:	00 00 
  404e92:	48 89 44 24 18       	mov    %rax,0x18(%rsp)
  404e97:	31 c0                	xor    %eax,%eax
_ZNK8CSRGraphIiiLb1EE9num_nodesEv():
/home/aliha951/ipdps-artifact/gapbs-master/src/graph.h:194
  bool directed() const {
    return directed_;
  }

  int64_t num_nodes() const {
    return num_nodes_;
  404e99:	48 8b 07             	mov    (%rdi),%rax
  404e9c:	4c 8d 64 24 10       	lea    0x10(%rsp),%r12
  404ea1:	48 8d 6c 24 08       	lea    0x8(%rsp),%rbp
  404ea6:	31 ff                	xor    %edi,%edi
  404ea8:	4d 89 e1             	mov    %r12,%r9
  404eab:	49 89 e8             	mov    %rbp,%r8
  404eae:	48 63 70 08          	movslq 0x8(%rax),%rsi
  404eb2:	e8 99 e9 ff ff       	callq  403850 <GOMP_loop_nonmonotonic_dynamic_start@plt>
  404eb7:	84 c0                	test   %al,%al
  404eb9:	75 34                	jne    404eef <_Z8CompressRK8CSRGraphIiiLb1EER7pvectorIiE._omp_fn.0+0x7f>
  404ebb:	e8 e0 e7 ff ff       	callq  4036a0 <GOMP_loop_end_nowait@plt>
_Z8CompressRK8CSRGraphIiiLb1EER7pvectorIiE._omp_fn.0():
/home/aliha951/ipdps-artifact/gapbs-master/src/cc.cc:60
  404ec0:	48 8b 44 24 18       	mov    0x18(%rsp),%rax
  404ec5:	64 48 2b 04 25 28 00 	sub    %fs:0x28,%rax
  404ecc:	00 00 
  404ece:	75 6b                	jne    404f3b <_Z8CompressRK8CSRGraphIiiLb1EER7pvectorIiE._omp_fn.0+0xcb>
  404ed0:	48 83 c4 20          	add    $0x20,%rsp
  404ed4:	5b                   	pop    %rbx
  404ed5:	5d                   	pop    %rbp
  404ed6:	41 5c                	pop    %r12
  404ed8:	c3                   	retq   
  404ed9:	0f 1f 80 00 00 00 00 	nopl   0x0(%rax)
  404ee0:	4c 89 e6             	mov    %r12,%rsi
  404ee3:	48 89 ef             	mov    %rbp,%rdi
  404ee6:	e8 c5 ea ff ff       	callq  4039b0 <GOMP_loop_nonmonotonic_dynamic_next@plt>
  404eeb:	84 c0                	test   %al,%al
  404eed:	74 cc                	je     404ebb <_Z8CompressRK8CSRGraphIiiLb1EER7pvectorIiE._omp_fn.0+0x4b>
_ZN7pvectorIiEixEm():
/home/aliha951/ipdps-artifact/gapbs-master/src/pvector.h:116
    reserve(num_elements);
    end_size_ = start_ + num_elements;
  }

  T_& operator[](size_t n) {
    return start_[n];
  404eef:	48 8b 53 08          	mov    0x8(%rbx),%rdx
  404ef3:	48 8b 44 24 08       	mov    0x8(%rsp),%rax
  404ef8:	8b 7c 24 10          	mov    0x10(%rsp),%edi
  404efc:	48 8b 0a             	mov    (%rdx),%rcx
  404eff:	89 c6                	mov    %eax,%esi
_Z8CompressRK8CSRGraphIiiLb1EER7pvectorIiE._omp_fn.0():
/home/aliha951/ipdps-artifact/gapbs-master/src/cc.cc:62
    while (comp[n] != comp[comp[n]]) {
  404f01:	48 98                	cltq   
  404f03:	8b 14 81             	mov    (%rcx,%rax,4),%edx
  404f06:	66 2e 0f 1f 84 00 00 	nopw   %cs:0x0(%rax,%rax,1)
  404f0d:	00 00 00 
/home/aliha951/ipdps-artifact/gapbs-master/src/cc.cc:62 (discriminator 1)
  404f10:	48 63 c2             	movslq %edx,%rax
  404f13:	8b 04 81             	mov    (%rcx,%rax,4),%eax
  404f16:	39 d0                	cmp    %edx,%eax
  404f18:	74 12                	je     404f2c <_Z8CompressRK8CSRGraphIiiLb1EER7pvectorIiE._omp_fn.0+0xbc>
/home/aliha951/ipdps-artifact/gapbs-master/src/cc.cc:62
  404f1a:	48 63 d6             	movslq %esi,%rdx
/home/aliha951/ipdps-artifact/gapbs-master/src/cc.cc:63
      comp[n] = comp[comp[n]];
  404f1d:	89 04 91             	mov    %eax,(%rcx,%rdx,4)
/home/aliha951/ipdps-artifact/gapbs-master/src/cc.cc:62
    while (comp[n] != comp[comp[n]]) {
  404f20:	89 c2                	mov    %eax,%edx
  404f22:	48 63 c2             	movslq %edx,%rax
  404f25:	8b 04 81             	mov    (%rcx,%rax,4),%eax
  404f28:	39 d0                	cmp    %edx,%eax
  404f2a:	75 ee                	jne    404f1a <_Z8CompressRK8CSRGraphIiiLb1EER7pvectorIiE._omp_fn.0+0xaa>
  404f2c:	83 c6 01             	add    $0x1,%esi
  404f2f:	39 f7                	cmp    %esi,%edi
  404f31:	7e ad                	jle    404ee0 <_Z8CompressRK8CSRGraphIiiLb1EER7pvectorIiE._omp_fn.0+0x70>
  404f33:	48 63 c6             	movslq %esi,%rax
  404f36:	8b 14 81             	mov    (%rcx,%rax,4),%edx
  404f39:	eb d5                	jmp    404f10 <_Z8CompressRK8CSRGraphIiiLb1EER7pvectorIiE._omp_fn.0+0xa0>
/home/aliha951/ipdps-artifact/gapbs-master/src/cc.cc:60
  #pragma omp parallel for schedule(dynamic, 16384)
  404f3b:	e8 80 ea ff ff       	callq  4039c0 <__stack_chk_fail@plt>

0000000000404f40 <_Z8AfforestRK8CSRGraphIiiLb1EEbi._omp_fn.0>:
_Z8AfforestRK8CSRGraphIiiLb1EEbi._omp_fn.0():
/home/aliha951/ipdps-artifact/gapbs-master/src/cc.cc:100
  #pragma omp parallel for
  404f40:	f3 0f 1e fa          	endbr64 
  404f44:	55                   	push   %rbp
  404f45:	53                   	push   %rbx
  404f46:	48 89 fb             	mov    %rdi,%rbx
  404f49:	48 83 ec 08          	sub    $0x8,%rsp
  404f4d:	e8 ce eb ff ff       	callq  403b20 <omp_get_num_threads@plt>
  404f52:	89 c5                	mov    %eax,%ebp
  404f54:	e8 97 ea ff ff       	callq  4039f0 <omp_get_thread_num@plt>
  404f59:	89 c1                	mov    %eax,%ecx
_ZNK8CSRGraphIiiLb1EE9num_nodesEv():
/home/aliha951/ipdps-artifact/gapbs-master/src/graph.h:194
  404f5b:	48 8b 03             	mov    (%rbx),%rax
_Z8AfforestRK8CSRGraphIiiLb1EEbi._omp_fn.0():
/home/aliha951/ipdps-artifact/gapbs-master/src/cc.cc:101
  for (NodeID n = 0; n < g.num_nodes(); n++)
  404f5e:	48 8b 40 08          	mov    0x8(%rax),%rax
  404f62:	99                   	cltd   
  404f63:	f7 fd                	idiv   %ebp
  404f65:	39 d1                	cmp    %edx,%ecx
  404f67:	0f 8c a3 00 00 00    	jl     405010 <_Z8AfforestRK8CSRGraphIiiLb1EEbi._omp_fn.0+0xd0>
  404f6d:	0f af c8             	imul   %eax,%ecx
  404f70:	01 ca                	add    %ecx,%edx
  404f72:	8d 3c 10             	lea    (%rax,%rdx,1),%edi
  404f75:	39 fa                	cmp    %edi,%edx
  404f77:	0f 8d 86 00 00 00    	jge    405003 <_Z8AfforestRK8CSRGraphIiiLb1EEbi._omp_fn.0+0xc3>
_ZN7pvectorIiEixEm():
/home/aliha951/ipdps-artifact/gapbs-master/src/pvector.h:116
  404f7d:	48 8b 4b 08          	mov    0x8(%rbx),%rcx
  404f81:	4c 8b 01             	mov    (%rcx),%r8
  404f84:	8d 48 ff             	lea    -0x1(%rax),%ecx
  404f87:	83 f9 02             	cmp    $0x2,%ecx
  404f8a:	76 54                	jbe    404fe0 <_Z8AfforestRK8CSRGraphIiiLb1EEbi._omp_fn.0+0xa0>
  404f8c:	89 c6                	mov    %eax,%esi
  404f8e:	66 0f 6e da          	movd   %edx,%xmm3
  404f92:	48 63 ca             	movslq %edx,%rcx
  404f95:	66 0f 6f 15 a3 10 01 	movdqa 0x110a3(%rip),%xmm2        # 416040 <_ZZNSt8__detail18__to_chars_10_implIjEEvPcjT_E8__digits+0xe0>
  404f9c:	00 
  404f9d:	c1 ee 02             	shr    $0x2,%esi
  404fa0:	66 0f 70 c3 00       	pshufd $0x0,%xmm3,%xmm0
  404fa5:	49 8d 0c 88          	lea    (%r8,%rcx,4),%rcx
  404fa9:	48 c1 e6 04          	shl    $0x4,%rsi
  404fad:	66 0f fe 05 7b 10 01 	paddd  0x1107b(%rip),%xmm0        # 416030 <_ZZNSt8__detail18__to_chars_10_implIjEEvPcjT_E8__digits+0xd0>
  404fb4:	00 
  404fb5:	48 01 ce             	add    %rcx,%rsi
  404fb8:	0f 1f 84 00 00 00 00 	nopl   0x0(%rax,%rax,1)
  404fbf:	00 
  404fc0:	66 0f 6f c8          	movdqa %xmm0,%xmm1
  404fc4:	48 83 c1 10          	add    $0x10,%rcx
  404fc8:	66 0f fe c2          	paddd  %xmm2,%xmm0
_Z8AfforestRK8CSRGraphIiiLb1EEbi._omp_fn.0():
/home/aliha951/ipdps-artifact/gapbs-master/src/cc.cc:102 (discriminator 1)
    comp[n] = n;
  404fcc:	0f 11 49 f0          	movups %xmm1,-0x10(%rcx)
  404fd0:	48 39 f1             	cmp    %rsi,%rcx
  404fd3:	75 eb                	jne    404fc0 <_Z8AfforestRK8CSRGraphIiiLb1EEbi._omp_fn.0+0x80>
  404fd5:	89 c1                	mov    %eax,%ecx
  404fd7:	83 e1 fc             	and    $0xfffffffc,%ecx
  404fda:	01 ca                	add    %ecx,%edx
  404fdc:	39 c8                	cmp    %ecx,%eax
  404fde:	74 23                	je     405003 <_Z8AfforestRK8CSRGraphIiiLb1EEbi._omp_fn.0+0xc3>
/home/aliha951/ipdps-artifact/gapbs-master/src/cc.cc:102
  404fe0:	48 63 c2             	movslq %edx,%rax
  404fe3:	41 89 14 80          	mov    %edx,(%r8,%rax,4)
  404fe7:	8d 42 01             	lea    0x1(%rdx),%eax
  404fea:	39 c7                	cmp    %eax,%edi
  404fec:	7e 15                	jle    405003 <_Z8AfforestRK8CSRGraphIiiLb1EEbi._omp_fn.0+0xc3>
  404fee:	48 63 c8             	movslq %eax,%rcx
  404ff1:	83 c2 02             	add    $0x2,%edx
  404ff4:	41 89 04 88          	mov    %eax,(%r8,%rcx,4)
  404ff8:	39 d7                	cmp    %edx,%edi
  404ffa:	7e 07                	jle    405003 <_Z8AfforestRK8CSRGraphIiiLb1EEbi._omp_fn.0+0xc3>
  404ffc:	48 63 c2             	movslq %edx,%rax
  404fff:	41 89 14 80          	mov    %edx,(%r8,%rax,4)
/home/aliha951/ipdps-artifact/gapbs-master/src/cc.cc:100
  #pragma omp parallel for
  405003:	48 83 c4 08          	add    $0x8,%rsp
  405007:	5b                   	pop    %rbx
  405008:	5d                   	pop    %rbp
  405009:	c3                   	retq   
  40500a:	66 0f 1f 44 00 00    	nopw   0x0(%rax,%rax,1)
  405010:	83 c0 01             	add    $0x1,%eax
/home/aliha951/ipdps-artifact/gapbs-master/src/cc.cc:101
  for (NodeID n = 0; n < g.num_nodes(); n++)
  405013:	31 d2                	xor    %edx,%edx
  405015:	e9 53 ff ff ff       	jmpq   404f6d <_Z8AfforestRK8CSRGraphIiiLb1EEbi._omp_fn.0+0x2d>
  40501a:	66 0f 1f 44 00 00    	nopw   0x0(%rax,%rax,1)

0000000000405020 <_ZN8CSRGraphIiiLb1EE8GenIndexERK7pvectorIlEPi._omp_fn.0>:
_ZN8CSRGraphIiiLb1EE8GenIndexERK7pvectorIlEPi._omp_fn.0():
/home/aliha951/ipdps-artifact/gapbs-master/src/graph.h:245
  }

  static DestID_** GenIndex(const pvector<SGOffset> &offsets, DestID_* neighs) {
    NodeID_ length = offsets.size();
    DestID_** index = new DestID_*[length];
    #pragma omp parallel for
  405020:	f3 0f 1e fa          	endbr64 
  405024:	55                   	push   %rbp
  405025:	53                   	push   %rbx
  405026:	48 89 fb             	mov    %rdi,%rbx
  405029:	48 83 ec 08          	sub    $0x8,%rsp
  40502d:	e8 ee ea ff ff       	callq  403b20 <omp_get_num_threads@plt>
  405032:	89 c5                	mov    %eax,%ebp
  405034:	e8 b7 e9 ff ff       	callq  4039f0 <omp_get_thread_num@plt>
  405039:	89 c1                	mov    %eax,%ecx
  40503b:	8b 43 18             	mov    0x18(%rbx),%eax
  40503e:	99                   	cltd   
  40503f:	f7 fd                	idiv   %ebp
  405041:	39 d1                	cmp    %edx,%ecx
  405043:	7c 43                	jl     405088 <_ZN8CSRGraphIiiLb1EE8GenIndexERK7pvectorIlEPi._omp_fn.0+0x68>
  405045:	0f af c8             	imul   %eax,%ecx
  405048:	01 ca                	add    %ecx,%edx
  40504a:	01 d0                	add    %edx,%eax
  40504c:	39 c2                	cmp    %eax,%edx
  40504e:	7d 2c                	jge    40507c <_ZN8CSRGraphIiiLb1EE8GenIndexERK7pvectorIlEPi._omp_fn.0+0x5c>
_ZNK7pvectorIlEixEm():
/home/aliha951/ipdps-artifact/gapbs-master/src/pvector.h:120
  }

  const T_& operator[](size_t n) const {
    return start_[n];
  405050:	48 8b 0b             	mov    (%rbx),%rcx
_ZN8CSRGraphIiiLb1EE8GenIndexERK7pvectorIlEPi._omp_fn.0():
/home/aliha951/ipdps-artifact/gapbs-master/src/graph.h:245
  405053:	4c 8b 43 10          	mov    0x10(%rbx),%r8
  405057:	48 63 d2             	movslq %edx,%rdx
  40505a:	48 8b 7b 08          	mov    0x8(%rbx),%rdi
_ZNK7pvectorIlEixEm():
/home/aliha951/ipdps-artifact/gapbs-master/src/pvector.h:120
  40505e:	48 8b 31             	mov    (%rcx),%rsi
  405061:	0f 1f 80 00 00 00 00 	nopl   0x0(%rax)
_ZN8CSRGraphIiiLb1EE8GenIndexERK7pvectorIlEPi._omp_fn.0():
/home/aliha951/ipdps-artifact/gapbs-master/src/graph.h:247 (discriminator 1)
    for (NodeID_ n=0; n < length; n++)
      index[n] = neighs + offsets[n];
  405068:	48 8b 0c d6          	mov    (%rsi,%rdx,8),%rcx
  40506c:	48 8d 0c 8f          	lea    (%rdi,%rcx,4),%rcx
  405070:	49 89 0c d0          	mov    %rcx,(%r8,%rdx,8)
  405074:	48 83 c2 01          	add    $0x1,%rdx
  405078:	39 d0                	cmp    %edx,%eax
  40507a:	7f ec                	jg     405068 <_ZN8CSRGraphIiiLb1EE8GenIndexERK7pvectorIlEPi._omp_fn.0+0x48>
/home/aliha951/ipdps-artifact/gapbs-master/src/graph.h:245
    #pragma omp parallel for
  40507c:	48 83 c4 08          	add    $0x8,%rsp
  405080:	5b                   	pop    %rbx
  405081:	5d                   	pop    %rbp
  405082:	c3                   	retq   
  405083:	0f 1f 44 00 00       	nopl   0x0(%rax,%rax,1)
  405088:	83 c0 01             	add    $0x1,%eax
  40508b:	31 d2                	xor    %edx,%edx
  40508d:	eb b6                	jmp    405045 <_ZN8CSRGraphIiiLb1EE8GenIndexERK7pvectorIlEPi._omp_fn.0+0x25>
  40508f:	90                   	nop

0000000000405090 <_ZN7pvectorI8EdgePairIiiEE7reserveEm._omp_fn.0>:
_ZN7pvectorI8EdgePairIiiEE7reserveEm._omp_fn.0():
/home/aliha951/ipdps-artifact/gapbs-master/src/pvector.h:86
      #pragma omp parallel for
  405090:	f3 0f 1e fa          	endbr64 
  405094:	41 55                	push   %r13
  405096:	41 54                	push   %r12
  405098:	55                   	push   %rbp
  405099:	53                   	push   %rbx
  40509a:	48 83 ec 08          	sub    $0x8,%rsp
  40509e:	48 8b 07             	mov    (%rdi),%rax
_ZNK7pvectorI8EdgePairIiiEE4sizeEv():
/home/aliha951/ipdps-artifact/gapbs-master/src/pvector.h:143
  size_t capacity() const {
    return end_capacity_ - start_;
  }

  size_t size() const {
    return end_size_ - start_;
  4050a1:	4c 8b 20             	mov    (%rax),%r12
  4050a4:	48 8b 40 08          	mov    0x8(%rax),%rax
  4050a8:	4c 29 e0             	sub    %r12,%rax
  4050ab:	48 c1 f8 03          	sar    $0x3,%rax
  4050af:	74 50                	je     405101 <_ZN7pvectorI8EdgePairIiiEE7reserveEm._omp_fn.0+0x71>
  4050b1:	49 89 fd             	mov    %rdi,%r13
  4050b4:	48 89 c3             	mov    %rax,%rbx
  4050b7:	e8 64 ea ff ff       	callq  403b20 <omp_get_num_threads@plt>
  4050bc:	89 c5                	mov    %eax,%ebp
  4050be:	e8 2d e9 ff ff       	callq  4039f0 <omp_get_thread_num@plt>
  4050c3:	48 63 f5             	movslq %ebp,%rsi
  4050c6:	31 d2                	xor    %edx,%edx
  4050c8:	48 63 c8             	movslq %eax,%rcx
  4050cb:	48 89 d8             	mov    %rbx,%rax
  4050ce:	48 f7 f6             	div    %rsi
  4050d1:	48 39 d1             	cmp    %rdx,%rcx
  4050d4:	72 3a                	jb     405110 <_ZN7pvectorI8EdgePairIiiEE7reserveEm._omp_fn.0+0x80>
  4050d6:	48 0f af c8          	imul   %rax,%rcx
  4050da:	48 01 ca             	add    %rcx,%rdx
  4050dd:	48 01 d0             	add    %rdx,%rax
  4050e0:	48 39 c2             	cmp    %rax,%rdx
  4050e3:	73 1c                	jae    405101 <_ZN7pvectorI8EdgePairIiiEE7reserveEm._omp_fn.0+0x71>
_ZN7pvectorI8EdgePairIiiEE7reserveEm._omp_fn.0():
/home/aliha951/ipdps-artifact/gapbs-master/src/pvector.h:86
      #pragma omp parallel for
  4050e5:	49 8b 75 08          	mov    0x8(%r13),%rsi
  4050e9:	0f 1f 80 00 00 00 00 	nopl   0x0(%rax)
/home/aliha951/ipdps-artifact/gapbs-master/src/pvector.h:88 (discriminator 1)
        new_range[i] = start_[i];
  4050f0:	49 8b 0c d4          	mov    (%r12,%rdx,8),%rcx
  4050f4:	48 89 0c d6          	mov    %rcx,(%rsi,%rdx,8)
  4050f8:	48 83 c2 01          	add    $0x1,%rdx
  4050fc:	48 39 d0             	cmp    %rdx,%rax
  4050ff:	75 ef                	jne    4050f0 <_ZN7pvectorI8EdgePairIiiEE7reserveEm._omp_fn.0+0x60>
/home/aliha951/ipdps-artifact/gapbs-master/src/pvector.h:86
      #pragma omp parallel for
  405101:	48 83 c4 08          	add    $0x8,%rsp
  405105:	5b                   	pop    %rbx
  405106:	5d                   	pop    %rbp
  405107:	41 5c                	pop    %r12
  405109:	41 5d                	pop    %r13
  40510b:	c3                   	retq   
  40510c:	0f 1f 40 00          	nopl   0x0(%rax)
  405110:	48 83 c0 01          	add    $0x1,%rax
_ZNK7pvectorI8EdgePairIiiEE4sizeEv():
/home/aliha951/ipdps-artifact/gapbs-master/src/pvector.h:143
    return end_size_ - start_;
  405114:	31 d2                	xor    %edx,%edx
  405116:	eb be                	jmp    4050d6 <_ZN7pvectorI8EdgePairIiiEE7reserveEm._omp_fn.0+0x46>
_ZN7pvectorI8EdgePairIiiEE7reserveEm._omp_fn.0():
/home/aliha951/ipdps-artifact/gapbs-master/src/pvector.h:143
  405118:	0f 1f 84 00 00 00 00 	nopl   0x0(%rax,%rax,1)
  40511f:	00 

0000000000405120 <_ZN11BuilderBaseIiiiLb1EE12CountDegreesERK7pvectorI8EdgePairIiiEEb._omp_fn.0>:
_ZN11BuilderBaseIiiiLb1EE12CountDegreesERK7pvectorI8EdgePairIiiEEb._omp_fn.0():
/home/aliha951/ipdps-artifact/gapbs-master/src/builder.h:82
    return max_seen;
  }

  pvector<NodeID_> CountDegrees(const EdgeList &el, bool transpose) {
    pvector<NodeID_> degrees(num_nodes_, 0);
    #pragma omp parallel for
  405120:	f3 0f 1e fa          	endbr64 
  405124:	41 55                	push   %r13
  405126:	41 54                	push   %r12
  405128:	55                   	push   %rbp
  405129:	53                   	push   %rbx
  40512a:	48 83 ec 08          	sub    $0x8,%rsp
/home/aliha951/ipdps-artifact/gapbs-master/src/builder.h:83
    for (auto it = el.begin(); it < el.end(); it++) {
  40512e:	48 8b 47 08          	mov    0x8(%rdi),%rax
_ZNK7pvectorI8EdgePairIiiEE5beginEv():
/home/aliha951/ipdps-artifact/gapbs-master/src/pvector.h:147
  }

  iterator begin() const {
    return start_;
  405132:	4c 8b 20             	mov    (%rax),%r12
_ZNK7pvectorI8EdgePairIiiEE3endEv():
/home/aliha951/ipdps-artifact/gapbs-master/src/pvector.h:151
  }

  iterator end() const {
    return end_size_;
  405135:	4c 8b 68 08          	mov    0x8(%rax),%r13
  405139:	4d 39 e5             	cmp    %r12,%r13
  40513c:	0f 86 8a 00 00 00    	jbe    4051cc <_ZN11BuilderBaseIiiiLb1EE12CountDegreesERK7pvectorI8EdgePairIiiEEb._omp_fn.0+0xac>
  405142:	48 89 fb             	mov    %rdi,%rbx
  405145:	e8 d6 e9 ff ff       	callq  403b20 <omp_get_num_threads@plt>
  40514a:	48 63 e8             	movslq %eax,%rbp
  40514d:	e8 9e e8 ff ff       	callq  4039f0 <omp_get_thread_num@plt>
  405152:	48 63 c8             	movslq %eax,%rcx
  405155:	49 8d 45 07          	lea    0x7(%r13),%rax
  405159:	4c 29 e0             	sub    %r12,%rax
  40515c:	48 89 c2             	mov    %rax,%rdx
  40515f:	48 8d 40 07          	lea    0x7(%rax),%rax
  405163:	48 0f 49 c2          	cmovns %rdx,%rax
  405167:	48 c1 f8 03          	sar    $0x3,%rax
  40516b:	48 99                	cqto   
  40516d:	48 f7 fd             	idiv   %rbp
  405170:	48 39 d1             	cmp    %rdx,%rcx
  405173:	7c 6b                	jl     4051e0 <_ZN11BuilderBaseIiiiLb1EE12CountDegreesERK7pvectorI8EdgePairIiiEEb._omp_fn.0+0xc0>
  405175:	48 0f af c8          	imul   %rax,%rcx
  405179:	48 01 ca             	add    %rcx,%rdx
  40517c:	48 01 d0             	add    %rdx,%rax
  40517f:	48 39 c2             	cmp    %rax,%rdx
  405182:	7d 48                	jge    4051cc <_ZN11BuilderBaseIiiiLb1EE12CountDegreesERK7pvectorI8EdgePairIiiEEb._omp_fn.0+0xac>
  405184:	80 7b 18 00          	cmpb   $0x0,0x18(%rbx)
_ZN11BuilderBaseIiiiLb1EE12CountDegreesERK7pvectorI8EdgePairIiiEEb._omp_fn.0():
/home/aliha951/ipdps-artifact/gapbs-master/src/builder.h:82
    #pragma omp parallel for
  405188:	48 8b 3b             	mov    (%rbx),%rdi
  40518b:	49 8d 14 d4          	lea    (%r12,%rdx,8),%rdx
  40518f:	4d 8d 04 c4          	lea    (%r12,%rax,8),%r8
  405193:	75 53                	jne    4051e8 <_ZN11BuilderBaseIiiiLb1EE12CountDegreesERK7pvectorI8EdgePairIiiEEb._omp_fn.0+0xc8>
  405195:	0f 1f 00             	nopl   (%rax)
_ZN7pvectorIiEixEm():
/home/aliha951/ipdps-artifact/gapbs-master/src/pvector.h:116
    return start_[n];
  405198:	48 8b 4b 10          	mov    0x10(%rbx),%rcx
_ZN11BuilderBaseIiiiLb1EE12CountDegreesERK7pvectorI8EdgePairIiiEEb._omp_fn.0():
/home/aliha951/ipdps-artifact/gapbs-master/src/builder.h:84
      Edge e = *it;
  40519c:	48 63 42 04          	movslq 0x4(%rdx),%rax
/home/aliha951/ipdps-artifact/gapbs-master/src/builder.h:86
      if (symmetrize_ || (!symmetrize_ && !transpose))
        fetch_and_add(degrees[e.u], 1);
  4051a0:	48 63 32             	movslq (%rdx),%rsi
_Z13fetch_and_addIiiET_RS0_T0_():
/home/aliha951/ipdps-artifact/gapbs-master/src/platform_atomics.h:26

    // gcc/clang/icc instrinsics

    template<typename T, typename U>
    T fetch_and_add(T &x, U inc) {
      return __sync_fetch_and_add(&x, inc);
  4051a3:	48 8b 09             	mov    (%rcx),%rcx
  4051a6:	f0 83 04 b1 01       	lock addl $0x1,(%rcx,%rsi,4)
_ZN11BuilderBaseIiiiLb1EE12CountDegreesERK7pvectorI8EdgePairIiiEEb._omp_fn.0():
/home/aliha951/ipdps-artifact/gapbs-master/src/builder.h:87
      if ((symmetrize_ && !in_place_) || (!symmetrize_ && transpose))
  4051ab:	80 7f 08 00          	cmpb   $0x0,0x8(%rdi)
  4051af:	74 12                	je     4051c3 <_ZN11BuilderBaseIiiiLb1EE12CountDegreesERK7pvectorI8EdgePairIiiEEb._omp_fn.0+0xa3>
  4051b1:	80 7f 0a 00          	cmpb   $0x0,0xa(%rdi)
  4051b5:	75 0c                	jne    4051c3 <_ZN11BuilderBaseIiiiLb1EE12CountDegreesERK7pvectorI8EdgePairIiiEEb._omp_fn.0+0xa3>
_ZN7pvectorIiEixEm():
/home/aliha951/ipdps-artifact/gapbs-master/src/pvector.h:116
  4051b7:	48 8b 4b 10          	mov    0x10(%rbx),%rcx
_Z13fetch_and_addIiiET_RS0_T0_():
/home/aliha951/ipdps-artifact/gapbs-master/src/platform_atomics.h:26
  4051bb:	48 8b 09             	mov    (%rcx),%rcx
  4051be:	f0 83 04 81 01       	lock addl $0x1,(%rcx,%rax,4)
  4051c3:	48 83 c2 08          	add    $0x8,%rdx
  4051c7:	49 39 d0             	cmp    %rdx,%r8
  4051ca:	77 cc                	ja     405198 <_ZN11BuilderBaseIiiiLb1EE12CountDegreesERK7pvectorI8EdgePairIiiEEb._omp_fn.0+0x78>
_ZN11BuilderBaseIiiiLb1EE12CountDegreesERK7pvectorI8EdgePairIiiEEb._omp_fn.0():
/home/aliha951/ipdps-artifact/gapbs-master/src/builder.h:82
    #pragma omp parallel for
  4051cc:	48 83 c4 08          	add    $0x8,%rsp
  4051d0:	5b                   	pop    %rbx
  4051d1:	5d                   	pop    %rbp
  4051d2:	41 5c                	pop    %r12
  4051d4:	41 5d                	pop    %r13
  4051d6:	c3                   	retq   
  4051d7:	66 0f 1f 84 00 00 00 	nopw   0x0(%rax,%rax,1)
  4051de:	00 00 
  4051e0:	48 83 c0 01          	add    $0x1,%rax
_ZNK7pvectorI8EdgePairIiiEE3endEv():
/home/aliha951/ipdps-artifact/gapbs-master/src/pvector.h:151
    return end_size_;
  4051e4:	31 d2                	xor    %edx,%edx
  4051e6:	eb 8d                	jmp    405175 <_ZN11BuilderBaseIiiiLb1EE12CountDegreesERK7pvectorI8EdgePairIiiEEb._omp_fn.0+0x55>
_ZN11BuilderBaseIiiiLb1EE12CountDegreesERK7pvectorI8EdgePairIiiEEb._omp_fn.0():
/home/aliha951/ipdps-artifact/gapbs-master/src/builder.h:85
      if (symmetrize_ || (!symmetrize_ && !transpose))
  4051e8:	80 7f 08 00          	cmpb   $0x0,0x8(%rdi)
/home/aliha951/ipdps-artifact/gapbs-master/src/builder.h:84
      Edge e = *it;
  4051ec:	48 63 42 04          	movslq 0x4(%rdx),%rax
/home/aliha951/ipdps-artifact/gapbs-master/src/builder.h:85
      if (symmetrize_ || (!symmetrize_ && !transpose))
  4051f0:	74 1b                	je     40520d <_ZN11BuilderBaseIiiiLb1EE12CountDegreesERK7pvectorI8EdgePairIiiEEb._omp_fn.0+0xed>
_ZN7pvectorIiEixEm():
/home/aliha951/ipdps-artifact/gapbs-master/src/pvector.h:116
    return start_[n];
  4051f2:	48 8b 4b 10          	mov    0x10(%rbx),%rcx
_ZN11BuilderBaseIiiiLb1EE12CountDegreesERK7pvectorI8EdgePairIiiEEb._omp_fn.0():
/home/aliha951/ipdps-artifact/gapbs-master/src/builder.h:86
        fetch_and_add(degrees[e.u], 1);
  4051f6:	48 63 32             	movslq (%rdx),%rsi
_Z13fetch_and_addIiiET_RS0_T0_():
/home/aliha951/ipdps-artifact/gapbs-master/src/platform_atomics.h:26
  4051f9:	48 8b 09             	mov    (%rcx),%rcx
  4051fc:	f0 83 04 b1 01       	lock addl $0x1,(%rcx,%rsi,4)
_ZN11BuilderBaseIiiiLb1EE12CountDegreesERK7pvectorI8EdgePairIiiEEb._omp_fn.0():
/home/aliha951/ipdps-artifact/gapbs-master/src/builder.h:87
      if ((symmetrize_ && !in_place_) || (!symmetrize_ && transpose))
  405201:	80 7f 08 00          	cmpb   $0x0,0x8(%rdi)
  405205:	74 06                	je     40520d <_ZN11BuilderBaseIiiiLb1EE12CountDegreesERK7pvectorI8EdgePairIiiEEb._omp_fn.0+0xed>
/home/aliha951/ipdps-artifact/gapbs-master/src/builder.h:87 (discriminator 1)
  405207:	80 7f 0a 00          	cmpb   $0x0,0xa(%rdi)
  40520b:	75 0c                	jne    405219 <_ZN11BuilderBaseIiiiLb1EE12CountDegreesERK7pvectorI8EdgePairIiiEEb._omp_fn.0+0xf9>
_ZN7pvectorIiEixEm():
/home/aliha951/ipdps-artifact/gapbs-master/src/pvector.h:116
  40520d:	48 8b 4b 10          	mov    0x10(%rbx),%rcx
_Z13fetch_and_addIiiET_RS0_T0_():
/home/aliha951/ipdps-artifact/gapbs-master/src/platform_atomics.h:26
  405211:	48 8b 09             	mov    (%rcx),%rcx
  405214:	f0 83 04 81 01       	lock addl $0x1,(%rcx,%rax,4)
  405219:	48 83 c2 08          	add    $0x8,%rdx
  40521d:	49 39 d0             	cmp    %rdx,%r8
  405220:	77 c6                	ja     4051e8 <_ZN11BuilderBaseIiiiLb1EE12CountDegreesERK7pvectorI8EdgePairIiiEEb._omp_fn.0+0xc8>
  405222:	eb a8                	jmp    4051cc <_ZN11BuilderBaseIiiiLb1EE12CountDegreesERK7pvectorI8EdgePairIiiEEb._omp_fn.0+0xac>
_ZN11BuilderBaseIiiiLb1EE12CountDegreesERK7pvectorI8EdgePairIiiEEb._omp_fn.0():
/home/aliha951/ipdps-artifact/gapbs-master/src/platform_atomics.h:26
  405224:	66 66 2e 0f 1f 84 00 	data16 nopw %cs:0x0(%rax,%rax,1)
  40522b:	00 00 00 00 
  40522f:	90                   	nop

0000000000405230 <_ZN11BuilderBaseIiiiLb1EE17ParallelPrefixSumERK7pvectorIiE._omp_fn.0>:
_ZN11BuilderBaseIiiiLb1EE17ParallelPrefixSumERK7pvectorIiE._omp_fn.0():
/home/aliha951/ipdps-artifact/gapbs-master/src/builder.h:110
  static
  pvector<SGOffset> ParallelPrefixSum(const pvector<NodeID_> &degrees) {
    const size_t block_size = 1<<20;
    const size_t num_blocks = (degrees.size() + block_size - 1) / block_size;
    pvector<SGOffset> local_sums(num_blocks);
    #pragma omp parallel for
  405230:	f3 0f 1e fa          	endbr64 
  405234:	41 54                	push   %r12
  405236:	55                   	push   %rbp
  405237:	53                   	push   %rbx
  405238:	48 8b 5f 08          	mov    0x8(%rdi),%rbx
  40523c:	48 85 db             	test   %rbx,%rbx
  40523f:	0f 84 4d 01 00 00    	je     405392 <_ZN11BuilderBaseIiiiLb1EE17ParallelPrefixSumERK7pvectorIiE._omp_fn.0+0x162>
  405245:	49 89 fc             	mov    %rdi,%r12
  405248:	e8 d3 e8 ff ff       	callq  403b20 <omp_get_num_threads@plt>
  40524d:	89 c5                	mov    %eax,%ebp
  40524f:	e8 9c e7 ff ff       	callq  4039f0 <omp_get_thread_num@plt>
  405254:	48 63 cd             	movslq %ebp,%rcx
  405257:	31 d2                	xor    %edx,%edx
  405259:	48 63 f0             	movslq %eax,%rsi
  40525c:	48 89 d8             	mov    %rbx,%rax
  40525f:	48 f7 f1             	div    %rcx
  405262:	48 39 d6             	cmp    %rdx,%rsi
  405265:	0f 82 3d 01 00 00    	jb     4053a8 <_ZN11BuilderBaseIiiiLb1EE17ParallelPrefixSumERK7pvectorIiE._omp_fn.0+0x178>
  40526b:	48 0f af f0          	imul   %rax,%rsi
  40526f:	48 01 d6             	add    %rdx,%rsi
  405272:	48 01 f0             	add    %rsi,%rax
  405275:	48 39 c6             	cmp    %rax,%rsi
  405278:	0f 83 14 01 00 00    	jae    405392 <_ZN11BuilderBaseIiiiLb1EE17ParallelPrefixSumERK7pvectorIiE._omp_fn.0+0x162>
/home/aliha951/ipdps-artifact/gapbs-master/src/builder.h:113
    for (size_t block=0; block < num_blocks; block++) {
      SGOffset lsum = 0;
      size_t block_end = std::min((block + 1) * block_size, degrees.size());
  40527e:	49 8b 14 24          	mov    (%r12),%rdx
  405282:	49 89 f0             	mov    %rsi,%r8
/home/aliha951/ipdps-artifact/gapbs-master/src/builder.h:115
      for (size_t i=block * block_size; i < block_end; i++)
        lsum += degrees[i];
  405285:	66 0f ef e4          	pxor   %xmm4,%xmm4
  405289:	49 c1 e0 14          	shl    $0x14,%r8
_ZNK7pvectorIiE4sizeEv():
/home/aliha951/ipdps-artifact/gapbs-master/src/pvector.h:143
    return end_size_ - start_;
  40528d:	4c 8b 1a             	mov    (%rdx),%r11
  405290:	4c 8b 52 08          	mov    0x8(%rdx),%r10
_ZN7pvectorIlEixEm():
/home/aliha951/ipdps-artifact/gapbs-master/src/pvector.h:116
    return start_[n];
  405294:	49 8b 54 24 10       	mov    0x10(%r12),%rdx
_ZNK7pvectorIiE4sizeEv():
/home/aliha951/ipdps-artifact/gapbs-master/src/pvector.h:143
    return end_size_ - start_;
  405299:	4d 29 da             	sub    %r11,%r10
_ZN7pvectorIlEixEm():
/home/aliha951/ipdps-artifact/gapbs-master/src/pvector.h:116
    return start_[n];
  40529c:	48 8b 12             	mov    (%rdx),%rdx
_ZNK7pvectorIiE4sizeEv():
/home/aliha951/ipdps-artifact/gapbs-master/src/pvector.h:143
    return end_size_ - start_;
  40529f:	49 c1 fa 02          	sar    $0x2,%r10
  4052a3:	4c 8d 0c f2          	lea    (%rdx,%rsi,8),%r9
  4052a7:	48 c1 e6 16          	shl    $0x16,%rsi
  4052ab:	48 8d 2c c2          	lea    (%rdx,%rax,8),%rbp
  4052af:	4c 01 de             	add    %r11,%rsi
  4052b2:	66 0f 1f 44 00 00    	nopw   0x0(%rax,%rax,1)
/home/aliha951/ipdps-artifact/gapbs-master/src/pvector.h:142
  size_t size() const {
  4052b8:	4c 89 c1             	mov    %r8,%rcx
_ZN11BuilderBaseIiiiLb1EE17ParallelPrefixSumERK7pvectorIiE._omp_fn.0():
/home/aliha951/ipdps-artifact/gapbs-master/src/builder.h:113
      size_t block_end = std::min((block + 1) * block_size, degrees.size());
  4052bb:	49 81 c0 00 00 10 00 	add    $0x100000,%r8
  4052c2:	4c 89 d3             	mov    %r10,%rbx
  4052c5:	4d 39 d0             	cmp    %r10,%r8
  4052c8:	49 0f 46 d8          	cmovbe %r8,%rbx
/home/aliha951/ipdps-artifact/gapbs-master/src/builder.h:114
      for (size_t i=block * block_size; i < block_end; i++)
  4052cc:	48 39 cb             	cmp    %rcx,%rbx
  4052cf:	0f 86 cb 00 00 00    	jbe    4053a0 <_ZN11BuilderBaseIiiiLb1EE17ParallelPrefixSumERK7pvectorIiE._omp_fn.0+0x170>
  4052d5:	48 89 df             	mov    %rbx,%rdi
  4052d8:	48 29 cf             	sub    %rcx,%rdi
  4052db:	48 8d 47 ff          	lea    -0x1(%rdi),%rax
  4052df:	48 83 f8 02          	cmp    $0x2,%rax
  4052e3:	0f 86 bb 00 00 00    	jbe    4053a4 <_ZN11BuilderBaseIiiiLb1EE17ParallelPrefixSumERK7pvectorIiE._omp_fn.0+0x174>
  4052e9:	48 89 fa             	mov    %rdi,%rdx
  4052ec:	48 89 f0             	mov    %rsi,%rax
  4052ef:	66 0f ef c9          	pxor   %xmm1,%xmm1
  4052f3:	48 c1 ea 02          	shr    $0x2,%rdx
  4052f7:	48 c1 e2 04          	shl    $0x4,%rdx
  4052fb:	48 01 f2             	add    %rsi,%rdx
  4052fe:	66 90                	xchg   %ax,%ax
/home/aliha951/ipdps-artifact/gapbs-master/src/builder.h:115 (discriminator 2)
        lsum += degrees[i];
  405300:	f3 0f 6f 00          	movdqu (%rax),%xmm0
  405304:	66 0f 6f d4          	movdqa %xmm4,%xmm2
  405308:	48 83 c0 10          	add    $0x10,%rax
  40530c:	66 0f 66 d0          	pcmpgtd %xmm0,%xmm2
  405310:	66 0f 6f d8          	movdqa %xmm0,%xmm3
  405314:	66 0f 62 da          	punpckldq %xmm2,%xmm3
  405318:	66 0f 6a c2          	punpckhdq %xmm2,%xmm0
  40531c:	66 0f d4 cb          	paddq  %xmm3,%xmm1
  405320:	66 0f d4 c8          	paddq  %xmm0,%xmm1
/home/aliha951/ipdps-artifact/gapbs-master/src/builder.h:114 (discriminator 2)
      for (size_t i=block * block_size; i < block_end; i++)
  405324:	48 39 d0             	cmp    %rdx,%rax
  405327:	75 d7                	jne    405300 <_ZN11BuilderBaseIiiiLb1EE17ParallelPrefixSumERK7pvectorIiE._omp_fn.0+0xd0>
  405329:	66 0f 6f c1          	movdqa %xmm1,%xmm0
  40532d:	48 89 fa             	mov    %rdi,%rdx
  405330:	66 0f 73 d8 08       	psrldq $0x8,%xmm0
  405335:	48 83 e2 fc          	and    $0xfffffffffffffffc,%rdx
  405339:	66 0f d4 c1          	paddq  %xmm1,%xmm0
  40533d:	48 01 d1             	add    %rdx,%rcx
  405340:	66 48 0f 7e c0       	movq   %xmm0,%rax
  405345:	48 39 fa             	cmp    %rdi,%rdx
  405348:	74 31                	je     40537b <_ZN11BuilderBaseIiiiLb1EE17ParallelPrefixSumERK7pvectorIiE._omp_fn.0+0x14b>
/home/aliha951/ipdps-artifact/gapbs-master/src/builder.h:115
        lsum += degrees[i];
  40534a:	49 63 3c 8b          	movslq (%r11,%rcx,4),%rdi
_ZNK7pvectorIiEixEm():
/home/aliha951/ipdps-artifact/gapbs-master/src/pvector.h:120
    return start_[n];
  40534e:	48 8d 14 8d 00 00 00 	lea    0x0(,%rcx,4),%rdx
  405355:	00 
_ZN11BuilderBaseIiiiLb1EE17ParallelPrefixSumERK7pvectorIiE._omp_fn.0():
/home/aliha951/ipdps-artifact/gapbs-master/src/builder.h:115
  405356:	48 01 f8             	add    %rdi,%rax
/home/aliha951/ipdps-artifact/gapbs-master/src/builder.h:114
      for (size_t i=block * block_size; i < block_end; i++)
  405359:	48 8d 79 01          	lea    0x1(%rcx),%rdi
  40535d:	48 39 df             	cmp    %rbx,%rdi
  405360:	73 19                	jae    40537b <_ZN11BuilderBaseIiiiLb1EE17ParallelPrefixSumERK7pvectorIiE._omp_fn.0+0x14b>
/home/aliha951/ipdps-artifact/gapbs-master/src/builder.h:115
        lsum += degrees[i];
  405362:	49 63 7c 13 04       	movslq 0x4(%r11,%rdx,1),%rdi
/home/aliha951/ipdps-artifact/gapbs-master/src/builder.h:114
      for (size_t i=block * block_size; i < block_end; i++)
  405367:	48 83 c1 02          	add    $0x2,%rcx
/home/aliha951/ipdps-artifact/gapbs-master/src/builder.h:115
        lsum += degrees[i];
  40536b:	48 01 f8             	add    %rdi,%rax
/home/aliha951/ipdps-artifact/gapbs-master/src/builder.h:114
      for (size_t i=block * block_size; i < block_end; i++)
  40536e:	48 39 cb             	cmp    %rcx,%rbx
  405371:	76 08                	jbe    40537b <_ZN11BuilderBaseIiiiLb1EE17ParallelPrefixSumERK7pvectorIiE._omp_fn.0+0x14b>
/home/aliha951/ipdps-artifact/gapbs-master/src/builder.h:115
        lsum += degrees[i];
  405373:	49 63 54 13 08       	movslq 0x8(%r11,%rdx,1),%rdx
  405378:	48 01 d0             	add    %rdx,%rax
/home/aliha951/ipdps-artifact/gapbs-master/src/builder.h:116
      local_sums[block] = lsum;
  40537b:	49 89 01             	mov    %rax,(%r9)
  40537e:	49 83 c1 08          	add    $0x8,%r9
  405382:	48 81 c6 00 00 40 00 	add    $0x400000,%rsi
  405389:	49 39 e9             	cmp    %rbp,%r9
  40538c:	0f 85 26 ff ff ff    	jne    4052b8 <_ZN11BuilderBaseIiiiLb1EE17ParallelPrefixSumERK7pvectorIiE._omp_fn.0+0x88>
/home/aliha951/ipdps-artifact/gapbs-master/src/builder.h:110
    #pragma omp parallel for
  405392:	5b                   	pop    %rbx
  405393:	5d                   	pop    %rbp
  405394:	41 5c                	pop    %r12
  405396:	c3                   	retq   
  405397:	66 0f 1f 84 00 00 00 	nopw   0x0(%rax,%rax,1)
  40539e:	00 00 
/home/aliha951/ipdps-artifact/gapbs-master/src/builder.h:112
      SGOffset lsum = 0;
  4053a0:	31 c0                	xor    %eax,%eax
  4053a2:	eb d7                	jmp    40537b <_ZN11BuilderBaseIiiiLb1EE17ParallelPrefixSumERK7pvectorIiE._omp_fn.0+0x14b>
  4053a4:	31 c0                	xor    %eax,%eax
  4053a6:	eb a2                	jmp    40534a <_ZN11BuilderBaseIiiiLb1EE17ParallelPrefixSumERK7pvectorIiE._omp_fn.0+0x11a>
  4053a8:	48 83 c0 01          	add    $0x1,%rax
/home/aliha951/ipdps-artifact/gapbs-master/src/builder.h:110
    #pragma omp parallel for
  4053ac:	31 d2                	xor    %edx,%edx
  4053ae:	e9 b8 fe ff ff       	jmpq   40526b <_ZN11BuilderBaseIiiiLb1EE17ParallelPrefixSumERK7pvectorIiE._omp_fn.0+0x3b>
  4053b3:	66 66 2e 0f 1f 84 00 	data16 nopw %cs:0x0(%rax,%rax,1)
  4053ba:	00 00 00 00 
  4053be:	66 90                	xchg   %ax,%ax

00000000004053c0 <_ZN11BuilderBaseIiiiLb1EE17ParallelPrefixSumERK7pvectorIiE._omp_fn.1>:
_ZN11BuilderBaseIiiiLb1EE17ParallelPrefixSumERK7pvectorIiE._omp_fn.1():
/home/aliha951/ipdps-artifact/gapbs-master/src/builder.h:126
      bulk_prefix[block] = total;
      total += local_sums[block];
    }
    bulk_prefix[num_blocks] = total;
    pvector<SGOffset> prefix(degrees.size() + 1);
    #pragma omp parallel for
  4053c0:	f3 0f 1e fa          	endbr64 
  4053c4:	41 54                	push   %r12
  4053c6:	55                   	push   %rbp
  4053c7:	53                   	push   %rbx
  4053c8:	48 8b 5f 10          	mov    0x10(%rdi),%rbx
  4053cc:	48 85 db             	test   %rbx,%rbx
  4053cf:	0f 84 98 00 00 00    	je     40546d <_ZN11BuilderBaseIiiiLb1EE17ParallelPrefixSumERK7pvectorIiE._omp_fn.1+0xad>
  4053d5:	48 89 fd             	mov    %rdi,%rbp
  4053d8:	e8 43 e7 ff ff       	callq  403b20 <omp_get_num_threads@plt>
  4053dd:	41 89 c4             	mov    %eax,%r12d
  4053e0:	e8 0b e6 ff ff       	callq  4039f0 <omp_get_thread_num@plt>
  4053e5:	49 63 cc             	movslq %r12d,%rcx
  4053e8:	31 d2                	xor    %edx,%edx
  4053ea:	4c 63 c8             	movslq %eax,%r9
  4053ed:	48 89 d8             	mov    %rbx,%rax
  4053f0:	48 f7 f1             	div    %rcx
  4053f3:	49 39 d1             	cmp    %rdx,%r9
  4053f6:	72 7a                	jb     405472 <_ZN11BuilderBaseIiiiLb1EE17ParallelPrefixSumERK7pvectorIiE._omp_fn.1+0xb2>
  4053f8:	4c 0f af c8          	imul   %rax,%r9
  4053fc:	49 01 d1             	add    %rdx,%r9
  4053ff:	4c 01 c8             	add    %r9,%rax
  405402:	49 39 c1             	cmp    %rax,%r9
  405405:	73 66                	jae    40546d <_ZN11BuilderBaseIiiiLb1EE17ParallelPrefixSumERK7pvectorIiE._omp_fn.1+0xad>
/home/aliha951/ipdps-artifact/gapbs-master/src/builder.h:129
    for (size_t block=0; block < num_blocks; block++) {
      SGOffset local_total = bulk_prefix[block];
      size_t block_end = std::min((block + 1) * block_size, degrees.size());
  405407:	48 8b 4d 00          	mov    0x0(%rbp),%rcx
_ZN7pvectorIlEixEm():
/home/aliha951/ipdps-artifact/gapbs-master/src/pvector.h:116
    return start_[n];
  40540b:	48 8b 55 18          	mov    0x18(%rbp),%rdx
_ZN11BuilderBaseIiiiLb1EE17ParallelPrefixSumERK7pvectorIiE._omp_fn.1():
/home/aliha951/ipdps-artifact/gapbs-master/src/builder.h:131
      for (size_t i=block * block_size; i < block_end; i++) {
        prefix[i] = local_total;
  40540f:	48 8b 6d 08          	mov    0x8(%rbp),%rbp
_ZNK7pvectorIiE4sizeEv():
/home/aliha951/ipdps-artifact/gapbs-master/src/pvector.h:143
    return end_size_ - start_;
  405413:	4c 8b 01             	mov    (%rcx),%r8
  405416:	4c 8b 59 08          	mov    0x8(%rcx),%r11
_ZN7pvectorIlEixEm():
/home/aliha951/ipdps-artifact/gapbs-master/src/pvector.h:116
    return start_[n];
  40541a:	48 8b 12             	mov    (%rdx),%rdx
_ZNK7pvectorIiE4sizeEv():
/home/aliha951/ipdps-artifact/gapbs-master/src/pvector.h:143
    return end_size_ - start_;
  40541d:	4d 29 c3             	sub    %r8,%r11
  405420:	4e 8d 14 ca          	lea    (%rdx,%r9,8),%r10
  405424:	49 c1 fb 02          	sar    $0x2,%r11
  405428:	49 c1 e1 14          	shl    $0x14,%r9
  40542c:	48 8d 1c c2          	lea    (%rdx,%rax,8),%rbx
_ZN7pvectorIlEixEm():
/home/aliha951/ipdps-artifact/gapbs-master/src/pvector.h:115
  T_& operator[](size_t n) {
  405430:	4c 89 c8             	mov    %r9,%rax
_ZN11BuilderBaseIiiiLb1EE17ParallelPrefixSumERK7pvectorIiE._omp_fn.1():
/home/aliha951/ipdps-artifact/gapbs-master/src/builder.h:129
      size_t block_end = std::min((block + 1) * block_size, degrees.size());
  405433:	49 81 c1 00 00 10 00 	add    $0x100000,%r9
  40543a:	4c 89 de             	mov    %r11,%rsi
/home/aliha951/ipdps-artifact/gapbs-master/src/builder.h:128
      SGOffset local_total = bulk_prefix[block];
  40543d:	49 8b 12             	mov    (%r10),%rdx
_ZNK7pvectorIiE4sizeEv():
/home/aliha951/ipdps-artifact/gapbs-master/src/pvector.h:142
  size_t size() const {
  405440:	4d 39 d9             	cmp    %r11,%r9
  405443:	49 0f 46 f1          	cmovbe %r9,%rsi
_ZN11BuilderBaseIiiiLb1EE17ParallelPrefixSumERK7pvectorIiE._omp_fn.1():
/home/aliha951/ipdps-artifact/gapbs-master/src/builder.h:130
      for (size_t i=block * block_size; i < block_end; i++) {
  405447:	48 39 c6             	cmp    %rax,%rsi
  40544a:	76 18                	jbe    405464 <_ZN11BuilderBaseIiiiLb1EE17ParallelPrefixSumERK7pvectorIiE._omp_fn.1+0xa4>
_ZN7pvectorIlEixEm():
/home/aliha951/ipdps-artifact/gapbs-master/src/pvector.h:116
    return start_[n];
  40544c:	48 8b 7d 00          	mov    0x0(%rbp),%rdi
_ZN11BuilderBaseIiiiLb1EE17ParallelPrefixSumERK7pvectorIiE._omp_fn.1():
/home/aliha951/ipdps-artifact/gapbs-master/src/builder.h:132 (discriminator 2)
        local_total += degrees[i];
  405450:	49 63 0c 80          	movslq (%r8,%rax,4),%rcx
/home/aliha951/ipdps-artifact/gapbs-master/src/builder.h:131 (discriminator 2)
        prefix[i] = local_total;
  405454:	48 89 14 c7          	mov    %rdx,(%rdi,%rax,8)
/home/aliha951/ipdps-artifact/gapbs-master/src/builder.h:130 (discriminator 2)
      for (size_t i=block * block_size; i < block_end; i++) {
  405458:	48 83 c0 01          	add    $0x1,%rax
/home/aliha951/ipdps-artifact/gapbs-master/src/builder.h:132 (discriminator 2)
        local_total += degrees[i];
  40545c:	48 01 ca             	add    %rcx,%rdx
/home/aliha951/ipdps-artifact/gapbs-master/src/builder.h:130 (discriminator 2)
      for (size_t i=block * block_size; i < block_end; i++) {
  40545f:	48 39 c6             	cmp    %rax,%rsi
  405462:	75 ec                	jne    405450 <_ZN11BuilderBaseIiiiLb1EE17ParallelPrefixSumERK7pvectorIiE._omp_fn.1+0x90>
  405464:	49 83 c2 08          	add    $0x8,%r10
  405468:	49 39 da             	cmp    %rbx,%r10
  40546b:	75 c3                	jne    405430 <_ZN11BuilderBaseIiiiLb1EE17ParallelPrefixSumERK7pvectorIiE._omp_fn.1+0x70>
/home/aliha951/ipdps-artifact/gapbs-master/src/builder.h:126
    #pragma omp parallel for
  40546d:	5b                   	pop    %rbx
  40546e:	5d                   	pop    %rbp
  40546f:	41 5c                	pop    %r12
  405471:	c3                   	retq   
  405472:	48 83 c0 01          	add    $0x1,%rax
  405476:	31 d2                	xor    %edx,%edx
  405478:	e9 7b ff ff ff       	jmpq   4053f8 <_ZN11BuilderBaseIiiiLb1EE17ParallelPrefixSumERK7pvectorIiE._omp_fn.1+0x38>
  40547d:	0f 1f 00             	nopl   (%rax)

0000000000405480 <_ZN7pvectorIiE4fillEi._omp_fn.0>:
_ZN7pvectorIiE4fillEi._omp_fn.0():
/home/aliha951/ipdps-artifact/gapbs-master/src/pvector.h:133
    #pragma omp parallel for
  405480:	f3 0f 1e fa          	endbr64 
  405484:	41 55                	push   %r13
  405486:	41 54                	push   %r12
  405488:	55                   	push   %rbp
  405489:	53                   	push   %rbx
  40548a:	48 83 ec 08          	sub    $0x8,%rsp
  40548e:	48 8b 07             	mov    (%rdi),%rax
/home/aliha951/ipdps-artifact/gapbs-master/src/pvector.h:134
    for (T_* ptr=start_; ptr < end_size_; ptr++)
  405491:	48 8b 28             	mov    (%rax),%rbp
  405494:	4c 8b 68 08          	mov    0x8(%rax),%r13
  405498:	4c 39 ed             	cmp    %r13,%rbp
  40549b:	0f 83 dd 00 00 00    	jae    40557e <_ZN7pvectorIiE4fillEi._omp_fn.0+0xfe>
  4054a1:	49 89 fc             	mov    %rdi,%r12
  4054a4:	e8 77 e6 ff ff       	callq  403b20 <omp_get_num_threads@plt>
  4054a9:	48 63 d8             	movslq %eax,%rbx
  4054ac:	e8 3f e5 ff ff       	callq  4039f0 <omp_get_thread_num@plt>
  4054b1:	48 63 c8             	movslq %eax,%rcx
  4054b4:	49 8d 45 03          	lea    0x3(%r13),%rax
  4054b8:	48 29 e8             	sub    %rbp,%rax
  4054bb:	48 89 c2             	mov    %rax,%rdx
  4054be:	48 8d 40 03          	lea    0x3(%rax),%rax
  4054c2:	48 0f 49 c2          	cmovns %rdx,%rax
  4054c6:	48 c1 f8 02          	sar    $0x2,%rax
  4054ca:	48 99                	cqto   
  4054cc:	48 f7 fb             	idiv   %rbx
  4054cf:	48 39 d1             	cmp    %rdx,%rcx
  4054d2:	0f 8c b8 00 00 00    	jl     405590 <_ZN7pvectorIiE4fillEi._omp_fn.0+0x110>
  4054d8:	48 0f af c8          	imul   %rax,%rcx
  4054dc:	48 01 ca             	add    %rcx,%rdx
  4054df:	48 01 d0             	add    %rdx,%rax
  4054e2:	48 39 c2             	cmp    %rax,%rdx
  4054e5:	0f 8d 93 00 00 00    	jge    40557e <_ZN7pvectorIiE4fillEi._omp_fn.0+0xfe>
  4054eb:	48 c1 e2 02          	shl    $0x2,%rdx
  4054ef:	48 c1 e0 02          	shl    $0x2,%rax
/home/aliha951/ipdps-artifact/gapbs-master/src/pvector.h:133
    #pragma omp parallel for
  4054f3:	41 8b 7c 24 08       	mov    0x8(%r12),%edi
  4054f8:	48 8d 74 15 00       	lea    0x0(%rbp,%rdx,1),%rsi
  4054fd:	48 01 c5             	add    %rax,%rbp
  405500:	48 29 d0             	sub    %rdx,%rax
  405503:	48 83 e8 01          	sub    $0x1,%rax
  405507:	4c 8d 46 01          	lea    0x1(%rsi),%r8
  40550b:	48 89 f1             	mov    %rsi,%rcx
  40550e:	48 89 c2             	mov    %rax,%rdx
  405511:	48 c1 ea 02          	shr    $0x2,%rdx
  405515:	48 83 c2 01          	add    $0x1,%rdx
  405519:	4c 39 c5             	cmp    %r8,%rbp
  40551c:	41 b8 01 00 00 00    	mov    $0x1,%r8d
  405522:	49 0f 42 d0          	cmovb  %r8,%rdx
  405526:	72 3c                	jb     405564 <_ZN7pvectorIiE4fillEi._omp_fn.0+0xe4>
  405528:	48 83 f8 0b          	cmp    $0xb,%rax
  40552c:	76 36                	jbe    405564 <_ZN7pvectorIiE4fillEi._omp_fn.0+0xe4>
  40552e:	48 89 d0             	mov    %rdx,%rax
  405531:	66 0f 6e cf          	movd   %edi,%xmm1
  405535:	48 c1 e8 02          	shr    $0x2,%rax
  405539:	66 0f 70 c1 00       	pshufd $0x0,%xmm1,%xmm0
  40553e:	48 c1 e0 04          	shl    $0x4,%rax
  405542:	48 01 f0             	add    %rsi,%rax
  405545:	0f 1f 00             	nopl   (%rax)
/home/aliha951/ipdps-artifact/gapbs-master/src/pvector.h:135 (discriminator 1)
      *ptr = init_val;
  405548:	0f 11 01             	movups %xmm0,(%rcx)
  40554b:	48 83 c1 10          	add    $0x10,%rcx
  40554f:	48 39 c1             	cmp    %rax,%rcx
  405552:	75 f4                	jne    405548 <_ZN7pvectorIiE4fillEi._omp_fn.0+0xc8>
  405554:	48 89 d0             	mov    %rdx,%rax
  405557:	48 83 e0 fc          	and    $0xfffffffffffffffc,%rax
  40555b:	48 8d 34 86          	lea    (%rsi,%rax,4),%rsi
  40555f:	48 39 c2             	cmp    %rax,%rdx
  405562:	74 1a                	je     40557e <_ZN7pvectorIiE4fillEi._omp_fn.0+0xfe>
  405564:	48 8d 46 04          	lea    0x4(%rsi),%rax
/home/aliha951/ipdps-artifact/gapbs-master/src/pvector.h:135
  405568:	89 3e                	mov    %edi,(%rsi)
  40556a:	48 39 c5             	cmp    %rax,%rbp
  40556d:	76 0f                	jbe    40557e <_ZN7pvectorIiE4fillEi._omp_fn.0+0xfe>
  40556f:	48 8d 46 08          	lea    0x8(%rsi),%rax
  405573:	89 7e 04             	mov    %edi,0x4(%rsi)
  405576:	48 39 c5             	cmp    %rax,%rbp
  405579:	76 03                	jbe    40557e <_ZN7pvectorIiE4fillEi._omp_fn.0+0xfe>
  40557b:	89 7e 08             	mov    %edi,0x8(%rsi)
/home/aliha951/ipdps-artifact/gapbs-master/src/pvector.h:133
    #pragma omp parallel for
  40557e:	48 83 c4 08          	add    $0x8,%rsp
  405582:	5b                   	pop    %rbx
  405583:	5d                   	pop    %rbp
  405584:	41 5c                	pop    %r12
  405586:	41 5d                	pop    %r13
  405588:	c3                   	retq   
  405589:	0f 1f 80 00 00 00 00 	nopl   0x0(%rax)
  405590:	48 83 c0 01          	add    $0x1,%rax
/home/aliha951/ipdps-artifact/gapbs-master/src/pvector.h:134
    for (T_* ptr=start_; ptr < end_size_; ptr++)
  405594:	31 d2                	xor    %edx,%edx
  405596:	e9 3d ff ff ff       	jmpq   4054d8 <_ZN7pvectorIiE4fillEi._omp_fn.0+0x58>
  40559b:	0f 1f 44 00 00       	nopl   0x0(%rax,%rax,1)

00000000004055a0 <_ZN11BuilderBaseIiiiLb1EE7MakeCSRERK7pvectorI8EdgePairIiiEEbPPPiS8_._omp_fn.0>:
_ZN11BuilderBaseIiiiLb1EE7MakeCSRERK7pvectorI8EdgePairIiiEEbPPPiS8_._omp_fn.0():
/home/aliha951/ipdps-artifact/gapbs-master/src/builder.h:306
               DestID_** neighs) {
    pvector<NodeID_> degrees = CountDegrees(el, transpose);
    pvector<SGOffset> offsets = ParallelPrefixSum(degrees);
    *neighs = new DestID_[offsets[num_nodes_]];
    *index = CSRGraph<NodeID_, DestID_>::GenIndex(offsets, *neighs);
    #pragma omp parallel for
  4055a0:	f3 0f 1e fa          	endbr64 
  4055a4:	41 55                	push   %r13
  4055a6:	41 54                	push   %r12
  4055a8:	55                   	push   %rbp
  4055a9:	53                   	push   %rbx
  4055aa:	48 83 ec 08          	sub    $0x8,%rsp
/home/aliha951/ipdps-artifact/gapbs-master/src/builder.h:307
    for (auto it = el.begin(); it < el.end(); it++) {
  4055ae:	48 8b 47 08          	mov    0x8(%rdi),%rax
_ZNK7pvectorI8EdgePairIiiEE5beginEv():
/home/aliha951/ipdps-artifact/gapbs-master/src/pvector.h:147
    return start_;
  4055b2:	4c 8b 20             	mov    (%rax),%r12
_ZNK7pvectorI8EdgePairIiiEE3endEv():
/home/aliha951/ipdps-artifact/gapbs-master/src/pvector.h:151
    return end_size_;
  4055b5:	4c 8b 68 08          	mov    0x8(%rax),%r13
  4055b9:	4d 39 e5             	cmp    %r12,%r13
  4055bc:	0f 86 c5 00 00 00    	jbe    405687 <_ZN11BuilderBaseIiiiLb1EE7MakeCSRERK7pvectorI8EdgePairIiiEEbPPPiS8_._omp_fn.0+0xe7>
  4055c2:	48 89 fb             	mov    %rdi,%rbx
  4055c5:	e8 56 e5 ff ff       	callq  403b20 <omp_get_num_threads@plt>
  4055ca:	48 63 e8             	movslq %eax,%rbp
  4055cd:	e8 1e e4 ff ff       	callq  4039f0 <omp_get_thread_num@plt>
  4055d2:	48 63 c8             	movslq %eax,%rcx
  4055d5:	49 8d 45 07          	lea    0x7(%r13),%rax
  4055d9:	4c 29 e0             	sub    %r12,%rax
  4055dc:	48 89 c2             	mov    %rax,%rdx
  4055df:	48 8d 40 07          	lea    0x7(%rax),%rax
  4055e3:	48 0f 49 c2          	cmovns %rdx,%rax
  4055e7:	48 c1 f8 03          	sar    $0x3,%rax
  4055eb:	48 99                	cqto   
  4055ed:	48 f7 fd             	idiv   %rbp
  4055f0:	48 39 d1             	cmp    %rdx,%rcx
  4055f3:	0f 8c 9f 00 00 00    	jl     405698 <_ZN11BuilderBaseIiiiLb1EE7MakeCSRERK7pvectorI8EdgePairIiiEEbPPPiS8_._omp_fn.0+0xf8>
  4055f9:	48 0f af c8          	imul   %rax,%rcx
  4055fd:	48 01 ca             	add    %rcx,%rdx
  405600:	48 01 d0             	add    %rdx,%rax
  405603:	48 39 c2             	cmp    %rax,%rdx
  405606:	7d 7f                	jge    405687 <_ZN11BuilderBaseIiiiLb1EE7MakeCSRERK7pvectorI8EdgePairIiiEEbPPPiS8_._omp_fn.0+0xe7>
  405608:	49 8d 14 d4          	lea    (%r12,%rdx,8),%rdx
_ZN11BuilderBaseIiiiLb1EE7MakeCSRERK7pvectorI8EdgePairIiiEEbPPPiS8_._omp_fn.0():
/home/aliha951/ipdps-artifact/gapbs-master/src/builder.h:306
    #pragma omp parallel for
  40560c:	4c 8b 4b 10          	mov    0x10(%rbx),%r9
  405610:	44 0f b6 53 20       	movzbl 0x20(%rbx),%r10d
  405615:	4d 8d 24 c4          	lea    (%r12,%rax,8),%r12
  405619:	4c 8b 03             	mov    (%rbx),%r8
  40561c:	eb 2c                	jmp    40564a <_ZN11BuilderBaseIiiiLb1EE7MakeCSRERK7pvectorI8EdgePairIiiEEbPPPiS8_._omp_fn.0+0xaa>
  40561e:	66 90                	xchg   %ax,%ax
/home/aliha951/ipdps-artifact/gapbs-master/src/builder.h:309
      Edge e = *it;
      if (symmetrize_ || (!symmetrize_ && !transpose))
  405620:	45 84 d2             	test   %r10b,%r10b
  405623:	74 31                	je     405656 <_ZN11BuilderBaseIiiiLb1EE7MakeCSRERK7pvectorI8EdgePairIiiEEbPPPiS8_._omp_fn.0+0xb6>
_ZN7pvectorIlEixEm():
/home/aliha951/ipdps-artifact/gapbs-master/src/pvector.h:116
    return start_[n];
  405625:	48 8b 43 18          	mov    0x18(%rbx),%rax
_ZN11BuilderBaseIiiiLb1EE7MakeCSRERK7pvectorI8EdgePairIiiEEbPPPiS8_._omp_fn.0():
/home/aliha951/ipdps-artifact/gapbs-master/src/builder.h:312
        (*neighs)[fetch_and_add(offsets[e.u], 1)] = e.v;
      if (symmetrize_ || (!symmetrize_ && transpose))
        (*neighs)[fetch_and_add(offsets[static_cast<NodeID_>(e.v)], 1)] =
  405629:	4d 8b 19             	mov    (%r9),%r11
  40562c:	48 63 ce             	movslq %esi,%rcx
_Z13fetch_and_addIliET_RS0_T0_():
/home/aliha951/ipdps-artifact/gapbs-master/src/platform_atomics.h:26
  40562f:	be 01 00 00 00       	mov    $0x1,%esi
  405634:	48 8b 00             	mov    (%rax),%rax
  405637:	f0 48 0f c1 34 c8    	lock xadd %rsi,(%rax,%rcx,8)
  40563d:	48 83 c2 08          	add    $0x8,%rdx
_ZN11BuilderBaseIiiiLb1EE7MakeCSRERK7pvectorI8EdgePairIiiEEbPPPiS8_._omp_fn.0():
/home/aliha951/ipdps-artifact/gapbs-master/src/builder.h:312
  405641:	41 89 3c b3          	mov    %edi,(%r11,%rsi,4)
  405645:	49 39 d4             	cmp    %rdx,%r12
  405648:	76 3d                	jbe    405687 <_ZN11BuilderBaseIiiiLb1EE7MakeCSRERK7pvectorI8EdgePairIiiEEbPPPiS8_._omp_fn.0+0xe7>
/home/aliha951/ipdps-artifact/gapbs-master/src/builder.h:309
      if (symmetrize_ || (!symmetrize_ && !transpose))
  40564a:	41 80 78 08 01       	cmpb   $0x1,0x8(%r8)
/home/aliha951/ipdps-artifact/gapbs-master/src/builder.h:308
      Edge e = *it;
  40564f:	8b 3a                	mov    (%rdx),%edi
  405651:	8b 72 04             	mov    0x4(%rdx),%esi
/home/aliha951/ipdps-artifact/gapbs-master/src/builder.h:309
      if (symmetrize_ || (!symmetrize_ && !transpose))
  405654:	75 ca                	jne    405620 <_ZN11BuilderBaseIiiiLb1EE7MakeCSRERK7pvectorI8EdgePairIiiEEbPPPiS8_._omp_fn.0+0x80>
_ZN7pvectorIlEixEm():
/home/aliha951/ipdps-artifact/gapbs-master/src/pvector.h:116
  405656:	48 8b 4b 18          	mov    0x18(%rbx),%rcx
_ZN11BuilderBaseIiiiLb1EE7MakeCSRERK7pvectorI8EdgePairIiiEEbPPPiS8_._omp_fn.0():
/home/aliha951/ipdps-artifact/gapbs-master/src/builder.h:310
        (*neighs)[fetch_and_add(offsets[e.u], 1)] = e.v;
  40565a:	4d 8b 19             	mov    (%r9),%r11
  40565d:	48 63 c7             	movslq %edi,%rax
_Z13fetch_and_addIliET_RS0_T0_():
/home/aliha951/ipdps-artifact/gapbs-master/src/platform_atomics.h:26
  405660:	bd 01 00 00 00       	mov    $0x1,%ebp
  405665:	48 8b 09             	mov    (%rcx),%rcx
  405668:	f0 48 0f c1 2c c1    	lock xadd %rbp,(%rcx,%rax,8)
_ZN11BuilderBaseIiiiLb1EE7MakeCSRERK7pvectorI8EdgePairIiiEEbPPPiS8_._omp_fn.0():
/home/aliha951/ipdps-artifact/gapbs-master/src/builder.h:311
      if (symmetrize_ || (!symmetrize_ && transpose))
  40566e:	41 80 78 08 00       	cmpb   $0x0,0x8(%r8)
/home/aliha951/ipdps-artifact/gapbs-master/src/builder.h:310
        (*neighs)[fetch_and_add(offsets[e.u], 1)] = e.v;
  405673:	41 89 34 ab          	mov    %esi,(%r11,%rbp,4)
/home/aliha951/ipdps-artifact/gapbs-master/src/builder.h:311
      if (symmetrize_ || (!symmetrize_ && transpose))
  405677:	75 ac                	jne    405625 <_ZN11BuilderBaseIiiiLb1EE7MakeCSRERK7pvectorI8EdgePairIiiEEbPPPiS8_._omp_fn.0+0x85>
  405679:	45 84 d2             	test   %r10b,%r10b
  40567c:	75 a7                	jne    405625 <_ZN11BuilderBaseIiiiLb1EE7MakeCSRERK7pvectorI8EdgePairIiiEEbPPPiS8_._omp_fn.0+0x85>
  40567e:	48 83 c2 08          	add    $0x8,%rdx
  405682:	49 39 d4             	cmp    %rdx,%r12
  405685:	77 c3                	ja     40564a <_ZN11BuilderBaseIiiiLb1EE7MakeCSRERK7pvectorI8EdgePairIiiEEbPPPiS8_._omp_fn.0+0xaa>
/home/aliha951/ipdps-artifact/gapbs-master/src/builder.h:306
    #pragma omp parallel for
  405687:	48 83 c4 08          	add    $0x8,%rsp
  40568b:	5b                   	pop    %rbx
  40568c:	5d                   	pop    %rbp
  40568d:	41 5c                	pop    %r12
  40568f:	41 5d                	pop    %r13
  405691:	c3                   	retq   
  405692:	66 0f 1f 44 00 00    	nopw   0x0(%rax,%rax,1)
  405698:	48 83 c0 01          	add    $0x1,%rax
_ZNK7pvectorI8EdgePairIiiEE3endEv():
/home/aliha951/ipdps-artifact/gapbs-master/src/pvector.h:151
    return end_size_;
  40569c:	31 d2                	xor    %edx,%edx
  40569e:	e9 56 ff ff ff       	jmpq   4055f9 <_ZN11BuilderBaseIiiiLb1EE7MakeCSRERK7pvectorI8EdgePairIiiEEbPPPiS8_._omp_fn.0+0x59>
_ZN11BuilderBaseIiiiLb1EE7MakeCSRERK7pvectorI8EdgePairIiiEEbPPPiS8_._omp_fn.0():
/home/aliha951/ipdps-artifact/gapbs-master/src/pvector.h:151
  4056a3:	66 66 2e 0f 1f 84 00 	data16 nopw %cs:0x0(%rax,%rax,1)
  4056aa:	00 00 00 00 
  4056ae:	66 90                	xchg   %ax,%ax

00000000004056b0 <_ZL12open_counterjmiii.part.0>:
_ZL12open_counterjmiii.part.0():
/home/aliha951/ipdps-artifact/gapbs-master/src/profiling_utils.h:120
static int open_counter(uint32_t type, uint64_t config,
  4056b0:	50                   	push   %rax
  4056b1:	58                   	pop    %rax
/home/aliha951/ipdps-artifact/gapbs-master/src/profiling_utils.h:138
    perror("perf_event_open");
  4056b2:	48 8d 3d 4b f9 00 00 	lea    0xf94b(%rip),%rdi        # 415004 <_IO_stdin_used+0x4>
/home/aliha951/ipdps-artifact/gapbs-master/src/profiling_utils.h:120
static int open_counter(uint32_t type, uint64_t config,
  4056b9:	48 83 ec 08          	sub    $0x8,%rsp
/home/aliha951/ipdps-artifact/gapbs-master/src/profiling_utils.h:138
    perror("perf_event_open");
  4056bd:	e8 1e e2 ff ff       	callq  4038e0 <perror@plt>
/home/aliha951/ipdps-artifact/gapbs-master/src/profiling_utils.h:139
    exit(1);
  4056c2:	bf 01 00 00 00       	mov    $0x1,%edi
  4056c7:	e8 64 e3 ff ff       	callq  403a30 <exit@plt>
  4056cc:	0f 1f 40 00          	nopl   0x0(%rax)

00000000004056d0 <_ZSt13__adjust_heapIPiliN9__gnu_cxx5__ops15_Iter_less_iterEEvT_T0_S5_T1_T2_.isra.0>:
_ZSt13__adjust_heapIPiliN9__gnu_cxx5__ops15_Iter_less_iterEEvT_T0_S5_T1_T2_():
/usr/include/c++/10/bits/stl_heap.h:228
    __adjust_heap(_RandomAccessIterator __first, _Distance __holeIndex,
		  _Distance __len, _Tp __value, _Compare __comp)
    {
      const _Distance __topIndex = __holeIndex;
      _Distance __secondChild = __holeIndex;
      while (__secondChild < (__len - 1) / 2)
  4056d0:	48 8d 42 ff          	lea    -0x1(%rdx),%rax
/usr/include/c++/10/bits/stl_heap.h:223
    __adjust_heap(_RandomAccessIterator __first, _Distance __holeIndex,
  4056d4:	55                   	push   %rbp
/usr/include/c++/10/bits/stl_heap.h:237
		     __first + (__secondChild - 1)))
	    __secondChild--;
	  *(__first + __holeIndex) = _GLIBCXX_MOVE(*(__first + __secondChild));
	  __holeIndex = __secondChild;
	}
      if ((__len & 1) == 0 && __secondChild == (__len - 2) / 2)
  4056d5:	48 89 d5             	mov    %rdx,%rbp
/usr/include/c++/10/bits/stl_heap.h:223
    __adjust_heap(_RandomAccessIterator __first, _Distance __holeIndex,
  4056d8:	49 89 f0             	mov    %rsi,%r8
/usr/include/c++/10/bits/stl_heap.h:228
      while (__secondChild < (__len - 1) / 2)
  4056db:	49 89 c3             	mov    %rax,%r11
/usr/include/c++/10/bits/stl_heap.h:223
    __adjust_heap(_RandomAccessIterator __first, _Distance __holeIndex,
  4056de:	53                   	push   %rbx
  4056df:	41 89 c9             	mov    %ecx,%r9d
  4056e2:	48 89 d3             	mov    %rdx,%rbx
/usr/include/c++/10/bits/stl_heap.h:228
      while (__secondChild < (__len - 1) / 2)
  4056e5:	49 c1 eb 3f          	shr    $0x3f,%r11
/usr/include/c++/10/bits/stl_heap.h:237
      if ((__len & 1) == 0 && __secondChild == (__len - 2) / 2)
  4056e9:	83 e5 01             	and    $0x1,%ebp
/usr/include/c++/10/bits/stl_heap.h:228
      while (__secondChild < (__len - 1) / 2)
  4056ec:	49 01 c3             	add    %rax,%r11
  4056ef:	49 d1 fb             	sar    %r11
  4056f2:	4c 39 de             	cmp    %r11,%rsi
  4056f5:	7c 1e                	jl     405715 <_ZSt13__adjust_heapIPiliN9__gnu_cxx5__ops15_Iter_less_iterEEvT_T0_S5_T1_T2_.isra.0+0x45>
  4056f7:	e9 94 00 00 00       	jmpq   405790 <_ZSt13__adjust_heapIPiliN9__gnu_cxx5__ops15_Iter_less_iterEEvT_T0_S5_T1_T2_.isra.0+0xc0>
  4056fc:	0f 1f 40 00          	nopl   0x0(%rax)
/usr/include/c++/10/bits/stl_heap.h:233
	    __secondChild--;
  405700:	48 83 e8 01          	sub    $0x1,%rax
/usr/include/c++/10/bits/stl_heap.h:234
	  *(__first + __holeIndex) = _GLIBCXX_MOVE(*(__first + __secondChild));
  405704:	48 8d 0c 87          	lea    (%rdi,%rax,4),%rcx
  405708:	8b 11                	mov    (%rcx),%edx
  40570a:	89 14 b7             	mov    %edx,(%rdi,%rsi,4)
/usr/include/c++/10/bits/stl_heap.h:228
      while (__secondChild < (__len - 1) / 2)
  40570d:	4c 39 d8             	cmp    %r11,%rax
  405710:	7d 26                	jge    405738 <_ZSt13__adjust_heapIPiliN9__gnu_cxx5__ops15_Iter_less_iterEEvT_T0_S5_T1_T2_.isra.0+0x68>
/usr/include/c++/10/bits/stl_heap.h:223
    __adjust_heap(_RandomAccessIterator __first, _Distance __holeIndex,
  405712:	48 89 c6             	mov    %rax,%rsi
/usr/include/c++/10/bits/stl_heap.h:230
	  __secondChild = 2 * (__secondChild + 1);
  405715:	48 8d 56 01          	lea    0x1(%rsi),%rdx
  405719:	48 8d 04 12          	lea    (%rdx,%rdx,1),%rax
/usr/include/c++/10/bits/stl_heap.h:232
		     __first + (__secondChild - 1)))
  40571d:	48 c1 e2 03          	shl    $0x3,%rdx
/usr/include/c++/10/bits/stl_heap.h:231
	  if (__comp(__first + __secondChild,
  405721:	48 8d 0c 17          	lea    (%rdi,%rdx,1),%rcx
_ZNK9__gnu_cxx5__ops15_Iter_less_iterclIPiS3_EEbT_T0_():
/usr/include/c++/10/bits/predefined_ops.h:43
  {
    template<typename _Iterator1, typename _Iterator2>
      _GLIBCXX14_CONSTEXPR
      bool
      operator()(_Iterator1 __it1, _Iterator2 __it2) const
      { return *__it1 < *__it2; }
  405725:	44 8b 11             	mov    (%rcx),%r10d
_ZSt13__adjust_heapIPiliN9__gnu_cxx5__ops15_Iter_less_iterEEvT_T0_S5_T1_T2_():
/usr/include/c++/10/bits/stl_heap.h:231
  405728:	44 3b 54 17 fc       	cmp    -0x4(%rdi,%rdx,1),%r10d
  40572d:	7c d1                	jl     405700 <_ZSt13__adjust_heapIPiliN9__gnu_cxx5__ops15_Iter_less_iterEEvT_T0_S5_T1_T2_.isra.0+0x30>
/usr/include/c++/10/bits/stl_heap.h:234
	  *(__first + __holeIndex) = _GLIBCXX_MOVE(*(__first + __secondChild));
  40572f:	44 89 14 b7          	mov    %r10d,(%rdi,%rsi,4)
/usr/include/c++/10/bits/stl_heap.h:228
      while (__secondChild < (__len - 1) / 2)
  405733:	4c 39 d8             	cmp    %r11,%rax
  405736:	7c da                	jl     405712 <_ZSt13__adjust_heapIPiliN9__gnu_cxx5__ops15_Iter_less_iterEEvT_T0_S5_T1_T2_.isra.0+0x42>
/usr/include/c++/10/bits/stl_heap.h:237
      if ((__len & 1) == 0 && __secondChild == (__len - 2) / 2)
  405738:	48 85 ed             	test   %rbp,%rbp
  40573b:	74 63                	je     4057a0 <_ZSt13__adjust_heapIPiliN9__gnu_cxx5__ops15_Iter_less_iterEEvT_T0_S5_T1_T2_.isra.0+0xd0>
_ZSt11__push_heapIPiliN9__gnu_cxx5__ops14_Iter_less_valEEvT_T0_S5_T1_RT2_():
/usr/include/c++/10/bits/stl_heap.h:138
      _Distance __parent = (__holeIndex - 1) / 2;
  40573d:	48 8d 50 ff          	lea    -0x1(%rax),%rdx
  405741:	48 89 d6             	mov    %rdx,%rsi
  405744:	48 c1 ee 3f          	shr    $0x3f,%rsi
  405748:	48 01 d6             	add    %rdx,%rsi
  40574b:	48 d1 fe             	sar    %rsi
/usr/include/c++/10/bits/stl_heap.h:139
      while (__holeIndex > __topIndex && __comp(__first + __parent, __value))
  40574e:	4c 39 c0             	cmp    %r8,%rax
  405751:	7f 26                	jg     405779 <_ZSt13__adjust_heapIPiliN9__gnu_cxx5__ops15_Iter_less_iterEEvT_T0_S5_T1_T2_.isra.0+0xa9>
  405753:	eb 34                	jmp    405789 <_ZSt13__adjust_heapIPiliN9__gnu_cxx5__ops15_Iter_less_iterEEvT_T0_S5_T1_T2_.isra.0+0xb9>
  405755:	0f 1f 00             	nopl   (%rax)
/usr/include/c++/10/bits/stl_heap.h:141
	  *(__first + __holeIndex) = _GLIBCXX_MOVE(*(__first + __parent));
  405758:	89 11                	mov    %edx,(%rcx)
/usr/include/c++/10/bits/stl_heap.h:143
	  __parent = (__holeIndex - 1) / 2;
  40575a:	48 8d 56 ff          	lea    -0x1(%rsi),%rdx
  40575e:	48 89 d0             	mov    %rdx,%rax
  405761:	48 c1 e8 3f          	shr    $0x3f,%rax
  405765:	48 01 d0             	add    %rdx,%rax
  405768:	48 d1 f8             	sar    %rax
  40576b:	48 89 c2             	mov    %rax,%rdx
/usr/include/c++/10/bits/stl_heap.h:139
      while (__holeIndex > __topIndex && __comp(__first + __parent, __value))
  40576e:	48 89 f0             	mov    %rsi,%rax
  405771:	49 39 f0             	cmp    %rsi,%r8
  405774:	7d 5a                	jge    4057d0 <_ZSt13__adjust_heapIPiliN9__gnu_cxx5__ops15_Iter_less_iterEEvT_T0_S5_T1_T2_.isra.0+0x100>
/usr/include/c++/10/bits/stl_heap.h:143
	  __parent = (__holeIndex - 1) / 2;
  405776:	48 89 d6             	mov    %rdx,%rsi
/usr/include/c++/10/bits/stl_heap.h:139
      while (__holeIndex > __topIndex && __comp(__first + __parent, __value))
  405779:	4c 8d 14 b7          	lea    (%rdi,%rsi,4),%r10
/usr/include/c++/10/bits/stl_heap.h:141
	  *(__first + __holeIndex) = _GLIBCXX_MOVE(*(__first + __parent));
  40577d:	48 8d 0c 87          	lea    (%rdi,%rax,4),%rcx
_ZNK9__gnu_cxx5__ops14_Iter_less_valclIPiiEEbT_RT0_():
/usr/include/c++/10/bits/predefined_ops.h:67

    template<typename _Iterator, typename _Value>
      _GLIBCXX20_CONSTEXPR
      bool
      operator()(_Iterator __it, _Value& __val) const
      { return *__it < __val; }
  405781:	41 8b 12             	mov    (%r10),%edx
_ZSt11__push_heapIPiliN9__gnu_cxx5__ops14_Iter_less_valEEvT_T0_S5_T1_RT2_():
/usr/include/c++/10/bits/stl_heap.h:139
      while (__holeIndex > __topIndex && __comp(__first + __parent, __value))
  405784:	44 39 ca             	cmp    %r9d,%edx
  405787:	7c cf                	jl     405758 <_ZSt13__adjust_heapIPiliN9__gnu_cxx5__ops15_Iter_less_iterEEvT_T0_S5_T1_T2_.isra.0+0x88>
/usr/include/c++/10/bits/stl_heap.h:145
      *(__first + __holeIndex) = _GLIBCXX_MOVE(__value);
  405789:	44 89 09             	mov    %r9d,(%rcx)
_ZSt13__adjust_heapIPiliN9__gnu_cxx5__ops15_Iter_less_iterEEvT_T0_S5_T1_T2_():
/usr/include/c++/10/bits/stl_heap.h:248
	}
      __decltype(__gnu_cxx::__ops::__iter_comp_val(_GLIBCXX_MOVE(__comp)))
	__cmp(_GLIBCXX_MOVE(__comp));
      std::__push_heap(__first, __holeIndex, __topIndex,
		       _GLIBCXX_MOVE(__value), __cmp);
    }
  40578c:	5b                   	pop    %rbx
  40578d:	5d                   	pop    %rbp
  40578e:	c3                   	retq   
  40578f:	90                   	nop
_ZSt11__push_heapIPiliN9__gnu_cxx5__ops14_Iter_less_valEEvT_T0_S5_T1_RT2_():
/usr/include/c++/10/bits/stl_heap.h:145
      *(__first + __holeIndex) = _GLIBCXX_MOVE(__value);
  405790:	48 8d 0c b7          	lea    (%rdi,%rsi,4),%rcx
_ZSt13__adjust_heapIPiliN9__gnu_cxx5__ops15_Iter_less_iterEEvT_T0_S5_T1_T2_():
/usr/include/c++/10/bits/stl_heap.h:237
      if ((__len & 1) == 0 && __secondChild == (__len - 2) / 2)
  405794:	48 85 ed             	test   %rbp,%rbp
  405797:	75 f0                	jne    405789 <_ZSt13__adjust_heapIPiliN9__gnu_cxx5__ops15_Iter_less_iterEEvT_T0_S5_T1_T2_.isra.0+0xb9>
  405799:	4c 89 c0             	mov    %r8,%rax
  40579c:	0f 1f 40 00          	nopl   0x0(%rax)
  4057a0:	48 8d 53 fe          	lea    -0x2(%rbx),%rdx
  4057a4:	48 89 d3             	mov    %rdx,%rbx
  4057a7:	48 c1 eb 3f          	shr    $0x3f,%rbx
  4057ab:	48 01 d3             	add    %rdx,%rbx
  4057ae:	48 d1 fb             	sar    %rbx
  4057b1:	48 39 d8             	cmp    %rbx,%rax
  4057b4:	75 87                	jne    40573d <_ZSt13__adjust_heapIPiliN9__gnu_cxx5__ops15_Iter_less_iterEEvT_T0_S5_T1_T2_.isra.0+0x6d>
/usr/include/c++/10/bits/stl_heap.h:239
	  __secondChild = 2 * (__secondChild + 1);
  4057b6:	48 8d 44 00 02       	lea    0x2(%rax,%rax,1),%rax
/usr/include/c++/10/bits/stl_heap.h:240
	  *(__first + __holeIndex) = _GLIBCXX_MOVE(*(__first
  4057bb:	8b 54 87 fc          	mov    -0x4(%rdi,%rax,4),%edx
/usr/include/c++/10/bits/stl_heap.h:242
	  __holeIndex = __secondChild - 1;
  4057bf:	48 83 e8 01          	sub    $0x1,%rax
/usr/include/c++/10/bits/stl_heap.h:240
	  *(__first + __holeIndex) = _GLIBCXX_MOVE(*(__first
  4057c3:	89 11                	mov    %edx,(%rcx)
_ZSt11__push_heapIPiliN9__gnu_cxx5__ops14_Iter_less_valEEvT_T0_S5_T1_RT2_():
/usr/include/c++/10/bits/stl_heap.h:145
      *(__first + __holeIndex) = _GLIBCXX_MOVE(__value);
  4057c5:	48 8d 0c 87          	lea    (%rdi,%rax,4),%rcx
_ZSt13__adjust_heapIPiliN9__gnu_cxx5__ops15_Iter_less_iterEEvT_T0_S5_T1_T2_():
/usr/include/c++/10/bits/stl_heap.h:145
  4057c9:	e9 6f ff ff ff       	jmpq   40573d <_ZSt13__adjust_heapIPiliN9__gnu_cxx5__ops15_Iter_less_iterEEvT_T0_S5_T1_T2_.isra.0+0x6d>
  4057ce:	66 90                	xchg   %ax,%ax
_ZSt11__push_heapIPiliN9__gnu_cxx5__ops14_Iter_less_valEEvT_T0_S5_T1_RT2_():
/usr/include/c++/10/bits/stl_heap.h:145
  4057d0:	4c 89 d1             	mov    %r10,%rcx
  4057d3:	44 89 09             	mov    %r9d,(%rcx)
_ZSt13__adjust_heapIPiliN9__gnu_cxx5__ops15_Iter_less_iterEEvT_T0_S5_T1_T2_():
/usr/include/c++/10/bits/stl_heap.h:248
    }
  4057d6:	5b                   	pop    %rbx
  4057d7:	5d                   	pop    %rbp
  4057d8:	c3                   	retq   
_ZSt13__adjust_heapIPiliN9__gnu_cxx5__ops15_Iter_less_iterEEvT_T0_S5_T1_T2_.isra.0():
/usr/include/c++/10/bits/stl_heap.h:248
  4057d9:	0f 1f 80 00 00 00 00 	nopl   0x0(%rax)

00000000004057e0 <_ZSt16__introsort_loopIPilN9__gnu_cxx5__ops15_Iter_less_iterEEvT_S4_T0_T1_.isra.0>:
_ZSt16__introsort_loopIPilN9__gnu_cxx5__ops15_Iter_less_iterEEvT_S4_T0_T1_():
/usr/include/c++/10/bits/stl_algo.h:1954
    void
    __introsort_loop(_RandomAccessIterator __first,
		     _RandomAccessIterator __last,
		     _Size __depth_limit, _Compare __comp)
    {
      while (__last - __first > int(_S_threshold))
  4057e0:	48 89 f0             	mov    %rsi,%rax
  4057e3:	48 29 f8             	sub    %rdi,%rax
  4057e6:	48 83 f8 40          	cmp    $0x40,%rax
  4057ea:	0f 8e a1 01 00 00    	jle    405991 <_ZSt16__introsort_loopIPilN9__gnu_cxx5__ops15_Iter_less_iterEEvT_S4_T0_T1_.isra.0+0x1b1>
/usr/include/c++/10/bits/stl_algo.h:1950
    __introsort_loop(_RandomAccessIterator __first,
  4057f0:	41 56                	push   %r14
  4057f2:	49 89 f0             	mov    %rsi,%r8
  4057f5:	49 89 d6             	mov    %rdx,%r14
  4057f8:	41 55                	push   %r13
  4057fa:	49 89 fd             	mov    %rdi,%r13
  4057fd:	41 54                	push   %r12
  4057ff:	55                   	push   %rbp
_ZSt27__unguarded_partition_pivotIPiN9__gnu_cxx5__ops15_Iter_less_iterEET_S4_S4_T0_():
/usr/include/c++/10/bits/stl_algo.h:1929
      std::__move_median_to_first(__first, __first + 1, __mid, __last - 1,
  405800:	48 8d 6f 04          	lea    0x4(%rdi),%rbp
_ZSt16__introsort_loopIPilN9__gnu_cxx5__ops15_Iter_less_iterEEvT_S4_T0_T1_():
/usr/include/c++/10/bits/stl_algo.h:1950
    __introsort_loop(_RandomAccessIterator __first,
  405804:	53                   	push   %rbx
/usr/include/c++/10/bits/stl_algo.h:1956
	{
	  if (__depth_limit == 0)
  405805:	48 85 d2             	test   %rdx,%rdx
  405808:	0f 84 ef 00 00 00    	je     4058fd <_ZSt16__introsort_loopIPilN9__gnu_cxx5__ops15_Iter_less_iterEEvT_S4_T0_T1_.isra.0+0x11d>
_ZSt27__unguarded_partition_pivotIPiN9__gnu_cxx5__ops15_Iter_less_iterEET_S4_S4_T0_():
/usr/include/c++/10/bits/stl_algo.h:1928
      _RandomAccessIterator __mid = __first + (__last - __first) / 2;
  40580e:	48 c1 f8 03          	sar    $0x3,%rax
_ZNK9__gnu_cxx5__ops15_Iter_less_iterclIPiS3_EEbT_T0_():
/usr/include/c++/10/bits/predefined_ops.h:43
      { return *__it1 < *__it2; }
  405812:	41 8b 4d 04          	mov    0x4(%r13),%ecx
  405816:	41 8b 70 fc          	mov    -0x4(%r8),%esi
_ZSt16__introsort_loopIPilN9__gnu_cxx5__ops15_Iter_less_iterEEvT_S4_T0_T1_():
/usr/include/c++/10/bits/stl_algo.h:1961
	    {
	      std::__partial_sort(__first, __last, __last, __comp);
	      return;
	    }
	  --__depth_limit;
  40581a:	49 83 ee 01          	sub    $0x1,%r14
_ZSt27__unguarded_partition_pivotIPiN9__gnu_cxx5__ops15_Iter_less_iterEET_S4_S4_T0_():
/usr/include/c++/10/bits/stl_algo.h:1928
      _RandomAccessIterator __mid = __first + (__last - __first) / 2;
  40581e:	49 8d 7c 85 00       	lea    0x0(%r13,%rax,4),%rdi
_ZSt4swapIiENSt9enable_ifIXsrSt6__and_IJSt6__not_ISt15__is_tuple_likeIT_EESt21is_move_constructibleIS4_ESt18is_move_assignableIS4_EEE5valueEvE4typeERS4_SE_():
/usr/include/c++/10/bits/move.h:197
    {
#if __cplusplus < 201103L
      // concept requirements
      __glibcxx_function_requires(_SGIAssignableConcept<_Tp>)
#endif
      _Tp __tmp = _GLIBCXX_MOVE(__a);
  405823:	41 8b 55 00          	mov    0x0(%r13),%edx
_ZNK9__gnu_cxx5__ops15_Iter_less_iterclIPiS3_EEbT_T0_():
/usr/include/c++/10/bits/predefined_ops.h:43
  405827:	8b 07                	mov    (%rdi),%eax
_ZSt22__move_median_to_firstIPiN9__gnu_cxx5__ops15_Iter_less_iterEEvT_S4_S4_S4_T0_():
/usr/include/c++/10/bits/stl_algo.h:82
      if (__comp(__a, __b))
  405829:	39 c1                	cmp    %eax,%ecx
  40582b:	0f 8d 92 00 00 00    	jge    4058c3 <_ZSt16__introsort_loopIPilN9__gnu_cxx5__ops15_Iter_less_iterEEvT_S4_T0_T1_.isra.0+0xe3>
/usr/include/c++/10/bits/stl_algo.h:84
	  if (__comp(__b, __c))
  405831:	39 f0                	cmp    %esi,%eax
  405833:	0f 8c b1 00 00 00    	jl     4058ea <_ZSt16__introsort_loopIPilN9__gnu_cxx5__ops15_Iter_less_iterEEvT_S4_T0_T1_.isra.0+0x10a>
/usr/include/c++/10/bits/stl_algo.h:86
	  else if (__comp(__a, __c))
  405839:	39 f1                	cmp    %esi,%ecx
  40583b:	0f 8d 35 01 00 00    	jge    405976 <_ZSt16__introsort_loopIPilN9__gnu_cxx5__ops15_Iter_less_iterEEvT_S4_T0_T1_.isra.0+0x196>
_ZSt4swapIiENSt9enable_ifIXsrSt6__and_IJSt6__not_ISt15__is_tuple_likeIT_EESt21is_move_constructibleIS4_ESt18is_move_assignableIS4_EEE5valueEvE4typeERS4_SE_():
/usr/include/c++/10/bits/move.h:198
      __a = _GLIBCXX_MOVE(__b);
  405841:	41 89 75 00          	mov    %esi,0x0(%r13)
/usr/include/c++/10/bits/move.h:199
      __b = _GLIBCXX_MOVE(__tmp);
  405845:	41 89 50 fc          	mov    %edx,-0x4(%r8)
_ZNK9__gnu_cxx5__ops15_Iter_less_iterclIPiS3_EEbT_T0_():
/usr/include/c++/10/bits/predefined_ops.h:43
  405849:	41 8b 4d 00          	mov    0x0(%r13),%ecx
  40584d:	48 89 eb             	mov    %rbp,%rbx
_ZSt16__introsort_loopIPilN9__gnu_cxx5__ops15_Iter_less_iterEEvT_S4_T0_T1_():
/usr/include/c++/10/bits/predefined_ops.h:43
  405850:	4c 89 c0             	mov    %r8,%rax
  405853:	0f 1f 44 00 00       	nopl   0x0(%rax,%rax,1)
_ZNK9__gnu_cxx5__ops15_Iter_less_iterclIPiS3_EEbT_T0_():
/usr/include/c++/10/bits/predefined_ops.h:43
  405858:	8b 33                	mov    (%rbx),%esi
  40585a:	49 89 dc             	mov    %rbx,%r12
_ZSt21__unguarded_partitionIPiN9__gnu_cxx5__ops15_Iter_less_iterEET_S4_S4_S4_T0_():
/usr/include/c++/10/bits/stl_algo.h:1909
	  while (__comp(__first, __pivot))
  40585d:	39 ce                	cmp    %ecx,%esi
  40585f:	7c 2a                	jl     40588b <_ZSt16__introsort_loopIPilN9__gnu_cxx5__ops15_Iter_less_iterEEvT_S4_T0_T1_.isra.0+0xab>
/usr/include/c++/10/bits/stl_algo.h:1911
	  --__last;
  405861:	48 83 e8 04          	sub    $0x4,%rax
/usr/include/c++/10/bits/stl_algo.h:1912
	  while (__comp(__pivot, __last))
  405865:	39 d1                	cmp    %edx,%ecx
  405867:	7d 12                	jge    40587b <_ZSt16__introsort_loopIPilN9__gnu_cxx5__ops15_Iter_less_iterEEvT_S4_T0_T1_.isra.0+0x9b>
  405869:	0f 1f 80 00 00 00 00 	nopl   0x0(%rax)
_ZNK9__gnu_cxx5__ops15_Iter_less_iterclIPiS3_EEbT_T0_():
/usr/include/c++/10/bits/predefined_ops.h:43
  405870:	8b 50 fc             	mov    -0x4(%rax),%edx
_ZSt21__unguarded_partitionIPiN9__gnu_cxx5__ops15_Iter_less_iterEET_S4_S4_S4_T0_():
/usr/include/c++/10/bits/stl_algo.h:1913
	    --__last;
  405873:	48 83 e8 04          	sub    $0x4,%rax
/usr/include/c++/10/bits/stl_algo.h:1912
	  while (__comp(__pivot, __last))
  405877:	39 ca                	cmp    %ecx,%edx
  405879:	7f f5                	jg     405870 <_ZSt16__introsort_loopIPilN9__gnu_cxx5__ops15_Iter_less_iterEEvT_S4_T0_T1_.isra.0+0x90>
/usr/include/c++/10/bits/stl_algo.h:1914
	  if (!(__first < __last))
  40587b:	48 39 d8             	cmp    %rbx,%rax
  40587e:	76 18                	jbe    405898 <_ZSt16__introsort_loopIPilN9__gnu_cxx5__ops15_Iter_less_iterEEvT_S4_T0_T1_.isra.0+0xb8>
_ZSt4swapIiENSt9enable_ifIXsrSt6__and_IJSt6__not_ISt15__is_tuple_likeIT_EESt21is_move_constructibleIS4_ESt18is_move_assignableIS4_EEE5valueEvE4typeERS4_SE_():
/usr/include/c++/10/bits/move.h:198
      __a = _GLIBCXX_MOVE(__b);
  405880:	89 13                	mov    %edx,(%rbx)
_ZNK9__gnu_cxx5__ops15_Iter_less_iterclIPiS3_EEbT_T0_():
/usr/include/c++/10/bits/predefined_ops.h:43
  405882:	8b 50 fc             	mov    -0x4(%rax),%edx
_ZSt4swapIiENSt9enable_ifIXsrSt6__and_IJSt6__not_ISt15__is_tuple_likeIT_EESt21is_move_constructibleIS4_ESt18is_move_assignableIS4_EEE5valueEvE4typeERS4_SE_():
/usr/include/c++/10/bits/move.h:199
      __b = _GLIBCXX_MOVE(__tmp);
  405885:	89 30                	mov    %esi,(%rax)
_ZNK9__gnu_cxx5__ops15_Iter_less_iterclIPiS3_EEbT_T0_():
/usr/include/c++/10/bits/predefined_ops.h:43
  405887:	41 8b 4d 00          	mov    0x0(%r13),%ecx
  40588b:	48 83 c3 04          	add    $0x4,%rbx
  40588f:	eb c7                	jmp    405858 <_ZSt16__introsort_loopIPilN9__gnu_cxx5__ops15_Iter_less_iterEEvT_S4_T0_T1_.isra.0+0x78>
  405891:	0f 1f 80 00 00 00 00 	nopl   0x0(%rax)
_ZSt16__introsort_loopIPilN9__gnu_cxx5__ops15_Iter_less_iterEEvT_S4_T0_T1_():
/usr/include/c++/10/bits/stl_algo.h:1964
	  _RandomAccessIterator __cut =
	    std::__unguarded_partition_pivot(__first, __last, __comp);
	  std::__introsort_loop(__cut, __last, __depth_limit, __comp);
  405898:	4c 89 f2             	mov    %r14,%rdx
  40589b:	4c 89 c6             	mov    %r8,%rsi
  40589e:	48 89 df             	mov    %rbx,%rdi
  4058a1:	e8 3a ff ff ff       	callq  4057e0 <_ZSt16__introsort_loopIPilN9__gnu_cxx5__ops15_Iter_less_iterEEvT_S4_T0_T1_.isra.0>
/usr/include/c++/10/bits/stl_algo.h:1954
      while (__last - __first > int(_S_threshold))
  4058a6:	48 89 d8             	mov    %rbx,%rax
  4058a9:	4c 29 e8             	sub    %r13,%rax
  4058ac:	48 83 f8 40          	cmp    $0x40,%rax
  4058b0:	0f 8e b7 00 00 00    	jle    40596d <_ZSt16__introsort_loopIPilN9__gnu_cxx5__ops15_Iter_less_iterEEvT_S4_T0_T1_.isra.0+0x18d>
/usr/include/c++/10/bits/stl_algo.h:1956
	  if (__depth_limit == 0)
  4058b6:	4d 85 f6             	test   %r14,%r14
  4058b9:	74 45                	je     405900 <_ZSt16__introsort_loopIPilN9__gnu_cxx5__ops15_Iter_less_iterEEvT_S4_T0_T1_.isra.0+0x120>
  4058bb:	49 89 d8             	mov    %rbx,%r8
  4058be:	e9 4b ff ff ff       	jmpq   40580e <_ZSt16__introsort_loopIPilN9__gnu_cxx5__ops15_Iter_less_iterEEvT_S4_T0_T1_.isra.0+0x2e>
_ZSt22__move_median_to_firstIPiN9__gnu_cxx5__ops15_Iter_less_iterEEvT_S4_S4_S4_T0_():
/usr/include/c++/10/bits/stl_algo.h:91
      else if (__comp(__a, __c))
  4058c3:	39 f1                	cmp    %esi,%ecx
  4058c5:	7d 1b                	jge    4058e2 <_ZSt16__introsort_loopIPilN9__gnu_cxx5__ops15_Iter_less_iterEEvT_S4_T0_T1_.isra.0+0x102>
_ZSt4swapIiENSt9enable_ifIXsrSt6__and_IJSt6__not_ISt15__is_tuple_likeIT_EESt21is_move_constructibleIS4_ESt18is_move_assignableIS4_EEE5valueEvE4typeERS4_SE_():
/usr/include/c++/10/bits/move.h:198
      __a = _GLIBCXX_MOVE(__b);
  4058c7:	66 0f 6e ca          	movd   %edx,%xmm1
  4058cb:	66 0f 6e c1          	movd   %ecx,%xmm0
  4058cf:	66 0f 62 c1          	punpckldq %xmm1,%xmm0
  4058d3:	66 41 0f d6 45 00    	movq   %xmm0,0x0(%r13)
_ZNK9__gnu_cxx5__ops15_Iter_less_iterclIPiS3_EEbT_T0_():
/usr/include/c++/10/bits/predefined_ops.h:43
  4058d9:	41 8b 50 fc          	mov    -0x4(%r8),%edx
_ZSt9iter_swapIPiS0_EvT_T0_():
/usr/include/c++/10/bits/stl_algobase.h:184
#else
      // _GLIBCXX_RESOLVE_LIB_DEFECTS
      // 187. iter_swap underspecified
      swap(*__a, *__b);
#endif
    }
  4058dd:	e9 6b ff ff ff       	jmpq   40584d <_ZSt16__introsort_loopIPilN9__gnu_cxx5__ops15_Iter_less_iterEEvT_S4_T0_T1_.isra.0+0x6d>
_ZSt22__move_median_to_firstIPiN9__gnu_cxx5__ops15_Iter_less_iterEEvT_S4_S4_S4_T0_():
/usr/include/c++/10/bits/stl_algo.h:93
      else if (__comp(__b, __c))
  4058e2:	39 f0                	cmp    %esi,%eax
  4058e4:	0f 8c 57 ff ff ff    	jl     405841 <_ZSt16__introsort_loopIPilN9__gnu_cxx5__ops15_Iter_less_iterEEvT_S4_T0_T1_.isra.0+0x61>
_ZSt4swapIiENSt9enable_ifIXsrSt6__and_IJSt6__not_ISt15__is_tuple_likeIT_EESt21is_move_constructibleIS4_ESt18is_move_assignableIS4_EEE5valueEvE4typeERS4_SE_():
/usr/include/c++/10/bits/move.h:198
  4058ea:	41 89 45 00          	mov    %eax,0x0(%r13)
/usr/include/c++/10/bits/move.h:199
      __b = _GLIBCXX_MOVE(__tmp);
  4058ee:	89 17                	mov    %edx,(%rdi)
_ZNK9__gnu_cxx5__ops15_Iter_less_iterclIPiS3_EEbT_T0_():
/usr/include/c++/10/bits/predefined_ops.h:43
  4058f0:	41 8b 4d 00          	mov    0x0(%r13),%ecx
  4058f4:	41 8b 50 fc          	mov    -0x4(%r8),%edx
_ZSt9iter_swapIPiS0_EvT_T0_():
/usr/include/c++/10/bits/stl_algobase.h:184
  4058f8:	e9 50 ff ff ff       	jmpq   40584d <_ZSt16__introsort_loopIPilN9__gnu_cxx5__ops15_Iter_less_iterEEvT_S4_T0_T1_.isra.0+0x6d>
_ZSt16__introsort_loopIPilN9__gnu_cxx5__ops15_Iter_less_iterEEvT_S4_T0_T1_():
/usr/include/c++/10/bits/stl_algo.h:1956
	  if (__depth_limit == 0)
  4058fd:	49 89 f4             	mov    %rsi,%r12
_ZSt11__make_heapIPiN9__gnu_cxx5__ops15_Iter_less_iterEEvT_S4_RT0_():
/usr/include/c++/10/bits/stl_heap.h:350
	  _DistanceType;

      if (__last - __first < 2)
	return;

      const _DistanceType __len = __last - __first;
  405900:	48 c1 f8 02          	sar    $0x2,%rax
/usr/include/c++/10/bits/stl_heap.h:355
      _DistanceType __parent = (__len - 2) / 2;
      while (true)
	{
