
../cc_batching_nopt:     file format elf64-x86-64


Disassembly of section .init:

0000000000403000 <_init>:
_init():
  403000:	f3 0f 1e fa          	endbr64 
  403004:	48 83 ec 08          	sub    $0x8,%rsp
  403008:	48 8b 05 e1 6f 01 00 	mov    0x16fe1(%rip),%rax        # 419ff0 <__gmon_start__>
  40300f:	48 85 c0             	test   %rax,%rax
  403012:	74 02                	je     403016 <_init+0x16>
  403014:	ff d0                	callq  *%rax
  403016:	48 83 c4 08          	add    $0x8,%rsp
  40301a:	c3                   	retq   

Disassembly of section .plt:

0000000000403020 <.plt>:
  403020:	ff 35 e2 6f 01 00    	pushq  0x16fe2(%rip)        # 41a008 <_GLOBAL_OFFSET_TABLE_+0x8>
  403026:	f2 ff 25 e3 6f 01 00 	bnd jmpq *0x16fe3(%rip)        # 41a010 <_GLOBAL_OFFSET_TABLE_+0x10>
  40302d:	0f 1f 00             	nopl   (%rax)
  403030:	f3 0f 1e fa          	endbr64 
  403034:	68 00 00 00 00       	pushq  $0x0
  403039:	f2 e9 e1 ff ff ff    	bnd jmpq 403020 <.plt>
  40303f:	90                   	nop
  403040:	f3 0f 1e fa          	endbr64 
  403044:	68 01 00 00 00       	pushq  $0x1
  403049:	f2 e9 d1 ff ff ff    	bnd jmpq 403020 <.plt>
  40304f:	90                   	nop
  403050:	f3 0f 1e fa          	endbr64 
  403054:	68 02 00 00 00       	pushq  $0x2
  403059:	f2 e9 c1 ff ff ff    	bnd jmpq 403020 <.plt>
  40305f:	90                   	nop
  403060:	f3 0f 1e fa          	endbr64 
  403064:	68 03 00 00 00       	pushq  $0x3
  403069:	f2 e9 b1 ff ff ff    	bnd jmpq 403020 <.plt>
  40306f:	90                   	nop
  403070:	f3 0f 1e fa          	endbr64 
  403074:	68 04 00 00 00       	pushq  $0x4
  403079:	f2 e9 a1 ff ff ff    	bnd jmpq 403020 <.plt>
  40307f:	90                   	nop
  403080:	f3 0f 1e fa          	endbr64 
  403084:	68 05 00 00 00       	pushq  $0x5
  403089:	f2 e9 91 ff ff ff    	bnd jmpq 403020 <.plt>
  40308f:	90                   	nop
  403090:	f3 0f 1e fa          	endbr64 
  403094:	68 06 00 00 00       	pushq  $0x6
  403099:	f2 e9 81 ff ff ff    	bnd jmpq 403020 <.plt>
  40309f:	90                   	nop
  4030a0:	f3 0f 1e fa          	endbr64 
  4030a4:	68 07 00 00 00       	pushq  $0x7
  4030a9:	f2 e9 71 ff ff ff    	bnd jmpq 403020 <.plt>
  4030af:	90                   	nop
  4030b0:	f3 0f 1e fa          	endbr64 
  4030b4:	68 08 00 00 00       	pushq  $0x8
  4030b9:	f2 e9 61 ff ff ff    	bnd jmpq 403020 <.plt>
  4030bf:	90                   	nop
  4030c0:	f3 0f 1e fa          	endbr64 
  4030c4:	68 09 00 00 00       	pushq  $0x9
  4030c9:	f2 e9 51 ff ff ff    	bnd jmpq 403020 <.plt>
  4030cf:	90                   	nop
  4030d0:	f3 0f 1e fa          	endbr64 
  4030d4:	68 0a 00 00 00       	pushq  $0xa
  4030d9:	f2 e9 41 ff ff ff    	bnd jmpq 403020 <.plt>
  4030df:	90                   	nop
  4030e0:	f3 0f 1e fa          	endbr64 
  4030e4:	68 0b 00 00 00       	pushq  $0xb
  4030e9:	f2 e9 31 ff ff ff    	bnd jmpq 403020 <.plt>
  4030ef:	90                   	nop
  4030f0:	f3 0f 1e fa          	endbr64 
  4030f4:	68 0c 00 00 00       	pushq  $0xc
  4030f9:	f2 e9 21 ff ff ff    	bnd jmpq 403020 <.plt>
  4030ff:	90                   	nop
  403100:	f3 0f 1e fa          	endbr64 
  403104:	68 0d 00 00 00       	pushq  $0xd
  403109:	f2 e9 11 ff ff ff    	bnd jmpq 403020 <.plt>
  40310f:	90                   	nop
  403110:	f3 0f 1e fa          	endbr64 
  403114:	68 0e 00 00 00       	pushq  $0xe
  403119:	f2 e9 01 ff ff ff    	bnd jmpq 403020 <.plt>
  40311f:	90                   	nop
  403120:	f3 0f 1e fa          	endbr64 
  403124:	68 0f 00 00 00       	pushq  $0xf
  403129:	f2 e9 f1 fe ff ff    	bnd jmpq 403020 <.plt>
  40312f:	90                   	nop
  403130:	f3 0f 1e fa          	endbr64 
  403134:	68 10 00 00 00       	pushq  $0x10
  403139:	f2 e9 e1 fe ff ff    	bnd jmpq 403020 <.plt>
  40313f:	90                   	nop
  403140:	f3 0f 1e fa          	endbr64 
  403144:	68 11 00 00 00       	pushq  $0x11
  403149:	f2 e9 d1 fe ff ff    	bnd jmpq 403020 <.plt>
  40314f:	90                   	nop
  403150:	f3 0f 1e fa          	endbr64 
  403154:	68 12 00 00 00       	pushq  $0x12
  403159:	f2 e9 c1 fe ff ff    	bnd jmpq 403020 <.plt>
  40315f:	90                   	nop
  403160:	f3 0f 1e fa          	endbr64 
  403164:	68 13 00 00 00       	pushq  $0x13
  403169:	f2 e9 b1 fe ff ff    	bnd jmpq 403020 <.plt>
  40316f:	90                   	nop
  403170:	f3 0f 1e fa          	endbr64 
  403174:	68 14 00 00 00       	pushq  $0x14
  403179:	f2 e9 a1 fe ff ff    	bnd jmpq 403020 <.plt>
  40317f:	90                   	nop
  403180:	f3 0f 1e fa          	endbr64 
  403184:	68 15 00 00 00       	pushq  $0x15
  403189:	f2 e9 91 fe ff ff    	bnd jmpq 403020 <.plt>
  40318f:	90                   	nop
  403190:	f3 0f 1e fa          	endbr64 
  403194:	68 16 00 00 00       	pushq  $0x16
  403199:	f2 e9 81 fe ff ff    	bnd jmpq 403020 <.plt>
  40319f:	90                   	nop
  4031a0:	f3 0f 1e fa          	endbr64 
  4031a4:	68 17 00 00 00       	pushq  $0x17
  4031a9:	f2 e9 71 fe ff ff    	bnd jmpq 403020 <.plt>
  4031af:	90                   	nop
  4031b0:	f3 0f 1e fa          	endbr64 
  4031b4:	68 18 00 00 00       	pushq  $0x18
  4031b9:	f2 e9 61 fe ff ff    	bnd jmpq 403020 <.plt>
  4031bf:	90                   	nop
  4031c0:	f3 0f 1e fa          	endbr64 
  4031c4:	68 19 00 00 00       	pushq  $0x19
  4031c9:	f2 e9 51 fe ff ff    	bnd jmpq 403020 <.plt>
  4031cf:	90                   	nop
  4031d0:	f3 0f 1e fa          	endbr64 
  4031d4:	68 1a 00 00 00       	pushq  $0x1a
  4031d9:	f2 e9 41 fe ff ff    	bnd jmpq 403020 <.plt>
  4031df:	90                   	nop
  4031e0:	f3 0f 1e fa          	endbr64 
  4031e4:	68 1b 00 00 00       	pushq  $0x1b
  4031e9:	f2 e9 31 fe ff ff    	bnd jmpq 403020 <.plt>
  4031ef:	90                   	nop
  4031f0:	f3 0f 1e fa          	endbr64 
  4031f4:	68 1c 00 00 00       	pushq  $0x1c
  4031f9:	f2 e9 21 fe ff ff    	bnd jmpq 403020 <.plt>
  4031ff:	90                   	nop
  403200:	f3 0f 1e fa          	endbr64 
  403204:	68 1d 00 00 00       	pushq  $0x1d
  403209:	f2 e9 11 fe ff ff    	bnd jmpq 403020 <.plt>
  40320f:	90                   	nop
  403210:	f3 0f 1e fa          	endbr64 
  403214:	68 1e 00 00 00       	pushq  $0x1e
  403219:	f2 e9 01 fe ff ff    	bnd jmpq 403020 <.plt>
  40321f:	90                   	nop
  403220:	f3 0f 1e fa          	endbr64 
  403224:	68 1f 00 00 00       	pushq  $0x1f
  403229:	f2 e9 f1 fd ff ff    	bnd jmpq 403020 <.plt>
  40322f:	90                   	nop
  403230:	f3 0f 1e fa          	endbr64 
  403234:	68 20 00 00 00       	pushq  $0x20
  403239:	f2 e9 e1 fd ff ff    	bnd jmpq 403020 <.plt>
  40323f:	90                   	nop
  403240:	f3 0f 1e fa          	endbr64 
  403244:	68 21 00 00 00       	pushq  $0x21
  403249:	f2 e9 d1 fd ff ff    	bnd jmpq 403020 <.plt>
  40324f:	90                   	nop
  403250:	f3 0f 1e fa          	endbr64 
  403254:	68 22 00 00 00       	pushq  $0x22
  403259:	f2 e9 c1 fd ff ff    	bnd jmpq 403020 <.plt>
  40325f:	90                   	nop
  403260:	f3 0f 1e fa          	endbr64 
  403264:	68 23 00 00 00       	pushq  $0x23
  403269:	f2 e9 b1 fd ff ff    	bnd jmpq 403020 <.plt>
  40326f:	90                   	nop
  403270:	f3 0f 1e fa          	endbr64 
  403274:	68 24 00 00 00       	pushq  $0x24
  403279:	f2 e9 a1 fd ff ff    	bnd jmpq 403020 <.plt>
  40327f:	90                   	nop
  403280:	f3 0f 1e fa          	endbr64 
  403284:	68 25 00 00 00       	pushq  $0x25
  403289:	f2 e9 91 fd ff ff    	bnd jmpq 403020 <.plt>
  40328f:	90                   	nop
  403290:	f3 0f 1e fa          	endbr64 
  403294:	68 26 00 00 00       	pushq  $0x26
  403299:	f2 e9 81 fd ff ff    	bnd jmpq 403020 <.plt>
  40329f:	90                   	nop
  4032a0:	f3 0f 1e fa          	endbr64 
  4032a4:	68 27 00 00 00       	pushq  $0x27
  4032a9:	f2 e9 71 fd ff ff    	bnd jmpq 403020 <.plt>
  4032af:	90                   	nop
  4032b0:	f3 0f 1e fa          	endbr64 
  4032b4:	68 28 00 00 00       	pushq  $0x28
  4032b9:	f2 e9 61 fd ff ff    	bnd jmpq 403020 <.plt>
  4032bf:	90                   	nop
  4032c0:	f3 0f 1e fa          	endbr64 
  4032c4:	68 29 00 00 00       	pushq  $0x29
  4032c9:	f2 e9 51 fd ff ff    	bnd jmpq 403020 <.plt>
  4032cf:	90                   	nop
  4032d0:	f3 0f 1e fa          	endbr64 
  4032d4:	68 2a 00 00 00       	pushq  $0x2a
  4032d9:	f2 e9 41 fd ff ff    	bnd jmpq 403020 <.plt>
  4032df:	90                   	nop
  4032e0:	f3 0f 1e fa          	endbr64 
  4032e4:	68 2b 00 00 00       	pushq  $0x2b
  4032e9:	f2 e9 31 fd ff ff    	bnd jmpq 403020 <.plt>
  4032ef:	90                   	nop
  4032f0:	f3 0f 1e fa          	endbr64 
  4032f4:	68 2c 00 00 00       	pushq  $0x2c
  4032f9:	f2 e9 21 fd ff ff    	bnd jmpq 403020 <.plt>
  4032ff:	90                   	nop
  403300:	f3 0f 1e fa          	endbr64 
  403304:	68 2d 00 00 00       	pushq  $0x2d
  403309:	f2 e9 11 fd ff ff    	bnd jmpq 403020 <.plt>
  40330f:	90                   	nop
  403310:	f3 0f 1e fa          	endbr64 
  403314:	68 2e 00 00 00       	pushq  $0x2e
  403319:	f2 e9 01 fd ff ff    	bnd jmpq 403020 <.plt>
  40331f:	90                   	nop
  403320:	f3 0f 1e fa          	endbr64 
  403324:	68 2f 00 00 00       	pushq  $0x2f
  403329:	f2 e9 f1 fc ff ff    	bnd jmpq 403020 <.plt>
  40332f:	90                   	nop
  403330:	f3 0f 1e fa          	endbr64 
  403334:	68 30 00 00 00       	pushq  $0x30
  403339:	f2 e9 e1 fc ff ff    	bnd jmpq 403020 <.plt>
  40333f:	90                   	nop
  403340:	f3 0f 1e fa          	endbr64 
  403344:	68 31 00 00 00       	pushq  $0x31
  403349:	f2 e9 d1 fc ff ff    	bnd jmpq 403020 <.plt>
  40334f:	90                   	nop
  403350:	f3 0f 1e fa          	endbr64 
  403354:	68 32 00 00 00       	pushq  $0x32
  403359:	f2 e9 c1 fc ff ff    	bnd jmpq 403020 <.plt>
  40335f:	90                   	nop
  403360:	f3 0f 1e fa          	endbr64 
  403364:	68 33 00 00 00       	pushq  $0x33
  403369:	f2 e9 b1 fc ff ff    	bnd jmpq 403020 <.plt>
  40336f:	90                   	nop
  403370:	f3 0f 1e fa          	endbr64 
  403374:	68 34 00 00 00       	pushq  $0x34
  403379:	f2 e9 a1 fc ff ff    	bnd jmpq 403020 <.plt>
  40337f:	90                   	nop
  403380:	f3 0f 1e fa          	endbr64 
  403384:	68 35 00 00 00       	pushq  $0x35
  403389:	f2 e9 91 fc ff ff    	bnd jmpq 403020 <.plt>
  40338f:	90                   	nop
  403390:	f3 0f 1e fa          	endbr64 
  403394:	68 36 00 00 00       	pushq  $0x36
  403399:	f2 e9 81 fc ff ff    	bnd jmpq 403020 <.plt>
  40339f:	90                   	nop
  4033a0:	f3 0f 1e fa          	endbr64 
  4033a4:	68 37 00 00 00       	pushq  $0x37
  4033a9:	f2 e9 71 fc ff ff    	bnd jmpq 403020 <.plt>
  4033af:	90                   	nop
  4033b0:	f3 0f 1e fa          	endbr64 
  4033b4:	68 38 00 00 00       	pushq  $0x38
  4033b9:	f2 e9 61 fc ff ff    	bnd jmpq 403020 <.plt>
  4033bf:	90                   	nop
  4033c0:	f3 0f 1e fa          	endbr64 
  4033c4:	68 39 00 00 00       	pushq  $0x39
  4033c9:	f2 e9 51 fc ff ff    	bnd jmpq 403020 <.plt>
  4033cf:	90                   	nop
  4033d0:	f3 0f 1e fa          	endbr64 
  4033d4:	68 3a 00 00 00       	pushq  $0x3a
  4033d9:	f2 e9 41 fc ff ff    	bnd jmpq 403020 <.plt>
  4033df:	90                   	nop
  4033e0:	f3 0f 1e fa          	endbr64 
  4033e4:	68 3b 00 00 00       	pushq  $0x3b
  4033e9:	f2 e9 31 fc ff ff    	bnd jmpq 403020 <.plt>
  4033ef:	90                   	nop
  4033f0:	f3 0f 1e fa          	endbr64 
  4033f4:	68 3c 00 00 00       	pushq  $0x3c
  4033f9:	f2 e9 21 fc ff ff    	bnd jmpq 403020 <.plt>
  4033ff:	90                   	nop
  403400:	f3 0f 1e fa          	endbr64 
  403404:	68 3d 00 00 00       	pushq  $0x3d
  403409:	f2 e9 11 fc ff ff    	bnd jmpq 403020 <.plt>
  40340f:	90                   	nop
  403410:	f3 0f 1e fa          	endbr64 
  403414:	68 3e 00 00 00       	pushq  $0x3e
  403419:	f2 e9 01 fc ff ff    	bnd jmpq 403020 <.plt>
  40341f:	90                   	nop
  403420:	f3 0f 1e fa          	endbr64 
  403424:	68 3f 00 00 00       	pushq  $0x3f
  403429:	f2 e9 f1 fb ff ff    	bnd jmpq 403020 <.plt>
  40342f:	90                   	nop
  403430:	f3 0f 1e fa          	endbr64 
  403434:	68 40 00 00 00       	pushq  $0x40
  403439:	f2 e9 e1 fb ff ff    	bnd jmpq 403020 <.plt>
  40343f:	90                   	nop
  403440:	f3 0f 1e fa          	endbr64 
  403444:	68 41 00 00 00       	pushq  $0x41
  403449:	f2 e9 d1 fb ff ff    	bnd jmpq 403020 <.plt>
  40344f:	90                   	nop
  403450:	f3 0f 1e fa          	endbr64 
  403454:	68 42 00 00 00       	pushq  $0x42
  403459:	f2 e9 c1 fb ff ff    	bnd jmpq 403020 <.plt>
  40345f:	90                   	nop
  403460:	f3 0f 1e fa          	endbr64 
  403464:	68 43 00 00 00       	pushq  $0x43
  403469:	f2 e9 b1 fb ff ff    	bnd jmpq 403020 <.plt>
  40346f:	90                   	nop
  403470:	f3 0f 1e fa          	endbr64 
  403474:	68 44 00 00 00       	pushq  $0x44
  403479:	f2 e9 a1 fb ff ff    	bnd jmpq 403020 <.plt>
  40347f:	90                   	nop
  403480:	f3 0f 1e fa          	endbr64 
  403484:	68 45 00 00 00       	pushq  $0x45
  403489:	f2 e9 91 fb ff ff    	bnd jmpq 403020 <.plt>
  40348f:	90                   	nop
  403490:	f3 0f 1e fa          	endbr64 
  403494:	68 46 00 00 00       	pushq  $0x46
  403499:	f2 e9 81 fb ff ff    	bnd jmpq 403020 <.plt>
  40349f:	90                   	nop
  4034a0:	f3 0f 1e fa          	endbr64 
  4034a4:	68 47 00 00 00       	pushq  $0x47
  4034a9:	f2 e9 71 fb ff ff    	bnd jmpq 403020 <.plt>
  4034af:	90                   	nop
  4034b0:	f3 0f 1e fa          	endbr64 
  4034b4:	68 48 00 00 00       	pushq  $0x48
  4034b9:	f2 e9 61 fb ff ff    	bnd jmpq 403020 <.plt>
  4034bf:	90                   	nop
  4034c0:	f3 0f 1e fa          	endbr64 
  4034c4:	68 49 00 00 00       	pushq  $0x49
  4034c9:	f2 e9 51 fb ff ff    	bnd jmpq 403020 <.plt>
  4034cf:	90                   	nop
  4034d0:	f3 0f 1e fa          	endbr64 
  4034d4:	68 4a 00 00 00       	pushq  $0x4a
  4034d9:	f2 e9 41 fb ff ff    	bnd jmpq 403020 <.plt>
  4034df:	90                   	nop
  4034e0:	f3 0f 1e fa          	endbr64 
  4034e4:	68 4b 00 00 00       	pushq  $0x4b
  4034e9:	f2 e9 31 fb ff ff    	bnd jmpq 403020 <.plt>
  4034ef:	90                   	nop
  4034f0:	f3 0f 1e fa          	endbr64 
  4034f4:	68 4c 00 00 00       	pushq  $0x4c
  4034f9:	f2 e9 21 fb ff ff    	bnd jmpq 403020 <.plt>
  4034ff:	90                   	nop
  403500:	f3 0f 1e fa          	endbr64 
  403504:	68 4d 00 00 00       	pushq  $0x4d
  403509:	f2 e9 11 fb ff ff    	bnd jmpq 403020 <.plt>
  40350f:	90                   	nop
  403510:	f3 0f 1e fa          	endbr64 
  403514:	68 4e 00 00 00       	pushq  $0x4e
  403519:	f2 e9 01 fb ff ff    	bnd jmpq 403020 <.plt>
  40351f:	90                   	nop
  403520:	f3 0f 1e fa          	endbr64 
  403524:	68 4f 00 00 00       	pushq  $0x4f
  403529:	f2 e9 f1 fa ff ff    	bnd jmpq 403020 <.plt>
  40352f:	90                   	nop
  403530:	f3 0f 1e fa          	endbr64 
  403534:	68 50 00 00 00       	pushq  $0x50
  403539:	f2 e9 e1 fa ff ff    	bnd jmpq 403020 <.plt>
  40353f:	90                   	nop
  403540:	f3 0f 1e fa          	endbr64 
  403544:	68 51 00 00 00       	pushq  $0x51
  403549:	f2 e9 d1 fa ff ff    	bnd jmpq 403020 <.plt>
  40354f:	90                   	nop
  403550:	f3 0f 1e fa          	endbr64 
  403554:	68 52 00 00 00       	pushq  $0x52
  403559:	f2 e9 c1 fa ff ff    	bnd jmpq 403020 <.plt>
  40355f:	90                   	nop
  403560:	f3 0f 1e fa          	endbr64 
  403564:	68 53 00 00 00       	pushq  $0x53
  403569:	f2 e9 b1 fa ff ff    	bnd jmpq 403020 <.plt>
  40356f:	90                   	nop
  403570:	f3 0f 1e fa          	endbr64 
  403574:	68 54 00 00 00       	pushq  $0x54
  403579:	f2 e9 a1 fa ff ff    	bnd jmpq 403020 <.plt>
  40357f:	90                   	nop
  403580:	f3 0f 1e fa          	endbr64 
  403584:	68 55 00 00 00       	pushq  $0x55
  403589:	f2 e9 91 fa ff ff    	bnd jmpq 403020 <.plt>
  40358f:	90                   	nop
  403590:	f3 0f 1e fa          	endbr64 
  403594:	68 56 00 00 00       	pushq  $0x56
  403599:	f2 e9 81 fa ff ff    	bnd jmpq 403020 <.plt>
  40359f:	90                   	nop
  4035a0:	f3 0f 1e fa          	endbr64 
  4035a4:	68 57 00 00 00       	pushq  $0x57
  4035a9:	f2 e9 71 fa ff ff    	bnd jmpq 403020 <.plt>
  4035af:	90                   	nop
  4035b0:	f3 0f 1e fa          	endbr64 
  4035b4:	68 58 00 00 00       	pushq  $0x58
  4035b9:	f2 e9 61 fa ff ff    	bnd jmpq 403020 <.plt>
  4035bf:	90                   	nop
  4035c0:	f3 0f 1e fa          	endbr64 
  4035c4:	68 59 00 00 00       	pushq  $0x59
  4035c9:	f2 e9 51 fa ff ff    	bnd jmpq 403020 <.plt>
  4035cf:	90                   	nop
  4035d0:	f3 0f 1e fa          	endbr64 
  4035d4:	68 5a 00 00 00       	pushq  $0x5a
  4035d9:	f2 e9 41 fa ff ff    	bnd jmpq 403020 <.plt>
  4035df:	90                   	nop
  4035e0:	f3 0f 1e fa          	endbr64 
  4035e4:	68 5b 00 00 00       	pushq  $0x5b
  4035e9:	f2 e9 31 fa ff ff    	bnd jmpq 403020 <.plt>
  4035ef:	90                   	nop
  4035f0:	f3 0f 1e fa          	endbr64 
  4035f4:	68 5c 00 00 00       	pushq  $0x5c
  4035f9:	f2 e9 21 fa ff ff    	bnd jmpq 403020 <.plt>
  4035ff:	90                   	nop
  403600:	f3 0f 1e fa          	endbr64 
  403604:	68 5d 00 00 00       	pushq  $0x5d
  403609:	f2 e9 11 fa ff ff    	bnd jmpq 403020 <.plt>
  40360f:	90                   	nop
  403610:	f3 0f 1e fa          	endbr64 
  403614:	68 5e 00 00 00       	pushq  $0x5e
  403619:	f2 e9 01 fa ff ff    	bnd jmpq 403020 <.plt>
  40361f:	90                   	nop
  403620:	f3 0f 1e fa          	endbr64 
  403624:	68 5f 00 00 00       	pushq  $0x5f
  403629:	f2 e9 f1 f9 ff ff    	bnd jmpq 403020 <.plt>
  40362f:	90                   	nop
  403630:	f3 0f 1e fa          	endbr64 
  403634:	68 60 00 00 00       	pushq  $0x60
  403639:	f2 e9 e1 f9 ff ff    	bnd jmpq 403020 <.plt>
  40363f:	90                   	nop
  403640:	f3 0f 1e fa          	endbr64 
  403644:	68 61 00 00 00       	pushq  $0x61
  403649:	f2 e9 d1 f9 ff ff    	bnd jmpq 403020 <.plt>
  40364f:	90                   	nop
  403650:	f3 0f 1e fa          	endbr64 
  403654:	68 62 00 00 00       	pushq  $0x62
  403659:	f2 e9 c1 f9 ff ff    	bnd jmpq 403020 <.plt>
  40365f:	90                   	nop
  403660:	f3 0f 1e fa          	endbr64 
  403664:	68 63 00 00 00       	pushq  $0x63
  403669:	f2 e9 b1 f9 ff ff    	bnd jmpq 403020 <.plt>
  40366f:	90                   	nop
  403670:	f3 0f 1e fa          	endbr64 
  403674:	68 64 00 00 00       	pushq  $0x64
  403679:	f2 e9 a1 f9 ff ff    	bnd jmpq 403020 <.plt>
  40367f:	90                   	nop
  403680:	f3 0f 1e fa          	endbr64 
  403684:	68 65 00 00 00       	pushq  $0x65
  403689:	f2 e9 91 f9 ff ff    	bnd jmpq 403020 <.plt>
  40368f:	90                   	nop
  403690:	f3 0f 1e fa          	endbr64 
  403694:	68 66 00 00 00       	pushq  $0x66
  403699:	f2 e9 81 f9 ff ff    	bnd jmpq 403020 <.plt>
  40369f:	90                   	nop
  4036a0:	f3 0f 1e fa          	endbr64 
  4036a4:	68 67 00 00 00       	pushq  $0x67
  4036a9:	f2 e9 71 f9 ff ff    	bnd jmpq 403020 <.plt>
  4036af:	90                   	nop
  4036b0:	f3 0f 1e fa          	endbr64 
  4036b4:	68 68 00 00 00       	pushq  $0x68
  4036b9:	f2 e9 61 f9 ff ff    	bnd jmpq 403020 <.plt>
  4036bf:	90                   	nop
  4036c0:	f3 0f 1e fa          	endbr64 
  4036c4:	68 69 00 00 00       	pushq  $0x69
  4036c9:	f2 e9 51 f9 ff ff    	bnd jmpq 403020 <.plt>
  4036cf:	90                   	nop
  4036d0:	f3 0f 1e fa          	endbr64 
  4036d4:	68 6a 00 00 00       	pushq  $0x6a
  4036d9:	f2 e9 41 f9 ff ff    	bnd jmpq 403020 <.plt>
  4036df:	90                   	nop
  4036e0:	f3 0f 1e fa          	endbr64 
  4036e4:	68 6b 00 00 00       	pushq  $0x6b
  4036e9:	f2 e9 31 f9 ff ff    	bnd jmpq 403020 <.plt>
  4036ef:	90                   	nop

Disassembly of section .plt.sec:

00000000004036f0 <__printf_chk@plt>:
  4036f0:	f3 0f 1e fa          	endbr64 
  4036f4:	f2 ff 25 1d 69 01 00 	bnd jmpq *0x1691d(%rip)        # 41a018 <__printf_chk@GLIBC_2.3.4>
  4036fb:	0f 1f 44 00 00       	nopl   0x0(%rax,%rax,1)

0000000000403700 <_Znam@plt>:
  403700:	f3 0f 1e fa          	endbr64 
  403704:	f2 ff 25 15 69 01 00 	bnd jmpq *0x16915(%rip)        # 41a020 <_Znam@GLIBCXX_3.4>
  40370b:	0f 1f 44 00 00       	nopl   0x0(%rax,%rax,1)

0000000000403710 <GOMP_loop_end_nowait@plt>:
  403710:	f3 0f 1e fa          	endbr64 
  403714:	f2 ff 25 0d 69 01 00 	bnd jmpq *0x1690d(%rip)        # 41a028 <GOMP_loop_end_nowait@VERSION>
  40371b:	0f 1f 44 00 00       	nopl   0x0(%rax,%rax,1)

0000000000403720 <_ZNSo3putEc@plt>:
  403720:	f3 0f 1e fa          	endbr64 
  403724:	f2 ff 25 05 69 01 00 	bnd jmpq *0x16905(%rip)        # 41a030 <_ZNSo3putEc@GLIBCXX_3.4>
  40372b:	0f 1f 44 00 00       	nopl   0x0(%rax,%rax,1)

0000000000403730 <_ZNSt6chrono3_V212system_clock3nowEv@plt>:
  403730:	f3 0f 1e fa          	endbr64 
  403734:	f2 ff 25 fd 68 01 00 	bnd jmpq *0x168fd(%rip)        # 41a038 <_ZNSt6chrono3_V212system_clock3nowEv@GLIBCXX_3.4.19>
  40373b:	0f 1f 44 00 00       	nopl   0x0(%rax,%rax,1)

0000000000403740 <syscall@plt>:
  403740:	f3 0f 1e fa          	endbr64 
  403744:	f2 ff 25 f5 68 01 00 	bnd jmpq *0x168f5(%rip)        # 41a040 <syscall@GLIBC_2.2.5>
  40374b:	0f 1f 44 00 00       	nopl   0x0(%rax,%rax,1)

0000000000403750 <bind@plt>:
  403750:	f3 0f 1e fa          	endbr64 
  403754:	f2 ff 25 ed 68 01 00 	bnd jmpq *0x168ed(%rip)        # 41a048 <bind@GLIBC_2.2.5>
  40375b:	0f 1f 44 00 00       	nopl   0x0(%rax,%rax,1)

0000000000403760 <strstr@plt>:
  403760:	f3 0f 1e fa          	endbr64 
  403764:	f2 ff 25 e5 68 01 00 	bnd jmpq *0x168e5(%rip)        # 41a050 <strstr@GLIBC_2.2.5>
  40376b:	0f 1f 44 00 00       	nopl   0x0(%rax,%rax,1)

0000000000403770 <_ZNSt13basic_filebufIcSt11char_traitsIcEE5closeEv@plt>:
  403770:	f3 0f 1e fa          	endbr64 
  403774:	f2 ff 25 dd 68 01 00 	bnd jmpq *0x168dd(%rip)        # 41a058 <_ZNSt13basic_filebufIcSt11char_traitsIcEE5closeEv@GLIBCXX_3.4>
  40377b:	0f 1f 44 00 00       	nopl   0x0(%rax,%rax,1)

0000000000403780 <getopt@plt>:
  403780:	f3 0f 1e fa          	endbr64 
  403784:	f2 ff 25 d5 68 01 00 	bnd jmpq *0x168d5(%rip)        # 41a060 <getopt@GLIBC_2.2.5>
  40378b:	0f 1f 44 00 00       	nopl   0x0(%rax,%rax,1)

0000000000403790 <_ZNKSt12__basic_fileIcE7is_openEv@plt>:
  403790:	f3 0f 1e fa          	endbr64 
  403794:	f2 ff 25 cd 68 01 00 	bnd jmpq *0x168cd(%rip)        # 41a068 <_ZNKSt12__basic_fileIcE7is_openEv@GLIBCXX_3.4>
  40379b:	0f 1f 44 00 00       	nopl   0x0(%rax,%rax,1)

00000000004037a0 <socket@plt>:
  4037a0:	f3 0f 1e fa          	endbr64 
  4037a4:	f2 ff 25 c5 68 01 00 	bnd jmpq *0x168c5(%rip)        # 41a070 <socket@GLIBC_2.2.5>
  4037ab:	0f 1f 44 00 00       	nopl   0x0(%rax,%rax,1)

00000000004037b0 <_ZNSt14basic_ifstreamIcSt11char_traitsIcEED1Ev@plt>:
  4037b0:	f3 0f 1e fa          	endbr64 
  4037b4:	f2 ff 25 bd 68 01 00 	bnd jmpq *0x168bd(%rip)        # 41a078 <_ZNSt14basic_ifstreamIcSt11char_traitsIcEED1Ev@GLIBCXX_3.4>
  4037bb:	0f 1f 44 00 00       	nopl   0x0(%rax,%rax,1)

00000000004037c0 <fork@plt>:
  4037c0:	f3 0f 1e fa          	endbr64 
  4037c4:	f2 ff 25 b5 68 01 00 	bnd jmpq *0x168b5(%rip)        # 41a080 <fork@GLIBC_2.2.5>
  4037cb:	0f 1f 44 00 00       	nopl   0x0(%rax,%rax,1)

00000000004037d0 <_ZNKSt7__cxx1112basic_stringIcSt11char_traitsIcESaIcEE7compareEPKc@plt>:
  4037d0:	f3 0f 1e fa          	endbr64 
  4037d4:	f2 ff 25 ad 68 01 00 	bnd jmpq *0x168ad(%rip)        # 41a088 <_ZNKSt7__cxx1112basic_stringIcSt11char_traitsIcESaIcEE7compareEPKc@GLIBCXX_3.4.21>
  4037db:	0f 1f 44 00 00       	nopl   0x0(%rax,%rax,1)

00000000004037e0 <execlp@plt>:
  4037e0:	f3 0f 1e fa          	endbr64 
  4037e4:	f2 ff 25 a5 68 01 00 	bnd jmpq *0x168a5(%rip)        # 41a090 <execlp@GLIBC_2.2.5>
  4037eb:	0f 1f 44 00 00       	nopl   0x0(%rax,%rax,1)

00000000004037f0 <_ZNSt8ios_baseC2Ev@plt>:
  4037f0:	f3 0f 1e fa          	endbr64 
  4037f4:	f2 ff 25 9d 68 01 00 	bnd jmpq *0x1689d(%rip)        # 41a098 <_ZNSt8ios_baseC2Ev@GLIBCXX_3.4>
  4037fb:	0f 1f 44 00 00       	nopl   0x0(%rax,%rax,1)

0000000000403800 <_ZNSt7__cxx1112basic_stringIcSt11char_traitsIcESaIcEE9_M_appendEPKcm@plt>:
  403800:	f3 0f 1e fa          	endbr64 
  403804:	f2 ff 25 95 68 01 00 	bnd jmpq *0x16895(%rip)        # 41a0a0 <_ZNSt7__cxx1112basic_stringIcSt11char_traitsIcESaIcEE9_M_appendEPKcm@GLIBCXX_3.4.21>
  40380b:	0f 1f 44 00 00       	nopl   0x0(%rax,%rax,1)

0000000000403810 <recv@plt>:
  403810:	f3 0f 1e fa          	endbr64 
  403814:	f2 ff 25 8d 68 01 00 	bnd jmpq *0x1688d(%rip)        # 41a0a8 <recv@GLIBC_2.2.5>
  40381b:	0f 1f 44 00 00       	nopl   0x0(%rax,%rax,1)

0000000000403820 <_ZNSt8ios_baseD2Ev@plt>:
  403820:	f3 0f 1e fa          	endbr64 
  403824:	f2 ff 25 85 68 01 00 	bnd jmpq *0x16885(%rip)        # 41a0b0 <_ZNSt8ios_baseD2Ev@GLIBCXX_3.4>
  40382b:	0f 1f 44 00 00       	nopl   0x0(%rax,%rax,1)

0000000000403830 <_ZSt17__throw_bad_allocv@plt>:
  403830:	f3 0f 1e fa          	endbr64 
  403834:	f2 ff 25 7d 68 01 00 	bnd jmpq *0x1687d(%rip)        # 41a0b8 <_ZSt17__throw_bad_allocv@GLIBCXX_3.4>
  40383b:	0f 1f 44 00 00       	nopl   0x0(%rax,%rax,1)

0000000000403840 <_ZNSi4peekEv@plt>:
  403840:	f3 0f 1e fa          	endbr64 
  403844:	f2 ff 25 75 68 01 00 	bnd jmpq *0x16875(%rip)        # 41a0c0 <_ZNSi4peekEv@GLIBCXX_3.4>
  40384b:	0f 1f 44 00 00       	nopl   0x0(%rax,%rax,1)

0000000000403850 <__cxa_begin_catch@plt>:
  403850:	f3 0f 1e fa          	endbr64 
  403854:	f2 ff 25 6d 68 01 00 	bnd jmpq *0x1686d(%rip)        # 41a0c8 <__cxa_begin_catch@CXXABI_1.3>
  40385b:	0f 1f 44 00 00       	nopl   0x0(%rax,%rax,1)

0000000000403860 <strlen@plt>:
  403860:	f3 0f 1e fa          	endbr64 
  403864:	f2 ff 25 65 68 01 00 	bnd jmpq *0x16865(%rip)        # 41a0d0 <strlen@GLIBC_2.2.5>
  40386b:	0f 1f 44 00 00       	nopl   0x0(%rax,%rax,1)

0000000000403870 <_ZNSt7__cxx1119basic_istringstreamIcSt11char_traitsIcESaIcEED1Ev@plt>:
  403870:	f3 0f 1e fa          	endbr64 
  403874:	f2 ff 25 5d 68 01 00 	bnd jmpq *0x1685d(%rip)        # 41a0d8 <_ZNSt7__cxx1119basic_istringstreamIcSt11char_traitsIcESaIcEED1Ev@GLIBCXX_3.4.21>
  40387b:	0f 1f 44 00 00       	nopl   0x0(%rax,%rax,1)

0000000000403880 <send@plt>:
  403880:	f3 0f 1e fa          	endbr64 
  403884:	f2 ff 25 55 68 01 00 	bnd jmpq *0x16855(%rip)        # 41a0e0 <send@GLIBC_2.2.5>
  40388b:	0f 1f 44 00 00       	nopl   0x0(%rax,%rax,1)

0000000000403890 <_ZSt20__throw_length_errorPKc@plt>:
  403890:	f3 0f 1e fa          	endbr64 
  403894:	f2 ff 25 4d 68 01 00 	bnd jmpq *0x1684d(%rip)        # 41a0e8 <_ZSt20__throw_length_errorPKc@GLIBCXX_3.4>
  40389b:	0f 1f 44 00 00       	nopl   0x0(%rax,%rax,1)

00000000004038a0 <memset@plt>:
  4038a0:	f3 0f 1e fa          	endbr64 
  4038a4:	f2 ff 25 45 68 01 00 	bnd jmpq *0x16845(%rip)        # 41a0f0 <memset@GLIBC_2.2.5>
  4038ab:	0f 1f 44 00 00       	nopl   0x0(%rax,%rax,1)

00000000004038b0 <getrusage@plt>:
  4038b0:	f3 0f 1e fa          	endbr64 
  4038b4:	f2 ff 25 3d 68 01 00 	bnd jmpq *0x1683d(%rip)        # 41a0f8 <getrusage@GLIBC_2.2.5>
  4038bb:	0f 1f 44 00 00       	nopl   0x0(%rax,%rax,1)

00000000004038c0 <munmap@plt>:
  4038c0:	f3 0f 1e fa          	endbr64 
  4038c4:	f2 ff 25 35 68 01 00 	bnd jmpq *0x16835(%rip)        # 41a100 <munmap@GLIBC_2.2.5>
  4038cb:	0f 1f 44 00 00       	nopl   0x0(%rax,%rax,1)

00000000004038d0 <GOMP_loop_nonmonotonic_dynamic_start@plt>:
  4038d0:	f3 0f 1e fa          	endbr64 
  4038d4:	f2 ff 25 2d 68 01 00 	bnd jmpq *0x1682d(%rip)        # 41a108 <GOMP_loop_nonmonotonic_dynamic_start@VERSION>
  4038db:	0f 1f 44 00 00       	nopl   0x0(%rax,%rax,1)

00000000004038e0 <__snprintf_chk@plt>:
  4038e0:	f3 0f 1e fa          	endbr64 
  4038e4:	f2 ff 25 25 68 01 00 	bnd jmpq *0x16825(%rip)        # 41a110 <__snprintf_chk@GLIBC_2.3.4>
  4038eb:	0f 1f 44 00 00       	nopl   0x0(%rax,%rax,1)

00000000004038f0 <_ZNSirsERi@plt>:
  4038f0:	f3 0f 1e fa          	endbr64 
  4038f4:	f2 ff 25 1d 68 01 00 	bnd jmpq *0x1681d(%rip)        # 41a118 <_ZNSirsERi@GLIBCXX_3.4>
  4038fb:	0f 1f 44 00 00       	nopl   0x0(%rax,%rax,1)

0000000000403900 <_ZNSi6ignoreEli@plt>:
  403900:	f3 0f 1e fa          	endbr64 
  403904:	f2 ff 25 15 68 01 00 	bnd jmpq *0x16815(%rip)        # 41a120 <_ZNSi6ignoreEli@GLIBCXX_3.4>
  40390b:	0f 1f 44 00 00       	nopl   0x0(%rax,%rax,1)

0000000000403910 <_ZNSo9_M_insertImEERSoT_@plt>:
  403910:	f3 0f 1e fa          	endbr64 
  403914:	f2 ff 25 0d 68 01 00 	bnd jmpq *0x1680d(%rip)        # 41a128 <_ZNSo9_M_insertImEERSoT_@GLIBCXX_3.4.9>
  40391b:	0f 1f 44 00 00       	nopl   0x0(%rax,%rax,1)

0000000000403920 <_ZNSo5flushEv@plt>:
  403920:	f3 0f 1e fa          	endbr64 
  403924:	f2 ff 25 05 68 01 00 	bnd jmpq *0x16805(%rip)        # 41a130 <_ZNSo5flushEv@GLIBCXX_3.4>
  40392b:	0f 1f 44 00 00       	nopl   0x0(%rax,%rax,1)

0000000000403930 <_ZNKSt8__detail20_Prime_rehash_policy11_M_next_bktEm@plt>:
  403930:	f3 0f 1e fa          	endbr64 
  403934:	f2 ff 25 fd 67 01 00 	bnd jmpq *0x167fd(%rip)        # 41a138 <_ZNKSt8__detail20_Prime_rehash_policy11_M_next_bktEm@GLIBCXX_3.4.18>
  40393b:	0f 1f 44 00 00       	nopl   0x0(%rax,%rax,1)

0000000000403940 <_ZSt19__throw_logic_errorPKc@plt>:
  403940:	f3 0f 1e fa          	endbr64 
  403944:	f2 ff 25 f5 67 01 00 	bnd jmpq *0x167f5(%rip)        # 41a140 <_ZSt19__throw_logic_errorPKc@GLIBCXX_3.4>
  40394b:	0f 1f 44 00 00       	nopl   0x0(%rax,%rax,1)

0000000000403950 <memcpy@plt>:
  403950:	f3 0f 1e fa          	endbr64 
  403954:	f2 ff 25 ed 67 01 00 	bnd jmpq *0x167ed(%rip)        # 41a148 <memcpy@GLIBC_2.14>
  40395b:	0f 1f 44 00 00       	nopl   0x0(%rax,%rax,1)

0000000000403960 <perror@plt>:
  403960:	f3 0f 1e fa          	endbr64 
  403964:	f2 ff 25 e5 67 01 00 	bnd jmpq *0x167e5(%rip)        # 41a150 <perror@GLIBC_2.2.5>
  40396b:	0f 1f 44 00 00       	nopl   0x0(%rax,%rax,1)

0000000000403970 <_ZSt2wsIcSt11char_traitsIcEERSt13basic_istreamIT_T0_ES6_@plt>:
  403970:	f3 0f 1e fa          	endbr64 
  403974:	f2 ff 25 dd 67 01 00 	bnd jmpq *0x167dd(%rip)        # 41a158 <_ZSt2wsIcSt11char_traitsIcEERSt13basic_istreamIT_T0_ES6_@GLIBCXX_3.4>
  40397b:	0f 1f 44 00 00       	nopl   0x0(%rax,%rax,1)

0000000000403980 <system@plt>:
  403980:	f3 0f 1e fa          	endbr64 
  403984:	f2 ff 25 d5 67 01 00 	bnd jmpq *0x167d5(%rip)        # 41a160 <system@GLIBC_2.2.5>
  40398b:	0f 1f 44 00 00       	nopl   0x0(%rax,%rax,1)

0000000000403990 <__cxa_atexit@plt>:
  403990:	f3 0f 1e fa          	endbr64 
  403994:	f2 ff 25 cd 67 01 00 	bnd jmpq *0x167cd(%rip)        # 41a168 <__cxa_atexit@GLIBC_2.2.5>
  40399b:	0f 1f 44 00 00       	nopl   0x0(%rax,%rax,1)

00000000004039a0 <_ZNSt13basic_filebufIcSt11char_traitsIcEE4openEPKcSt13_Ios_Openmode@plt>:
  4039a0:	f3 0f 1e fa          	endbr64 
  4039a4:	f2 ff 25 c5 67 01 00 	bnd jmpq *0x167c5(%rip)        # 41a170 <_ZNSt13basic_filebufIcSt11char_traitsIcEE4openEPKcSt13_Ios_Openmode@GLIBCXX_3.4>
  4039ab:	0f 1f 44 00 00       	nopl   0x0(%rax,%rax,1)

00000000004039b0 <clock_gettime@plt>:
  4039b0:	f3 0f 1e fa          	endbr64 
  4039b4:	f2 ff 25 bd 67 01 00 	bnd jmpq *0x167bd(%rip)        # 41a178 <clock_gettime@GLIBC_2.17>
  4039bb:	0f 1f 44 00 00       	nopl   0x0(%rax,%rax,1)

00000000004039c0 <_ZdlPv@plt>:
  4039c0:	f3 0f 1e fa          	endbr64 
  4039c4:	f2 ff 25 b5 67 01 00 	bnd jmpq *0x167b5(%rip)        # 41a180 <_ZdlPv@GLIBCXX_3.4>
  4039cb:	0f 1f 44 00 00       	nopl   0x0(%rax,%rax,1)

00000000004039d0 <_ZNSo9_M_insertIlEERSoT_@plt>:
  4039d0:	f3 0f 1e fa          	endbr64 
  4039d4:	f2 ff 25 ad 67 01 00 	bnd jmpq *0x167ad(%rip)        # 41a188 <_ZNSo9_M_insertIlEERSoT_@GLIBCXX_3.4.9>
  4039db:	0f 1f 44 00 00       	nopl   0x0(%rax,%rax,1)

00000000004039e0 <__isoc99_sscanf@plt>:
  4039e0:	f3 0f 1e fa          	endbr64 
  4039e4:	f2 ff 25 a5 67 01 00 	bnd jmpq *0x167a5(%rip)        # 41a190 <__isoc99_sscanf@GLIBC_2.7>
  4039eb:	0f 1f 44 00 00       	nopl   0x0(%rax,%rax,1)

00000000004039f0 <fclose@plt>:
  4039f0:	f3 0f 1e fa          	endbr64 
  4039f4:	f2 ff 25 9d 67 01 00 	bnd jmpq *0x1679d(%rip)        # 41a198 <fclose@GLIBC_2.2.5>
  4039fb:	0f 1f 44 00 00       	nopl   0x0(%rax,%rax,1)

0000000000403a00 <_Znwm@plt>:
  403a00:	f3 0f 1e fa          	endbr64 
  403a04:	f2 ff 25 95 67 01 00 	bnd jmpq *0x16795(%rip)        # 41a1a0 <_Znwm@GLIBCXX_3.4>
  403a0b:	0f 1f 44 00 00       	nopl   0x0(%rax,%rax,1)

0000000000403a10 <_ZNSi10_M_extractIlEERSiRT_@plt>:
  403a10:	f3 0f 1e fa          	endbr64 
  403a14:	f2 ff 25 8d 67 01 00 	bnd jmpq *0x1678d(%rip)        # 41a1a8 <_ZNSi10_M_extractIlEERSiRT_@GLIBCXX_3.4.9>
  403a1b:	0f 1f 44 00 00       	nopl   0x0(%rax,%rax,1)

0000000000403a20 <_ZNSt13basic_filebufIcSt11char_traitsIcEEC1Ev@plt>:
  403a20:	f3 0f 1e fa          	endbr64 
  403a24:	f2 ff 25 85 67 01 00 	bnd jmpq *0x16785(%rip)        # 41a1b0 <_ZNSt13basic_filebufIcSt11char_traitsIcEEC1Ev@GLIBCXX_3.4>
  403a2b:	0f 1f 44 00 00       	nopl   0x0(%rax,%rax,1)

0000000000403a30 <GOMP_loop_nonmonotonic_dynamic_next@plt>:
  403a30:	f3 0f 1e fa          	endbr64 
  403a34:	f2 ff 25 7d 67 01 00 	bnd jmpq *0x1677d(%rip)        # 41a1b8 <GOMP_loop_nonmonotonic_dynamic_next@VERSION>
  403a3b:	0f 1f 44 00 00       	nopl   0x0(%rax,%rax,1)

0000000000403a40 <__stack_chk_fail@plt>:
  403a40:	f3 0f 1e fa          	endbr64 
  403a44:	f2 ff 25 75 67 01 00 	bnd jmpq *0x16775(%rip)        # 41a1c0 <__stack_chk_fail@GLIBC_2.4>
  403a4b:	0f 1f 44 00 00       	nopl   0x0(%rax,%rax,1)

0000000000403a50 <_ZSt16__ostream_insertIcSt11char_traitsIcEERSt13basic_ostreamIT_T0_ES6_PKS3_l@plt>:
  403a50:	f3 0f 1e fa          	endbr64 
  403a54:	f2 ff 25 6d 67 01 00 	bnd jmpq *0x1676d(%rip)        # 41a1c8 <_ZSt16__ostream_insertIcSt11char_traitsIcEERSt13basic_ostreamIT_T0_ES6_PKS3_l@GLIBCXX_3.4.9>
  403a5b:	0f 1f 44 00 00       	nopl   0x0(%rax,%rax,1)

0000000000403a60 <_ZNKSt5ctypeIcE13_M_widen_initEv@plt>:
  403a60:	f3 0f 1e fa          	endbr64 
  403a64:	f2 ff 25 65 67 01 00 	bnd jmpq *0x16765(%rip)        # 41a1d0 <_ZNKSt5ctypeIcE13_M_widen_initEv@GLIBCXX_3.4.11>
  403a6b:	0f 1f 44 00 00       	nopl   0x0(%rax,%rax,1)

0000000000403a70 <omp_get_thread_num@plt>:
  403a70:	f3 0f 1e fa          	endbr64 
  403a74:	f2 ff 25 5d 67 01 00 	bnd jmpq *0x1675d(%rip)        # 41a1d8 <omp_get_thread_num@VERSION>
  403a7b:	0f 1f 44 00 00       	nopl   0x0(%rax,%rax,1)

0000000000403a80 <_ZNSt7__cxx1112basic_stringIcSt11char_traitsIcESaIcEE12_M_constructEmc@plt>:
  403a80:	f3 0f 1e fa          	endbr64 
  403a84:	f2 ff 25 55 67 01 00 	bnd jmpq *0x16755(%rip)        # 41a1e0 <_ZNSt7__cxx1112basic_stringIcSt11char_traitsIcESaIcEE12_M_constructEmc@GLIBCXX_3.4.21>
  403a8b:	0f 1f 44 00 00       	nopl   0x0(%rax,%rax,1)

0000000000403a90 <fopen@plt>:
  403a90:	f3 0f 1e fa          	endbr64 
  403a94:	f2 ff 25 4d 67 01 00 	bnd jmpq *0x1674d(%rip)        # 41a1e8 <fopen@GLIBC_2.2.5>
  403a9b:	0f 1f 44 00 00       	nopl   0x0(%rax,%rax,1)

0000000000403aa0 <GOMP_barrier@plt>:
  403aa0:	f3 0f 1e fa          	endbr64 
  403aa4:	f2 ff 25 45 67 01 00 	bnd jmpq *0x16745(%rip)        # 41a1f0 <GOMP_barrier@VERSION>
  403aab:	0f 1f 44 00 00       	nopl   0x0(%rax,%rax,1)

0000000000403ab0 <madvise@plt>:
  403ab0:	f3 0f 1e fa          	endbr64 
  403ab4:	f2 ff 25 3d 67 01 00 	bnd jmpq *0x1673d(%rip)        # 41a1f8 <madvise@GLIBC_2.2.5>
  403abb:	0f 1f 44 00 00       	nopl   0x0(%rax,%rax,1)

0000000000403ac0 <exit@plt>:
  403ac0:	f3 0f 1e fa          	endbr64 
  403ac4:	f2 ff 25 35 67 01 00 	bnd jmpq *0x16735(%rip)        # 41a200 <exit@GLIBC_2.2.5>
  403acb:	0f 1f 44 00 00       	nopl   0x0(%rax,%rax,1)

0000000000403ad0 <getenv@plt>:
  403ad0:	f3 0f 1e fa          	endbr64 
  403ad4:	f2 ff 25 2d 67 01 00 	bnd jmpq *0x1672d(%rip)        # 41a208 <getenv@GLIBC_2.2.5>
  403adb:	0f 1f 44 00 00       	nopl   0x0(%rax,%rax,1)

0000000000403ae0 <_ZNSi4readEPcl@plt>:
  403ae0:	f3 0f 1e fa          	endbr64 
  403ae4:	f2 ff 25 25 67 01 00 	bnd jmpq *0x16725(%rip)        # 41a210 <_ZNSi4readEPcl@GLIBCXX_3.4>
  403aeb:	0f 1f 44 00 00       	nopl   0x0(%rax,%rax,1)

0000000000403af0 <_ZSt16__throw_bad_castv@plt>:
  403af0:	f3 0f 1e fa          	endbr64 
  403af4:	f2 ff 25 1d 67 01 00 	bnd jmpq *0x1671d(%rip)        # 41a218 <_ZSt16__throw_bad_castv@GLIBCXX_3.4>
  403afb:	0f 1f 44 00 00       	nopl   0x0(%rax,%rax,1)

0000000000403b00 <_ZStrsIcSt11char_traitsIcESaIcEERSt13basic_istreamIT_T0_ES7_RNSt7__cxx1112basic_stringIS4_S5_T1_EE@plt>:
  403b00:	f3 0f 1e fa          	endbr64 
  403b04:	f2 ff 25 15 67 01 00 	bnd jmpq *0x16715(%rip)        # 41a220 <_ZStrsIcSt11char_traitsIcESaIcEERSt13basic_istreamIT_T0_ES7_RNSt7__cxx1112basic_stringIS4_S5_T1_EE@GLIBCXX_3.4.21>
  403b0b:	0f 1f 44 00 00       	nopl   0x0(%rax,%rax,1)

0000000000403b10 <_ZdaPv@plt>:
  403b10:	f3 0f 1e fa          	endbr64 
  403b14:	f2 ff 25 0d 67 01 00 	bnd jmpq *0x1670d(%rip)        # 41a228 <_ZdaPv@GLIBCXX_3.4>
  403b1b:	0f 1f 44 00 00       	nopl   0x0(%rax,%rax,1)

0000000000403b20 <_ZNSt7__cxx1115basic_stringbufIcSt11char_traitsIcESaIcEE7_M_syncEPcmm@plt>:
  403b20:	f3 0f 1e fa          	endbr64 
  403b24:	f2 ff 25 05 67 01 00 	bnd jmpq *0x16705(%rip)        # 41a230 <_ZNSt7__cxx1115basic_stringbufIcSt11char_traitsIcESaIcEE7_M_syncEPcmm@GLIBCXX_3.4.21>
  403b2b:	0f 1f 44 00 00       	nopl   0x0(%rax,%rax,1)

0000000000403b30 <_ZStrsIcSt11char_traitsIcEERSt13basic_istreamIT_T0_ES6_RS3_@plt>:
  403b30:	f3 0f 1e fa          	endbr64 
  403b34:	f2 ff 25 fd 66 01 00 	bnd jmpq *0x166fd(%rip)        # 41a238 <_ZStrsIcSt11char_traitsIcEERSt13basic_istreamIT_T0_ES6_RS3_@GLIBCXX_3.4>
  403b3b:	0f 1f 44 00 00       	nopl   0x0(%rax,%rax,1)

0000000000403b40 <_ZNKSt8__detail20_Prime_rehash_policy14_M_need_rehashEmmm@plt>:
  403b40:	f3 0f 1e fa          	endbr64 
  403b44:	f2 ff 25 f5 66 01 00 	bnd jmpq *0x166f5(%rip)        # 41a240 <_ZNKSt8__detail20_Prime_rehash_policy14_M_need_rehashEmmm@GLIBCXX_3.4.18>
  403b4b:	0f 1f 44 00 00       	nopl   0x0(%rax,%rax,1)

0000000000403b50 <malloc@plt>:
  403b50:	f3 0f 1e fa          	endbr64 
  403b54:	f2 ff 25 ed 66 01 00 	bnd jmpq *0x166ed(%rip)        # 41a248 <malloc@GLIBC_2.2.5>
  403b5b:	0f 1f 44 00 00       	nopl   0x0(%rax,%rax,1)

0000000000403b60 <_ZNSt9basic_iosIcSt11char_traitsIcEE4initEPSt15basic_streambufIcS1_E@plt>:
  403b60:	f3 0f 1e fa          	endbr64 
  403b64:	f2 ff 25 e5 66 01 00 	bnd jmpq *0x166e5(%rip)        # 41a250 <_ZNSt9basic_iosIcSt11char_traitsIcEE4initEPSt15basic_streambufIcS1_E@GLIBCXX_3.4>
  403b6b:	0f 1f 44 00 00       	nopl   0x0(%rax,%rax,1)

0000000000403b70 <mlock@plt>:
  403b70:	f3 0f 1e fa          	endbr64 
  403b74:	f2 ff 25 dd 66 01 00 	bnd jmpq *0x166dd(%rip)        # 41a258 <mlock@GLIBC_2.2.5>
  403b7b:	0f 1f 44 00 00       	nopl   0x0(%rax,%rax,1)

0000000000403b80 <strtol@plt>:
  403b80:	f3 0f 1e fa          	endbr64 
  403b84:	f2 ff 25 d5 66 01 00 	bnd jmpq *0x166d5(%rip)        # 41a260 <strtol@GLIBC_2.2.5>
  403b8b:	0f 1f 44 00 00       	nopl   0x0(%rax,%rax,1)

0000000000403b90 <ioctl@plt>:
  403b90:	f3 0f 1e fa          	endbr64 
  403b94:	f2 ff 25 cd 66 01 00 	bnd jmpq *0x166cd(%rip)        # 41a268 <ioctl@GLIBC_2.2.5>
  403b9b:	0f 1f 44 00 00       	nopl   0x0(%rax,%rax,1)

0000000000403ba0 <_ZNSt6localeD1Ev@plt>:
  403ba0:	f3 0f 1e fa          	endbr64 
  403ba4:	f2 ff 25 c5 66 01 00 	bnd jmpq *0x166c5(%rip)        # 41a270 <_ZNSt6localeD1Ev@GLIBCXX_3.4>
  403bab:	0f 1f 44 00 00       	nopl   0x0(%rax,%rax,1)

0000000000403bb0 <__cxa_throw_bad_array_new_length@plt>:
  403bb0:	f3 0f 1e fa          	endbr64 
  403bb4:	f2 ff 25 bd 66 01 00 	bnd jmpq *0x166bd(%rip)        # 41a278 <__cxa_throw_bad_array_new_length@CXXABI_1.3.8>
  403bbb:	0f 1f 44 00 00       	nopl   0x0(%rax,%rax,1)

0000000000403bc0 <read@plt>:
  403bc0:	f3 0f 1e fa          	endbr64 
  403bc4:	f2 ff 25 b5 66 01 00 	bnd jmpq *0x166b5(%rip)        # 41a280 <read@GLIBC_2.2.5>
  403bcb:	0f 1f 44 00 00       	nopl   0x0(%rax,%rax,1)

0000000000403bd0 <omp_get_num_threads@plt>:
  403bd0:	f3 0f 1e fa          	endbr64 
  403bd4:	f2 ff 25 ad 66 01 00 	bnd jmpq *0x166ad(%rip)        # 41a288 <omp_get_num_threads@VERSION>
  403bdb:	0f 1f 44 00 00       	nopl   0x0(%rax,%rax,1)

0000000000403be0 <__cxa_rethrow@plt>:
  403be0:	f3 0f 1e fa          	endbr64 
  403be4:	f2 ff 25 a5 66 01 00 	bnd jmpq *0x166a5(%rip)        # 41a290 <__cxa_rethrow@CXXABI_1.3>
  403beb:	0f 1f 44 00 00       	nopl   0x0(%rax,%rax,1)

0000000000403bf0 <getpid@plt>:
  403bf0:	f3 0f 1e fa          	endbr64 
  403bf4:	f2 ff 25 9d 66 01 00 	bnd jmpq *0x1669d(%rip)        # 41a298 <getpid@GLIBC_2.2.5>
  403bfb:	0f 1f 44 00 00       	nopl   0x0(%rax,%rax,1)

0000000000403c00 <fread@plt>:
  403c00:	f3 0f 1e fa          	endbr64 
  403c04:	f2 ff 25 95 66 01 00 	bnd jmpq *0x16695(%rip)        # 41a2a0 <fread@GLIBC_2.2.5>
  403c0b:	0f 1f 44 00 00       	nopl   0x0(%rax,%rax,1)

0000000000403c10 <_ZSt24__throw_out_of_range_fmtPKcz@plt>:
  403c10:	f3 0f 1e fa          	endbr64 
  403c14:	f2 ff 25 8d 66 01 00 	bnd jmpq *0x1668d(%rip)        # 41a2a8 <_ZSt24__throw_out_of_range_fmtPKcz@GLIBCXX_3.4.20>
  403c1b:	0f 1f 44 00 00       	nopl   0x0(%rax,%rax,1)

0000000000403c20 <_ZNSt8ios_base4InitC1Ev@plt>:
  403c20:	f3 0f 1e fa          	endbr64 
  403c24:	f2 ff 25 85 66 01 00 	bnd jmpq *0x16685(%rip)        # 41a2b0 <_ZNSt8ios_base4InitC1Ev@GLIBCXX_3.4>
  403c2b:	0f 1f 44 00 00       	nopl   0x0(%rax,%rax,1)

0000000000403c30 <_ZNSt13basic_filebufIcSt11char_traitsIcEED1Ev@plt>:
  403c30:	f3 0f 1e fa          	endbr64 
  403c34:	f2 ff 25 7d 66 01 00 	bnd jmpq *0x1667d(%rip)        # 41a2b8 <_ZNSt13basic_filebufIcSt11char_traitsIcEED1Ev@GLIBCXX_3.4>
  403c3b:	0f 1f 44 00 00       	nopl   0x0(%rax,%rax,1)

0000000000403c40 <_ZNSt7__cxx1112basic_stringIcSt11char_traitsIcESaIcEE7reserveEm@plt>:
  403c40:	f3 0f 1e fa          	endbr64 
  403c44:	f2 ff 25 75 66 01 00 	bnd jmpq *0x16675(%rip)        # 41a2c0 <_ZNSt7__cxx1112basic_stringIcSt11char_traitsIcESaIcEE7reserveEm@GLIBCXX_3.4.21>
  403c4b:	0f 1f 44 00 00       	nopl   0x0(%rax,%rax,1)

0000000000403c50 <fgets@plt>:
  403c50:	f3 0f 1e fa          	endbr64 
  403c54:	f2 ff 25 6d 66 01 00 	bnd jmpq *0x1666d(%rip)        # 41a2c8 <fgets@GLIBC_2.2.5>
  403c5b:	0f 1f 44 00 00       	nopl   0x0(%rax,%rax,1)

0000000000403c60 <gettimeofday@plt>:
  403c60:	f3 0f 1e fa          	endbr64 
  403c64:	f2 ff 25 65 66 01 00 	bnd jmpq *0x16665(%rip)        # 41a2d0 <gettimeofday@GLIBC_2.2.5>
  403c6b:	0f 1f 44 00 00       	nopl   0x0(%rax,%rax,1)

0000000000403c70 <memmove@plt>:
  403c70:	f3 0f 1e fa          	endbr64 
  403c74:	f2 ff 25 5d 66 01 00 	bnd jmpq *0x1665d(%rip)        # 41a2d8 <memmove@GLIBC_2.2.5>
  403c7b:	0f 1f 44 00 00       	nopl   0x0(%rax,%rax,1)

0000000000403c80 <__cxa_end_catch@plt>:
  403c80:	f3 0f 1e fa          	endbr64 
  403c84:	f2 ff 25 55 66 01 00 	bnd jmpq *0x16655(%rip)        # 41a2e0 <__cxa_end_catch@CXXABI_1.3>
  403c8b:	0f 1f 44 00 00       	nopl   0x0(%rax,%rax,1)

0000000000403c90 <realloc@plt>:
  403c90:	f3 0f 1e fa          	endbr64 
  403c94:	f2 ff 25 4d 66 01 00 	bnd jmpq *0x1664d(%rip)        # 41a2e8 <realloc@GLIBC_2.2.5>
  403c9b:	0f 1f 44 00 00       	nopl   0x0(%rax,%rax,1)

0000000000403ca0 <__fprintf_chk@plt>:
  403ca0:	f3 0f 1e fa          	endbr64 
  403ca4:	f2 ff 25 45 66 01 00 	bnd jmpq *0x16645(%rip)        # 41a2f0 <__fprintf_chk@GLIBC_2.3.4>
  403cab:	0f 1f 44 00 00       	nopl   0x0(%rax,%rax,1)

0000000000403cb0 <_ZNSt7__cxx1119basic_istringstreamIcSt11char_traitsIcESaIcEEC1ERKNS_12basic_stringIcS2_S3_EESt13_Ios_Openmode@plt>:
  403cb0:	f3 0f 1e fa          	endbr64 
  403cb4:	f2 ff 25 3d 66 01 00 	bnd jmpq *0x1663d(%rip)        # 41a2f8 <_ZNSt7__cxx1119basic_istringstreamIcSt11char_traitsIcESaIcEEC1ERKNS_12basic_stringIcS2_S3_EESt13_Ios_Openmode@GLIBCXX_3.4.21>
  403cbb:	0f 1f 44 00 00       	nopl   0x0(%rax,%rax,1)

0000000000403cc0 <_ZNSt9basic_iosIcSt11char_traitsIcEE5clearESt12_Ios_Iostate@plt>:
  403cc0:	f3 0f 1e fa          	endbr64 
  403cc4:	f2 ff 25 35 66 01 00 	bnd jmpq *0x16635(%rip)        # 41a300 <_ZNSt9basic_iosIcSt11char_traitsIcEE5clearESt12_Ios_Iostate@GLIBCXX_3.4>
  403ccb:	0f 1f 44 00 00       	nopl   0x0(%rax,%rax,1)

0000000000403cd0 <_ZNSolsEi@plt>:
  403cd0:	f3 0f 1e fa          	endbr64 
  403cd4:	f2 ff 25 2d 66 01 00 	bnd jmpq *0x1662d(%rip)        # 41a308 <_ZNSolsEi@GLIBCXX_3.4>
  403cdb:	0f 1f 44 00 00       	nopl   0x0(%rax,%rax,1)

0000000000403ce0 <GOMP_parallel@plt>:
  403ce0:	f3 0f 1e fa          	endbr64 
  403ce4:	f2 ff 25 25 66 01 00 	bnd jmpq *0x16625(%rip)        # 41a310 <GOMP_parallel@VERSION>
  403ceb:	0f 1f 44 00 00       	nopl   0x0(%rax,%rax,1)

0000000000403cf0 <omp_get_max_threads@plt>:
  403cf0:	f3 0f 1e fa          	endbr64 
  403cf4:	f2 ff 25 1d 66 01 00 	bnd jmpq *0x1661d(%rip)        # 41a318 <omp_get_max_threads@VERSION>
  403cfb:	0f 1f 44 00 00       	nopl   0x0(%rax,%rax,1)

0000000000403d00 <_Unwind_Resume@plt>:
  403d00:	f3 0f 1e fa          	endbr64 
  403d04:	f2 ff 25 15 66 01 00 	bnd jmpq *0x16615(%rip)        # 41a320 <_Unwind_Resume@GCC_3.0>
  403d0b:	0f 1f 44 00 00       	nopl   0x0(%rax,%rax,1)

0000000000403d10 <mmap@plt>:
  403d10:	f3 0f 1e fa          	endbr64 
  403d14:	f2 ff 25 0d 66 01 00 	bnd jmpq *0x1660d(%rip)        # 41a328 <mmap@GLIBC_2.2.5>
  403d1b:	0f 1f 44 00 00       	nopl   0x0(%rax,%rax,1)

0000000000403d20 <_ZNSt7__cxx1112basic_stringIcSt11char_traitsIcESaIcEE9_M_createERmm@plt>:
  403d20:	f3 0f 1e fa          	endbr64 
  403d24:	f2 ff 25 05 66 01 00 	bnd jmpq *0x16605(%rip)        # 41a330 <_ZNSt7__cxx1112basic_stringIcSt11char_traitsIcESaIcEE9_M_createERmm@GLIBCXX_3.4.21>
  403d2b:	0f 1f 44 00 00       	nopl   0x0(%rax,%rax,1)

0000000000403d30 <__isoc99_fscanf@plt>:
  403d30:	f3 0f 1e fa          	endbr64 
  403d34:	f2 ff 25 fd 65 01 00 	bnd jmpq *0x165fd(%rip)        # 41a338 <__isoc99_fscanf@GLIBC_2.7>
  403d3b:	0f 1f 44 00 00       	nopl   0x0(%rax,%rax,1)

0000000000403d40 <_ZSt7getlineIcSt11char_traitsIcESaIcEERSt13basic_istreamIT_T0_ES7_RNSt7__cxx1112basic_stringIS4_S5_T1_EES4_@plt>:
  403d40:	f3 0f 1e fa          	endbr64 
  403d44:	f2 ff 25 f5 65 01 00 	bnd jmpq *0x165f5(%rip)        # 41a340 <_ZSt7getlineIcSt11char_traitsIcESaIcEERSt13basic_istreamIT_T0_ES7_RNSt7__cxx1112basic_stringIS4_S5_T1_EES4_@GLIBCXX_3.4.21>
  403d4b:	0f 1f 44 00 00       	nopl   0x0(%rax,%rax,1)

0000000000403d50 <_ZNSt12__basic_fileIcED1Ev@plt>:
  403d50:	f3 0f 1e fa          	endbr64 
  403d54:	f2 ff 25 ed 65 01 00 	bnd jmpq *0x165ed(%rip)        # 41a348 <_ZNSt12__basic_fileIcED1Ev@GLIBCXX_3.4>
  403d5b:	0f 1f 44 00 00       	nopl   0x0(%rax,%rax,1)

0000000000403d60 <munlock@plt>:
  403d60:	f3 0f 1e fa          	endbr64 
  403d64:	f2 ff 25 e5 65 01 00 	bnd jmpq *0x165e5(%rip)        # 41a350 <munlock@GLIBC_2.2.5>
  403d6b:	0f 1f 44 00 00       	nopl   0x0(%rax,%rax,1)

0000000000403d70 <fwrite@plt>:
  403d70:	f3 0f 1e fa          	endbr64 
  403d74:	f2 ff 25 dd 65 01 00 	bnd jmpq *0x165dd(%rip)        # 41a358 <fwrite@GLIBC_2.2.5>
  403d7b:	0f 1f 44 00 00       	nopl   0x0(%rax,%rax,1)

0000000000403d80 <close@plt>:
  403d80:	f3 0f 1e fa          	endbr64 
  403d84:	f2 ff 25 d5 65 01 00 	bnd jmpq *0x165d5(%rip)        # 41a360 <close@GLIBC_2.2.5>
  403d8b:	0f 1f 44 00 00       	nopl   0x0(%rax,%rax,1)

0000000000403d90 <_ZNKSt7__cxx1112basic_stringIcSt11char_traitsIcESaIcEE5rfindEcm@plt>:
  403d90:	f3 0f 1e fa          	endbr64 
  403d94:	f2 ff 25 cd 65 01 00 	bnd jmpq *0x165cd(%rip)        # 41a368 <_ZNKSt7__cxx1112basic_stringIcSt11char_traitsIcESaIcEE5rfindEcm@GLIBCXX_3.4.21>
  403d9b:	0f 1f 44 00 00       	nopl   0x0(%rax,%rax,1)

0000000000403da0 <_ZNSt6localeC1Ev@plt>:
  403da0:	f3 0f 1e fa          	endbr64 
  403da4:	f2 ff 25 c5 65 01 00 	bnd jmpq *0x165c5(%rip)        # 41a370 <_ZNSt6localeC1Ev@GLIBCXX_3.4>
  403dab:	0f 1f 44 00 00       	nopl   0x0(%rax,%rax,1)

Disassembly of section .text:

0000000000403db0 <_Z10PrintLabelRKNSt7__cxx1112basic_stringIcSt11char_traitsIcESaIcEEES6_.cold>:
_ZNKSt7__cxx1112basic_stringIcSt11char_traitsIcESaIcEE7_M_dataEv():
/usr/include/c++/10/bits/basic_string.h:195 (discriminator 1)
      _M_length(size_type __length)
      { _M_string_length = __length; }

      pointer
      _M_data() const
      { return _M_dataplus._M_p; }
  403db0:	48 8b 7c 24 10       	mov    0x10(%rsp),%rdi
_ZNSt7__cxx1112basic_stringIcSt11char_traitsIcESaIcEE10_M_disposeEv():
/usr/include/c++/10/bits/basic_string.h:239 (discriminator 1)
      _M_create(size_type&, size_type);

      void
      _M_dispose()
      {
	if (!_M_is_local())
  403db5:	48 39 df             	cmp    %rbx,%rdi
  403db8:	74 05                	je     403dbf <_Z10PrintLabelRKNSt7__cxx1112basic_stringIcSt11char_traitsIcESaIcEEES6_.cold+0xf>
_ZN9__gnu_cxx13new_allocatorIcE10deallocateEPcm():
/usr/include/c++/10/ext/new_allocator.h:139
# endif
			      std::align_val_t(alignof(_Tp)));
	    return;
	  }
#endif
	::operator delete(__p
  403dba:	e8 01 fc ff ff       	callq  4039c0 <_ZdlPv@plt>
_ZN9__gnu_cxx13new_allocatorIcED4Ev():
/usr/include/c++/10/ext/new_allocator.h:89
      ~new_allocator() _GLIBCXX_USE_NOEXCEPT { }
  403dbf:	48 89 ef             	mov    %rbp,%rdi
  403dc2:	e8 39 ff ff ff       	callq  403d00 <_Unwind_Resume@plt>

0000000000403dc7 <_Z9PrintTimeRKNSt7__cxx1112basic_stringIcSt11char_traitsIcESaIcEEEd.cold>:
_ZNKSt7__cxx1112basic_stringIcSt11char_traitsIcESaIcEE7_M_dataEv():
/usr/include/c++/10/bits/basic_string.h:195 (discriminator 1)
      { return _M_dataplus._M_p; }
  403dc7:	48 8b 7c 24 10       	mov    0x10(%rsp),%rdi
_ZNSt7__cxx1112basic_stringIcSt11char_traitsIcESaIcEE10_M_disposeEv():
/usr/include/c++/10/bits/basic_string.h:239 (discriminator 1)
	if (!_M_is_local())
  403dcc:	48 39 df             	cmp    %rbx,%rdi
  403dcf:	74 05                	je     403dd6 <_Z9PrintTimeRKNSt7__cxx1112basic_stringIcSt11char_traitsIcESaIcEEEd.cold+0xf>
_ZN9__gnu_cxx13new_allocatorIcE10deallocateEPcm():
/usr/include/c++/10/ext/new_allocator.h:139
	::operator delete(__p
  403dd1:	e8 ea fb ff ff       	callq  4039c0 <_ZdlPv@plt>
_ZN9__gnu_cxx13new_allocatorIcED4Ev():
/usr/include/c++/10/ext/new_allocator.h:89
      ~new_allocator() _GLIBCXX_USE_NOEXCEPT { }
  403dd6:	48 89 ef             	mov    %rbp,%rdi
  403dd9:	e8 22 ff ff ff       	callq  403d00 <_Unwind_Resume@plt>

0000000000403dde <_Z9PrintStepRKNSt7__cxx1112basic_stringIcSt11char_traitsIcESaIcEEEl.cold>:
_ZNKSt7__cxx1112basic_stringIcSt11char_traitsIcESaIcEE7_M_dataEv():
/usr/include/c++/10/bits/basic_string.h:195 (discriminator 1)
      { return _M_dataplus._M_p; }
  403dde:	48 8b 7c 24 10       	mov    0x10(%rsp),%rdi
_ZNSt7__cxx1112basic_stringIcSt11char_traitsIcESaIcEE10_M_disposeEv():
/usr/include/c++/10/bits/basic_string.h:239 (discriminator 1)
	if (!_M_is_local())
  403de3:	48 39 df             	cmp    %rbx,%rdi
  403de6:	74 05                	je     403ded <_Z9PrintStepRKNSt7__cxx1112basic_stringIcSt11char_traitsIcESaIcEEEl.cold+0xf>
_ZN9__gnu_cxx13new_allocatorIcE10deallocateEPcm():
/usr/include/c++/10/ext/new_allocator.h:139
	::operator delete(__p
  403de8:	e8 d3 fb ff ff       	callq  4039c0 <_ZdlPv@plt>
_ZN9__gnu_cxx13new_allocatorIcED4Ev():
/usr/include/c++/10/ext/new_allocator.h:89
      ~new_allocator() _GLIBCXX_USE_NOEXCEPT { }
  403ded:	48 89 ef             	mov    %rbp,%rdi
  403df0:	e8 0b ff ff ff       	callq  403d00 <_Unwind_Resume@plt>

0000000000403df5 <_Z9PrintStepidl.cold>:
_ZNKSt7__cxx1112basic_stringIcSt11char_traitsIcESaIcEE7_M_dataEv():
/usr/include/c++/10/bits/basic_string.h:195 (discriminator 1)
      { return _M_dataplus._M_p; }
  403df5:	48 8b 7c 24 10       	mov    0x10(%rsp),%rdi
_ZNSt7__cxx1112basic_stringIcSt11char_traitsIcESaIcEE10_M_disposeEv():
/usr/include/c++/10/bits/basic_string.h:239 (discriminator 1)
	if (!_M_is_local())
  403dfa:	48 39 ef             	cmp    %rbp,%rdi
  403dfd:	74 05                	je     403e04 <_Z9PrintStepidl.cold+0xf>
_ZN9__gnu_cxx13new_allocatorIcE10deallocateEPcm():
/usr/include/c++/10/ext/new_allocator.h:139
	::operator delete(__p
  403dff:	e8 bc fb ff ff       	callq  4039c0 <_ZdlPv@plt>
_ZN9__gnu_cxx13new_allocatorIcED4Ev():
/usr/include/c++/10/ext/new_allocator.h:89
      ~new_allocator() _GLIBCXX_USE_NOEXCEPT { }
  403e04:	4c 89 e7             	mov    %r12,%rdi
  403e07:	e8 f4 fe ff ff       	callq  403d00 <_Unwind_Resume@plt>

0000000000403e0c <_Z21SampleFrequentElementRK7pvectorIiEbl.cold>:
_ZNSt13unordered_mapIiiSt4hashIiESt8equal_toIiESaISt4pairIKiiEEED4Ev():
/usr/include/c++/10/bits/unordered_map.h:102
   */
  template<typename _Key, typename _Tp,
	   typename _Hash = hash<_Key>,
	   typename _Pred = equal_to<_Key>,
	   typename _Alloc = allocator<std::pair<const _Key, _Tp>>>
    class unordered_map
  403e0c:	4c 89 e7             	mov    %r12,%rdi
  403e0f:	e8 ac 7b 00 00       	callq  40b9c0 <_ZNSt10_HashtableIiSt4pairIKiiESaIS2_ENSt8__detail10_Select1stESt8equal_toIiESt4hashIiENS4_18_Mod_range_hashingENS4_20_Default_ranged_hashENS4_20_Prime_rehash_policyENS4_17_Hashtable_traitsILb0ELb0ELb1EEEED1Ev>
  403e14:	48 89 ef             	mov    %rbp,%rdi
  403e17:	e8 e4 fe ff ff       	callq  403d00 <_Unwind_Resume@plt>
_ZNSt10_HashtableIiSt4pairIKiiESaIS2_ENSt8__detail10_Select1stESt8equal_toIiESt4hashIiENS4_18_Mod_range_hashingENS4_20_Default_ranged_hashENS4_20_Prime_rehash_policyENS4_17_Hashtable_traitsILb0ELb0ELb1EEEEC4EmRKS9_RKSA_RKSB_RKS7_RKS5_RKS3_():
/usr/include/c++/10/bits/hashtable.h:1048
	       _H1, _H2, _Hash, _RehashPolicy, _Traits>::
    _Hashtable(size_type __bkt_count_hint,
	       const _H1& __h1, const _H2& __h2, const _Hash& __h,
	       const _Equal& __eq, const _ExtractKey& __exk,
	       const allocator_type& __a)
    : _Hashtable(__h1, __h2, __h, __eq, __exk, __a)
  403e1c:	48 8d 7c 24 20       	lea    0x20(%rsp),%rdi
  403e21:	e8 9a 7b 00 00       	callq  40b9c0 <_ZNSt10_HashtableIiSt4pairIKiiESaIS2_ENSt8__detail10_Select1stESt8equal_toIiESt4hashIiENS4_18_Mod_range_hashingENS4_20_Default_ranged_hashENS4_20_Prime_rehash_policyENS4_17_Hashtable_traitsILb0ELb0ELb1EEEED1Ev>
  403e26:	48 89 ef             	mov    %rbp,%rdi
  403e29:	e8 d2 fe ff ff       	callq  403d00 <_Unwind_Resume@plt>

0000000000403e2e <_Z10CCVerifierRK8CSRGraphIiiLb1EERK7pvectorIiE.cold>:
_ZNSt6vectorIiSaIiEED4Ev():
/usr/include/c++/10/bits/stl_vector.h:680
       *  not touched in any way.  Managing the pointer is the user's
       *  responsibility.
       */
      ~vector() _GLIBCXX_NOEXCEPT
      {
	std::_Destroy(this->_M_impl._M_start, this->_M_impl._M_finish,
  403e2e:	48 8b 7c 24 50       	mov    0x50(%rsp),%rdi
_ZNSt12_Vector_baseIiSaIiEE13_M_deallocateEPim():
/usr/include/c++/10/bits/stl_vector.h:353
	if (__p)
  403e33:	48 85 ff             	test   %rdi,%rdi
  403e36:	74 05                	je     403e3d <_Z10CCVerifierRK8CSRGraphIiiLb1EERK7pvectorIiE.cold+0xf>
_ZN9__gnu_cxx13new_allocatorIiE10deallocateEPim():
/usr/include/c++/10/ext/new_allocator.h:139
	::operator delete(__p
  403e38:	e8 83 fb ff ff       	callq  4039c0 <_ZdlPv@plt>
_ZN6BitmapD4Ev():
/home/aliha951/ipdps-artifact/gapbs-master/src/bitmap.h:32
    start_ = new uint64_t[num_words];
    end_ = start_ + num_words;
  }

  ~Bitmap() {
    delete[] start_;
  403e3d:	4c 89 e7             	mov    %r12,%rdi
  403e40:	4c 8d 64 24 70       	lea    0x70(%rsp),%r12
  403e45:	e8 c6 fc ff ff       	callq  403b10 <_ZdaPv@plt>
_ZNSt13unordered_mapIiiSt4hashIiESt8equal_toIiESaISt4pairIKiiEEED4Ev():
/usr/include/c++/10/bits/unordered_map.h:102
  403e4a:	4c 89 e7             	mov    %r12,%rdi
  403e4d:	e8 6e 7b 00 00       	callq  40b9c0 <_ZNSt10_HashtableIiSt4pairIKiiESaIS2_ENSt8__detail10_Select1stESt8equal_toIiESt4hashIiENS4_18_Mod_range_hashingENS4_20_Default_ranged_hashENS4_20_Prime_rehash_policyENS4_17_Hashtable_traitsILb0ELb0ELb1EEEED1Ev>
  403e52:	48 89 ef             	mov    %rbp,%rdi
  403e55:	e8 a6 fe ff ff       	callq  403d00 <_Unwind_Resume@plt>

0000000000403e5a <_Z21SampleFrequentElementRK7pvectorIiEbl.constprop.0.cold>:
  403e5a:	4c 89 ef             	mov    %r13,%rdi
  403e5d:	e8 5e 7b 00 00       	callq  40b9c0 <_ZNSt10_HashtableIiSt4pairIKiiESaIS2_ENSt8__detail10_Select1stESt8equal_toIiESt4hashIiENS4_18_Mod_range_hashingENS4_20_Default_ranged_hashENS4_20_Prime_rehash_policyENS4_17_Hashtable_traitsILb0ELb0ELb1EEEED1Ev>
  403e62:	48 89 ef             	mov    %rbp,%rdi
  403e65:	e8 96 fe ff ff       	callq  403d00 <_Unwind_Resume@plt>
_ZNSt10_HashtableIiSt4pairIKiiESaIS2_ENSt8__detail10_Select1stESt8equal_toIiESt4hashIiENS4_18_Mod_range_hashingENS4_20_Default_ranged_hashENS4_20_Prime_rehash_policyENS4_17_Hashtable_traitsILb0ELb0ELb1EEEEC4EmRKS9_RKSA_RKSB_RKS7_RKS5_RKS3_():
/usr/include/c++/10/bits/hashtable.h:1048
  403e6a:	48 8d 7c 24 20       	lea    0x20(%rsp),%rdi
  403e6f:	e8 4c 7b 00 00       	callq  40b9c0 <_ZNSt10_HashtableIiSt4pairIKiiESaIS2_ENSt8__detail10_Select1stESt8equal_toIiESt4hashIiENS4_18_Mod_range_hashingENS4_20_Default_ranged_hashENS4_20_Prime_rehash_policyENS4_17_Hashtable_traitsILb0ELb0ELb1EEEED1Ev>
  403e74:	48 89 ef             	mov    %rbp,%rdi
  403e77:	e8 84 fe ff ff       	callq  403d00 <_Unwind_Resume@plt>

0000000000403e7c <_Z8AfforestRK8CSRGraphIiiLb1EEbi.cold>:
_ZN7pvectorIiEC4Em():
/home/aliha951/ipdps-artifact/gapbs-master/src/pvector.h:30
  typedef T_* iterator;

  pvector() : start_(nullptr), end_size_(nullptr), end_capacity_(nullptr) {}

  explicit pvector(size_t num_elements) {
    start_ = new T_[num_elements];
  403e7c:	e8 2f fd ff ff       	callq  403bb0 <__cxa_throw_bad_array_new_length@plt>
_ZN7pvectorIiE16ReleaseResourcesEv():
/home/aliha951/ipdps-artifact/gapbs-master/src/pvector.h:73
    }
    return *this;
  }

  void ReleaseResources(){
    if (start_ != nullptr) {
  403e81:	49 8b 3c 24          	mov    (%r12),%rdi
  403e85:	48 85 ff             	test   %rdi,%rdi
  403e88:	74 05                	je     403e8f <_Z8AfforestRK8CSRGraphIiiLb1EEbi.cold+0x13>
/home/aliha951/ipdps-artifact/gapbs-master/src/pvector.h:74
      delete[] start_;
  403e8a:	e8 81 fc ff ff       	callq  403b10 <_ZdaPv@plt>
  403e8f:	48 89 ef             	mov    %rbp,%rdi
  403e92:	e8 69 fe ff ff       	callq  403d00 <_Unwind_Resume@plt>

0000000000403e97 <_Z14PrintCompStatsRK8CSRGraphIiiLb1EERK7pvectorIiE.cold>:
_ZNSt6vectorISt4pairIiiESaIS1_EED4Ev():
/usr/include/c++/10/bits/stl_vector.h:680
	std::_Destroy(this->_M_impl._M_start, this->_M_impl._M_finish,
  403e97:	48 8b 7c 24 30       	mov    0x30(%rsp),%rdi
_ZNSt12_Vector_baseISt4pairIiiESaIS1_EE13_M_deallocateEPS1_m():
/usr/include/c++/10/bits/stl_vector.h:353
	if (__p)
  403e9c:	48 85 ff             	test   %rdi,%rdi
  403e9f:	74 05                	je     403ea6 <_Z14PrintCompStatsRK8CSRGraphIiiLb1EERK7pvectorIiE.cold+0xf>
_ZN9__gnu_cxx13new_allocatorISt4pairIiiEE10deallocateEPS2_m():
/usr/include/c++/10/ext/new_allocator.h:139
  403ea1:	e8 1a fb ff ff       	callq  4039c0 <_ZdlPv@plt>
_ZN9__gnu_cxx13new_allocatorISt4pairIiiEED4Ev():
/usr/include/c++/10/ext/new_allocator.h:89
      ~new_allocator() _GLIBCXX_USE_NOEXCEPT { }
  403ea6:	4c 8d 64 24 50       	lea    0x50(%rsp),%r12
_ZNSt6vectorISt4pairIiiESaIS1_EED4Ev():
/usr/include/c++/10/bits/stl_vector.h:680
	std::_Destroy(this->_M_impl._M_start, this->_M_impl._M_finish,
  403eab:	48 8b 7c 24 10       	mov    0x10(%rsp),%rdi
_ZNSt12_Vector_baseISt4pairIiiESaIS1_EE13_M_deallocateEPS1_m():
/usr/include/c++/10/bits/stl_vector.h:353
	if (__p)
  403eb0:	48 85 ff             	test   %rdi,%rdi
  403eb3:	74 05                	je     403eba <_Z14PrintCompStatsRK8CSRGraphIiiLb1EERK7pvectorIiE.cold+0x23>
_ZN9__gnu_cxx13new_allocatorISt4pairIiiEE10deallocateEPS2_m():
/usr/include/c++/10/ext/new_allocator.h:139
	::operator delete(__p
  403eb5:	e8 06 fb ff ff       	callq  4039c0 <_ZdlPv@plt>
_ZNSt13unordered_mapIiiSt4hashIiESt8equal_toIiESaISt4pairIKiiEEED4Ev():
/usr/include/c++/10/bits/unordered_map.h:102
  403eba:	4c 89 e7             	mov    %r12,%rdi
  403ebd:	e8 fe 7a 00 00       	callq  40b9c0 <_ZNSt10_HashtableIiSt4pairIKiiESaIS2_ENSt8__detail10_Select1stESt8equal_toIiESt4hashIiENS4_18_Mod_range_hashingENS4_20_Default_ranged_hashENS4_20_Prime_rehash_policyENS4_17_Hashtable_traitsILb0ELb0ELb1EEEED1Ev>
  403ec2:	48 89 df             	mov    %rbx,%rdi
  403ec5:	e8 36 fe ff ff       	callq  403d00 <_Unwind_Resume@plt>

0000000000403eca <main.cold>:
_ZN7pvectorIiEC4Em():
/home/aliha951/ipdps-artifact/gapbs-master/src/pvector.h:30
    start_ = new T_[num_elements];
  403eca:	e8 e1 fc ff ff       	callq  403bb0 <__cxa_throw_bad_array_new_length@plt>
  403ecf:	f3 0f 1e fa          	endbr64 
  403ed3:	48 89 c3             	mov    %rax,%rbx
_ZN8CSRGraphIiiLb1EED4Ev():
/home/aliha951/ipdps-artifact/gapbs-master/src/graph.h:166
      other.in_index_ = nullptr;
      other.in_neighbors_ = nullptr;
  }

  ~CSRGraph() {
    ReleaseResources();
  403ed6:	48 8b 7c 24 30       	mov    0x30(%rsp),%rdi
  403edb:	e8 b0 7c 00 00       	callq  40bb90 <_ZN8CSRGraphIiiLb1EE16ReleaseResourcesEv>
_ZN5CLAppD4Ev():
/home/aliha951/ipdps-artifact/gapbs-master/src/command_line.h:140
  int batching_mode() const { return batching_mode_; }
};



class CLApp : public CLBase {
  403ee0:	48 8b 7c 24 38       	mov    0x38(%rsp),%rdi
  403ee5:	48 8d 05 3c 5c 01 00 	lea    0x15c3c(%rip),%rax        # 419b28 <_ZTV5CLApp+0x10>
  403eec:	48 89 84 24 30 01 00 	mov    %rax,0x130(%rsp)
  403ef3:	00 
  403ef4:	e8 67 73 00 00       	callq  40b260 <_ZN6CLBaseD1Ev>
  403ef9:	48 89 df             	mov    %rbx,%rdi
  403efc:	e8 ff fd ff ff       	callq  403d00 <_Unwind_Resume@plt>
_ZNKSt7__cxx1112basic_stringIcSt11char_traitsIcESaIcEE7_M_dataEv():
/usr/include/c++/10/bits/basic_string.h:195
      { return _M_dataplus._M_p; }
  403f01:	48 8b bc 24 10 01 00 	mov    0x110(%rsp),%rdi
  403f08:	00 
_ZNSt7__cxx1112basic_stringIcSt11char_traitsIcESaIcEE10_M_disposeEv():
/usr/include/c++/10/bits/basic_string.h:239
	if (!_M_is_local())
  403f09:	48 39 df             	cmp    %rbx,%rdi
  403f0c:	74 05                	je     403f13 <main.cold+0x49>
_ZN9__gnu_cxx13new_allocatorIcE10deallocateEPcm():
/usr/include/c++/10/ext/new_allocator.h:139
  403f0e:	e8 ad fa ff ff       	callq  4039c0 <_ZdlPv@plt>
_ZN7pvectorIiE16ReleaseResourcesEv():
/home/aliha951/ipdps-artifact/gapbs-master/src/pvector.h:73
    if (start_ != nullptr) {
  403f13:	48 8b 7c 24 70       	mov    0x70(%rsp),%rdi
  403f18:	48 85 ff             	test   %rdi,%rdi
  403f1b:	74 05                	je     403f22 <main.cold+0x58>
/home/aliha951/ipdps-artifact/gapbs-master/src/pvector.h:74
      delete[] start_;
  403f1d:	e8 ee fb ff ff       	callq  403b10 <_ZdaPv@plt>
_ZN9__gnu_cxx13new_allocatorIcED4Ev():
/usr/include/c++/10/ext/new_allocator.h:89
      ~new_allocator() _GLIBCXX_USE_NOEXCEPT { }
  403f22:	48 89 eb             	mov    %rbp,%rbx
  403f25:	eb af                	jmp    403ed6 <main.cold+0xc>
_ZNKSt7__cxx1112basic_stringIcSt11char_traitsIcESaIcEE7_M_dataEv():
/usr/include/c++/10/bits/basic_string.h:195
      { return _M_dataplus._M_p; }
  403f27:	48 8b bc 24 10 01 00 	mov    0x110(%rsp),%rdi
  403f2e:	00 
_ZNSt7__cxx1112basic_stringIcSt11char_traitsIcESaIcEE10_M_disposeEv():
/usr/include/c++/10/bits/basic_string.h:239
	if (!_M_is_local())
  403f2f:	48 39 df             	cmp    %rbx,%rdi
  403f32:	74 df                	je     403f13 <main.cold+0x49>
_ZN9__gnu_cxx13new_allocatorIcE10deallocateEPcm():
/usr/include/c++/10/ext/new_allocator.h:139
	::operator delete(__p
  403f34:	e8 87 fa ff ff       	callq  4039c0 <_ZdlPv@plt>
_ZNSt7__cxx1112basic_stringIcSt11char_traitsIcESaIcEE10_M_destroyEm():
/usr/include/c++/10/bits/basic_string.h:245
	  _M_destroy(_M_allocated_capacity);
      }

      void
      _M_destroy(size_type __size) throw()
      { _Alloc_traits::deallocate(_M_get_allocator(), _M_data(), __size + 1); }
  403f39:	eb d8                	jmp    403f13 <main.cold+0x49>
_ZNKSt7__cxx1112basic_stringIcSt11char_traitsIcESaIcEE7_M_dataEv():
/usr/include/c++/10/bits/basic_string.h:195
      { return _M_dataplus._M_p; }
  403f3b:	48 8b bc 24 10 01 00 	mov    0x110(%rsp),%rdi
  403f42:	00 
_ZNSt7__cxx1112basic_stringIcSt11char_traitsIcESaIcEE10_M_disposeEv():
/usr/include/c++/10/bits/basic_string.h:239
	if (!_M_is_local())
  403f43:	48 39 df             	cmp    %rbx,%rdi
  403f46:	74 05                	je     403f4d <main.cold+0x83>
_ZN9__gnu_cxx13new_allocatorIcE10deallocateEPcm():
/usr/include/c++/10/ext/new_allocator.h:139
  403f48:	e8 73 fa ff ff       	callq  4039c0 <_ZdlPv@plt>
_ZNKSt7__cxx1112basic_stringIcSt11char_traitsIcESaIcEE7_M_dataEv():
/usr/include/c++/10/bits/basic_string.h:195
      { return _M_dataplus._M_p; }
  403f4d:	48 8b bc 24 f0 00 00 	mov    0xf0(%rsp),%rdi
  403f54:	00 
_ZNSt7__cxx1112basic_stringIcSt11char_traitsIcESaIcEE10_M_disposeEv():
/usr/include/c++/10/bits/basic_string.h:239
	if (!_M_is_local())
  403f55:	4c 39 f7             	cmp    %r14,%rdi
  403f58:	74 b9                	je     403f13 <main.cold+0x49>
_ZN9__gnu_cxx13new_allocatorIcE10deallocateEPcm():
/usr/include/c++/10/ext/new_allocator.h:139
  403f5a:	e8 61 fa ff ff       	callq  4039c0 <_ZdlPv@plt>
_ZNSt7__cxx1112basic_stringIcSt11char_traitsIcESaIcEE10_M_destroyEm():
/usr/include/c++/10/bits/basic_string.h:245
      { _Alloc_traits::deallocate(_M_get_allocator(), _M_data(), __size + 1); }
  403f5f:	eb b2                	jmp    403f13 <main.cold+0x49>
_ZN7pvectorIiE16ReleaseResourcesEv():
/home/aliha951/ipdps-artifact/gapbs-master/src/pvector.h:73
    if (start_ != nullptr) {
  403f61:	48 8b 7c 24 70       	mov    0x70(%rsp),%rdi
  403f66:	48 85 ff             	test   %rdi,%rdi
  403f69:	0f 84 67 ff ff ff    	je     403ed6 <main.cold+0xc>
/home/aliha951/ipdps-artifact/gapbs-master/src/pvector.h:74
      delete[] start_;
  403f6f:	e8 9c fb ff ff       	callq  403b10 <_ZdaPv@plt>
  403f74:	e9 5d ff ff ff       	jmpq   403ed6 <main.cold+0xc>
_ZNKSt7__cxx1112basic_stringIcSt11char_traitsIcESaIcEE7_M_dataEv():
/usr/include/c++/10/bits/basic_string.h:195
      { return _M_dataplus._M_p; }
  403f79:	48 8b bc 24 10 01 00 	mov    0x110(%rsp),%rdi
  403f80:	00 
_ZNSt7__cxx1112basic_stringIcSt11char_traitsIcESaIcEE10_M_disposeEv():
/usr/include/c++/10/bits/basic_string.h:239
	if (!_M_is_local())
  403f81:	48 39 df             	cmp    %rbx,%rdi
  403f84:	74 9c                	je     403f22 <main.cold+0x58>
_ZN9__gnu_cxx13new_allocatorIcE10deallocateEPcm():
/usr/include/c++/10/ext/new_allocator.h:139
  403f86:	e8 35 fa ff ff       	callq  4039c0 <_ZdlPv@plt>
_ZNSt7__cxx1112basic_stringIcSt11char_traitsIcESaIcEE10_M_destroyEm():
/usr/include/c++/10/bits/basic_string.h:245
      { _Alloc_traits::deallocate(_M_get_allocator(), _M_data(), __size + 1); }
  403f8b:	eb 95                	jmp    403f22 <main.cold+0x58>
_ZNKSt7__cxx1112basic_stringIcSt11char_traitsIcESaIcEE7_M_dataEv():
/usr/include/c++/10/bits/basic_string.h:195
      { return _M_dataplus._M_p; }
  403f8d:	48 8b bc 24 10 01 00 	mov    0x110(%rsp),%rdi
  403f94:	00 
_ZNSt7__cxx1112basic_stringIcSt11char_traitsIcESaIcEE10_M_disposeEv():
/usr/include/c++/10/bits/basic_string.h:239
	if (!_M_is_local())
  403f95:	48 8d 84 24 20 01 00 	lea    0x120(%rsp),%rax
  403f9c:	00 
  403f9d:	48 39 c7             	cmp    %rax,%rdi
  403fa0:	74 05                	je     403fa7 <main.cold+0xdd>
_ZN9__gnu_cxx13new_allocatorIcE10deallocateEPcm():
/usr/include/c++/10/ext/new_allocator.h:139
  403fa2:	e8 19 fa ff ff       	callq  4039c0 <_ZdlPv@plt>
_ZN9__gnu_cxx13new_allocatorIcED4Ev():
/usr/include/c++/10/ext/new_allocator.h:89
      ~new_allocator() _GLIBCXX_USE_NOEXCEPT { }
  403fa7:	48 89 ef             	mov    %rbp,%rdi
  403faa:	e8 51 fd ff ff       	callq  403d00 <_Unwind_Resume@plt>
main.cold():
  403faf:	90                   	nop

0000000000403fb0 <main>:
main():
/home/aliha951/ipdps-artifact/gapbs-master/src/cc_batching_nopt.cc:248
      return false;
  return true;
}


int main(int argc, char* argv[]) {
  403fb0:	f3 0f 1e fa          	endbr64 
  403fb4:	41 57                	push   %r15
  403fb6:	41 56                	push   %r14
  403fb8:	41 55                	push   %r13
  403fba:	41 54                	push   %r12
  403fbc:	49 89 f4             	mov    %rsi,%r12
  403fbf:	55                   	push   %rbp
  403fc0:	89 fd                	mov    %edi,%ebp
  403fc2:	53                   	push   %rbx
  403fc3:	48 81 ec 18 03 00 00 	sub    $0x318,%rsp
  403fca:	64 48 8b 04 25 28 00 	mov    %fs:0x28,%rax
  403fd1:	00 00 
  403fd3:	48 89 84 24 08 03 00 	mov    %rax,0x308(%rsp)
  403fda:	00 
  403fdb:	31 c0                	xor    %eax,%eax
/home/aliha951/ipdps-artifact/gapbs-master/src/cc_batching_nopt.cc:250
  initialize_perf_measurements();
  CLApp cli(argc, argv, "connected-components-afforest");
  403fdd:	4c 8d ac 24 10 01 00 	lea    0x110(%rsp),%r13
  403fe4:	00 
_Z28initialize_perf_measurementsv():
/home/aliha951/ipdps-artifact/gapbs-master/src/profiling_utils.h:169

/* Setup counters before any threads are created by omp
 * Must be called at the begining of the program.
*/
void initialize_perf_measurements(){
  perf_ctrs = setup_counters();
  403fe5:	e8 76 2c 00 00       	callq  406c60 <_Z14setup_countersv>
main():
/home/aliha951/ipdps-artifact/gapbs-master/src/cc_batching_nopt.cc:250
  403fea:	48 8d 35 23 13 01 00 	lea    0x11323(%rip),%rsi        # 415314 <_IO_stdin_used+0x314>
  403ff1:	4c 89 ef             	mov    %r13,%rdi
_Z28initialize_perf_measurementsv():
/home/aliha951/ipdps-artifact/gapbs-master/src/profiling_utils.h:169
  403ff4:	48 89 05 15 b1 01 00 	mov    %rax,0x1b115(%rip)        # 41f110 <perf_ctrs>
  403ffb:	48 89 15 16 b1 01 00 	mov    %rdx,0x1b116(%rip)        # 41f118 <perf_ctrs+0x8>
main():
/home/aliha951/ipdps-artifact/gapbs-master/src/cc_batching_nopt.cc:250
  404002:	e8 99 1f 00 00       	callq  405fa0 <_ZNSt7__cxx1112basic_stringIcSt11char_traitsIcESaIcEEC2EPKcRKS3_.constprop.0>
  404007:	4c 89 e9             	mov    %r13,%rcx
  40400a:	4c 89 e2             	mov    %r12,%rdx
  40400d:	89 ee                	mov    %ebp,%esi
  40400f:	48 8d 84 24 30 01 00 	lea    0x130(%rsp),%rax
  404016:	00 
  404017:	48 89 c7             	mov    %rax,%rdi
  40401a:	48 89 44 24 38       	mov    %rax,0x38(%rsp)
  40401f:	e8 5c 93 00 00       	callq  40d380 <_ZN5CLAppC1EiPPcNSt7__cxx1112basic_stringIcSt11char_traitsIcESaIcEEE>
_ZNKSt7__cxx1112basic_stringIcSt11char_traitsIcESaIcEE7_M_dataEv():
/usr/include/c++/10/bits/basic_string.h:195
      { return _M_dataplus._M_p; }
  404024:	48 8b bc 24 10 01 00 	mov    0x110(%rsp),%rdi
  40402b:	00 
_ZNSt7__cxx1112basic_stringIcSt11char_traitsIcESaIcEE10_M_disposeEv():
/usr/include/c++/10/bits/basic_string.h:239
	if (!_M_is_local())
  40402c:	48 8d 9c 24 20 01 00 	lea    0x120(%rsp),%rbx
  404033:	00 
  404034:	48 39 df             	cmp    %rbx,%rdi
  404037:	74 05                	je     40403e <main+0x8e>
_ZN9__gnu_cxx13new_allocatorIcE10deallocateEPcm():
/usr/include/c++/10/ext/new_allocator.h:139
	::operator delete(__p
  404039:	e8 82 f9 ff ff       	callq  4039c0 <_ZdlPv@plt>
_ZN6CLBase9HandleArgEaPc():
/home/aliha951/ipdps-artifact/gapbs-master/src/command_line.h:100
    switch (opt) {
  40403e:	4c 8d 25 1f 1f 01 00 	lea    0x11f1f(%rip),%r12        # 415f64 <_IO_stdin_used+0xf64>
_ZNSt7__cxx1112basic_stringIcSt11char_traitsIcESaIcEEaSEOS4_():
/usr/include/c++/10/bits/basic_string.h:745
	    || _M_get_allocator() == __str._M_get_allocator())
	  {
	    // Just move the allocated pointer, our allocator can free it.
	    pointer __data = nullptr;
	    size_type __capacity;
	    if (!_M_is_local())
  404045:	4c 8d b4 24 b8 01 00 	lea    0x1b8(%rsp),%r14
  40404c:	00 
_ZN5CLApp9HandleArgEaPc():
/home/aliha951/ipdps-artifact/gapbs-master/src/command_line.h:165
    AddHelpLine('p', "", "partial execution", "false");
    AddHelpLine('z', "", "pin vertex array in memory", "false");
  }

  void HandleArg(signed char opt, char* opt_arg) override {
    switch (opt) {
  40404d:	48 8d 2d a8 1e 01 00 	lea    0x11ea8(%rip),%rbp        # 415efc <_IO_stdin_used+0xefc>
  404054:	0f 1f 40 00          	nopl   0x0(%rax)
_ZN6CLBase9ParseArgsEv():
/home/aliha951/ipdps-artifact/gapbs-master/src/command_line.h:87
    while ((c_opt = getopt(argc_, argv_, get_args_.c_str())) != -1) {
  404058:	48 8b 94 24 68 01 00 	mov    0x168(%rsp),%rdx
  40405f:	00 
  404060:	48 8b b4 24 40 01 00 	mov    0x140(%rsp),%rsi
  404067:	00 
  404068:	8b bc 24 38 01 00 00 	mov    0x138(%rsp),%edi
  40406f:	e8 0c f7 ff ff       	callq  403780 <getopt@plt>
  404074:	3c ff                	cmp    $0xff,%al
  404076:	0f 84 a4 00 00 00    	je     404120 <main+0x170>
_ZN5CLApp9HandleArgEaPc():
/home/aliha951/ipdps-artifact/gapbs-master/src/command_line.h:165
    switch (opt) {
  40407c:	8d 50 9f             	lea    -0x61(%rax),%edx
_ZN6CLBase9ParseArgsEv():
/home/aliha951/ipdps-artifact/gapbs-master/src/command_line.h:88
      HandleArg(c_opt, optarg);
  40407f:	48 8b 3d 3a 63 01 00 	mov    0x1633a(%rip),%rdi        # 41a3c0 <optarg@@GLIBC_2.2.5>
_ZN5CLApp9HandleArgEaPc():
/home/aliha951/ipdps-artifact/gapbs-master/src/command_line.h:165
    switch (opt) {
  404086:	80 fa 19             	cmp    $0x19,%dl
  404089:	77 15                	ja     4040a0 <main+0xf0>
  40408b:	0f b6 d2             	movzbl %dl,%edx
  40408e:	48 63 54 95 00       	movslq 0x0(%rbp,%rdx,4),%rdx
  404093:	48 01 ea             	add    %rbp,%rdx
  404096:	3e ff e2             	notrack jmpq *%rdx
  404099:	0f 1f 80 00 00 00 00 	nopl   0x0(%rax)
_ZN6CLBase9HandleArgEaPc():
/home/aliha951/ipdps-artifact/gapbs-master/src/command_line.h:100
    switch (opt) {
  4040a0:	83 e8 66             	sub    $0x66,%eax
  4040a3:	3c 13                	cmp    $0x13,%al
  4040a5:	77 b1                	ja     404058 <main+0xa8>
  4040a7:	0f b6 c0             	movzbl %al,%eax
  4040aa:	49 63 04 84          	movslq (%r12,%rax,4),%rax
  4040ae:	4c 01 e0             	add    %r12,%rax
  4040b1:	3e ff e0             	notrack jmpq *%rax
_ZN5CLApp9HandleArgEaPc():
/home/aliha951/ipdps-artifact/gapbs-master/src/command_line.h:174
      case 'v': do_verify_ = true;                      break;
      case 'l': enable_logging_ = true;                 break;

      // added options for batching
      case 'p': partial_execution_ = true;              break;
      case 'z': pin_vertices_ = true;                 	break;
  4040b4:	c6 84 24 f3 01 00 00 	movb   $0x1,0x1f3(%rsp)
  4040bb:	01 
  4040bc:	eb 9a                	jmp    404058 <main+0xa8>
/home/aliha951/ipdps-artifact/gapbs-master/src/command_line.h:169
      case 'v': do_verify_ = true;                      break;
  4040be:	c6 84 24 f0 01 00 00 	movb   $0x1,0x1f0(%rsp)
  4040c5:	01 
  4040c6:	eb 90                	jmp    404058 <main+0xa8>
main():
/usr/include/stdlib.h:368
  return (int) strtol (__nptr, (char **) NULL, 10);
}
__extern_inline long int
__NTH (atol (const char *__nptr))
{
  return strtol (__nptr, (char **) NULL, 10);
  4040c8:	ba 0a 00 00 00       	mov    $0xa,%edx
atol():
/usr/include/stdlib.h:368
  4040cd:	31 f6                	xor    %esi,%esi
  4040cf:	e8 ac fa ff ff       	callq  403b80 <strtol@plt>
_ZN5CLApp9HandleArgEaPc():
/home/aliha951/ipdps-artifact/gapbs-master/src/command_line.h:168
      case 'r': start_vertex_ = atol(opt_arg);          break;
  4040d4:	48 89 84 24 e8 01 00 	mov    %rax,0x1e8(%rsp)
  4040db:	00 
  4040dc:	e9 77 ff ff ff       	jmpq   404058 <main+0xa8>
/home/aliha951/ipdps-artifact/gapbs-master/src/command_line.h:173
      case 'p': partial_execution_ = true;              break;
  4040e1:	c6 84 24 f2 01 00 00 	movb   $0x1,0x1f2(%rsp)
  4040e8:	01 
  4040e9:	e9 6a ff ff ff       	jmpq   404058 <main+0xa8>
main():
/usr/include/stdlib.h:363
  return (int) strtol (__nptr, (char **) NULL, 10);
  4040ee:	ba 0a 00 00 00       	mov    $0xa,%edx
atoi():
/usr/include/stdlib.h:363
  4040f3:	31 f6                	xor    %esi,%esi
  4040f5:	e8 86 fa ff ff       	callq  403b80 <strtol@plt>
  4040fa:	89 84 24 e4 01 00 00 	mov    %eax,0x1e4(%rsp)
_ZN5CLApp9HandleArgEaPc():
/home/aliha951/ipdps-artifact/gapbs-master/src/command_line.h:167
      case 'n': num_trials_ = atoi(opt_arg);            break;
  404101:	e9 52 ff ff ff       	jmpq   404058 <main+0xa8>
/home/aliha951/ipdps-artifact/gapbs-master/src/command_line.h:170
      case 'l': enable_logging_ = true;                 break;
  404106:	c6 84 24 f1 01 00 00 	movb   $0x1,0x1f1(%rsp)
  40410d:	01 
  40410e:	e9 45 ff ff ff       	jmpq   404058 <main+0xa8>
/home/aliha951/ipdps-artifact/gapbs-master/src/command_line.h:166
      case 'a': do_analysis_ = true;                    break;
  404113:	c6 84 24 e0 01 00 00 	movb   $0x1,0x1e0(%rsp)
  40411a:	01 
  40411b:	e9 38 ff ff ff       	jmpq   404058 <main+0xa8>
_ZSteqIcSt11char_traitsIcESaIcEEbRKNSt7__cxx1112basic_stringIT_T0_T1_EEPKS5_():
/usr/include/c++/10/bits/basic_string.h:6199
   */
  template<typename _CharT, typename _Traits, typename _Alloc>
    inline bool
    operator==(const basic_string<_CharT, _Traits, _Alloc>& __lhs,
	       const _CharT* __rhs)
    { return __lhs.compare(__rhs) == 0; }
  404120:	48 8d bc 24 a8 01 00 	lea    0x1a8(%rsp),%rdi
  404127:	00 
  404128:	48 8d 35 1c 11 01 00 	lea    0x1111c(%rip),%rsi        # 41524b <_IO_stdin_used+0x24b>
  40412f:	e8 9c f6 ff ff       	callq  4037d0 <_ZNKSt7__cxx1112basic_stringIcSt11char_traitsIcESaIcEE7compareEPKc@plt>
_ZN6CLBase9ParseArgsEv():
/home/aliha951/ipdps-artifact/gapbs-master/src/command_line.h:90
    if ((filename_ == "") && (scale_ == -1)) {
  404134:	85 c0                	test   %eax,%eax
  404136:	0f 84 58 06 00 00    	je     404794 <main+0x7e4>
/home/aliha951/ipdps-artifact/gapbs-master/src/command_line.h:94
    if (scale_ != -1)
  40413c:	83 bc 24 a0 01 00 00 	cmpl   $0xffffffff,0x1a0(%rsp)
  404143:	ff 
  404144:	0f 85 5c 06 00 00    	jne    4047a6 <main+0x7f6>
_ZN11BuilderBaseIiiiLb1EEC4ERK6CLBase():
/home/aliha951/ipdps-artifact/gapbs-master/src/builder.h:50
  bool needs_weights_;
  bool in_place_ = false;
  int64_t num_nodes_ = -1;

 public:
  explicit BuilderBase(const CLBase &cli) : cli_(cli) {
  40414a:	48 8b 44 24 38       	mov    0x38(%rsp),%rax
main():
/home/aliha951/ipdps-artifact/gapbs-master/src/cc_batching_nopt.cc:255
  if (!cli.ParseArgs())
    return -1;

  Builder b(cli);
  Graph g = b.MakeGraph();
  40414f:	48 8d 74 24 50       	lea    0x50(%rsp),%rsi
_ZN11BuilderBaseIiiiLb1EEC4ERK6CLBase():
/home/aliha951/ipdps-artifact/gapbs-master/src/builder.h:52
    symmetrize_ = cli_.symmetrize();
    needs_weights_ = !std::is_same<NodeID_, DestID_>::value;
  404154:	c6 44 24 59 00       	movb   $0x0,0x59(%rsp)
/home/aliha951/ipdps-artifact/gapbs-master/src/builder.h:50
  explicit BuilderBase(const CLBase &cli) : cli_(cli) {
  404159:	48 c7 44 24 60 ff ff 	movq   $0xffffffffffffffff,0x60(%rsp)
  404160:	ff ff 
  404162:	48 89 44 24 50       	mov    %rax,0x50(%rsp)
/home/aliha951/ipdps-artifact/gapbs-master/src/builder.h:51
    symmetrize_ = cli_.symmetrize();
  404167:	0f b6 84 24 c8 01 00 	movzbl 0x1c8(%rsp),%eax
  40416e:	00 
  40416f:	88 44 24 58          	mov    %al,0x58(%rsp)
/home/aliha951/ipdps-artifact/gapbs-master/src/builder.h:53
    in_place_ = cli_.in_place();
  404173:	0f b6 84 24 ca 01 00 	movzbl 0x1ca(%rsp),%eax
  40417a:	00 
  40417b:	88 44 24 5a          	mov    %al,0x5a(%rsp)
main():
/home/aliha951/ipdps-artifact/gapbs-master/src/cc_batching_nopt.cc:255
  40417f:	48 8d 84 24 b0 00 00 	lea    0xb0(%rsp),%rax
  404186:	00 
  404187:	48 89 c7             	mov    %rax,%rdi
  40418a:	48 89 44 24 30       	mov    %rax,0x30(%rsp)
  40418f:	e8 dc f5 00 00       	callq  413770 <_ZN11BuilderBaseIiiiLb1EE9MakeGraphEv>
/home/aliha951/ipdps-artifact/gapbs-master/src/cc_batching_nopt.cc:258
  auto CCBound = [&cli](const Graph& gr){ return Afforest(gr, cli.logging_en()); };

  if(cli.batching()){
  404194:	80 bc 24 cb 01 00 00 	cmpb   $0x0,0x1cb(%rsp)
  40419b:	00 
  40419c:	0f 84 bd 00 00 00    	je     40425f <main+0x2af>
/home/aliha951/ipdps-artifact/gapbs-master/src/cc_batching_nopt.cc:259
    pagefault_queue_size = cli.queue_size();
  4041a2:	48 63 84 24 d0 01 00 	movslq 0x1d0(%rsp),%rax
  4041a9:	00 
  4041aa:	48 89 05 df 61 01 00 	mov    %rax,0x161df(%rip)        # 41a390 <pagefault_queue_size>
/home/aliha951/ipdps-artifact/gapbs-master/src/cc_batching_nopt.cc:260
    batching_mode = cli.batching_mode();
  4041b1:	8b 84 24 dc 01 00 00 	mov    0x1dc(%rsp),%eax
  4041b8:	89 05 ce 61 01 00    	mov    %eax,0x161ce(%rip)        # 41a38c <batching_mode>
/home/aliha951/ipdps-artifact/gapbs-master/src/cc_batching_nopt.cc:261
    allocate_pf_status_array();
  4041be:	e8 4d 77 00 00       	callq  40b910 <_Z24allocate_pf_status_arrayv>
_Z16prepare_pmadvisev():
/home/aliha951/ipdps-artifact/gapbs-master/src/libpfq_cc_nopt.h:458
  touch_pages(pf_status_array, 32*1024*sizeof(int));
}

// Get file descriptor required for process_madvise and store it in pidfd
inline void prepare_pmadvise(){
  if(batching_mode == P_MADVISE){
  4041c3:	83 3d c2 61 01 00 01 	cmpl   $0x1,0x161c2(%rip)        # 41a38c <batching_mode>
  4041ca:	0f 84 2d 08 00 00    	je     4049fd <main+0xa4d>
_Z24register_pf_status_arrayv():
/home/aliha951/ipdps-artifact/gapbs-master/src/libpfq_cc_nopt.h:466
  }
}

// syscall to register the page fault status array with the kernel
inline void register_pf_status_array(){
  syscall(550,pf_status_array,32*1024);
  4041d0:	48 8b 35 a9 ab 01 00 	mov    0x1aba9(%rip),%rsi        # 41ed80 <pf_status_array>
  4041d7:	ba 00 80 00 00       	mov    $0x8000,%edx
  4041dc:	bf 26 02 00 00       	mov    $0x226,%edi
  4041e1:	31 c0                	xor    %eax,%eax
  4041e3:	e8 58 f5 ff ff       	callq  403740 <syscall@plt>
main():
/home/aliha951/ipdps-artifact/gapbs-master/src/cc_batching_nopt.cc:264
    prepare_pmadvise();
    register_pf_status_array();
    unsigned long *ips = (unsigned long *)malloc(3 * sizeof(unsigned long));
  4041e8:	bf 18 00 00 00       	mov    $0x18,%edi
  4041ed:	e8 5e f9 ff ff       	callq  403b50 <malloc@plt>
/home/aliha951/ipdps-artifact/gapbs-master/src/cc_batching_nopt.cc:265
    unsigned long *ret_ips = (unsigned long *)malloc(3 * sizeof(unsigned long));
  4041f2:	bf 18 00 00 00       	mov    $0x18,%edi
/home/aliha951/ipdps-artifact/gapbs-master/src/cc_batching_nopt.cc:264
    unsigned long *ips = (unsigned long *)malloc(3 * sizeof(unsigned long));
  4041f7:	48 89 c5             	mov    %rax,%rbp
/home/aliha951/ipdps-artifact/gapbs-master/src/cc_batching_nopt.cc:265
    unsigned long *ret_ips = (unsigned long *)malloc(3 * sizeof(unsigned long));
  4041fa:	e8 51 f9 ff ff       	callq  403b50 <malloc@plt>
/home/aliha951/ipdps-artifact/gapbs-master/src/cc_batching_nopt.cc:266
    ips[0] = 0x407e2a;  // p1 t maker
  4041ff:	66 0f 6f 05 09 20 01 	movdqa 0x12009(%rip),%xmm0        # 416210 <_ZZNSt8__detail18__to_chars_10_implIjEEvPcjT_E8__digits+0x230>
  404206:	00 
_Z23register_ips_and_retipsPmS_i():
/home/aliha951/ipdps-artifact/gapbs-master/src/libpfq_cc_nopt.h:471
}

// syscall to register the special PCs (ips) and their return PCs (ret_ips) with the kernel
inline void register_ips_and_retips(unsigned long *ips, unsigned long *ret_ips, int size){
  syscall(548, ips, ret_ips, size);
  404207:	b9 03 00 00 00       	mov    $0x3,%ecx
  40420c:	48 89 ee             	mov    %rbp,%rsi
main():
/home/aliha951/ipdps-artifact/gapbs-master/src/cc_batching_nopt.cc:271
    ret_ips[0] = 0x3;
    ips[1] = 0x408096; // p2u t maker
    ret_ips[1] = 0x3;
    ips[2] = 0x408309; // p2d t maker
    ret_ips[2] = 0x3;
  40420f:	48 c7 40 10 03 00 00 	movq   $0x3,0x10(%rax)
  404216:	00 
/home/aliha951/ipdps-artifact/gapbs-master/src/cc_batching_nopt.cc:265
    unsigned long *ret_ips = (unsigned long *)malloc(3 * sizeof(unsigned long));
  404217:	48 89 c2             	mov    %rax,%rdx
_Z23register_ips_and_retipsPmS_i():
/home/aliha951/ipdps-artifact/gapbs-master/src/libpfq_cc_nopt.h:471
  40421a:	bf 24 02 00 00       	mov    $0x224,%edi
main():
/home/aliha951/ipdps-artifact/gapbs-master/src/cc_batching_nopt.cc:266
    ips[0] = 0x407e2a;  // p1 t maker
  40421f:	0f 11 45 00          	movups %xmm0,0x0(%rbp)
/home/aliha951/ipdps-artifact/gapbs-master/src/cc_batching_nopt.cc:267
    ret_ips[0] = 0x3;
  404223:	66 0f 6f 05 f5 1f 01 	movdqa 0x11ff5(%rip),%xmm0        # 416220 <_ZZNSt8__detail18__to_chars_10_implIjEEvPcjT_E8__digits+0x240>
  40422a:	00 
/home/aliha951/ipdps-artifact/gapbs-master/src/cc_batching_nopt.cc:270
    ips[2] = 0x408309; // p2d t maker
  40422b:	48 c7 45 10 09 83 40 	movq   $0x408309,0x10(%rbp)
  404232:	00 
/home/aliha951/ipdps-artifact/gapbs-master/src/cc_batching_nopt.cc:267
    ret_ips[0] = 0x3;
  404233:	0f 11 00             	movups %xmm0,(%rax)
_Z23register_ips_and_retipsPmS_i():
/home/aliha951/ipdps-artifact/gapbs-master/src/libpfq_cc_nopt.h:471
  404236:	31 c0                	xor    %eax,%eax
  404238:	e8 03 f5 ff ff       	callq  403740 <syscall@plt>
_Z11touch_pagesPVim():
/home/aliha951/ipdps-artifact/gapbs-master/src/libpfq_cc_nopt.h:438
    for (size_t i = 0; i < num_ints; i += 32) {
  40423d:	48 8b 05 3c ab 01 00 	mov    0x1ab3c(%rip),%rax        # 41ed80 <pf_status_array>
  404244:	48 8d 90 00 00 02 00 	lea    0x20000(%rax),%rdx
  40424b:	0f 1f 44 00 00       	nopl   0x0(%rax,%rax,1)
/home/aliha951/ipdps-artifact/gapbs-master/src/libpfq_cc_nopt.h:439
        address[i] = 0;
  404250:	c7 00 00 00 00 00    	movl   $0x0,(%rax)
/home/aliha951/ipdps-artifact/gapbs-master/src/libpfq_cc_nopt.h:438
    for (size_t i = 0; i < num_ints; i += 32) {
  404256:	48 83 e8 80          	sub    $0xffffffffffffff80,%rax
  40425a:	48 39 d0             	cmp    %rdx,%rax
  40425d:	75 f1                	jne    404250 <main+0x2a0>
main():
/home/aliha951/ipdps-artifact/gapbs-master/src/benchmark.h:107
template<typename GraphT_, typename GraphFunc, typename AnalysisFunc,
         typename VerifierFunc>
void BenchmarkKernel(const CLApp &cli, const GraphT_ &g,
                     GraphFunc kernel, AnalysisFunc stats,
                     VerifierFunc verify) {
  g.PrintStats();
  40425f:	48 8b 7c 24 30       	mov    0x30(%rsp),%rdi
BenchmarkKernel<CSRGraph<int>, main(int, char**)::<lambda(const Graph&)>, void (*)(const CSRGraph<int>&, const pvector<int>&), bool (*)(const CSRGraph<int>&, const pvector<int>&)>():
/home/aliha951/ipdps-artifact/gapbs-master/src/benchmark.h:107
  404264:	e8 87 79 00 00       	callq  40bbf0 <_ZNK8CSRGraphIiiLb1EE10PrintStatsEv>
_Z16start_disk_statsPKc():
/home/aliha951/ipdps-artifact/gapbs-master/src/profiling_utils.h:300
	fprintf(f, "%d", pid);
	fclose(f);
}

inline void start_disk_stats(const char* result_file_name){
  pid_t pid = fork();
  404269:	e8 52 f5 ff ff       	callq  4037c0 <fork@plt>
/home/aliha951/ipdps-artifact/gapbs-master/src/profiling_utils.h:301
  if (pid < 0) {
  40426e:	85 c0                	test   %eax,%eax
  404270:	0f 88 98 08 00 00    	js     404b0e <main+0xb5e>
/home/aliha951/ipdps-artifact/gapbs-master/src/profiling_utils.h:304
    perror("fork failed");
    exit(EXIT_FAILURE);
  } else if (pid == 0) { // Child process
  404276:	0f 84 4f 08 00 00    	je     404acb <main+0xb1b>
/home/aliha951/ipdps-artifact/gapbs-master/src/profiling_utils.h:312
    execlp("/home/aliha951/ipdps-gapbs/gather_diskstats.sh", "/home/aliha951/ipdps-gapbs/gather_diskstats.sh", result_file_name, NULL);
    perror("execlp failed");
    exit(EXIT_FAILURE);
  }
  // Parent process continues
  diskstat_pid = pid;
  40427c:	89 05 1a 61 01 00    	mov    %eax,0x1611a(%rip)        # 41a39c <diskstat_pid>
BenchmarkKernel<CSRGraph<int>, main(int, char**)::<lambda(const Graph&)>, void (*)(const CSRGraph<int>&, const pvector<int>&), bool (*)(const CSRGraph<int>&, const pvector<int>&)>():
/home/aliha951/ipdps-artifact/gapbs-master/src/benchmark.h:114
  
  // adding profiling markers and rusage counters for performance analysis
  long long user_instructions, kernel_instructions,
              user_time, kernel_time;
  start_disk_stats("disk.stats");
  start_taskstats();                    
  404282:	e8 f9 32 00 00       	callq  407580 <_Z15start_taskstatsv>
/home/aliha951/ipdps-artifact/gapbs-master/src/benchmark.h:115
  snapshot_proc_pid(BEGIN);
  404287:	31 ff                	xor    %edi,%edi
  404289:	e8 82 70 00 00       	callq  40b310 <_Z17snapshot_proc_pid13SnapshotPoint>
/home/aliha951/ipdps-artifact/gapbs-master/src/benchmark.h:116
  snapshot_proc_stat(BEGIN);
  40428e:	31 ff                	xor    %edi,%edi
  404290:	e8 ab 73 00 00       	callq  40b640 <_Z18snapshot_proc_stat13SnapshotPoint>
/home/aliha951/ipdps-artifact/gapbs-master/src/benchmark.h:117
  start_counters(&perf_ctrs);
  404295:	48 8d 3d 74 ae 01 00 	lea    0x1ae74(%rip),%rdi        # 41f110 <perf_ctrs>
  40429c:	e8 bf 2b 00 00       	callq  406e60 <_Z14start_countersP13perf_counters>
/home/aliha951/ipdps-artifact/gapbs-master/src/benchmark.h:118
  trace_marker("BenchmarkKernel_Start");
  4042a1:	48 8d 3d c5 10 01 00 	lea    0x110c5(%rip),%rdi        # 41536d <_IO_stdin_used+0x36d>
  4042a8:	e8 e3 28 00 00       	callq  406b90 <_Z12trace_markerPKc>
/home/aliha951/ipdps-artifact/gapbs-master/src/benchmark.h:119
  start_time_stats();
  4042ad:	e8 8e 26 00 00       	callq  406940 <_Z16start_time_statsv>
_Z19ompt_mark_roi_startv():
/home/aliha951/ipdps-artifact/gapbs-master/src/../omp_runtime_visualizer/include/runtime_visualizer_utils.h:52
  printf("[OMPT_annotation] Thread %d Annotation at %.3f ms: %s\n", 
         thread_id, timestamp / 1000.0, annotation);
}

inline void ompt_mark_roi_start() {
  ompt_annotate("ROI_START");
  4042b2:	48 8d 3d ca 10 01 00 	lea    0x110ca(%rip),%rdi        # 415383 <_IO_stdin_used+0x383>
  4042b9:	e8 62 35 00 00       	callq  407820 <_Z13ompt_annotatePKc>
BenchmarkKernel<CSRGraph<int>, main(int, char**)::<lambda(const Graph&)>, void (*)(const CSRGraph<int>&, const pvector<int>&), bool (*)(const CSRGraph<int>&, const pvector<int>&)>():
/home/aliha951/ipdps-artifact/gapbs-master/src/benchmark.h:123
  ompt_mark_roi_start();

  Timer trial_timer;
  for (int iter=0; iter < cli.num_trials(); iter++) {
  4042be:	8b 8c 24 e4 01 00 00 	mov    0x1e4(%rsp),%ecx
  4042c5:	85 c9                	test   %ecx,%ecx
  4042c7:	0f 8e 21 07 00 00    	jle    4049ee <main+0xa3e>
/home/aliha951/ipdps-artifact/gapbs-master/src/benchmark.h:108
  double total_seconds = 0;
  4042cd:	66 0f ef c9          	pxor   %xmm1,%xmm1
  4042d1:	f3 0f 7e 7c 24 30    	movq   0x30(%rsp),%xmm7
  4042d7:	4c 8d 7c 24 70       	lea    0x70(%rsp),%r15
/home/aliha951/ipdps-artifact/gapbs-master/src/benchmark.h:123
  for (int iter=0; iter < cli.num_trials(); iter++) {
  4042dc:	45 31 e4             	xor    %r12d,%r12d
/home/aliha951/ipdps-artifact/gapbs-master/src/benchmark.h:108
  double total_seconds = 0;
  4042df:	f2 0f 11 4c 24 18    	movsd  %xmm1,0x18(%rsp)
  4042e5:	66 49 0f 6e cf       	movq   %r15,%xmm1
  4042ea:	66 0f 6c f9          	punpcklqdq %xmm1,%xmm7
  4042ee:	0f 29 3c 24          	movaps %xmm7,(%rsp)
  4042f2:	66 0f 1f 44 00 00    	nopw   0x0(%rax,%rax,1)
_ZN5Timer5StartEv():
/home/aliha951/ipdps-artifact/gapbs-master/src/timer.h:23
class Timer {
 public:
  Timer() {}

  void Start() {
    elapsed_time_ = start_time_ = std::chrono::high_resolution_clock::now();
  4042f8:	e8 33 f4 ff ff       	callq  403730 <_ZNSt6chrono3_V212system_clock3nowEv@plt>
_Z8AfforestRK8CSRGraphIiiLb1EEbi():
/home/aliha951/ipdps-artifact/gapbs-master/src/cc_batching_nopt.cc:98
  pvector<NodeID> comp(g.num_nodes());
  4042fd:	48 8b ac 24 b8 00 00 	mov    0xb8(%rsp),%rbp
  404304:	00 
_ZN5Timer5StartEv():
/home/aliha951/ipdps-artifact/gapbs-master/src/timer.h:23
  404305:	48 89 44 24 28       	mov    %rax,0x28(%rsp)
main():
/home/aliha951/ipdps-artifact/gapbs-master/src/cc_batching_nopt.cc:256
  auto CCBound = [&cli](const Graph& gr){ return Afforest(gr, cli.logging_en()); };
  40430a:	0f b6 84 24 f1 01 00 	movzbl 0x1f1(%rsp),%eax
  404311:	00 
operator()():
/home/aliha951/ipdps-artifact/gapbs-master/src/cc_batching_nopt.cc:256
  404312:	89 44 24 20          	mov    %eax,0x20(%rsp)
_ZN7pvectorIiEC4Em():
/home/aliha951/ipdps-artifact/gapbs-master/src/pvector.h:30
    start_ = new T_[num_elements];
  404316:	48 b8 fe ff ff ff ff 	movabs $0x1ffffffffffffffe,%rax
  40431d:	ff ff 1f 
  404320:	48 39 c5             	cmp    %rax,%rbp
  404323:	0f 87 a1 fb ff ff    	ja     403eca <main.cold>
  404329:	48 c1 e5 02          	shl    $0x2,%rbp
  40432d:	48 89 ef             	mov    %rbp,%rdi
  404330:	e8 cb f3 ff ff       	callq  403700 <_Znam@plt>
/home/aliha951/ipdps-artifact/gapbs-master/src/pvector.h:31
    end_size_ = start_ + num_elements;
  404335:	48 01 c5             	add    %rax,%rbp
_Z8AfforestRK8CSRGraphIiiLb1EEbi():
/home/aliha951/ipdps-artifact/gapbs-master/src/cc_batching_nopt.cc:101
  #pragma omp parallel for
  404338:	66 0f 6f 24 24       	movdqa (%rsp),%xmm4
  40433d:	31 c9                	xor    %ecx,%ecx
  40433f:	31 d2                	xor    %edx,%edx
_ZN7pvectorIiEC4Em():
/home/aliha951/ipdps-artifact/gapbs-master/src/pvector.h:31
  404341:	48 89 6c 24 78       	mov    %rbp,0x78(%rsp)
  404346:	48 8d 3d b3 10 00 00 	lea    0x10b3(%rip),%rdi        # 405400 <_Z8AfforestRK8CSRGraphIiiLb1EEbi._omp_fn.0>
_Z8AfforestRK8CSRGraphIiiLb1EEbi():
/home/aliha951/ipdps-artifact/gapbs-master/src/cc_batching_nopt.cc:107
  for (int r = 0; r < neighbor_rounds; ++r) {
  40434d:	45 31 f6             	xor    %r14d,%r14d
_ZN7pvectorIiEC4Em():
/home/aliha951/ipdps-artifact/gapbs-master/src/pvector.h:32
    end_capacity_ = end_size_;
  404350:	48 89 ac 24 80 00 00 	mov    %rbp,0x80(%rsp)
  404357:	00 
_Z8AfforestRK8CSRGraphIiiLb1EEbi():
/home/aliha951/ipdps-artifact/gapbs-master/src/cc_batching_nopt.cc:101
  #pragma omp parallel for
  404358:	48 8d ac 24 90 00 00 	lea    0x90(%rsp),%rbp
  40435f:	00 
  404360:	48 89 ee             	mov    %rbp,%rsi
_ZN7pvectorIiEC4Em():
/home/aliha951/ipdps-artifact/gapbs-master/src/pvector.h:30
    start_ = new T_[num_elements];
  404363:	48 89 44 24 70       	mov    %rax,0x70(%rsp)
_Z8AfforestRK8CSRGraphIiiLb1EEbi():
/home/aliha951/ipdps-artifact/gapbs-master/src/cc_batching_nopt.cc:101
  404368:	0f 29 a4 24 90 00 00 	movaps %xmm4,0x90(%rsp)
  40436f:	00 
  404370:	e8 6b f9 ff ff       	callq  403ce0 <GOMP_parallel@plt>
/home/aliha951/ipdps-artifact/gapbs-master/src/cc_batching_nopt.cc:107
  for (int r = 0; r < neighbor_rounds; ++r) {
  404375:	eb 0f                	jmp    404386 <main+0x3d6>
  404377:	66 0f 1f 84 00 00 00 	nopw   0x0(%rax,%rax,1)
  40437e:	00 00 
  404380:	41 be 01 00 00 00    	mov    $0x1,%r14d
/home/aliha951/ipdps-artifact/gapbs-master/src/cc_batching_nopt.cc:108
  #pragma omp parallel for schedule(dynamic,CHUNK_SIZE) PFH_CLAUSES
  404386:	66 0f 6f 14 24       	movdqa (%rsp),%xmm2
  40438b:	31 c9                	xor    %ecx,%ecx
  40438d:	31 d2                	xor    %edx,%edx
  40438f:	48 89 ee             	mov    %rbp,%rsi
  404392:	48 8d 3d 97 39 00 00 	lea    0x3997(%rip),%rdi        # 407d30 <_Z8AfforestRK8CSRGraphIiiLb1EEbi._omp_fn.1>
  404399:	44 89 b4 24 a0 00 00 	mov    %r14d,0xa0(%rsp)
  4043a0:	00 
  4043a1:	0f 29 94 24 90 00 00 	movaps %xmm2,0x90(%rsp)
  4043a8:	00 
  4043a9:	e8 32 f9 ff ff       	callq  403ce0 <GOMP_parallel@plt>
_Z8CompressRK8CSRGraphIiiLb1EER7pvectorIiE():
/home/aliha951/ipdps-artifact/gapbs-master/src/cc_batching_nopt.cc:61
  #pragma omp parallel for schedule(dynamic, 16384)
  4043ae:	66 0f 6f 14 24       	movdqa (%rsp),%xmm2
  4043b3:	31 c9                	xor    %ecx,%ecx
  4043b5:	31 d2                	xor    %edx,%edx
  4043b7:	48 89 ee             	mov    %rbp,%rsi
  4043ba:	48 8d 3d 6f 0f 00 00 	lea    0xf6f(%rip),%rdi        # 405330 <_Z8CompressRK8CSRGraphIiiLb1EER7pvectorIiE._omp_fn.0>
  4043c1:	0f 29 94 24 90 00 00 	movaps %xmm2,0x90(%rsp)
  4043c8:	00 
  4043c9:	e8 12 f9 ff ff       	callq  403ce0 <GOMP_parallel@plt>
_Z8AfforestRK8CSRGraphIiiLb1EEbi():
/home/aliha951/ipdps-artifact/gapbs-master/src/cc_batching_nopt.cc:107
  for (int r = 0; r < neighbor_rounds; ++r) {
  4043ce:	41 83 fe 01          	cmp    $0x1,%r14d
  4043d2:	75 ac                	jne    404380 <main+0x3d0>
/home/aliha951/ipdps-artifact/gapbs-master/src/cc_batching_nopt.cc:130
  NodeID c = SampleFrequentElement(comp, logging_enabled);
  4043d4:	8b 74 24 20          	mov    0x20(%rsp),%esi
  4043d8:	4c 89 ff             	mov    %r15,%rdi
  4043db:	e8 d0 4b 00 00       	callq  408fb0 <_Z21SampleFrequentElementRK7pvectorIiEbl.constprop.0>
/home/aliha951/ipdps-artifact/gapbs-master/src/cc_batching_nopt.cc:133
  if (!g.directed()) {
  4043e0:	80 bc 24 b0 00 00 00 	cmpb   $0x0,0xb0(%rsp)
  4043e7:	00 
/home/aliha951/ipdps-artifact/gapbs-master/src/cc_batching_nopt.cc:134
    #pragma omp parallel for schedule(dynamic, CHUNK_SIZE) PFH_CLAUSES
  4043e8:	89 84 24 a4 00 00 00 	mov    %eax,0xa4(%rsp)
  4043ef:	c7 84 24 a0 00 00 00 	movl   $0x2,0xa0(%rsp)
  4043f6:	02 00 00 00 
/home/aliha951/ipdps-artifact/gapbs-master/src/cc_batching_nopt.cc:133
  if (!g.directed()) {
  4043fa:	0f 85 b8 03 00 00    	jne    4047b8 <main+0x808>
/home/aliha951/ipdps-artifact/gapbs-master/src/cc_batching_nopt.cc:134
    #pragma omp parallel for schedule(dynamic, CHUNK_SIZE) PFH_CLAUSES
  404400:	66 0f 6f 3c 24       	movdqa (%rsp),%xmm7
  404405:	31 c9                	xor    %ecx,%ecx
  404407:	31 d2                	xor    %edx,%edx
  404409:	48 89 ee             	mov    %rbp,%rsi
  40440c:	48 8d 3d 1d 3b 00 00 	lea    0x3b1d(%rip),%rdi        # 407f30 <_Z8AfforestRK8CSRGraphIiiLb1EEbi._omp_fn.2>
  404413:	0f 29 bc 24 90 00 00 	movaps %xmm7,0x90(%rsp)
  40441a:	00 
  40441b:	e8 c0 f8 ff ff       	callq  403ce0 <GOMP_parallel@plt>
_Z8CompressRK8CSRGraphIiiLb1EER7pvectorIiE():
/home/aliha951/ipdps-artifact/gapbs-master/src/cc_batching_nopt.cc:61
  #pragma omp parallel for schedule(dynamic, 16384)
  404420:	66 0f 6f 2c 24       	movdqa (%rsp),%xmm5
  404425:	31 d2                	xor    %edx,%edx
  404427:	48 8d 3d 02 0f 00 00 	lea    0xf02(%rip),%rdi        # 405330 <_Z8CompressRK8CSRGraphIiiLb1EER7pvectorIiE._omp_fn.0>
  40442e:	31 c9                	xor    %ecx,%ecx
  404430:	48 89 ee             	mov    %rbp,%rsi
  404433:	0f 29 ac 24 90 00 00 	movaps %xmm5,0x90(%rsp)
  40443a:	00 
  40443b:	e8 a0 f8 ff ff       	callq  403ce0 <GOMP_parallel@plt>
_ZN5Timer4StopEv():
/home/aliha951/ipdps-artifact/gapbs-master/src/timer.h:27
  }

  void Stop() {
    elapsed_time_ = std::chrono::high_resolution_clock::now();
  404440:	e8 eb f2 ff ff       	callq  403730 <_ZNSt6chrono3_V212system_clock3nowEv@plt>
_ZNSt6chrono20__duration_cast_implINS_8durationIdSt5ratioILl1ELl1EEEES2_ILl1ELl1000000000EEdLb1ELb0EE6__castIlS5_EES4_RKNS1_IT_T0_EE():
/usr/include/c++/10/chrono:214
	  static constexpr _ToDur
	  __cast(const duration<_Rep, _Period>& __d)
	  {
	    typedef typename _ToDur::rep			__to_rep;
	    return _ToDur(static_cast<__to_rep>(
	      static_cast<_CR>(__d.count()) / static_cast<_CR>(_CF::den)));
  404445:	66 0f ef c0          	pxor   %xmm0,%xmm0
BenchmarkKernel<CSRGraph<int>, main(int, char**)::<lambda(const Graph&)>, void (*)(const CSRGraph<int>&, const pvector<int>&), bool (*)(const CSRGraph<int>&, const pvector<int>&)>():
/home/aliha951/ipdps-artifact/gapbs-master/src/benchmark.h:127
    trial_timer.Start();
    auto result = kernel(g);
    trial_timer.Stop();
    PrintTime("Trial Time", trial_timer.Seconds());
  404449:	4c 89 ef             	mov    %r13,%rdi
_ZNSt6chronomiIlSt5ratioILl1ELl1000000000EElS2_EENSt11common_typeIJNS_8durationIT_T0_EENS4_IT1_T2_EEEE4typeERKS7_RKSA_():
/usr/include/c++/10/chrono:614
		const duration<_Rep2, _Period2>& __rhs)
      {
	typedef duration<_Rep1, _Period1>			__dur1;
	typedef duration<_Rep2, _Period2>			__dur2;
	typedef typename common_type<__dur1,__dur2>::type	__cd;
	return __cd(__cd(__lhs).count() - __cd(__rhs).count());
  40444c:	48 2b 44 24 28       	sub    0x28(%rsp),%rax
_ZNSt6chrono20__duration_cast_implINS_8durationIdSt5ratioILl1ELl1EEEES2_ILl1ELl1000000000EEdLb1ELb0EE6__castIlS5_EES4_RKNS1_IT_T0_EE():
/usr/include/c++/10/chrono:214
	      static_cast<_CR>(__d.count()) / static_cast<_CR>(_CF::den)));
  404451:	f2 48 0f 2a c0       	cvtsi2sd %rax,%xmm0
_ZNSt11char_traitsIcE4copyEPcPKcm():
/usr/include/c++/10/bits/char_traits.h:437
	  return __s1;
#ifdef __cpp_lib_is_constant_evaluated
	if (std::is_constant_evaluated())
	  return __gnu_cxx::char_traits<char_type>::copy(__s1, __s2, __n);
#endif
	return static_cast<char_type*>(__builtin_memcpy(__s1, __s2, __n));
  404456:	ba 6d 65 00 00       	mov    $0x656d,%edx
  40445b:	48 b8 54 72 69 61 6c 	movabs $0x6954206c61697254,%rax
  404462:	20 54 69 
_ZNSt7__cxx1112basic_stringIcSt11char_traitsIcESaIcEE12_Alloc_hiderC4EPcRKS3_():
/usr/include/c++/10/bits/basic_string.h:165
	: allocator_type(__a), _M_p(__dat) { }
  404465:	48 89 9c 24 10 01 00 	mov    %rbx,0x110(%rsp)
  40446c:	00 
_ZNSt11char_traitsIcE4copyEPcPKcm():
/usr/include/c++/10/bits/char_traits.h:437
  40446d:	48 89 03             	mov    %rax,(%rbx)
_ZNSt6chrono20__duration_cast_implINS_8durationIdSt5ratioILl1ELl1EEEES2_ILl1ELl1000000000EEdLb1ELb0EE6__castIlS5_EES4_RKNS1_IT_T0_EE():
/usr/include/c++/10/chrono:214
  404470:	f2 0f 5e 05 08 1e 01 	divsd  0x11e08(%rip),%xmm0        # 416280 <_ZZNSt8__detail18__to_chars_10_implIjEEvPcjT_E8__digits+0x2a0>
  404477:	00 
_ZNSt11char_traitsIcE4copyEPcPKcm():
/usr/include/c++/10/bits/char_traits.h:437
  404478:	66 89 53 08          	mov    %dx,0x8(%rbx)
_ZNSt6chrono20__duration_cast_implINS_8durationIdSt5ratioILl1ELl1EEEES2_ILl1ELl1000000000EEdLb1ELb0EE6__castIlS5_EES4_RKNS1_IT_T0_EE():
/usr/include/c++/10/chrono:214
  40447c:	f2 0f 11 44 24 20    	movsd  %xmm0,0x20(%rsp)
_ZNSt7__cxx1112basic_stringIcSt11char_traitsIcESaIcEE9_M_lengthEm():
/usr/include/c++/10/bits/basic_string.h:191
      { _M_string_length = __length; }
  404482:	48 c7 84 24 18 01 00 	movq   $0xa,0x118(%rsp)
  404489:	00 0a 00 00 00 
_ZNSt11char_traitsIcE6assignERcRKc():
/usr/include/c++/10/bits/char_traits.h:357
      { __c1 = __c2; }
  40448e:	c6 84 24 2a 01 00 00 	movb   $0x0,0x12a(%rsp)
  404495:	00 
BenchmarkKernel<CSRGraph<int>, main(int, char**)::<lambda(const Graph&)>, void (*)(const CSRGraph<int>&, const pvector<int>&), bool (*)(const CSRGraph<int>&, const pvector<int>&)>():
/home/aliha951/ipdps-artifact/gapbs-master/src/benchmark.h:127
  404496:	e8 05 1e 00 00       	callq  4062a0 <_Z9PrintTimeRKNSt7__cxx1112basic_stringIcSt11char_traitsIcESaIcEEEd>
_ZNKSt7__cxx1112basic_stringIcSt11char_traitsIcESaIcEE7_M_dataEv():
/usr/include/c++/10/bits/basic_string.h:195
      { return _M_dataplus._M_p; }
  40449b:	48 8b bc 24 10 01 00 	mov    0x110(%rsp),%rdi
  4044a2:	00 
_ZNSt7__cxx1112basic_stringIcSt11char_traitsIcESaIcEE10_M_disposeEv():
/usr/include/c++/10/bits/basic_string.h:239
	if (!_M_is_local())
  4044a3:	48 39 df             	cmp    %rbx,%rdi
  4044a6:	74 05                	je     4044ad <main+0x4fd>
_ZN9__gnu_cxx13new_allocatorIcE10deallocateEPcm():
/usr/include/c++/10/ext/new_allocator.h:139
  4044a8:	e8 13 f5 ff ff       	callq  4039c0 <_ZdlPv@plt>
BenchmarkKernel<CSRGraph<int>, main(int, char**)::<lambda(const Graph&)>, void (*)(const CSRGraph<int>&, const pvector<int>&), bool (*)(const CSRGraph<int>&, const pvector<int>&)>():
/home/aliha951/ipdps-artifact/gapbs-master/src/benchmark.h:128
    total_seconds += trial_timer.Seconds();
  4044ad:	f2 0f 10 5c 24 18    	movsd  0x18(%rsp),%xmm3
  4044b3:	f2 0f 58 5c 24 20    	addsd  0x20(%rsp),%xmm3
/home/aliha951/ipdps-artifact/gapbs-master/src/benchmark.h:129
    if (cli.do_analysis() && (iter == (cli.num_trials()-1)))
  4044b9:	80 bc 24 e0 01 00 00 	cmpb   $0x0,0x1e0(%rsp)
  4044c0:	00 
/home/aliha951/ipdps-artifact/gapbs-master/src/benchmark.h:128
    total_seconds += trial_timer.Seconds();
  4044c1:	f2 0f 11 5c 24 18    	movsd  %xmm3,0x18(%rsp)
/home/aliha951/ipdps-artifact/gapbs-master/src/benchmark.h:129
    if (cli.do_analysis() && (iter == (cli.num_trials()-1)))
  4044c7:	74 13                	je     4044dc <main+0x52c>
  4044c9:	8b 84 24 e4 01 00 00 	mov    0x1e4(%rsp),%eax
  4044d0:	83 e8 01             	sub    $0x1,%eax
  4044d3:	44 39 e0             	cmp    %r12d,%eax
  4044d6:	0f 84 24 03 00 00    	je     404800 <main+0x850>
/home/aliha951/ipdps-artifact/gapbs-master/src/benchmark.h:131
      stats(g, result);
    if (cli.do_verify()) {
  4044dc:	80 bc 24 f0 01 00 00 	cmpb   $0x0,0x1f0(%rsp)
  4044e3:	00 
  4044e4:	0f 84 57 01 00 00    	je     404641 <main+0x691>
_ZN5Timer5StartEv():
/home/aliha951/ipdps-artifact/gapbs-master/src/timer.h:23
    elapsed_time_ = start_time_ = std::chrono::high_resolution_clock::now();
  4044ea:	e8 41 f2 ff ff       	callq  403730 <_ZNSt6chrono3_V212system_clock3nowEv@plt>
BenchmarkKernel<CSRGraph<int>, main(int, char**)::<lambda(const Graph&)>, void (*)(const CSRGraph<int>&, const pvector<int>&), bool (*)(const CSRGraph<int>&, const pvector<int>&)>():
/home/aliha951/ipdps-artifact/gapbs-master/src/benchmark.h:134
      trial_timer.Start();
      PrintLabel("Verification",
                 verify(std::ref(g), std::ref(result)) ? "PASS" : "FAIL");
  4044ef:	48 8b 7c 24 30       	mov    0x30(%rsp),%rdi
  4044f4:	4c 89 fe             	mov    %r15,%rsi
_ZN5Timer5StartEv():
/home/aliha951/ipdps-artifact/gapbs-master/src/timer.h:23
  4044f7:	48 89 44 24 20       	mov    %rax,0x20(%rsp)
BenchmarkKernel<CSRGraph<int>, main(int, char**)::<lambda(const Graph&)>, void (*)(const CSRGraph<int>&, const pvector<int>&), bool (*)(const CSRGraph<int>&, const pvector<int>&)>():
/home/aliha951/ipdps-artifact/gapbs-master/src/benchmark.h:134
  4044fc:	e8 4f 45 00 00       	callq  408a50 <_Z10CCVerifierRK8CSRGraphIiiLb1EERK7pvectorIiE>
/home/aliha951/ipdps-artifact/gapbs-master/src/benchmark.h:133
      PrintLabel("Verification",
  404501:	3c 01                	cmp    $0x1,%al
_ZNSt7__cxx1112basic_stringIcSt11char_traitsIcESaIcEE12_Alloc_hiderC4EPcRKS3_():
/usr/include/c++/10/bits/basic_string.h:165
	: allocator_type(__a), _M_p(__dat) { }
  404503:	48 89 9c 24 10 01 00 	mov    %rbx,0x110(%rsp)
  40450a:	00 
BenchmarkKernel<CSRGraph<int>, main(int, char**)::<lambda(const Graph&)>, void (*)(const CSRGraph<int>&, const pvector<int>&), bool (*)(const CSRGraph<int>&, const pvector<int>&)>():
/home/aliha951/ipdps-artifact/gapbs-master/src/benchmark.h:133
  40450b:	4c 89 ef             	mov    %r13,%rdi
_ZNSt7__cxx1112basic_stringIcSt11char_traitsIcESaIcEE12_Alloc_hiderC4EPcRKS3_():
/usr/include/c++/10/bits/basic_string.h:165
  40450e:	4c 8d b4 24 00 01 00 	lea    0x100(%rsp),%r14
  404515:	00 
BenchmarkKernel<CSRGraph<int>, main(int, char**)::<lambda(const Graph&)>, void (*)(const CSRGraph<int>&, const pvector<int>&), bool (*)(const CSRGraph<int>&, const pvector<int>&)>():
/home/aliha951/ipdps-artifact/gapbs-master/src/benchmark.h:133
  404516:	19 c0                	sbb    %eax,%eax
_ZNSt11char_traitsIcE4copyEPcPKcm():
/usr/include/c++/10/bits/char_traits.h:437
	return static_cast<char_type*>(__builtin_memcpy(__s1, __s2, __n));
  404518:	c7 43 08 74 69 6f 6e 	movl   $0x6e6f6974,0x8(%rbx)
_ZNSt7__cxx1112basic_stringIcSt11char_traitsIcESaIcEE12_Alloc_hiderC4EPcRKS3_():
/usr/include/c++/10/bits/basic_string.h:165
  40451f:	48 8d b4 24 f0 00 00 	lea    0xf0(%rsp),%rsi
  404526:	00 
BenchmarkKernel<CSRGraph<int>, main(int, char**)::<lambda(const Graph&)>, void (*)(const CSRGraph<int>&, const pvector<int>&), bool (*)(const CSRGraph<int>&, const pvector<int>&)>():
/home/aliha951/ipdps-artifact/gapbs-master/src/benchmark.h:133
  404527:	25 f6 ff f5 f8       	and    $0xf8f5fff6,%eax
_ZNSt7__cxx1112basic_stringIcSt11char_traitsIcESaIcEE12_Alloc_hiderC4EPcRKS3_():
/usr/include/c++/10/bits/basic_string.h:165
  40452c:	4c 89 b4 24 f0 00 00 	mov    %r14,0xf0(%rsp)
  404533:	00 
BenchmarkKernel<CSRGraph<int>, main(int, char**)::<lambda(const Graph&)>, void (*)(const CSRGraph<int>&, const pvector<int>&), bool (*)(const CSRGraph<int>&, const pvector<int>&)>():
/home/aliha951/ipdps-artifact/gapbs-master/src/benchmark.h:133
  404534:	05 50 41 53 53       	add    $0x53534150,%eax
_ZNSt11char_traitsIcE6assignERcRKc():
/usr/include/c++/10/bits/char_traits.h:357
      { __c1 = __c2; }
  404539:	c6 84 24 04 01 00 00 	movb   $0x0,0x104(%rsp)
  404540:	00 
_ZNSt11char_traitsIcE4copyEPcPKcm():
/usr/include/c++/10/bits/char_traits.h:437
	return static_cast<char_type*>(__builtin_memcpy(__s1, __s2, __n));
  404541:	89 84 24 00 01 00 00 	mov    %eax,0x100(%rsp)
  404548:	48 b8 56 65 72 69 66 	movabs $0x6163696669726556,%rax
  40454f:	69 63 61 
  404552:	48 89 03             	mov    %rax,(%rbx)
_ZNSt7__cxx1112basic_stringIcSt11char_traitsIcESaIcEE9_M_lengthEm():
/usr/include/c++/10/bits/basic_string.h:191
      { _M_string_length = __length; }
  404555:	48 c7 84 24 f8 00 00 	movq   $0x4,0xf8(%rsp)
  40455c:	00 04 00 00 00 
  404561:	48 c7 84 24 18 01 00 	movq   $0xc,0x118(%rsp)
  404568:	00 0c 00 00 00 
_ZNSt11char_traitsIcE6assignERcRKc():
/usr/include/c++/10/bits/char_traits.h:357
      { __c1 = __c2; }
  40456d:	c6 84 24 2c 01 00 00 	movb   $0x0,0x12c(%rsp)
  404574:	00 
BenchmarkKernel<CSRGraph<int>, main(int, char**)::<lambda(const Graph&)>, void (*)(const CSRGraph<int>&, const pvector<int>&), bool (*)(const CSRGraph<int>&, const pvector<int>&)>():
/home/aliha951/ipdps-artifact/gapbs-master/src/benchmark.h:133
  404575:	e8 b6 1b 00 00       	callq  406130 <_Z10PrintLabelRKNSt7__cxx1112basic_stringIcSt11char_traitsIcESaIcEEES6_>
_ZNKSt7__cxx1112basic_stringIcSt11char_traitsIcESaIcEE7_M_dataEv():
/usr/include/c++/10/bits/basic_string.h:195
      { return _M_dataplus._M_p; }
  40457a:	48 8b bc 24 10 01 00 	mov    0x110(%rsp),%rdi
  404581:	00 
_ZNSt7__cxx1112basic_stringIcSt11char_traitsIcESaIcEE10_M_disposeEv():
/usr/include/c++/10/bits/basic_string.h:239
	if (!_M_is_local())
  404582:	48 39 df             	cmp    %rbx,%rdi
  404585:	74 05                	je     40458c <main+0x5dc>
_ZN9__gnu_cxx13new_allocatorIcE10deallocateEPcm():
/usr/include/c++/10/ext/new_allocator.h:139
  404587:	e8 34 f4 ff ff       	callq  4039c0 <_ZdlPv@plt>
_ZNKSt7__cxx1112basic_stringIcSt11char_traitsIcESaIcEE7_M_dataEv():
/usr/include/c++/10/bits/basic_string.h:195
      { return _M_dataplus._M_p; }
  40458c:	48 8b bc 24 f0 00 00 	mov    0xf0(%rsp),%rdi
  404593:	00 
_ZNSt7__cxx1112basic_stringIcSt11char_traitsIcESaIcEE10_M_disposeEv():
/usr/include/c++/10/bits/basic_string.h:239
	if (!_M_is_local())
  404594:	4c 39 f7             	cmp    %r14,%rdi
  404597:	74 05                	je     40459e <main+0x5ee>
_ZN9__gnu_cxx13new_allocatorIcE10deallocateEPcm():
/usr/include/c++/10/ext/new_allocator.h:139
  404599:	e8 22 f4 ff ff       	callq  4039c0 <_ZdlPv@plt>
_ZN5Timer4StopEv():
/home/aliha951/ipdps-artifact/gapbs-master/src/timer.h:27
    elapsed_time_ = std::chrono::high_resolution_clock::now();
  40459e:	e8 8d f1 ff ff       	callq  403730 <_ZNSt6chrono3_V212system_clock3nowEv@plt>
_ZNSt6chrono20__duration_cast_implINS_8durationIdSt5ratioILl1ELl1EEEES2_ILl1ELl1000000000EEdLb1ELb0EE6__castIlS5_EES4_RKNS1_IT_T0_EE():
/usr/include/c++/10/chrono:214
  4045a3:	66 0f ef c0          	pxor   %xmm0,%xmm0
_ZNSt6chronomiIlSt5ratioILl1ELl1000000000EElS2_EENSt11common_typeIJNS_8durationIT_T0_EENS4_IT1_T2_EEEE4typeERKS7_RKSA_():
/usr/include/c++/10/chrono:614
	return __cd(__cd(__lhs).count() - __cd(__rhs).count());
  4045a7:	48 2b 44 24 20       	sub    0x20(%rsp),%rax
_ZNSt7__cxx1112basic_stringIcSt11char_traitsIcESaIcEE12_M_constructIPKcEEvT_S8_St20forward_iterator_tag():
/usr/include/c++/10/bits/basic_string.tcc:219

	size_type __dnew = static_cast<size_type>(std::distance(__beg, __end));

	if (__dnew > size_type(_S_local_capacity))
	  {
	    _M_data(_M_create(__dnew, size_type(0)));
  4045ac:	31 d2                	xor    %edx,%edx
  4045ae:	48 89 ee             	mov    %rbp,%rsi
_ZNSt6chrono20__duration_cast_implINS_8durationIdSt5ratioILl1ELl1EEEES2_ILl1ELl1000000000EEdLb1ELb0EE6__castIlS5_EES4_RKNS1_IT_T0_EE():
/usr/include/c++/10/chrono:214
	      static_cast<_CR>(__d.count()) / static_cast<_CR>(_CF::den)));
  4045b1:	f2 48 0f 2a c0       	cvtsi2sd %rax,%xmm0
_ZNSt7__cxx1112basic_stringIcSt11char_traitsIcESaIcEE12_M_constructIPKcEEvT_S8_St20forward_iterator_tag():
/usr/include/c++/10/bits/basic_string.tcc:219
  4045b6:	4c 89 ef             	mov    %r13,%rdi
_ZNSt6chrono20__duration_cast_implINS_8durationIdSt5ratioILl1ELl1EEEES2_ILl1ELl1000000000EEdLb1ELb0EE6__castIlS5_EES4_RKNS1_IT_T0_EE():
/usr/include/c++/10/chrono:214
  4045b9:	f2 0f 5e 05 bf 1c 01 	divsd  0x11cbf(%rip),%xmm0        # 416280 <_ZZNSt8__detail18__to_chars_10_implIjEEvPcjT_E8__digits+0x2a0>
  4045c0:	00 
_ZNSt7__cxx1112basic_stringIcSt11char_traitsIcESaIcEE12_Alloc_hiderC4EPcRKS3_():
/usr/include/c++/10/bits/basic_string.h:165
	: allocator_type(__a), _M_p(__dat) { }
  4045c1:	48 89 9c 24 10 01 00 	mov    %rbx,0x110(%rsp)
  4045c8:	00 
_ZNSt6chrono20__duration_cast_implINS_8durationIdSt5ratioILl1ELl1EEEES2_ILl1ELl1000000000EEdLb1ELb0EE6__castIlS5_EES4_RKNS1_IT_T0_EE():
/usr/include/c++/10/chrono:214
  4045c9:	66 49 0f 7e c6       	movq   %xmm0,%r14
_ZNSt7__cxx1112basic_stringIcSt11char_traitsIcESaIcEE12_M_constructIPKcEEvT_S8_St20forward_iterator_tag():
/usr/include/c++/10/bits/basic_string.tcc:215
	size_type __dnew = static_cast<size_type>(std::distance(__beg, __end));
  4045ce:	48 c7 84 24 90 00 00 	movq   $0x11,0x90(%rsp)
  4045d5:	00 11 00 00 00 
/usr/include/c++/10/bits/basic_string.tcc:219
	    _M_data(_M_create(__dnew, size_type(0)));
  4045da:	e8 41 f7 ff ff       	callq  403d20 <_ZNSt7__cxx1112basic_stringIcSt11char_traitsIcESaIcEE9_M_createERmm@plt>
_ZNSt7__cxx1112basic_stringIcSt11char_traitsIcESaIcEE11_M_capacityEm():
/usr/include/c++/10/bits/basic_string.h:219
      { _M_allocated_capacity = __capacity; }
  4045df:	48 8b 94 24 90 00 00 	mov    0x90(%rsp),%rdx
  4045e6:	00 
_ZNSt11char_traitsIcE4copyEPcPKcm():
/usr/include/c++/10/bits/char_traits.h:437
	return static_cast<char_type*>(__builtin_memcpy(__s1, __s2, __n));
  4045e7:	66 0f 6f 05 41 1c 01 	movdqa 0x11c41(%rip),%xmm0        # 416230 <_ZZNSt8__detail18__to_chars_10_implIjEEvPcjT_E8__digits+0x250>
  4045ee:	00 
_ZNSt7__cxx1112basic_stringIcSt11char_traitsIcESaIcEE7_M_dataEPc():
/usr/include/c++/10/bits/basic_string.h:187
      { _M_dataplus._M_p = __p; }
  4045ef:	48 89 84 24 10 01 00 	mov    %rax,0x110(%rsp)
  4045f6:	00 
BenchmarkKernel<CSRGraph<int>, main(int, char**)::<lambda(const Graph&)>, void (*)(const CSRGraph<int>&, const pvector<int>&), bool (*)(const CSRGraph<int>&, const pvector<int>&)>():
/home/aliha951/ipdps-artifact/gapbs-master/src/benchmark.h:136
      trial_timer.Stop();
      PrintTime("Verification Time", trial_timer.Seconds());
  4045f7:	4c 89 ef             	mov    %r13,%rdi
_ZNSt7__cxx1112basic_stringIcSt11char_traitsIcESaIcEE11_M_capacityEm():
/usr/include/c++/10/bits/basic_string.h:219
      { _M_allocated_capacity = __capacity; }
  4045fa:	48 89 94 24 20 01 00 	mov    %rdx,0x120(%rsp)
  404601:	00 
_ZNSt11char_traitsIcE4copyEPcPKcm():
/usr/include/c++/10/bits/char_traits.h:437
  404602:	0f 11 00             	movups %xmm0,(%rax)
BenchmarkKernel<CSRGraph<int>, main(int, char**)::<lambda(const Graph&)>, void (*)(const CSRGraph<int>&, const pvector<int>&), bool (*)(const CSRGraph<int>&, const pvector<int>&)>():
/home/aliha951/ipdps-artifact/gapbs-master/src/benchmark.h:136
  404605:	66 49 0f 6e c6       	movq   %r14,%xmm0
_ZNSt11char_traitsIcE4copyEPcPKcm():
/usr/include/c++/10/bits/char_traits.h:437
  40460a:	c6 40 10 65          	movb   $0x65,0x10(%rax)
_ZNSt7__cxx1112basic_stringIcSt11char_traitsIcESaIcEE12_M_constructIPKcEEvT_S8_St20forward_iterator_tag():
/usr/include/c++/10/bits/basic_string.tcc:232
	  {
	    _M_dispose();
	    __throw_exception_again;
	  }

	_M_set_length(__dnew);
  40460e:	48 8b 84 24 90 00 00 	mov    0x90(%rsp),%rax
  404615:	00 
_ZNSt11char_traitsIcE6assignERcRKc():
/usr/include/c++/10/bits/char_traits.h:357
      { __c1 = __c2; }
  404616:	48 8b 94 24 10 01 00 	mov    0x110(%rsp),%rdx
  40461d:	00 
_ZNSt7__cxx1112basic_stringIcSt11char_traitsIcESaIcEE9_M_lengthEm():
/usr/include/c++/10/bits/basic_string.h:191
      { _M_string_length = __length; }
  40461e:	48 89 84 24 18 01 00 	mov    %rax,0x118(%rsp)
  404625:	00 
_ZNSt11char_traitsIcE6assignERcRKc():
/usr/include/c++/10/bits/char_traits.h:357
  404626:	c6 04 02 00          	movb   $0x0,(%rdx,%rax,1)
BenchmarkKernel<CSRGraph<int>, main(int, char**)::<lambda(const Graph&)>, void (*)(const CSRGraph<int>&, const pvector<int>&), bool (*)(const CSRGraph<int>&, const pvector<int>&)>():
/home/aliha951/ipdps-artifact/gapbs-master/src/benchmark.h:136
  40462a:	e8 71 1c 00 00       	callq  4062a0 <_Z9PrintTimeRKNSt7__cxx1112basic_stringIcSt11char_traitsIcESaIcEEEd>
_ZNKSt7__cxx1112basic_stringIcSt11char_traitsIcESaIcEE7_M_dataEv():
/usr/include/c++/10/bits/basic_string.h:195
      { return _M_dataplus._M_p; }
  40462f:	48 8b bc 24 10 01 00 	mov    0x110(%rsp),%rdi
  404636:	00 
_ZNSt7__cxx1112basic_stringIcSt11char_traitsIcESaIcEE10_M_disposeEv():
/usr/include/c++/10/bits/basic_string.h:239
	if (!_M_is_local())
  404637:	48 39 df             	cmp    %rbx,%rdi
  40463a:	74 05                	je     404641 <main+0x691>
_ZN9__gnu_cxx13new_allocatorIcE10deallocateEPcm():
/usr/include/c++/10/ext/new_allocator.h:139
  40463c:	e8 7f f3 ff ff       	callq  4039c0 <_ZdlPv@plt>
BenchmarkKernel<CSRGraph<int>, main(int, char**)::<lambda(const Graph&)>, void (*)(const CSRGraph<int>&, const pvector<int>&), bool (*)(const CSRGraph<int>&, const pvector<int>&)>():
/home/aliha951/ipdps-artifact/gapbs-master/src/benchmark.h:138
    }
    ompt_annotate("Trial End");
  404641:	48 8d 3d 45 0d 01 00 	lea    0x10d45(%rip),%rdi        # 41538d <_IO_stdin_used+0x38d>
  404648:	e8 d3 31 00 00       	callq  407820 <_Z13ompt_annotatePKc>
_ZN7pvectorIiE16ReleaseResourcesEv():
/home/aliha951/ipdps-artifact/gapbs-master/src/pvector.h:73
    if (start_ != nullptr) {
  40464d:	48 8b 7c 24 70       	mov    0x70(%rsp),%rdi
  404652:	48 85 ff             	test   %rdi,%rdi
  404655:	0f 84 85 01 00 00    	je     4047e0 <main+0x830>
/home/aliha951/ipdps-artifact/gapbs-master/src/pvector.h:74
      delete[] start_;
  40465b:	e8 b0 f4 ff ff       	callq  403b10 <_ZdaPv@plt>
BenchmarkKernel<CSRGraph<int>, main(int, char**)::<lambda(const Graph&)>, void (*)(const CSRGraph<int>&, const pvector<int>&), bool (*)(const CSRGraph<int>&, const pvector<int>&)>():
/home/aliha951/ipdps-artifact/gapbs-master/src/benchmark.h:123
  for (int iter=0; iter < cli.num_trials(); iter++) {
  404660:	41 83 c4 01          	add    $0x1,%r12d
  404664:	44 3b a4 24 e4 01 00 	cmp    0x1e4(%rsp),%r12d
  40466b:	00 
  40466c:	0f 8c 86 fc ff ff    	jl     4042f8 <main+0x348>
_Z17ompt_mark_roi_endv():
/home/aliha951/ipdps-artifact/gapbs-master/src/../omp_runtime_visualizer/include/runtime_visualizer_utils.h:56
}

inline void ompt_mark_roi_end() {
  ompt_annotate("ROI_END");
  404672:	48 8d 3d 1e 0d 01 00 	lea    0x10d1e(%rip),%rdi        # 415397 <_IO_stdin_used+0x397>
  404679:	e8 a2 31 00 00       	callq  407820 <_Z13ompt_annotatePKc>
BenchmarkKernel<CSRGraph<int>, main(int, char**)::<lambda(const Graph&)>, void (*)(const CSRGraph<int>&, const pvector<int>&), bool (*)(const CSRGraph<int>&, const pvector<int>&)>():
/home/aliha951/ipdps-artifact/gapbs-master/src/benchmark.h:143
  }
  
  // adding profiling markers and rusage counters for performance analysis
  ompt_mark_roi_end();
  stop_time_stats();
  40467e:	e8 ed 22 00 00       	callq  406970 <_Z15stop_time_statsv>
/home/aliha951/ipdps-artifact/gapbs-master/src/benchmark.h:144
  trace_marker("BenchmarkKernel_End");
  404683:	48 8d 3d 15 0d 01 00 	lea    0x10d15(%rip),%rdi        # 41539f <_IO_stdin_used+0x39f>
  40468a:	e8 01 25 00 00       	callq  406b90 <_Z12trace_markerPKc>
/home/aliha951/ipdps-artifact/gapbs-master/src/benchmark.h:145
  stop_counters(&perf_ctrs, &user_time, &kernel_time ,&user_instructions, &kernel_instructions);
  40468f:	48 8d 4c 24 40       	lea    0x40(%rsp),%rcx
  404694:	48 8d 94 24 90 00 00 	lea    0x90(%rsp),%rdx
  40469b:	00 
  40469c:	48 8d 74 24 70       	lea    0x70(%rsp),%rsi
  4046a1:	4c 8d 44 24 48       	lea    0x48(%rsp),%r8
  4046a6:	48 8d 3d 63 aa 01 00 	lea    0x1aa63(%rip),%rdi        # 41f110 <perf_ctrs>
  4046ad:	e8 3e 29 00 00       	callq  406ff0 <_Z13stop_countersP13perf_countersPxS1_S1_S1_>
/home/aliha951/ipdps-artifact/gapbs-master/src/benchmark.h:146
  snapshot_proc_stat(END);
  4046b2:	bf 01 00 00 00       	mov    $0x1,%edi
  4046b7:	e8 84 6f 00 00       	callq  40b640 <_Z18snapshot_proc_stat13SnapshotPoint>
/home/aliha951/ipdps-artifact/gapbs-master/src/benchmark.h:147
  snapshot_proc_pid(END);
  4046bc:	bf 01 00 00 00       	mov    $0x1,%edi
  4046c1:	e8 4a 6c 00 00       	callq  40b310 <_Z17snapshot_proc_pid13SnapshotPoint>
/home/aliha951/ipdps-artifact/gapbs-master/src/benchmark.h:148
  stop_taskstats();
  4046c6:	e8 f5 2e 00 00       	callq  4075c0 <_Z14stop_taskstatsv>
_Z15stop_disk_statsv():
/home/aliha951/ipdps-artifact/gapbs-master/src/profiling_utils.h:316
}

inline void stop_disk_stats() {
  if (diskstat_pid > 0) {
  4046cb:	8b 05 cb 5c 01 00    	mov    0x15ccb(%rip),%eax        # 41a39c <diskstat_pid>
  4046d1:	85 c0                	test   %eax,%eax
  4046d3:	0f 8f 39 01 00 00    	jg     404812 <main+0x862>
BenchmarkKernel<CSRGraph<int>, main(int, char**)::<lambda(const Graph&)>, void (*)(const CSRGraph<int>&, const pvector<int>&), bool (*)(const CSRGraph<int>&, const pvector<int>&)>():
/home/aliha951/ipdps-artifact/gapbs-master/src/benchmark.h:150
  stop_disk_stats();
  cleanup_counters(&perf_ctrs);
  4046d9:	48 8d 3d 30 aa 01 00 	lea    0x1aa30(%rip),%rdi        # 41f110 <perf_ctrs>
  4046e0:	e8 4b 2b 00 00       	callq  407230 <_Z16cleanup_countersP13perf_counters>
/home/aliha951/ipdps-artifact/gapbs-master/src/benchmark.h:151
  measure_time_stats();
  4046e5:	e8 b6 22 00 00       	callq  4069a0 <_Z18measure_time_statsv>
/home/aliha951/ipdps-artifact/gapbs-master/src/benchmark.h:153

  PrintTime("Average Time", total_seconds / cli.num_trials());
  4046ea:	66 0f ef c0          	pxor   %xmm0,%xmm0
  4046ee:	f2 0f 10 4c 24 18    	movsd  0x18(%rsp),%xmm1
  4046f4:	48 8d 35 b8 0c 01 00 	lea    0x10cb8(%rip),%rsi        # 4153b3 <_IO_stdin_used+0x3b3>
  4046fb:	4c 89 ef             	mov    %r13,%rdi
  4046fe:	f2 0f 2a 84 24 e4 01 	cvtsi2sdl 0x1e4(%rsp),%xmm0
  404705:	00 00 
  404707:	f2 0f 5e c8          	divsd  %xmm0,%xmm1
  40470b:	66 48 0f 7e cd       	movq   %xmm1,%rbp
  404710:	e8 8b 18 00 00       	callq  405fa0 <_ZNSt7__cxx1112basic_stringIcSt11char_traitsIcESaIcEEC2EPKcRKS3_.constprop.0>
  404715:	66 48 0f 6e c5       	movq   %rbp,%xmm0
  40471a:	4c 89 ef             	mov    %r13,%rdi
  40471d:	e8 7e 1b 00 00       	callq  4062a0 <_Z9PrintTimeRKNSt7__cxx1112basic_stringIcSt11char_traitsIcESaIcEEEd>
_ZNKSt7__cxx1112basic_stringIcSt11char_traitsIcESaIcEE7_M_dataEv():
/usr/include/c++/10/bits/basic_string.h:195
      { return _M_dataplus._M_p; }
  404722:	48 8b bc 24 10 01 00 	mov    0x110(%rsp),%rdi
  404729:	00 
_ZNSt7__cxx1112basic_stringIcSt11char_traitsIcESaIcEE10_M_disposeEv():
/usr/include/c++/10/bits/basic_string.h:239
	if (!_M_is_local())
  40472a:	48 39 df             	cmp    %rbx,%rdi
  40472d:	74 05                	je     404734 <main+0x784>
_ZN9__gnu_cxx13new_allocatorIcE10deallocateEPcm():
/usr/include/c++/10/ext/new_allocator.h:139
  40472f:	e8 8c f2 ff ff       	callq  4039c0 <_ZdlPv@plt>
main():
/home/aliha951/ipdps-artifact/gapbs-master/src/cc_batching_nopt.cc:280
    touch_ips(ips, ret_ips, 2);
  }

  BenchmarkKernel(cli, g, CCBound, PrintCompStats, CCVerifier);

  if(cli.batching()){
  404734:	80 bc 24 cb 01 00 00 	cmpb   $0x0,0x1cb(%rsp)
  40473b:	00 
  40473c:	0f 85 17 01 00 00    	jne    404859 <main+0x8a9>
_ZN8CSRGraphIiiLb1EED4Ev():
/home/aliha951/ipdps-artifact/gapbs-master/src/graph.h:166
  404742:	48 8b 7c 24 30       	mov    0x30(%rsp),%rdi
main():
/home/aliha951/ipdps-artifact/gapbs-master/src/cc_batching_nopt.cc:283
    unregister_and_free_arrays();
  }
  return 0;
  404747:	45 31 e4             	xor    %r12d,%r12d
_ZN8CSRGraphIiiLb1EED4Ev():
/home/aliha951/ipdps-artifact/gapbs-master/src/graph.h:166
  40474a:	e8 41 74 00 00       	callq  40bb90 <_ZN8CSRGraphIiiLb1EE16ReleaseResourcesEv>
_ZN5CLAppD4Ev():
/home/aliha951/ipdps-artifact/gapbs-master/src/command_line.h:140
class CLApp : public CLBase {
  40474f:	48 8b 7c 24 38       	mov    0x38(%rsp),%rdi
  404754:	48 8d 05 cd 53 01 00 	lea    0x153cd(%rip),%rax        # 419b28 <_ZTV5CLApp+0x10>
  40475b:	48 89 84 24 30 01 00 	mov    %rax,0x130(%rsp)
  404762:	00 
  404763:	e8 f8 6a 00 00       	callq  40b260 <_ZN6CLBaseD1Ev>
main():
/home/aliha951/ipdps-artifact/gapbs-master/src/cc_batching_nopt.cc:284
}
  404768:	48 8b 84 24 08 03 00 	mov    0x308(%rsp),%rax
  40476f:	00 
  404770:	64 48 2b 04 25 28 00 	sub    %fs:0x28,%rax
  404777:	00 00 
  404779:	0f 85 47 03 00 00    	jne    404ac6 <main+0xb16>
  40477f:	48 81 c4 18 03 00 00 	add    $0x318,%rsp
  404786:	44 89 e0             	mov    %r12d,%eax
  404789:	5b                   	pop    %rbx
  40478a:	5d                   	pop    %rbp
  40478b:	41 5c                	pop    %r12
  40478d:	41 5d                	pop    %r13
  40478f:	41 5e                	pop    %r14
  404791:	41 5f                	pop    %r15
  404793:	c3                   	retq   
_ZN6CLBase9ParseArgsEv():
/home/aliha951/ipdps-artifact/gapbs-master/src/command_line.h:90
    if ((filename_ == "") && (scale_ == -1)) {
  404794:	44 8b a4 24 a0 01 00 	mov    0x1a0(%rsp),%r12d
  40479b:	00 
  40479c:	41 83 fc ff          	cmp    $0xffffffff,%r12d
  4047a0:	0f 84 77 02 00 00    	je     404a1d <main+0xa6d>
/home/aliha951/ipdps-artifact/gapbs-master/src/command_line.h:95
      symmetrize_ = true;
  4047a6:	c6 84 24 c8 01 00 00 	movb   $0x1,0x1c8(%rsp)
  4047ad:	01 
/home/aliha951/ipdps-artifact/gapbs-master/src/command_line.h:92
      return false;
  4047ae:	e9 97 f9 ff ff       	jmpq   40414a <main+0x19a>
  4047b3:	0f 1f 44 00 00       	nopl   0x0(%rax,%rax,1)
_Z8AfforestRK8CSRGraphIiiLb1EEbi():
/home/aliha951/ipdps-artifact/gapbs-master/src/cc_batching_nopt.cc:154
    #pragma omp parallel for schedule(dynamic, CHUNK_SIZE) PFH_CLAUSES
  4047b8:	66 0f 6f 0c 24       	movdqa (%rsp),%xmm1
  4047bd:	31 c9                	xor    %ecx,%ecx
  4047bf:	31 d2                	xor    %edx,%edx
  4047c1:	48 89 ee             	mov    %rbp,%rsi
  4047c4:	48 8d 3d d5 39 00 00 	lea    0x39d5(%rip),%rdi        # 4081a0 <_Z8AfforestRK8CSRGraphIiiLb1EEbi._omp_fn.3>
  4047cb:	0f 29 8c 24 90 00 00 	movaps %xmm1,0x90(%rsp)
  4047d2:	00 
  4047d3:	e8 08 f5 ff ff       	callq  403ce0 <GOMP_parallel@plt>
  4047d8:	e9 43 fc ff ff       	jmpq   404420 <main+0x470>
  4047dd:	0f 1f 00             	nopl   (%rax)
BenchmarkKernel<CSRGraph<int>, main(int, char**)::<lambda(const Graph&)>, void (*)(const CSRGraph<int>&, const pvector<int>&), bool (*)(const CSRGraph<int>&, const pvector<int>&)>():
/home/aliha951/ipdps-artifact/gapbs-master/src/benchmark.h:123
  for (int iter=0; iter < cli.num_trials(); iter++) {
  4047e0:	41 83 c4 01          	add    $0x1,%r12d
  4047e4:	44 39 a4 24 e4 01 00 	cmp    %r12d,0x1e4(%rsp)
  4047eb:	00 
  4047ec:	0f 8f 06 fb ff ff    	jg     4042f8 <main+0x348>
  4047f2:	e9 7b fe ff ff       	jmpq   404672 <main+0x6c2>
  4047f7:	66 0f 1f 84 00 00 00 	nopw   0x0(%rax,%rax,1)
  4047fe:	00 00 
/home/aliha951/ipdps-artifact/gapbs-master/src/benchmark.h:130
      stats(g, result);
  404800:	48 8b 7c 24 30       	mov    0x30(%rsp),%rdi
  404805:	4c 89 fe             	mov    %r15,%rsi
  404808:	e8 d3 4c 00 00       	callq  4094e0 <_Z14PrintCompStatsRK8CSRGraphIiiLb1EERK7pvectorIiE>
  40480d:	e9 ca fc ff ff       	jmpq   4044dc <main+0x52c>
main():
/usr/include/x86_64-linux-gnu/bits/stdio2.h:67
# ifdef __va_arg_pack
__fortify_function int
__NTH (snprintf (char *__restrict __s, size_t __n,
		 const char *__restrict __fmt, ...))
{
  return __builtin___snprintf_chk (__s, __n, __USE_FORTIFY_LEVEL - 1,
  404812:	4c 8d 84 24 00 02 00 	lea    0x200(%rsp),%r8
  404819:	00 
snprintf():
/usr/include/x86_64-linux-gnu/bits/stdio2.h:67
  40481a:	48 8d 35 07 10 01 00 	lea    0x11007(%rip),%rsi        # 415828 <_IO_stdin_used+0x828>
  404821:	b9 09 00 00 00       	mov    $0x9,%ecx
  404826:	4c 89 c7             	mov    %r8,%rdi
  404829:	f3 a5                	rep movsl %ds:(%rsi),%es:(%rdi)
_Z15stop_disk_statsv():
/home/aliha951/ipdps-artifact/gapbs-master/src/profiling_utils.h:319
    char command[256];
    snprintf(command, sizeof(command), "sudo pkill -f 'gather_diskstats.sh'");
    int ret = system(command);
  40482b:	4c 89 c7             	mov    %r8,%rdi
  40482e:	e8 4d f1 ff ff       	callq  403980 <system@plt>
/home/aliha951/ipdps-artifact/gapbs-master/src/profiling_utils.h:320
    if (ret==-1)	std::cout << "could not stop diskstat gathering\n";
  404833:	83 c0 01             	add    $0x1,%eax
  404836:	0f 85 9d fe ff ff    	jne    4046d9 <main+0x729>
_ZStlsISt11char_traitsIcEERSt13basic_ostreamIcT_ES5_PKc():
/usr/include/c++/10/ostream:611
    operator<<(basic_ostream<char, _Traits>& __out, const char* __s)
    {
      if (!__s)
	__out.setstate(ios_base::badbit);
      else
	__ostream_insert(__out, __s,
  40483c:	ba 22 00 00 00       	mov    $0x22,%edx
  404841:	48 8d 35 08 10 01 00 	lea    0x11008(%rip),%rsi        # 415850 <_IO_stdin_used+0x850>
  404848:	48 8d 3d b1 5b 01 00 	lea    0x15bb1(%rip),%rdi        # 41a400 <_ZSt4cout@@GLIBCXX_3.4>
  40484f:	e8 fc f1 ff ff       	callq  403a50 <_ZSt16__ostream_insertIcSt11char_traitsIcEERSt13basic_ostreamIT_T0_ES6_PKS3_l@plt>
  404854:	e9 80 fe ff ff       	jmpq   4046d9 <main+0x729>
_Z26unregister_and_free_arraysv():
/home/aliha951/ipdps-artifact/gapbs-master/src/libpfq_cc_nopt.h:476
}

// syscall to unregister the page fault status array, as well as ips and ret_ips, and free the allocated memory
inline void unregister_and_free_arrays(){
  syscall(548, NULL, NULL, 0);
  404859:	31 c9                	xor    %ecx,%ecx
  40485b:	31 d2                	xor    %edx,%edx
  40485d:	31 f6                	xor    %esi,%esi
  40485f:	bf 24 02 00 00       	mov    $0x224,%edi
  404864:	31 c0                	xor    %eax,%eax
  404866:	e8 d5 ee ff ff       	callq  403740 <syscall@plt>
/home/aliha951/ipdps-artifact/gapbs-master/src/libpfq_cc_nopt.h:477
  syscall(550, NULL, 0);
  40486b:	31 d2                	xor    %edx,%edx
  40486d:	31 f6                	xor    %esi,%esi
  40486f:	bf 26 02 00 00       	mov    $0x226,%edi
  404874:	31 c0                	xor    %eax,%eax
  404876:	e8 c5 ee ff ff       	callq  403740 <syscall@plt>
/home/aliha951/ipdps-artifact/gapbs-master/src/libpfq_cc_nopt.h:478
  munlock(ptr, 32*1024*sizeof(int));
  40487b:	48 8b 3d 06 a5 01 00 	mov    0x1a506(%rip),%rdi        # 41ed88 <ptr>
  404882:	be 00 00 02 00       	mov    $0x20000,%esi
  404887:	e8 d4 f4 ff ff       	callq  403d60 <munlock@plt>
/home/aliha951/ipdps-artifact/gapbs-master/src/libpfq_cc_nopt.h:479
  munmap(ptr, 32*1024*sizeof(int));
  40488c:	48 8b 3d f5 a4 01 00 	mov    0x1a4f5(%rip),%rdi        # 41ed88 <ptr>
  404893:	be 00 00 02 00       	mov    $0x20000,%esi
  404898:	e8 23 f0 ff ff       	callq  4038c0 <munmap@plt>
/home/aliha951/ipdps-artifact/gapbs-master/src/libpfq_cc_nopt.h:480
}
  40489d:	e9 a0 fe ff ff       	jmpq   404742 <main+0x792>
_ZN6CLBase9HandleArgEaPc():
/home/aliha951/ipdps-artifact/gapbs-master/src/command_line.h:106
      case 'u': uniform_ = true; scale_ = atoi(opt_arg);                break;
  4048a2:	c6 84 24 c9 01 00 00 	movb   $0x1,0x1c9(%rsp)
  4048a9:	01 
main():
/usr/include/stdlib.h:363
  4048aa:	ba 0a 00 00 00       	mov    $0xa,%edx
atoi():
/usr/include/stdlib.h:363
  4048af:	31 f6                	xor    %esi,%esi
  4048b1:	e8 ca f2 ff ff       	callq  403b80 <strtol@plt>
  4048b6:	89 84 24 a0 01 00 00 	mov    %eax,0x1a0(%rsp)
_ZN6CLBase9HandleArgEaPc():
/home/aliha951/ipdps-artifact/gapbs-master/src/command_line.h:106
  4048bd:	e9 96 f7 ff ff       	jmpq   404058 <main+0xa8>
/home/aliha951/ipdps-artifact/gapbs-master/src/command_line.h:101
      case 'f': filename_ = std::string(opt_arg);                       break;
  4048c2:	48 89 fe             	mov    %rdi,%rsi
  4048c5:	4c 89 ef             	mov    %r13,%rdi
  4048c8:	e8 d3 16 00 00       	callq  405fa0 <_ZNSt7__cxx1112basic_stringIcSt11char_traitsIcESaIcEEC2EPKcRKS3_.constprop.0>
_ZNKSt7__cxx1112basic_stringIcSt11char_traitsIcESaIcEE7_M_dataEv():
/usr/include/c++/10/bits/basic_string.h:195
      { return _M_dataplus._M_p; }
  4048cd:	48 8b 84 24 10 01 00 	mov    0x110(%rsp),%rax
  4048d4:	00 
  4048d5:	48 8b bc 24 a8 01 00 	mov    0x1a8(%rsp),%rdi
  4048dc:	00 
_ZNKSt7__cxx1112basic_stringIcSt11char_traitsIcESaIcEE4sizeEv():
/usr/include/c++/10/bits/basic_string.h:915
      { return _M_string_length; }
  4048dd:	48 8b 94 24 18 01 00 	mov    0x118(%rsp),%rdx
  4048e4:	00 
_ZNSt7__cxx1112basic_stringIcSt11char_traitsIcESaIcEEaSEOS4_():
/usr/include/c++/10/bits/basic_string.h:731
	if (__str._M_is_local())
  4048e5:	48 39 d8             	cmp    %rbx,%rax
  4048e8:	0f 84 88 01 00 00    	je     404a76 <main+0xac6>
/usr/include/c++/10/bits/basic_string.h:759
	    _M_capacity(__str._M_allocated_capacity);
  4048ee:	f3 0f 7e 8c 24 20 01 	movq   0x120(%rsp),%xmm1
  4048f5:	00 00 
/usr/include/c++/10/bits/basic_string.h:745
	    if (!_M_is_local())
  4048f7:	4c 39 f7             	cmp    %r14,%rdi
  4048fa:	0f 84 50 01 00 00    	je     404a50 <main+0xaa0>
_ZNSt7__cxx1112basic_stringIcSt11char_traitsIcESaIcEE9_M_lengthEm():
/usr/include/c++/10/bits/basic_string.h:191
      { _M_string_length = __length; }
  404900:	66 48 0f 6e c2       	movq   %rdx,%xmm0
_ZNSt7__cxx1112basic_stringIcSt11char_traitsIcESaIcEEaSEOS4_():
/usr/include/c++/10/bits/basic_string.h:751
		    __capacity = _M_allocated_capacity;
  404905:	48 8b 8c 24 b8 01 00 	mov    0x1b8(%rsp),%rcx
  40490c:	00 
_ZNSt7__cxx1112basic_stringIcSt11char_traitsIcESaIcEE7_M_dataEPc():
/usr/include/c++/10/bits/basic_string.h:187
      { _M_dataplus._M_p = __p; }
  40490d:	48 89 84 24 a8 01 00 	mov    %rax,0x1a8(%rsp)
  404914:	00 
_ZNSt7__cxx1112basic_stringIcSt11char_traitsIcESaIcEE9_M_lengthEm():
/usr/include/c++/10/bits/basic_string.h:191
      { _M_string_length = __length; }
  404915:	66 0f 6c c1          	punpcklqdq %xmm1,%xmm0
  404919:	0f 29 84 24 b0 01 00 	movaps %xmm0,0x1b0(%rsp)
  404920:	00 
_ZNSt7__cxx1112basic_stringIcSt11char_traitsIcESaIcEEaSEOS4_():
/usr/include/c++/10/bits/basic_string.h:760
	    if (__data)
  404921:	48 85 ff             	test   %rdi,%rdi
  404924:	0f 84 3f 01 00 00    	je     404a69 <main+0xab9>
_ZNSt7__cxx1112basic_stringIcSt11char_traitsIcESaIcEE7_M_dataEPc():
/usr/include/c++/10/bits/basic_string.h:187
      { _M_dataplus._M_p = __p; }
  40492a:	48 89 bc 24 10 01 00 	mov    %rdi,0x110(%rsp)
  404931:	00 
_ZNSt7__cxx1112basic_stringIcSt11char_traitsIcESaIcEE11_M_capacityEm():
/usr/include/c++/10/bits/basic_string.h:219
      { _M_allocated_capacity = __capacity; }
  404932:	48 89 8c 24 20 01 00 	mov    %rcx,0x120(%rsp)
  404939:	00 
_ZNKSt7__cxx1112basic_stringIcSt11char_traitsIcESaIcEE7_M_dataEv():
/usr/include/c++/10/bits/basic_string.h:195
      { return _M_dataplus._M_p; }
  40493a:	48 8b 84 24 10 01 00 	mov    0x110(%rsp),%rax
  404941:	00 
_ZNSt7__cxx1112basic_stringIcSt11char_traitsIcESaIcEE9_M_lengthEm():
/usr/include/c++/10/bits/basic_string.h:191
      { _M_string_length = __length; }
  404942:	48 c7 84 24 18 01 00 	movq   $0x0,0x118(%rsp)
  404949:	00 00 00 00 00 
_ZNSt11char_traitsIcE6assignERcRKc():
/usr/include/c++/10/bits/char_traits.h:357
  40494e:	c6 00 00             	movb   $0x0,(%rax)
_ZNKSt7__cxx1112basic_stringIcSt11char_traitsIcESaIcEE7_M_dataEv():
/usr/include/c++/10/bits/basic_string.h:195
      { return _M_dataplus._M_p; }
  404951:	48 8b bc 24 10 01 00 	mov    0x110(%rsp),%rdi
  404958:	00 
_ZNSt7__cxx1112basic_stringIcSt11char_traitsIcESaIcEE10_M_disposeEv():
/usr/include/c++/10/bits/basic_string.h:239
	if (!_M_is_local())
  404959:	48 39 df             	cmp    %rbx,%rdi
  40495c:	0f 84 f6 f6 ff ff    	je     404058 <main+0xa8>
_ZN9__gnu_cxx13new_allocatorIcE10deallocateEPcm():
/usr/include/c++/10/ext/new_allocator.h:139
  404962:	e8 59 f0 ff ff       	callq  4039c0 <_ZdlPv@plt>
_ZN6CLBase9HandleArgEaPc():
/home/aliha951/ipdps-artifact/gapbs-master/src/command_line.h:114
  }
  404967:	e9 ec f6 ff ff       	jmpq   404058 <main+0xa8>
main():
/usr/include/stdlib.h:363
  40496c:	ba 0a 00 00 00       	mov    $0xa,%edx
atoi():
/usr/include/stdlib.h:363
  404971:	31 f6                	xor    %esi,%esi
  404973:	e8 08 f2 ff ff       	callq  403b80 <strtol@plt>
  404978:	89 84 24 a4 01 00 00 	mov    %eax,0x1a4(%rsp)
_ZN6CLBase9HandleArgEaPc():
/home/aliha951/ipdps-artifact/gapbs-master/src/command_line.h:104
      case 'k': degree_ = atoi(opt_arg);                                break;
  40497f:	e9 d4 f6 ff ff       	jmpq   404058 <main+0xa8>
main():
/usr/include/stdlib.h:363
  404984:	ba 0a 00 00 00       	mov    $0xa,%edx
atoi():
/usr/include/stdlib.h:363
  404989:	31 f6                	xor    %esi,%esi
  40498b:	e8 f0 f1 ff ff       	callq  403b80 <strtol@plt>
_ZN6CLBase9HandleArgEaPc():
/home/aliha951/ipdps-artifact/gapbs-master/src/command_line.h:110
      case 'y': queue_size_ = (long unsigned int) atoi(opt_arg);        break;
  404990:	48 98                	cltq   
  404992:	48 89 84 24 d0 01 00 	mov    %rax,0x1d0(%rsp)
  404999:	00 
  40499a:	e9 b9 f6 ff ff       	jmpq   404058 <main+0xa8>
main():
/usr/include/stdlib.h:363
  40499f:	ba 0a 00 00 00       	mov    $0xa,%edx
atoi():
/usr/include/stdlib.h:363
  4049a4:	31 f6                	xor    %esi,%esi
  4049a6:	e8 d5 f1 ff ff       	callq  403b80 <strtol@plt>
  4049ab:	89 84 24 d8 01 00 00 	mov    %eax,0x1d8(%rsp)
_ZN6CLBase9HandleArgEaPc():
/home/aliha951/ipdps-artifact/gapbs-master/src/command_line.h:111
      case 'x': readahead_size_ = atoi(opt_arg);                        break;
  4049b2:	e9 a1 f6 ff ff       	jmpq   404058 <main+0xa8>
/home/aliha951/ipdps-artifact/gapbs-master/src/command_line.h:107
      case 'm': in_place_ = true;                                       break;
  4049b7:	c6 84 24 ca 01 00 00 	movb   $0x1,0x1ca(%rsp)
  4049be:	01 
  4049bf:	e9 94 f6 ff ff       	jmpq   404058 <main+0xa8>
/home/aliha951/ipdps-artifact/gapbs-master/src/command_line.h:112
      case 'o': batching_mode_ = MADVISE;                               break;
  4049c4:	c7 84 24 dc 01 00 00 	movl   $0x2,0x1dc(%rsp)
  4049cb:	02 00 00 00 
  4049cf:	e9 84 f6 ff ff       	jmpq   404058 <main+0xa8>
/home/aliha951/ipdps-artifact/gapbs-master/src/command_line.h:109
      case 'q': batching_ = true;                                       break;
  4049d4:	c6 84 24 cb 01 00 00 	movb   $0x1,0x1cb(%rsp)
  4049db:	01 
  4049dc:	e9 77 f6 ff ff       	jmpq   404058 <main+0xa8>
/home/aliha951/ipdps-artifact/gapbs-master/src/command_line.h:105
      case 's': symmetrize_ = true;                                     break;
  4049e1:	c6 84 24 c8 01 00 00 	movb   $0x1,0x1c8(%rsp)
  4049e8:	01 
  4049e9:	e9 6a f6 ff ff       	jmpq   404058 <main+0xa8>
BenchmarkKernel<CSRGraph<int>, main(int, char**)::<lambda(const Graph&)>, void (*)(const CSRGraph<int>&, const pvector<int>&), bool (*)(const CSRGraph<int>&, const pvector<int>&)>():
/home/aliha951/ipdps-artifact/gapbs-master/src/benchmark.h:108
  double total_seconds = 0;
  4049ee:	66 0f ef ff          	pxor   %xmm7,%xmm7
  4049f2:	f2 0f 11 7c 24 18    	movsd  %xmm7,0x18(%rsp)
  4049f8:	e9 75 fc ff ff       	jmpq   404672 <main+0x6c2>
_Z16prepare_pmadvisev():
/home/aliha951/ipdps-artifact/gapbs-master/src/libpfq_cc_nopt.h:459
    pid_t pid = getpid();
  4049fd:	e8 ee f1 ff ff       	callq  403bf0 <getpid@plt>
/home/aliha951/ipdps-artifact/gapbs-master/src/libpfq_cc_nopt.h:460
    pidfd = syscall(SYS_pidfd_open, pid, 0); // this is necessary for process_madvise
  404a02:	31 d2                	xor    %edx,%edx
  404a04:	bf b2 01 00 00       	mov    $0x1b2,%edi
/home/aliha951/ipdps-artifact/gapbs-master/src/libpfq_cc_nopt.h:459
    pid_t pid = getpid();
  404a09:	89 c6                	mov    %eax,%esi
/home/aliha951/ipdps-artifact/gapbs-master/src/libpfq_cc_nopt.h:460
    pidfd = syscall(SYS_pidfd_open, pid, 0); // this is necessary for process_madvise
  404a0b:	31 c0                	xor    %eax,%eax
  404a0d:	e8 2e ed ff ff       	callq  403740 <syscall@plt>
  404a12:	89 05 50 a3 01 00    	mov    %eax,0x1a350(%rip)        # 41ed68 <pidfd>
/home/aliha951/ipdps-artifact/gapbs-master/src/libpfq_cc_nopt.h:462
}
  404a18:	e9 b3 f7 ff ff       	jmpq   4041d0 <main+0x220>
_ZStlsISt11char_traitsIcEERSt13basic_ostreamIcT_ES5_PKc():
/usr/include/c++/10/ostream:611
  404a1d:	ba 2b 00 00 00       	mov    $0x2b,%edx
  404a22:	48 8d 35 9f 0d 01 00 	lea    0x10d9f(%rip),%rsi        # 4157c8 <_IO_stdin_used+0x7c8>
  404a29:	48 8d 3d d0 59 01 00 	lea    0x159d0(%rip),%rdi        # 41a400 <_ZSt4cout@@GLIBCXX_3.4>
  404a30:	e8 1b f0 ff ff       	callq  403a50 <_ZSt16__ostream_insertIcSt11char_traitsIcEERSt13basic_ostreamIT_T0_ES6_PKS3_l@plt>
_ZNSolsEPFRSoS_E():
/usr/include/c++/10/ostream:113
	return __pf(*this);
  404a35:	48 8d 3d c4 59 01 00 	lea    0x159c4(%rip),%rdi        # 41a400 <_ZSt4cout@@GLIBCXX_3.4>
  404a3c:	e8 df 14 00 00       	callq  405f20 <_ZSt4endlIcSt11char_traitsIcEERSt13basic_ostreamIT_T0_ES6_.isra.0>
  404a41:	e9 09 fd ff ff       	jmpq   40474f <main+0x79f>
_ZN6CLBase9HandleArgEaPc():
/home/aliha951/ipdps-artifact/gapbs-master/src/command_line.h:103
      case 'h': PrintUsage();                                           break;
  404a46:	48 8b 7c 24 38       	mov    0x38(%rsp),%rdi
  404a4b:	e8 50 61 00 00       	callq  40aba0 <_ZN6CLBase10PrintUsageEv>
_ZNSt7__cxx1112basic_stringIcSt11char_traitsIcESaIcEE9_M_lengthEm():
/usr/include/c++/10/bits/basic_string.h:191
      { _M_string_length = __length; }
  404a50:	66 48 0f 6e c2       	movq   %rdx,%xmm0
_ZNSt7__cxx1112basic_stringIcSt11char_traitsIcESaIcEE7_M_dataEPc():
/usr/include/c++/10/bits/basic_string.h:187
      { _M_dataplus._M_p = __p; }
  404a55:	48 89 84 24 a8 01 00 	mov    %rax,0x1a8(%rsp)
  404a5c:	00 
_ZNSt7__cxx1112basic_stringIcSt11char_traitsIcESaIcEE9_M_lengthEm():
/usr/include/c++/10/bits/basic_string.h:191
      { _M_string_length = __length; }
  404a5d:	66 0f 6c c1          	punpcklqdq %xmm1,%xmm0
  404a61:	0f 29 84 24 b0 01 00 	movaps %xmm0,0x1b0(%rsp)
  404a68:	00 
_ZNSt7__cxx1112basic_stringIcSt11char_traitsIcESaIcEE7_M_dataEPc():
/usr/include/c++/10/bits/basic_string.h:187
      { _M_dataplus._M_p = __p; }
  404a69:	48 89 9c 24 10 01 00 	mov    %rbx,0x110(%rsp)
  404a70:	00 
  404a71:	e9 c4 fe ff ff       	jmpq   40493a <main+0x98a>
_ZNSt7__cxx1112basic_stringIcSt11char_traitsIcESaIcEEaSEOS4_():
/usr/include/c++/10/bits/basic_string.h:734
	    if (__str.size())
  404a76:	48 85 d2             	test   %rdx,%rdx
  404a79:	74 1e                	je     404a99 <main+0xae9>
_ZNSt7__cxx1112basic_stringIcSt11char_traitsIcESaIcEE7_S_copyEPcPKcm():
/usr/include/c++/10/bits/basic_string.h:356
	if (__n == 1)
  404a7b:	48 83 fa 01          	cmp    $0x1,%rdx
  404a7f:	74 29                	je     404aaa <main+0xafa>
_ZNSt11char_traitsIcE4copyEPcPKcm():
/usr/include/c++/10/bits/char_traits.h:437
	return static_cast<char_type*>(__builtin_memcpy(__s1, __s2, __n));
  404a81:	48 89 de             	mov    %rbx,%rsi
  404a84:	e8 c7 ee ff ff       	callq  403950 <memcpy@plt>
  404a89:	48 8b bc 24 a8 01 00 	mov    0x1a8(%rsp),%rdi
  404a90:	00 
  404a91:	48 8b 94 24 18 01 00 	mov    0x118(%rsp),%rdx
  404a98:	00 
_ZNSt7__cxx1112basic_stringIcSt11char_traitsIcESaIcEE9_M_lengthEm():
/usr/include/c++/10/bits/basic_string.h:191
      { _M_string_length = __length; }
  404a99:	48 89 94 24 b0 01 00 	mov    %rdx,0x1b0(%rsp)
  404aa0:	00 
_ZNSt11char_traitsIcE6assignERcRKc():
/usr/include/c++/10/bits/char_traits.h:357
      { __c1 = __c2; }
  404aa1:	c6 04 17 00          	movb   $0x0,(%rdi,%rdx,1)
_ZNSt7__cxx1112basic_stringIcSt11char_traitsIcESaIcEE13_M_set_lengthEm():
/usr/include/c++/10/bits/basic_string.h:226
      }
  404aa5:	e9 90 fe ff ff       	jmpq   40493a <main+0x98a>
_ZNSt11char_traitsIcE6assignERcRKc():
/usr/include/c++/10/bits/char_traits.h:357
  404aaa:	0f b6 84 24 20 01 00 	movzbl 0x120(%rsp),%eax
  404ab1:	00 
  404ab2:	88 07                	mov    %al,(%rdi)
  404ab4:	48 8b bc 24 a8 01 00 	mov    0x1a8(%rsp),%rdi
  404abb:	00 
  404abc:	48 8b 94 24 18 01 00 	mov    0x118(%rsp),%rdx
  404ac3:	00 
  404ac4:	eb d3                	jmp    404a99 <main+0xae9>
main():
/home/aliha951/ipdps-artifact/gapbs-master/src/cc_batching_nopt.cc:284
}
  404ac6:	e8 75 ef ff ff       	callq  403a40 <__stack_chk_fail@plt>
_Z16start_disk_statsPKc():
/home/aliha951/ipdps-artifact/gapbs-master/src/profiling_utils.h:306
	  move_to_cgroup(root_cgroup, getpid());
  404acb:	e8 20 f1 ff ff       	callq  403bf0 <getpid@plt>
  404ad0:	48 8d 3d 67 08 01 00 	lea    0x10867(%rip),%rdi        # 41533e <_IO_stdin_used+0x33e>
  404ad7:	89 c6                	mov    %eax,%esi
  404ad9:	e8 82 27 00 00       	callq  407260 <_Z14move_to_cgroupPKci>
/home/aliha951/ipdps-artifact/gapbs-master/src/profiling_utils.h:307
    execlp("/home/aliha951/ipdps-gapbs/gather_diskstats.sh", "/home/aliha951/ipdps-gapbs/gather_diskstats.sh", result_file_name, NULL);
  404ade:	48 8d 35 13 0d 01 00 	lea    0x10d13(%rip),%rsi        # 4157f8 <_IO_stdin_used+0x7f8>
  404ae5:	31 c9                	xor    %ecx,%ecx
  404ae7:	48 8d 15 66 08 01 00 	lea    0x10866(%rip),%rdx        # 415354 <_IO_stdin_used+0x354>
  404aee:	31 c0                	xor    %eax,%eax
  404af0:	48 89 f7             	mov    %rsi,%rdi
  404af3:	e8 e8 ec ff ff       	callq  4037e0 <execlp@plt>
/home/aliha951/ipdps-artifact/gapbs-master/src/profiling_utils.h:308
    perror("execlp failed");
  404af8:	48 8d 3d 60 08 01 00 	lea    0x10860(%rip),%rdi        # 41535f <_IO_stdin_used+0x35f>
  404aff:	e8 5c ee ff ff       	callq  403960 <perror@plt>
/home/aliha951/ipdps-artifact/gapbs-master/src/profiling_utils.h:303
    exit(EXIT_FAILURE);
  404b04:	bf 01 00 00 00       	mov    $0x1,%edi
  404b09:	e8 b2 ef ff ff       	callq  403ac0 <exit@plt>
/home/aliha951/ipdps-artifact/gapbs-master/src/profiling_utils.h:302
    perror("fork failed");
  404b0e:	48 8d 3d 1d 08 01 00 	lea    0x1081d(%rip),%rdi        # 415332 <_IO_stdin_used+0x332>
  404b15:	e8 46 ee ff ff       	callq  403960 <perror@plt>
  404b1a:	eb e8                	jmp    404b04 <main+0xb54>
  404b1c:	f3 0f 1e fa          	endbr64 
_ZN5CLAppD4Ev():
/home/aliha951/ipdps-artifact/gapbs-master/src/command_line.h:140
class CLApp : public CLBase {
  404b20:	48 89 c3             	mov    %rax,%rbx
  404b23:	e9 b8 f3 ff ff       	jmpq   403ee0 <main.cold+0x16>
  404b28:	f3 0f 1e fa          	endbr64 
_ZN7pvectorIiE16ReleaseResourcesEv():
/home/aliha951/ipdps-artifact/gapbs-master/src/pvector.h:73
    if (start_ != nullptr) {
  404b2c:	48 89 c3             	mov    %rax,%rbx
  404b2f:	e9 2d f4 ff ff       	jmpq   403f61 <main.cold+0x97>
  404b34:	f3 0f 1e fa          	endbr64 
_ZNKSt7__cxx1112basic_stringIcSt11char_traitsIcESaIcEE7_M_dataEv():
/usr/include/c++/10/bits/basic_string.h:195
      { return _M_dataplus._M_p; }
  404b38:	48 89 c5             	mov    %rax,%rbp
  404b3b:	e9 e7 f3 ff ff       	jmpq   403f27 <main.cold+0x5d>
  404b40:	f3 0f 1e fa          	endbr64 
_ZN7pvectorIiE16ReleaseResourcesEv():
/home/aliha951/ipdps-artifact/gapbs-master/src/pvector.h:73
  404b44:	48 89 c5             	mov    %rax,%rbp
  404b47:	e9 c7 f3 ff ff       	jmpq   403f13 <main.cold+0x49>
  404b4c:	f3 0f 1e fa          	endbr64 
  404b50:	e9 7e f3 ff ff       	jmpq   403ed3 <main.cold+0x9>
  404b55:	f3 0f 1e fa          	endbr64 
_ZNKSt7__cxx1112basic_stringIcSt11char_traitsIcESaIcEE7_M_dataEv():
/usr/include/c++/10/bits/basic_string.h:195
  404b59:	48 89 c5             	mov    %rax,%rbp
  404b5c:	e9 a0 f3 ff ff       	jmpq   403f01 <main.cold+0x37>
  404b61:	f3 0f 1e fa          	endbr64 
  404b65:	48 89 c5             	mov    %rax,%rbp
  404b68:	e9 ce f3 ff ff       	jmpq   403f3b <main.cold+0x71>
  404b6d:	f3 0f 1e fa          	endbr64 
  404b71:	48 89 c5             	mov    %rax,%rbp
  404b74:	e9 00 f4 ff ff       	jmpq   403f79 <main.cold+0xaf>
  404b79:	f3 0f 1e fa          	endbr64 
  404b7d:	48 89 c5             	mov    %rax,%rbp
  404b80:	e9 08 f4 ff ff       	jmpq   403f8d <main.cold+0xc3>
main():
/usr/include/c++/10/bits/basic_string.h:195
  404b85:	66 66 2e 0f 1f 84 00 	data16 nopw %cs:0x0(%rax,%rax,1)
  404b8c:	00 00 00 00 

0000000000404b90 <_GLOBAL__sub_I__Z10PrintLabelRKNSt7__cxx1112basic_stringIcSt11char_traitsIcESaIcEEES6_>:
_GLOBAL__sub_I__Z10PrintLabelRKNSt7__cxx1112basic_stringIcSt11char_traitsIcESaIcEEES6_():
/home/aliha951/ipdps-artifact/gapbs-master/src/cc_batching_nopt.cc:284
  404b90:	f3 0f 1e fa          	endbr64 
  404b94:	48 83 ec 08          	sub    $0x8,%rsp
/usr/include/c++/10/iostream:74
  extern wostream wclog;	/// Linked to standard error (buffered)
#endif
  ///@}

  // For construction of filebuffers for cout, cin, cerr, clog et. al.
  static ios_base::Init __ioinit;
  404b98:	48 8d 3d d1 a6 01 00 	lea    0x1a6d1(%rip),%rdi        # 41f270 <_ZStL8__ioinit>
__static_initialization_and_destruction_0():
/usr/include/c++/10/iostream:74
  404b9f:	e8 7c f0 ff ff       	callq  403c20 <_ZNSt8ios_base4InitC1Ev@plt>
  404ba4:	48 8b 3d 4d 54 01 00 	mov    0x1544d(%rip),%rdi        # 419ff8 <_ZNSt8ios_base4InitD1Ev@GLIBCXX_3.4>
  404bab:	48 8d 15 ce 57 01 00 	lea    0x157ce(%rip),%rdx        # 41a380 <__dso_handle>
  404bb2:	48 8d 35 b7 a6 01 00 	lea    0x1a6b7(%rip),%rsi        # 41f270 <_ZStL8__ioinit>
  404bb9:	e8 d2 ed ff ff       	callq  403990 <__cxa_atexit@plt>
/home/aliha951/ipdps-artifact/gapbs-master/src/libpfq_cc_nopt.h:329
vector<state> curr_queue[NR_THREADS];
  404bbe:	48 8d 05 9b 89 01 00 	lea    0x1899b(%rip),%rax        # 41d560 <curr_queue>
_ZNSt12_Vector_baseI5stateSaIS0_EE17_Vector_impl_dataC4Ev():
/usr/include/c++/10/bits/stl_vector.h:98
	: _M_start(), _M_finish(), _M_end_of_storage()
  404bc5:	66 0f ef c0          	pxor   %xmm0,%xmm0
  404bc9:	48 8d 90 00 18 00 00 	lea    0x1800(%rax),%rdx
  404bd0:	0f 29 00             	movaps %xmm0,(%rax)
  404bd3:	48 83 c0 30          	add    $0x30,%rax
  404bd7:	0f 29 40 e0          	movaps %xmm0,-0x20(%rax)
  404bdb:	0f 29 40 f0          	movaps %xmm0,-0x10(%rax)
__static_initialization_and_destruction_0():
/home/aliha951/ipdps-artifact/gapbs-master/src/libpfq_cc_nopt.h:329
  404bdf:	48 39 d0             	cmp    %rdx,%rax
  404be2:	75 ec                	jne    404bd0 <_GLOBAL__sub_I__Z10PrintLabelRKNSt7__cxx1112basic_stringIcSt11char_traitsIcESaIcEEES6_+0x40>
  404be4:	48 8d 15 95 57 01 00 	lea    0x15795(%rip),%rdx        # 41a380 <__dso_handle>
  404beb:	31 f6                	xor    %esi,%esi
  404bed:	48 8d 3d 1c 02 00 00 	lea    0x21c(%rip),%rdi        # 404e10 <__tcf_0>
  404bf4:	e8 97 ed ff ff       	callq  403990 <__cxa_atexit@plt>
/home/aliha951/ipdps-artifact/gapbs-master/src/libpfq_cc_nopt.h:330
vector<state> shipped_queue[NR_THREADS];
  404bf9:	48 8d 05 60 71 01 00 	lea    0x17160(%rip),%rax        # 41bd60 <shipped_queue>
_ZNSt12_Vector_baseI5stateSaIS0_EE17_Vector_impl_dataC4Ev():
/usr/include/c++/10/bits/stl_vector.h:98
  404c00:	66 0f ef c0          	pxor   %xmm0,%xmm0
  404c04:	48 8d 90 00 18 00 00 	lea    0x1800(%rax),%rdx
  404c0b:	0f 1f 44 00 00       	nopl   0x0(%rax,%rax,1)
  404c10:	0f 29 00             	movaps %xmm0,(%rax)
  404c13:	48 83 c0 30          	add    $0x30,%rax
  404c17:	0f 29 40 e0          	movaps %xmm0,-0x20(%rax)
  404c1b:	0f 29 40 f0          	movaps %xmm0,-0x10(%rax)
__static_initialization_and_destruction_0():
/home/aliha951/ipdps-artifact/gapbs-master/src/libpfq_cc_nopt.h:330
  404c1f:	48 39 d0             	cmp    %rdx,%rax
  404c22:	75 ec                	jne    404c10 <_GLOBAL__sub_I__Z10PrintLabelRKNSt7__cxx1112basic_stringIcSt11char_traitsIcESaIcEEES6_+0x80>
  404c24:	48 8d 15 55 57 01 00 	lea    0x15755(%rip),%rdx        # 41a380 <__dso_handle>
  404c2b:	31 f6                	xor    %esi,%esi
  404c2d:	48 8d 3d 8c 01 00 00 	lea    0x18c(%rip),%rdi        # 404dc0 <__tcf_1>
  404c34:	e8 57 ed ff ff       	callq  403990 <__cxa_atexit@plt>
/home/aliha951/ipdps-artifact/gapbs-master/src/libpfq_cc_nopt.h:331
vector<state> ready_queue[NR_THREADS];
  404c39:	48 8d 05 20 59 01 00 	lea    0x15920(%rip),%rax        # 41a560 <ready_queue>
_ZNSt12_Vector_baseI5stateSaIS0_EE17_Vector_impl_dataC4Ev():
/usr/include/c++/10/bits/stl_vector.h:98
  404c40:	66 0f ef c0          	pxor   %xmm0,%xmm0
  404c44:	48 8d 90 00 18 00 00 	lea    0x1800(%rax),%rdx
  404c4b:	0f 1f 44 00 00       	nopl   0x0(%rax,%rax,1)
  404c50:	0f 29 00             	movaps %xmm0,(%rax)
  404c53:	48 83 c0 30          	add    $0x30,%rax
  404c57:	0f 29 40 e0          	movaps %xmm0,-0x20(%rax)
  404c5b:	0f 29 40 f0          	movaps %xmm0,-0x10(%rax)
__static_initialization_and_destruction_0():
/home/aliha951/ipdps-artifact/gapbs-master/src/libpfq_cc_nopt.h:331
  404c5f:	48 39 d0             	cmp    %rdx,%rax
  404c62:	75 ec                	jne    404c50 <_GLOBAL__sub_I__Z10PrintLabelRKNSt7__cxx1112basic_stringIcSt11char_traitsIcESaIcEEES6_+0xc0>
  404c64:	48 8d 15 15 57 01 00 	lea    0x15715(%rip),%rdx        # 41a380 <__dso_handle>
  404c6b:	31 f6                	xor    %esi,%esi
  404c6d:	48 8d 3d fc 00 00 00 	lea    0xfc(%rip),%rdi        # 404d70 <__tcf_2>
_GLOBAL__sub_I__Z10PrintLabelRKNSt7__cxx1112basic_stringIcSt11char_traitsIcESaIcEEES6_():
/home/aliha951/ipdps-artifact/gapbs-master/src/cc_batching_nopt.cc:284
  404c74:	48 83 c4 08          	add    $0x8,%rsp
__static_initialization_and_destruction_0():
/home/aliha951/ipdps-artifact/gapbs-master/src/libpfq_cc_nopt.h:331
  404c78:	e9 13 ed ff ff       	jmpq   403990 <__cxa_atexit@plt>
_GLOBAL__sub_I__Z10PrintLabelRKNSt7__cxx1112basic_stringIcSt11char_traitsIcESaIcEEES6_():
  404c7d:	0f 1f 00             	nopl   (%rax)

0000000000404c80 <_start>:
_start():
  404c80:	f3 0f 1e fa          	endbr64 
  404c84:	31 ed                	xor    %ebp,%ebp
  404c86:	49 89 d1             	mov    %rdx,%r9
  404c89:	5e                   	pop    %rsi
  404c8a:	48 89 e2             	mov    %rsp,%rdx
  404c8d:	48 83 e4 f0          	and    $0xfffffffffffffff0,%rsp
  404c91:	50                   	push   %rax
  404c92:	54                   	push   %rsp
  404c93:	49 c7 c0 f0 4c 41 00 	mov    $0x414cf0,%r8
  404c9a:	48 c7 c1 80 4c 41 00 	mov    $0x414c80,%rcx
  404ca1:	48 c7 c7 b0 3f 40 00 	mov    $0x403fb0,%rdi
  404ca8:	ff 15 3a 53 01 00    	callq  *0x1533a(%rip)        # 419fe8 <__libc_start_main@GLIBC_2.2.5>
  404cae:	f4                   	hlt    
  404caf:	90                   	nop

0000000000404cb0 <_dl_relocate_static_pie>:
_dl_relocate_static_pie():
  404cb0:	f3 0f 1e fa          	endbr64 
  404cb4:	c3                   	retq   
  404cb5:	66 2e 0f 1f 84 00 00 	nopw   %cs:0x0(%rax,%rax,1)
  404cbc:	00 00 00 
  404cbf:	90                   	nop

0000000000404cc0 <deregister_tm_clones>:
deregister_tm_clones():
  404cc0:	b8 a8 a3 41 00       	mov    $0x41a3a8,%eax
  404cc5:	48 3d a8 a3 41 00    	cmp    $0x41a3a8,%rax
  404ccb:	74 13                	je     404ce0 <deregister_tm_clones+0x20>
  404ccd:	b8 00 00 00 00       	mov    $0x0,%eax
  404cd2:	48 85 c0             	test   %rax,%rax
  404cd5:	74 09                	je     404ce0 <deregister_tm_clones+0x20>
  404cd7:	bf a8 a3 41 00       	mov    $0x41a3a8,%edi
  404cdc:	ff e0                	jmpq   *%rax
  404cde:	66 90                	xchg   %ax,%ax
  404ce0:	c3                   	retq   
  404ce1:	66 66 2e 0f 1f 84 00 	data16 nopw %cs:0x0(%rax,%rax,1)
  404ce8:	00 00 00 00 
  404cec:	0f 1f 40 00          	nopl   0x0(%rax)

0000000000404cf0 <register_tm_clones>:
register_tm_clones():
  404cf0:	be a8 a3 41 00       	mov    $0x41a3a8,%esi
  404cf5:	48 81 ee a8 a3 41 00 	sub    $0x41a3a8,%rsi
  404cfc:	48 89 f0             	mov    %rsi,%rax
  404cff:	48 c1 ee 3f          	shr    $0x3f,%rsi
  404d03:	48 c1 f8 03          	sar    $0x3,%rax
  404d07:	48 01 c6             	add    %rax,%rsi
  404d0a:	48 d1 fe             	sar    %rsi
  404d0d:	74 11                	je     404d20 <register_tm_clones+0x30>
  404d0f:	b8 00 00 00 00       	mov    $0x0,%eax
  404d14:	48 85 c0             	test   %rax,%rax
  404d17:	74 07                	je     404d20 <register_tm_clones+0x30>
  404d19:	bf a8 a3 41 00       	mov    $0x41a3a8,%edi
  404d1e:	ff e0                	jmpq   *%rax
  404d20:	c3                   	retq   
  404d21:	66 66 2e 0f 1f 84 00 	data16 nopw %cs:0x0(%rax,%rax,1)
  404d28:	00 00 00 00 
  404d2c:	0f 1f 40 00          	nopl   0x0(%rax)

0000000000404d30 <__do_global_dtors_aux>:
__do_global_dtors_aux():
  404d30:	f3 0f 1e fa          	endbr64 
  404d34:	80 3d ed 57 01 00 00 	cmpb   $0x0,0x157ed(%rip)        # 41a528 <completed.0>
  404d3b:	75 13                	jne    404d50 <__do_global_dtors_aux+0x20>
  404d3d:	55                   	push   %rbp
  404d3e:	48 89 e5             	mov    %rsp,%rbp
  404d41:	e8 7a ff ff ff       	callq  404cc0 <deregister_tm_clones>
  404d46:	c6 05 db 57 01 00 01 	movb   $0x1,0x157db(%rip)        # 41a528 <completed.0>
  404d4d:	5d                   	pop    %rbp
  404d4e:	c3                   	retq   
  404d4f:	90                   	nop
  404d50:	c3                   	retq   
  404d51:	66 66 2e 0f 1f 84 00 	data16 nopw %cs:0x0(%rax,%rax,1)
  404d58:	00 00 00 00 
  404d5c:	0f 1f 40 00          	nopl   0x0(%rax)

0000000000404d60 <frame_dummy>:
frame_dummy():
  404d60:	f3 0f 1e fa          	endbr64 
  404d64:	eb 8a                	jmp    404cf0 <register_tm_clones>
  404d66:	66 2e 0f 1f 84 00 00 	nopw   %cs:0x0(%rax,%rax,1)
  404d6d:	00 00 00 

0000000000404d70 <__tcf_2>:
__tcf_2():
/home/aliha951/ipdps-artifact/gapbs-master/src/libpfq_cc_nopt.h:331
  404d70:	f3 0f 1e fa          	endbr64 
  404d74:	55                   	push   %rbp
  404d75:	53                   	push   %rbx
  404d76:	48 8d 1d cb 6f 01 00 	lea    0x16fcb(%rip),%rbx        # 41bd48 <ready_queue+0x17e8>
  404d7d:	48 8d ab 18 e8 ff ff 	lea    -0x17e8(%rbx),%rbp
  404d84:	48 83 ec 08          	sub    $0x8,%rsp
  404d88:	eb 17                	jmp    404da1 <__tcf_2+0x31>
  404d8a:	66 0f 1f 44 00 00    	nopw   0x0(%rax,%rax,1)
_ZN9__gnu_cxx13new_allocatorI5stateE10deallocateEPS1_m():
/usr/include/c++/10/ext/new_allocator.h:139
  404d90:	e8 2b ec ff ff       	callq  4039c0 <_ZdlPv@plt>
__tcf_2():
/home/aliha951/ipdps-artifact/gapbs-master/src/libpfq_cc_nopt.h:331
  404d95:	48 8d 43 e8          	lea    -0x18(%rbx),%rax
  404d99:	48 39 eb             	cmp    %rbp,%rbx
  404d9c:	74 14                	je     404db2 <__tcf_2+0x42>
  404d9e:	48 89 c3             	mov    %rax,%rbx
_ZNSt6vectorI5stateSaIS0_EED4Ev():
/usr/include/c++/10/bits/stl_vector.h:680 (discriminator 3)
	std::_Destroy(this->_M_impl._M_start, this->_M_impl._M_finish,
  404da1:	48 8b 3b             	mov    (%rbx),%rdi
_ZNSt12_Vector_baseI5stateSaIS0_EE13_M_deallocateEPS0_m():
/usr/include/c++/10/bits/stl_vector.h:353 (discriminator 3)
	if (__p)
  404da4:	48 85 ff             	test   %rdi,%rdi
  404da7:	75 e7                	jne    404d90 <__tcf_2+0x20>
__tcf_2():
/home/aliha951/ipdps-artifact/gapbs-master/src/libpfq_cc_nopt.h:331
  404da9:	48 8d 43 e8          	lea    -0x18(%rbx),%rax
  404dad:	48 39 eb             	cmp    %rbp,%rbx
  404db0:	75 ec                	jne    404d9e <__tcf_2+0x2e>
  404db2:	48 83 c4 08          	add    $0x8,%rsp
  404db6:	5b                   	pop    %rbx
  404db7:	5d                   	pop    %rbp
  404db8:	c3                   	retq   
  404db9:	0f 1f 80 00 00 00 00 	nopl   0x0(%rax)

0000000000404dc0 <__tcf_1>:
__tcf_1():
/home/aliha951/ipdps-artifact/gapbs-master/src/libpfq_cc_nopt.h:330
vector<state> shipped_queue[NR_THREADS];
  404dc0:	f3 0f 1e fa          	endbr64 
  404dc4:	55                   	push   %rbp
  404dc5:	53                   	push   %rbx
  404dc6:	48 8d 1d 7b 87 01 00 	lea    0x1877b(%rip),%rbx        # 41d548 <shipped_queue+0x17e8>
  404dcd:	48 8d ab 18 e8 ff ff 	lea    -0x17e8(%rbx),%rbp
  404dd4:	48 83 ec 08          	sub    $0x8,%rsp
  404dd8:	eb 17                	jmp    404df1 <__tcf_1+0x31>
  404dda:	66 0f 1f 44 00 00    	nopw   0x0(%rax,%rax,1)
_ZN9__gnu_cxx13new_allocatorI5stateE10deallocateEPS1_m():
/usr/include/c++/10/ext/new_allocator.h:139
  404de0:	e8 db eb ff ff       	callq  4039c0 <_ZdlPv@plt>
__tcf_1():
/home/aliha951/ipdps-artifact/gapbs-master/src/libpfq_cc_nopt.h:330
  404de5:	48 8d 43 e8          	lea    -0x18(%rbx),%rax
  404de9:	48 39 eb             	cmp    %rbp,%rbx
  404dec:	74 14                	je     404e02 <__tcf_1+0x42>
  404dee:	48 89 c3             	mov    %rax,%rbx
_ZNSt6vectorI5stateSaIS0_EED4Ev():
/usr/include/c++/10/bits/stl_vector.h:680 (discriminator 3)
	std::_Destroy(this->_M_impl._M_start, this->_M_impl._M_finish,
  404df1:	48 8b 3b             	mov    (%rbx),%rdi
_ZNSt12_Vector_baseI5stateSaIS0_EE13_M_deallocateEPS0_m():
/usr/include/c++/10/bits/stl_vector.h:353 (discriminator 3)
	if (__p)
  404df4:	48 85 ff             	test   %rdi,%rdi
  404df7:	75 e7                	jne    404de0 <__tcf_1+0x20>
__tcf_1():
/home/aliha951/ipdps-artifact/gapbs-master/src/libpfq_cc_nopt.h:330
  404df9:	48 8d 43 e8          	lea    -0x18(%rbx),%rax
  404dfd:	48 39 eb             	cmp    %rbp,%rbx
  404e00:	75 ec                	jne    404dee <__tcf_1+0x2e>
  404e02:	48 83 c4 08          	add    $0x8,%rsp
  404e06:	5b                   	pop    %rbx
  404e07:	5d                   	pop    %rbp
  404e08:	c3                   	retq   
  404e09:	0f 1f 80 00 00 00 00 	nopl   0x0(%rax)

0000000000404e10 <__tcf_0>:
__tcf_0():
/home/aliha951/ipdps-artifact/gapbs-master/src/libpfq_cc_nopt.h:329
vector<state> curr_queue[NR_THREADS];
  404e10:	f3 0f 1e fa          	endbr64 
  404e14:	55                   	push   %rbp
  404e15:	53                   	push   %rbx
  404e16:	48 8d 1d 2b 9f 01 00 	lea    0x19f2b(%rip),%rbx        # 41ed48 <curr_queue+0x17e8>
  404e1d:	48 8d ab 18 e8 ff ff 	lea    -0x17e8(%rbx),%rbp
  404e24:	48 83 ec 08          	sub    $0x8,%rsp
  404e28:	eb 17                	jmp    404e41 <__tcf_0+0x31>
  404e2a:	66 0f 1f 44 00 00    	nopw   0x0(%rax,%rax,1)
_ZN9__gnu_cxx13new_allocatorI5stateE10deallocateEPS1_m():
/usr/include/c++/10/ext/new_allocator.h:139
  404e30:	e8 8b eb ff ff       	callq  4039c0 <_ZdlPv@plt>
__tcf_0():
/home/aliha951/ipdps-artifact/gapbs-master/src/libpfq_cc_nopt.h:329
  404e35:	48 8d 43 e8          	lea    -0x18(%rbx),%rax
  404e39:	48 39 eb             	cmp    %rbp,%rbx
  404e3c:	74 14                	je     404e52 <__tcf_0+0x42>
  404e3e:	48 89 c3             	mov    %rax,%rbx
_ZNSt6vectorI5stateSaIS0_EED4Ev():
/usr/include/c++/10/bits/stl_vector.h:680 (discriminator 3)
	std::_Destroy(this->_M_impl._M_start, this->_M_impl._M_finish,
  404e41:	48 8b 3b             	mov    (%rbx),%rdi
_ZNSt12_Vector_baseI5stateSaIS0_EE13_M_deallocateEPS0_m():
/usr/include/c++/10/bits/stl_vector.h:353 (discriminator 3)
	if (__p)
  404e44:	48 85 ff             	test   %rdi,%rdi
  404e47:	75 e7                	jne    404e30 <__tcf_0+0x20>
__tcf_0():
/home/aliha951/ipdps-artifact/gapbs-master/src/libpfq_cc_nopt.h:329
  404e49:	48 8d 43 e8          	lea    -0x18(%rbx),%rax
  404e4d:	48 39 eb             	cmp    %rbp,%rbx
  404e50:	75 ec                	jne    404e3e <__tcf_0+0x2e>
  404e52:	48 83 c4 08          	add    $0x8,%rsp
  404e56:	5b                   	pop    %rbx
  404e57:	5d                   	pop    %rbp
  404e58:	c3                   	retq   
  404e59:	0f 1f 80 00 00 00 00 	nopl   0x0(%rax)

0000000000404e60 <_ZL13get_family_idi>:
_ZL13get_family_idi():
/home/aliha951/ipdps-artifact/gapbs-master/src/taskstats_helper.h:30
	struct genlmsghdr g;
	char buf[512];
};

/* Ask generic netlink for the family id of TASKSTATS */
static int get_family_id(int sd) {
  404e60:	41 54                	push   %r12
/home/aliha951/ipdps-artifact/gapbs-master/src/taskstats_helper.h:32
	struct msgtemplate req = {0};
	struct msgtemplate ans = {0};
  404e62:	b9 42 00 00 00       	mov    $0x42,%ecx
/home/aliha951/ipdps-artifact/gapbs-master/src/taskstats_helper.h:30
static int get_family_id(int sd) {
  404e67:	55                   	push   %rbp
  404e68:	89 fd                	mov    %edi,%ebp
  404e6a:	48 81 ec 48 04 00 00 	sub    $0x448,%rsp
  404e71:	64 48 8b 04 25 28 00 	mov    %fs:0x28,%rax
  404e78:	00 00 
  404e7a:	48 89 84 24 38 04 00 	mov    %rax,0x438(%rsp)
  404e81:	00 
  404e82:	31 c0                	xor    %eax,%eax
/home/aliha951/ipdps-artifact/gapbs-master/src/taskstats_helper.h:32
	struct msgtemplate ans = {0};
  404e84:	4c 8d a4 24 20 02 00 	lea    0x220(%rsp),%r12
  404e8b:	00 
  404e8c:	4c 89 e7             	mov    %r12,%rdi
  404e8f:	f3 48 ab             	rep stos %rax,%es:(%rdi)
/home/aliha951/ipdps-artifact/gapbs-master/src/taskstats_helper.h:31
	struct msgtemplate req = {0};
  404e92:	b9 42 00 00 00       	mov    $0x42,%ecx
/home/aliha951/ipdps-artifact/gapbs-master/src/taskstats_helper.h:32
	struct msgtemplate ans = {0};
  404e97:	c7 07 00 00 00 00    	movl   $0x0,(%rdi)
/home/aliha951/ipdps-artifact/gapbs-master/src/taskstats_helper.h:31
	struct msgtemplate req = {0};
  404e9d:	48 89 e7             	mov    %rsp,%rdi
  404ea0:	f3 48 ab             	rep stos %rax,%es:(%rdi)
/home/aliha951/ipdps-artifact/gapbs-master/src/taskstats_helper.h:36
	struct nlattr *na;
	int rep_len;

	req.n.nlmsg_len = NLMSG_LENGTH(GENL_HDRLEN);
  404ea3:	48 b8 14 00 00 00 10 	movabs $0x1001000000014,%rax
  404eaa:	00 01 00 
  404ead:	48 89 04 24          	mov    %rax,(%rsp)
/home/aliha951/ipdps-artifact/gapbs-master/src/taskstats_helper.h:31
	struct msgtemplate req = {0};
  404eb1:	c7 07 00 00 00 00    	movl   $0x0,(%rdi)
/home/aliha951/ipdps-artifact/gapbs-master/src/taskstats_helper.h:40
	req.n.nlmsg_type = GENL_ID_CTRL;
	req.n.nlmsg_flags = NLM_F_REQUEST;
	req.n.nlmsg_seq = 0;
	req.n.nlmsg_pid = getpid();
  404eb7:	e8 34 ed ff ff       	callq  403bf0 <getpid@plt>
/usr/include/x86_64-linux-gnu/bits/string_fortified.h:34

__fortify_function void *
__NTH (memcpy (void *__restrict __dest, const void *__restrict __src,
	       size_t __len))
{
  return __builtin___memcpy_chk (__dest, __src, __len, __bos0 (__dest));
  404ebc:	ba 53 00 00 00       	mov    $0x53,%edx
/home/aliha951/ipdps-artifact/gapbs-master/src/taskstats_helper.h:50
	na->nla_type = CTRL_ATTR_FAMILY_NAME;
	na->nla_len = NLA_HDRLEN + strlen(TASKSTATS_GENL_NAME) + 1;
	memcpy(NLA_DATA(na), TASKSTATS_GENL_NAME, strlen(TASKSTATS_GENL_NAME) + 1);
	req.n.nlmsg_len += NLMSG_ALIGN(na->nla_len);

	if (send(sd, &req, req.n.nlmsg_len, 0) < 0)
  404ec1:	31 c9                	xor    %ecx,%ecx
memcpy():
/usr/include/x86_64-linux-gnu/bits/string_fortified.h:34
  404ec3:	48 89 e6             	mov    %rsp,%rsi
_ZL13get_family_idi():
/home/aliha951/ipdps-artifact/gapbs-master/src/taskstats_helper.h:40
	req.n.nlmsg_pid = getpid();
  404ec6:	89 44 24 0c          	mov    %eax,0xc(%rsp)
/home/aliha951/ipdps-artifact/gapbs-master/src/taskstats_helper.h:41
	req.g.cmd = CTRL_CMD_GETFAMILY;
  404eca:	b8 03 01 00 00       	mov    $0x103,%eax
/home/aliha951/ipdps-artifact/gapbs-master/src/taskstats_helper.h:50
	if (send(sd, &req, req.n.nlmsg_len, 0) < 0)
  404ecf:	89 ef                	mov    %ebp,%edi
/home/aliha951/ipdps-artifact/gapbs-master/src/taskstats_helper.h:41
	req.g.cmd = CTRL_CMD_GETFAMILY;
  404ed1:	66 89 44 24 10       	mov    %ax,0x10(%rsp)
memcpy():
/usr/include/x86_64-linux-gnu/bits/string_fortified.h:34
  404ed6:	48 b8 54 41 53 4b 53 	movabs $0x544154534b534154,%rax
  404edd:	54 41 54 
  404ee0:	48 89 44 24 18       	mov    %rax,0x18(%rsp)
_ZL13get_family_idi():
/home/aliha951/ipdps-artifact/gapbs-master/src/taskstats_helper.h:48
	req.n.nlmsg_len += NLMSG_ALIGN(na->nla_len);
  404ee5:	8b 04 24             	mov    (%rsp),%eax
memcpy():
/usr/include/x86_64-linux-gnu/bits/string_fortified.h:34
  404ee8:	66 89 54 24 20       	mov    %dx,0x20(%rsp)
_ZL13get_family_idi():
/home/aliha951/ipdps-artifact/gapbs-master/src/taskstats_helper.h:48
  404eed:	8d 50 10             	lea    0x10(%rax),%edx
/home/aliha951/ipdps-artifact/gapbs-master/src/taskstats_helper.h:46
	na->nla_len = NLA_HDRLEN + strlen(TASKSTATS_GENL_NAME) + 1;
  404ef0:	c7 44 24 14 0e 00 02 	movl   $0x2000e,0x14(%rsp)
  404ef7:	00 
/home/aliha951/ipdps-artifact/gapbs-master/src/taskstats_helper.h:48
	req.n.nlmsg_len += NLMSG_ALIGN(na->nla_len);
  404ef8:	89 14 24             	mov    %edx,(%rsp)
/home/aliha951/ipdps-artifact/gapbs-master/src/taskstats_helper.h:50
	if (send(sd, &req, req.n.nlmsg_len, 0) < 0)
  404efb:	e8 80 e9 ff ff       	callq  403880 <send@plt>
  404f00:	48 85 c0             	test   %rax,%rax
  404f03:	78 6b                	js     404f70 <_ZL13get_family_idi+0x110>
/usr/include/x86_64-linux-gnu/bits/socket2.h:44
	return __recv_chk (__fd, __buf, __n, __bos0 (__buf), __flags);

      if (__n > __bos0 (__buf))
	return __recv_chk_warn (__fd, __buf, __n, __bos0 (__buf), __flags);
    }
  return __recv_alias (__fd, __buf, __n, __flags);
  404f05:	31 c9                	xor    %ecx,%ecx
recv():
/usr/include/x86_64-linux-gnu/bits/socket2.h:44
  404f07:	ba 14 02 00 00       	mov    $0x214,%edx
  404f0c:	4c 89 e6             	mov    %r12,%rsi
  404f0f:	89 ef                	mov    %ebp,%edi
  404f11:	e8 fa e8 ff ff       	callq  403810 <recv@plt>
_ZL13get_family_idi():
/home/aliha951/ipdps-artifact/gapbs-master/src/taskstats_helper.h:54
		return -1;

	rep_len = recv(sd, &ans, sizeof(ans), 0);
	if (rep_len < 0 || ans.n.nlmsg_type == NLMSG_ERROR)
  404f16:	85 c0                	test   %eax,%eax
  404f18:	78 56                	js     404f70 <_ZL13get_family_idi+0x110>
/home/aliha951/ipdps-artifact/gapbs-master/src/taskstats_helper.h:54 (discriminator 1)
  404f1a:	66 83 bc 24 24 02 00 	cmpw   $0x2,0x224(%rsp)
  404f21:	00 02 
  404f23:	74 4b                	je     404f70 <_ZL13get_family_idi+0x110>
/home/aliha951/ipdps-artifact/gapbs-master/src/taskstats_helper.h:59
		return -1;

	/* First attr is family name we sent, second should be ID */
	na = (struct nlattr *) GENLMSG_DATA(&ans.n);
	na = (struct nlattr *) ((char*)na + NLA_ALIGN(na->nla_len));
  404f25:	0f b7 84 24 34 02 00 	movzwl 0x234(%rsp),%eax
  404f2c:	00 
  404f2d:	83 c0 03             	add    $0x3,%eax
  404f30:	25 fc ff 01 00       	and    $0x1fffc,%eax
  404f35:	48 8d 84 04 34 02 00 	lea    0x234(%rsp,%rax,1),%rax
  404f3c:	00 
/home/aliha951/ipdps-artifact/gapbs-master/src/taskstats_helper.h:60
	if (na->nla_type == CTRL_ATTR_FAMILY_ID)
  404f3d:	66 83 78 02 01       	cmpw   $0x1,0x2(%rax)
  404f42:	75 2c                	jne    404f70 <_ZL13get_family_idi+0x110>
/home/aliha951/ipdps-artifact/gapbs-master/src/taskstats_helper.h:61
		return *(__u16 *) NLA_DATA(na);
  404f44:	0f b7 40 04          	movzwl 0x4(%rax),%eax
/home/aliha951/ipdps-artifact/gapbs-master/src/taskstats_helper.h:63
	return -1;
}
  404f48:	48 8b b4 24 38 04 00 	mov    0x438(%rsp),%rsi
  404f4f:	00 
  404f50:	64 48 2b 34 25 28 00 	sub    %fs:0x28,%rsi
  404f57:	00 00 
  404f59:	75 1c                	jne    404f77 <_ZL13get_family_idi+0x117>
  404f5b:	48 81 c4 48 04 00 00 	add    $0x448,%rsp
  404f62:	5d                   	pop    %rbp
  404f63:	41 5c                	pop    %r12
  404f65:	c3                   	retq   
  404f66:	66 2e 0f 1f 84 00 00 	nopw   %cs:0x0(%rax,%rax,1)
  404f6d:	00 00 00 
/home/aliha951/ipdps-artifact/gapbs-master/src/taskstats_helper.h:51
		return -1;
  404f70:	b8 ff ff ff ff       	mov    $0xffffffff,%eax
  404f75:	eb d1                	jmp    404f48 <_ZL13get_family_idi+0xe8>
/home/aliha951/ipdps-artifact/gapbs-master/src/taskstats_helper.h:63
}
  404f77:	e8 c4 ea ff ff       	callq  403a40 <__stack_chk_fail@plt>
  404f7c:	0f 1f 40 00          	nopl   0x0(%rax)

0000000000404f80 <_ZL21request_taskstats_pidiiiP9taskstatsPm>:
_ZL21request_taskstats_pidiiiP9taskstatsPm():
/home/aliha951/ipdps-artifact/gapbs-master/src/taskstats_helper.h:80
		return -1;
	}
	return sd;
}

static int request_taskstats_pid(int sd, int family_id, pid_t pid, struct taskstats *out_ts, size_t *out_len) {
  404f80:	41 57                	push   %r15
  404f82:	41 89 d7             	mov    %edx,%r15d
  404f85:	41 56                	push   %r14
  404f87:	41 55                	push   %r13
  404f89:	41 89 fd             	mov    %edi,%r13d
  404f8c:	41 54                	push   %r12
  404f8e:	49 89 cc             	mov    %rcx,%r12
/home/aliha951/ipdps-artifact/gapbs-master/src/taskstats_helper.h:81
	struct msgtemplate req = {0};
  404f91:	b9 42 00 00 00       	mov    $0x42,%ecx
/home/aliha951/ipdps-artifact/gapbs-master/src/taskstats_helper.h:80
static int request_taskstats_pid(int sd, int family_id, pid_t pid, struct taskstats *out_ts, size_t *out_len) {
  404f96:	55                   	push   %rbp
/usr/include/x86_64-linux-gnu/bits/string_fortified.h:71
    {
      __warn_memset_zero_len ();
      return __dest;
    }
#endif
  return __builtin___memset_chk (__dest, __ch, __len, __bos0 (__dest));
  404f97:	49 8d 6c 24 08       	lea    0x8(%r12),%rbp
/home/aliha951/ipdps-artifact/gapbs-master/src/taskstats_helper.h:80
  404f9c:	53                   	push   %rbx
  404f9d:	4c 89 c3             	mov    %r8,%rbx
  404fa0:	48 81 ec 48 04 00 00 	sub    $0x448,%rsp
  404fa7:	64 48 8b 04 25 28 00 	mov    %fs:0x28,%rax
  404fae:	00 00 
  404fb0:	48 89 84 24 38 04 00 	mov    %rax,0x438(%rsp)
  404fb7:	00 
  404fb8:	31 c0                	xor    %eax,%eax
/home/aliha951/ipdps-artifact/gapbs-master/src/taskstats_helper.h:81
	struct msgtemplate req = {0};
  404fba:	48 89 e7             	mov    %rsp,%rdi
/home/aliha951/ipdps-artifact/gapbs-master/src/taskstats_helper.h:85
	struct msgtemplate rep = {0};
	struct nlattr *na;

	*out_len = 0;
  404fbd:	49 c7 00 00 00 00 00 	movq   $0x0,(%r8)
/home/aliha951/ipdps-artifact/gapbs-master/src/taskstats_helper.h:82
	struct msgtemplate rep = {0};
  404fc4:	4c 8d b4 24 20 02 00 	lea    0x220(%rsp),%r14
  404fcb:	00 
/home/aliha951/ipdps-artifact/gapbs-master/src/taskstats_helper.h:81
	struct msgtemplate req = {0};
  404fcc:	f3 48 ab             	rep stos %rax,%es:(%rdi)
/home/aliha951/ipdps-artifact/gapbs-master/src/taskstats_helper.h:82
	struct msgtemplate rep = {0};
  404fcf:	b9 42 00 00 00       	mov    $0x42,%ecx
/home/aliha951/ipdps-artifact/gapbs-master/src/taskstats_helper.h:81
	struct msgtemplate req = {0};
  404fd4:	c7 07 00 00 00 00    	movl   $0x0,(%rdi)
/home/aliha951/ipdps-artifact/gapbs-master/src/taskstats_helper.h:82
	struct msgtemplate rep = {0};
  404fda:	4c 89 f7             	mov    %r14,%rdi
  404fdd:	f3 48 ab             	rep stos %rax,%es:(%rdi)
memset():
/usr/include/x86_64-linux-gnu/bits/string_fortified.h:71
  404fe0:	4c 89 e1             	mov    %r12,%rcx
_ZL21request_taskstats_pidiiiP9taskstatsPm():
/home/aliha951/ipdps-artifact/gapbs-master/src/taskstats_helper.h:82
  404fe3:	c7 07 00 00 00 00    	movl   $0x0,(%rdi)
memset():
/usr/include/x86_64-linux-gnu/bits/string_fortified.h:71
  404fe9:	48 89 ef             	mov    %rbp,%rdi
  404fec:	48 83 e7 f8          	and    $0xfffffffffffffff8,%rdi
  404ff0:	49 c7 04 24 00 00 00 	movq   $0x0,(%r12)
  404ff7:	00 
  404ff8:	49 c7 84 24 a8 01 00 	movq   $0x0,0x1a8(%r12)
  404fff:	00 00 00 00 00 
  405004:	48 29 f9             	sub    %rdi,%rcx
  405007:	81 c1 b0 01 00 00    	add    $0x1b0,%ecx
  40500d:	c1 e9 03             	shr    $0x3,%ecx
  405010:	f3 48 ab             	rep stos %rax,%es:(%rdi)
_ZL21request_taskstats_pidiiiP9taskstatsPm():
/home/aliha951/ipdps-artifact/gapbs-master/src/taskstats_helper.h:90
	memset(out_ts, 0, sizeof(*out_ts));

	req.n.nlmsg_len = NLMSG_LENGTH(GENL_HDRLEN);
	req.n.nlmsg_type = family_id;
	req.n.nlmsg_flags = NLM_F_REQUEST;
  405013:	b8 01 00 00 00       	mov    $0x1,%eax
/home/aliha951/ipdps-artifact/gapbs-master/src/taskstats_helper.h:89
	req.n.nlmsg_type = family_id;
  405018:	66 89 74 24 04       	mov    %si,0x4(%rsp)
/home/aliha951/ipdps-artifact/gapbs-master/src/taskstats_helper.h:88
	req.n.nlmsg_len = NLMSG_LENGTH(GENL_HDRLEN);
  40501d:	c7 04 24 14 00 00 00 	movl   $0x14,(%rsp)
/home/aliha951/ipdps-artifact/gapbs-master/src/taskstats_helper.h:90
	req.n.nlmsg_flags = NLM_F_REQUEST;
  405024:	66 89 44 24 06       	mov    %ax,0x6(%rsp)
/home/aliha951/ipdps-artifact/gapbs-master/src/taskstats_helper.h:91
	req.n.nlmsg_seq = 1;
  405029:	c7 44 24 08 01 00 00 	movl   $0x1,0x8(%rsp)
  405030:	00 
/home/aliha951/ipdps-artifact/gapbs-master/src/taskstats_helper.h:92
	req.n.nlmsg_pid = getpid();
  405031:	e8 ba eb ff ff       	callq  403bf0 <getpid@plt>
/home/aliha951/ipdps-artifact/gapbs-master/src/taskstats_helper.h:93
	req.g.cmd = TASKSTATS_CMD_GET;
  405036:	ba 01 0e 00 00       	mov    $0xe01,%edx
/home/aliha951/ipdps-artifact/gapbs-master/src/taskstats_helper.h:103
  na->nla_type = TASKSTATS_CMD_ATTR_TGID; // Use TGID to get stats for thread group (process) instead of single thread
	na->nla_len = NLA_HDRLEN + sizeof(pid);
	memcpy(NLA_DATA(na), &pid, sizeof(pid));
	req.n.nlmsg_len += NLMSG_ALIGN(na->nla_len);

	if (send(sd, &req, req.n.nlmsg_len, 0) < 0)
  40503b:	31 c9                	xor    %ecx,%ecx
  40503d:	48 89 e6             	mov    %rsp,%rsi
/home/aliha951/ipdps-artifact/gapbs-master/src/taskstats_helper.h:92
	req.n.nlmsg_pid = getpid();
  405040:	89 44 24 0c          	mov    %eax,0xc(%rsp)
/home/aliha951/ipdps-artifact/gapbs-master/src/taskstats_helper.h:101
	req.n.nlmsg_len += NLMSG_ALIGN(na->nla_len);
  405044:	8b 04 24             	mov    (%rsp),%eax
/home/aliha951/ipdps-artifact/gapbs-master/src/taskstats_helper.h:103
	if (send(sd, &req, req.n.nlmsg_len, 0) < 0)
  405047:	44 89 ef             	mov    %r13d,%edi
/home/aliha951/ipdps-artifact/gapbs-master/src/taskstats_helper.h:93
	req.g.cmd = TASKSTATS_CMD_GET;
  40504a:	66 89 54 24 10       	mov    %dx,0x10(%rsp)
/home/aliha951/ipdps-artifact/gapbs-master/src/taskstats_helper.h:101
	req.n.nlmsg_len += NLMSG_ALIGN(na->nla_len);
  40504f:	8d 50 08             	lea    0x8(%rax),%edx
/home/aliha951/ipdps-artifact/gapbs-master/src/taskstats_helper.h:99
	na->nla_len = NLA_HDRLEN + sizeof(pid);
  405052:	c7 44 24 14 08 00 02 	movl   $0x20008,0x14(%rsp)
  405059:	00 
/usr/include/x86_64-linux-gnu/bits/string_fortified.h:34
  return __builtin___memcpy_chk (__dest, __src, __len, __bos0 (__dest));
  40505a:	44 89 7c 24 18       	mov    %r15d,0x18(%rsp)
/home/aliha951/ipdps-artifact/gapbs-master/src/taskstats_helper.h:101
	req.n.nlmsg_len += NLMSG_ALIGN(na->nla_len);
  40505f:	89 14 24             	mov    %edx,(%rsp)
/home/aliha951/ipdps-artifact/gapbs-master/src/taskstats_helper.h:103
	if (send(sd, &req, req.n.nlmsg_len, 0) < 0)
  405062:	e8 19 e8 ff ff       	callq  403880 <send@plt>
  405067:	48 85 c0             	test   %rax,%rax
  40506a:	0f 88 18 01 00 00    	js     405188 <_ZL21request_taskstats_pidiiiP9taskstatsPm+0x208>
/usr/include/x86_64-linux-gnu/bits/socket2.h:44
  405070:	31 c9                	xor    %ecx,%ecx
recv():
/usr/include/x86_64-linux-gnu/bits/socket2.h:44
  405072:	ba 14 02 00 00       	mov    $0x214,%edx
  405077:	4c 89 f6             	mov    %r14,%rsi
  40507a:	44 89 ef             	mov    %r13d,%edi
  40507d:	e8 8e e7 ff ff       	callq  403810 <recv@plt>
_ZL21request_taskstats_pidiiiP9taskstatsPm():
/home/aliha951/ipdps-artifact/gapbs-master/src/taskstats_helper.h:105
		return -1;
	if (recv(sd, &rep, sizeof(rep), 0) < 0)
  405082:	48 85 c0             	test   %rax,%rax
  405085:	0f 88 fd 00 00 00    	js     405188 <_ZL21request_taskstats_pidiiiP9taskstatsPm+0x208>
/home/aliha951/ipdps-artifact/gapbs-master/src/taskstats_helper.h:109
		return -1;

	na = (struct nlattr *) GENLMSG_DATA(&rep.n);
	int rem = rep.n.nlmsg_len - NLMSG_LENGTH(GENL_HDRLEN);
  40508b:	8b 84 24 20 02 00 00 	mov    0x220(%rsp),%eax
  405092:	8d 70 ec             	lea    -0x14(%rax),%esi
/home/aliha951/ipdps-artifact/gapbs-master/src/taskstats_helper.h:110
	while (rem > 0 && na->nla_len >= NLA_HDRLEN && rem >= na->nla_len) {
  405095:	85 f6                	test   %esi,%esi
  405097:	0f 8e eb 00 00 00    	jle    405188 <_ZL21request_taskstats_pidiiiP9taskstatsPm+0x208>
/home/aliha951/ipdps-artifact/gapbs-master/src/taskstats_helper.h:108
	na = (struct nlattr *) GENLMSG_DATA(&rep.n);
  40509d:	48 8d 8c 24 34 02 00 	lea    0x234(%rsp),%rcx
  4050a4:	00 
  4050a5:	eb 29                	jmp    4050d0 <_ZL21request_taskstats_pidiiiP9taskstatsPm+0x150>
  4050a7:	66 0f 1f 84 00 00 00 	nopw   0x0(%rax,%rax,1)
  4050ae:	00 00 
/home/aliha951/ipdps-artifact/gapbs-master/src/taskstats_helper.h:126
				}
				int step2 = NLA_ALIGN(n2->nla_len);
				aggr_len -= step2;
				n2 = (struct nlattr *) ((char*)n2 + step2);
			}
		} else if (na->nla_type == TASKSTATS_TYPE_STATS) {
  4050b0:	66 83 f8 03          	cmp    $0x3,%ax
  4050b4:	0f 84 26 01 00 00    	je     4051e0 <_ZL21request_taskstats_pidiiiP9taskstatsPm+0x260>
/home/aliha951/ipdps-artifact/gapbs-master/src/taskstats_helper.h:133
			if (payload > sizeof(*out_ts)) payload = sizeof(*out_ts);
			memcpy(out_ts, NLA_DATA(na), payload);
			*out_len = payload;
			return 0;
		}
		int step = NLA_ALIGN(na->nla_len);
  4050ba:	83 c2 03             	add    $0x3,%edx
  4050bd:	83 e2 fc             	and    $0xfffffffc,%edx
/home/aliha951/ipdps-artifact/gapbs-master/src/taskstats_helper.h:134
		rem -= step;
  4050c0:	29 d6                	sub    %edx,%esi
/home/aliha951/ipdps-artifact/gapbs-master/src/taskstats_helper.h:135
		na = (struct nlattr *) ((char*)na + step);
  4050c2:	48 63 d2             	movslq %edx,%rdx
  4050c5:	48 01 d1             	add    %rdx,%rcx
/home/aliha951/ipdps-artifact/gapbs-master/src/taskstats_helper.h:110
	while (rem > 0 && na->nla_len >= NLA_HDRLEN && rem >= na->nla_len) {
  4050c8:	85 f6                	test   %esi,%esi
  4050ca:	0f 8e b8 00 00 00    	jle    405188 <_ZL21request_taskstats_pidiiiP9taskstatsPm+0x208>
/home/aliha951/ipdps-artifact/gapbs-master/src/taskstats_helper.h:110 (discriminator 1)
  4050d0:	0f b7 11             	movzwl (%rcx),%edx
  4050d3:	66 83 fa 03          	cmp    $0x3,%dx
  4050d7:	0f 86 ab 00 00 00    	jbe    405188 <_ZL21request_taskstats_pidiiiP9taskstatsPm+0x208>
/home/aliha951/ipdps-artifact/gapbs-master/src/taskstats_helper.h:110 (discriminator 2)
  4050dd:	39 f2                	cmp    %esi,%edx
  4050df:	0f 8f a3 00 00 00    	jg     405188 <_ZL21request_taskstats_pidiiiP9taskstatsPm+0x208>
/home/aliha951/ipdps-artifact/gapbs-master/src/taskstats_helper.h:111
		if (na->nla_type == TASKSTATS_TYPE_AGGR_PID || na->nla_type == TASKSTATS_TYPE_AGGR_TGID) {
  4050e5:	0f b7 41 02          	movzwl 0x2(%rcx),%eax
  4050e9:	8d 78 fc             	lea    -0x4(%rax),%edi
  4050ec:	66 83 ff 01          	cmp    $0x1,%di
  4050f0:	77 be                	ja     4050b0 <_ZL21request_taskstats_pidiiiP9taskstatsPm+0x130>
/home/aliha951/ipdps-artifact/gapbs-master/src/taskstats_helper.h:114
			while (aggr_len > 0 && n2->nla_len >= NLA_HDRLEN && aggr_len >= n2->nla_len) {
  4050f2:	41 89 d0             	mov    %edx,%r8d
/home/aliha951/ipdps-artifact/gapbs-master/src/taskstats_helper.h:113
			struct nlattr *n2 = (struct nlattr *) NLA_DATA(na);
  4050f5:	48 8d 79 04          	lea    0x4(%rcx),%rdi
/home/aliha951/ipdps-artifact/gapbs-master/src/taskstats_helper.h:114
			while (aggr_len > 0 && n2->nla_len >= NLA_HDRLEN && aggr_len >= n2->nla_len) {
  4050f9:	41 83 e8 04          	sub    $0x4,%r8d
  4050fd:	75 1c                	jne    40511b <_ZL21request_taskstats_pidiiiP9taskstatsPm+0x19b>
  4050ff:	eb b9                	jmp    4050ba <_ZL21request_taskstats_pidiiiP9taskstatsPm+0x13a>
  405101:	0f 1f 80 00 00 00 00 	nopl   0x0(%rax)
/home/aliha951/ipdps-artifact/gapbs-master/src/taskstats_helper.h:122
				int step2 = NLA_ALIGN(n2->nla_len);
  405108:	83 c0 03             	add    $0x3,%eax
  40510b:	83 e0 fc             	and    $0xfffffffc,%eax
/home/aliha951/ipdps-artifact/gapbs-master/src/taskstats_helper.h:123
				aggr_len -= step2;
  40510e:	41 29 c0             	sub    %eax,%r8d
/home/aliha951/ipdps-artifact/gapbs-master/src/taskstats_helper.h:124
				n2 = (struct nlattr *) ((char*)n2 + step2);
  405111:	48 98                	cltq   
  405113:	48 01 c7             	add    %rax,%rdi
/home/aliha951/ipdps-artifact/gapbs-master/src/taskstats_helper.h:114
			while (aggr_len > 0 && n2->nla_len >= NLA_HDRLEN && aggr_len >= n2->nla_len) {
  405116:	45 85 c0             	test   %r8d,%r8d
  405119:	7e 9f                	jle    4050ba <_ZL21request_taskstats_pidiiiP9taskstatsPm+0x13a>
/home/aliha951/ipdps-artifact/gapbs-master/src/taskstats_helper.h:114 (discriminator 1)
  40511b:	0f b7 07             	movzwl (%rdi),%eax
  40511e:	66 83 f8 03          	cmp    $0x3,%ax
  405122:	76 96                	jbe    4050ba <_ZL21request_taskstats_pidiiiP9taskstatsPm+0x13a>
/home/aliha951/ipdps-artifact/gapbs-master/src/taskstats_helper.h:114 (discriminator 2)
  405124:	44 39 c0             	cmp    %r8d,%eax
  405127:	7f 91                	jg     4050ba <_ZL21request_taskstats_pidiiiP9taskstatsPm+0x13a>
/home/aliha951/ipdps-artifact/gapbs-master/src/taskstats_helper.h:115
				if (n2->nla_type == TASKSTATS_TYPE_STATS) {
  405129:	66 83 7f 02 03       	cmpw   $0x3,0x2(%rdi)
  40512e:	75 d8                	jne    405108 <_ZL21request_taskstats_pidiiiP9taskstatsPm+0x188>
/home/aliha951/ipdps-artifact/gapbs-master/src/taskstats_helper.h:116
					size_t payload = n2->nla_len - NLA_HDRLEN;
  405130:	83 e8 04             	sub    $0x4,%eax
  405133:	ba b0 01 00 00       	mov    $0x1b0,%edx
/home/aliha951/ipdps-artifact/gapbs-master/src/taskstats_helper.h:118
					memcpy(out_ts, NLA_DATA(n2), payload);
  405138:	48 8d 77 04          	lea    0x4(%rdi),%rsi
/home/aliha951/ipdps-artifact/gapbs-master/src/taskstats_helper.h:116
					size_t payload = n2->nla_len - NLA_HDRLEN;
  40513c:	48 98                	cltq   
/home/aliha951/ipdps-artifact/gapbs-master/src/taskstats_helper.h:117
					if (payload > sizeof(*out_ts)) payload = sizeof(*out_ts);
  40513e:	48 3d b0 01 00 00    	cmp    $0x1b0,%rax
  405144:	48 0f 47 c2          	cmova  %rdx,%rax
/usr/include/x86_64-linux-gnu/bits/string_fortified.h:34
  405148:	83 f8 08             	cmp    $0x8,%eax
memcpy():
/usr/include/x86_64-linux-gnu/bits/string_fortified.h:34
  40514b:	72 6b                	jb     4051b8 <_ZL21request_taskstats_pidiiiP9taskstatsPm+0x238>
  40514d:	48 8b 57 04          	mov    0x4(%rdi),%rdx
_ZL21request_taskstats_pidiiiP9taskstatsPm():
/usr/include/x86_64-linux-gnu/bits/string_fortified.h:34
  405151:	49 89 14 24          	mov    %rdx,(%r12)
memcpy():
/usr/include/x86_64-linux-gnu/bits/string_fortified.h:34
  405155:	89 c2                	mov    %eax,%edx
  405157:	48 89 ef             	mov    %rbp,%rdi
  40515a:	48 8b 4c 16 f8       	mov    -0x8(%rsi,%rdx,1),%rcx
  40515f:	48 83 e7 f8          	and    $0xfffffffffffffff8,%rdi
  405163:	49 89 4c 14 f8       	mov    %rcx,-0x8(%r12,%rdx,1)
  405168:	49 29 fc             	sub    %rdi,%r12
  40516b:	4c 29 e6             	sub    %r12,%rsi
  40516e:	41 01 c4             	add    %eax,%r12d
  405171:	41 c1 ec 03          	shr    $0x3,%r12d
  405175:	44 89 e1             	mov    %r12d,%ecx
  405178:	f3 48 a5             	rep movsq %ds:(%rsi),%es:(%rdi)
_ZL21request_taskstats_pidiiiP9taskstatsPm():
/home/aliha951/ipdps-artifact/gapbs-master/src/taskstats_helper.h:130
			*out_len = payload;
  40517b:	48 89 03             	mov    %rax,(%rbx)
/home/aliha951/ipdps-artifact/gapbs-master/src/taskstats_helper.h:131
			return 0;
  40517e:	31 c0                	xor    %eax,%eax
  405180:	eb 0b                	jmp    40518d <_ZL21request_taskstats_pidiiiP9taskstatsPm+0x20d>
  405182:	66 0f 1f 44 00 00    	nopw   0x0(%rax,%rax,1)
/home/aliha951/ipdps-artifact/gapbs-master/src/taskstats_helper.h:104
		return -1;
  405188:	b8 ff ff ff ff       	mov    $0xffffffff,%eax
/home/aliha951/ipdps-artifact/gapbs-master/src/taskstats_helper.h:138
	}
	return -1; /* Not found */
}
  40518d:	48 8b 9c 24 38 04 00 	mov    0x438(%rsp),%rbx
  405194:	00 
  405195:	64 48 2b 1c 25 28 00 	sub    %fs:0x28,%rbx
  40519c:	00 00 
  40519e:	75 7c                	jne    40521c <_ZL21request_taskstats_pidiiiP9taskstatsPm+0x29c>
  4051a0:	48 81 c4 48 04 00 00 	add    $0x448,%rsp
  4051a7:	5b                   	pop    %rbx
  4051a8:	5d                   	pop    %rbp
  4051a9:	41 5c                	pop    %r12
  4051ab:	41 5d                	pop    %r13
  4051ad:	41 5e                	pop    %r14
  4051af:	41 5f                	pop    %r15
  4051b1:	c3                   	retq   
  4051b2:	66 0f 1f 44 00 00    	nopw   0x0(%rax,%rax,1)
memcpy():
/usr/include/x86_64-linux-gnu/bits/string_fortified.h:34
  4051b8:	a8 04                	test   $0x4,%al
  4051ba:	75 4a                	jne    405206 <_ZL21request_taskstats_pidiiiP9taskstatsPm+0x286>
  4051bc:	85 c0                	test   %eax,%eax
  4051be:	74 bb                	je     40517b <_ZL21request_taskstats_pidiiiP9taskstatsPm+0x1fb>
  4051c0:	0f b6 16             	movzbl (%rsi),%edx
  4051c3:	41 88 14 24          	mov    %dl,(%r12)
  4051c7:	a8 02                	test   $0x2,%al
  4051c9:	74 b0                	je     40517b <_ZL21request_taskstats_pidiiiP9taskstatsPm+0x1fb>
  4051cb:	89 c2                	mov    %eax,%edx
  4051cd:	0f b7 4c 16 fe       	movzwl -0x2(%rsi,%rdx,1),%ecx
  4051d2:	66 41 89 4c 14 fe    	mov    %cx,-0x2(%r12,%rdx,1)
  4051d8:	eb a1                	jmp    40517b <_ZL21request_taskstats_pidiiiP9taskstatsPm+0x1fb>
  4051da:	66 0f 1f 44 00 00    	nopw   0x0(%rax,%rax,1)
_ZL21request_taskstats_pidiiiP9taskstatsPm():
/home/aliha951/ipdps-artifact/gapbs-master/src/taskstats_helper.h:127
			size_t payload = na->nla_len - NLA_HDRLEN;
  4051e0:	8d 42 fc             	lea    -0x4(%rdx),%eax
  4051e3:	ba b0 01 00 00       	mov    $0x1b0,%edx
/home/aliha951/ipdps-artifact/gapbs-master/src/taskstats_helper.h:129
			memcpy(out_ts, NLA_DATA(na), payload);
  4051e8:	48 8d 71 04          	lea    0x4(%rcx),%rsi
/home/aliha951/ipdps-artifact/gapbs-master/src/taskstats_helper.h:127
			size_t payload = na->nla_len - NLA_HDRLEN;
  4051ec:	48 98                	cltq   
/home/aliha951/ipdps-artifact/gapbs-master/src/taskstats_helper.h:128
			if (payload > sizeof(*out_ts)) payload = sizeof(*out_ts);
  4051ee:	48 3d b0 01 00 00    	cmp    $0x1b0,%rax
  4051f4:	48 0f 47 c2          	cmova  %rdx,%rax
memcpy():
/usr/include/x86_64-linux-gnu/bits/string_fortified.h:34
  4051f8:	83 f8 08             	cmp    $0x8,%eax
  4051fb:	72 bb                	jb     4051b8 <_ZL21request_taskstats_pidiiiP9taskstatsPm+0x238>
  4051fd:	48 8b 51 04          	mov    0x4(%rcx),%rdx
  405201:	e9 4b ff ff ff       	jmpq   405151 <_ZL21request_taskstats_pidiiiP9taskstatsPm+0x1d1>
  405206:	8b 16                	mov    (%rsi),%edx
  405208:	41 89 14 24          	mov    %edx,(%r12)
  40520c:	89 c2                	mov    %eax,%edx
  40520e:	8b 4c 16 fc          	mov    -0x4(%rsi,%rdx,1),%ecx
  405212:	41 89 4c 14 fc       	mov    %ecx,-0x4(%r12,%rdx,1)
  405217:	e9 5f ff ff ff       	jmpq   40517b <_ZL21request_taskstats_pidiiiP9taskstatsPm+0x1fb>
_ZL21request_taskstats_pidiiiP9taskstatsPm():
/home/aliha951/ipdps-artifact/gapbs-master/src/taskstats_helper.h:138
}
  40521c:	e8 1f e8 ff ff       	callq  403a40 <__stack_chk_fail@plt>
  405221:	66 66 2e 0f 1f 84 00 	data16 nopw %cs:0x0(%rax,%rax,1)
  405228:	00 00 00 00 
  40522c:	0f 1f 40 00          	nopl   0x0(%rax)

0000000000405230 <_Z12clear_queuesPFvR5stateE._omp_fn.1>:
_Z12clear_queuesPFvR5stateE._omp_fn.1():
/home/aliha951/ipdps-artifact/gapbs-master/src/libpfq_cc_nopt.h:386
  #pragma omp parallel for
  405230:	f3 0f 1e fa          	endbr64 
  405234:	41 56                	push   %r14
  405236:	41 55                	push   %r13
  405238:	41 54                	push   %r12
  40523a:	55                   	push   %rbp
  40523b:	48 89 fd             	mov    %rdi,%rbp
  40523e:	53                   	push   %rbx
  40523f:	e8 8c e9 ff ff       	callq  403bd0 <omp_get_num_threads@plt>
  405244:	89 c3                	mov    %eax,%ebx
  405246:	e8 25 e8 ff ff       	callq  403a70 <omp_get_thread_num@plt>
  40524b:	89 c1                	mov    %eax,%ecx
  40524d:	8b 45 08             	mov    0x8(%rbp),%eax
  405250:	99                   	cltd   
  405251:	f7 fb                	idiv   %ebx
  405253:	39 d1                	cmp    %edx,%ecx
  405255:	0f 8c c0 00 00 00    	jl     40531b <_Z12clear_queuesPFvR5stateE._omp_fn.1+0xeb>
  40525b:	0f af c8             	imul   %eax,%ecx
  40525e:	01 ca                	add    %ecx,%edx
  405260:	8d 0c 10             	lea    (%rax,%rdx,1),%ecx
  405263:	39 ca                	cmp    %ecx,%edx
  405265:	0f 8d a7 00 00 00    	jge    405312 <_Z12clear_queuesPFvR5stateE._omp_fn.1+0xe2>
  40526b:	48 63 d2             	movslq %edx,%rdx
  40526e:	83 e8 01             	sub    $0x1,%eax
  405271:	48 8b 6d 00          	mov    0x0(%rbp),%rbp
  405275:	4c 8d 25 e4 6a 01 00 	lea    0x16ae4(%rip),%r12        # 41bd60 <shipped_queue>
  40527c:	4c 8d 2c 52          	lea    (%rdx,%rdx,2),%r13
  405280:	48 01 c2             	add    %rax,%rdx
  405283:	48 8d 0d d6 82 01 00 	lea    0x182d6(%rip),%rcx        # 41d560 <curr_queue>
  40528a:	49 c1 e5 03          	shl    $0x3,%r13
  40528e:	48 8d 14 52          	lea    (%rdx,%rdx,2),%rdx
  405292:	48 8d 05 df 6a 01 00 	lea    0x16adf(%rip),%rax        # 41bd78 <shipped_queue+0x18>
  405299:	4d 01 ec             	add    %r13,%r12
  40529c:	4c 8d 34 d0          	lea    (%rax,%rdx,8),%r14
  4052a0:	49 01 cd             	add    %rcx,%r13
  4052a3:	0f 1f 44 00 00       	nopl   0x0(%rax,%rax,1)
_ZN9__gnu_cxx17__normal_iteratorIP5stateSt6vectorIS1_SaIS1_EEEC4ERKS2_():
/usr/include/c++/10/bits/stl_iterator.h:996 (discriminator 5)
      _GLIBCXX_CONSTEXPR __normal_iterator() _GLIBCXX_NOEXCEPT
      : _M_current(_Iterator()) { }

      explicit _GLIBCXX20_CONSTEXPR
      __normal_iterator(const _Iterator& __i) _GLIBCXX_NOEXCEPT
      : _M_current(__i) { }
  4052a8:	49 8b 1c 24          	mov    (%r12),%rbx
_Z12resume_queueRSt6vectorI5stateSaIS0_EEPFvRS0_E():
/home/aliha951/ipdps-artifact/gapbs-master/src/libpfq_cc_nopt.h:369 (discriminator 5)
  for (auto rq_it = queue.begin(); rq_it != queue.end(); ++rq_it)
  4052ac:	49 3b 5c 24 08       	cmp    0x8(%r12),%rbx
  4052b1:	74 15                	je     4052c8 <_Z12clear_queuesPFvR5stateE._omp_fn.1+0x98>
  4052b3:	0f 1f 44 00 00       	nopl   0x0(%rax,%rax,1)
/home/aliha951/ipdps-artifact/gapbs-master/src/libpfq_cc_nopt.h:371
    func(*rq_it);
  4052b8:	48 89 df             	mov    %rbx,%rdi
/home/aliha951/ipdps-artifact/gapbs-master/src/libpfq_cc_nopt.h:369
  for (auto rq_it = queue.begin(); rq_it != queue.end(); ++rq_it)
  4052bb:	48 83 c3 10          	add    $0x10,%rbx
/home/aliha951/ipdps-artifact/gapbs-master/src/libpfq_cc_nopt.h:371
    func(*rq_it);
  4052bf:	ff d5                	callq  *%rbp
/home/aliha951/ipdps-artifact/gapbs-master/src/libpfq_cc_nopt.h:369
  for (auto rq_it = queue.begin(); rq_it != queue.end(); ++rq_it)
  4052c1:	49 39 5c 24 08       	cmp    %rbx,0x8(%r12)
  4052c6:	75 f0                	jne    4052b8 <_Z12clear_queuesPFvR5stateE._omp_fn.1+0x88>
_ZN9__gnu_cxx17__normal_iteratorIP5stateSt6vectorIS1_SaIS1_EEEC4ERKS2_():
/usr/include/c++/10/bits/stl_iterator.h:996
  4052c8:	49 8b 5d 00          	mov    0x0(%r13),%rbx
_Z12resume_queueRSt6vectorI5stateSaIS0_EEPFvRS0_E():
/home/aliha951/ipdps-artifact/gapbs-master/src/libpfq_cc_nopt.h:369
  4052cc:	49 3b 5d 08          	cmp    0x8(%r13),%rbx
  4052d0:	74 15                	je     4052e7 <_Z12clear_queuesPFvR5stateE._omp_fn.1+0xb7>
  4052d2:	66 0f 1f 44 00 00    	nopw   0x0(%rax,%rax,1)
/home/aliha951/ipdps-artifact/gapbs-master/src/libpfq_cc_nopt.h:371
    func(*rq_it);
  4052d8:	48 89 df             	mov    %rbx,%rdi
/home/aliha951/ipdps-artifact/gapbs-master/src/libpfq_cc_nopt.h:369
  for (auto rq_it = queue.begin(); rq_it != queue.end(); ++rq_it)
  4052db:	48 83 c3 10          	add    $0x10,%rbx
/home/aliha951/ipdps-artifact/gapbs-master/src/libpfq_cc_nopt.h:371
    func(*rq_it);
  4052df:	ff d5                	callq  *%rbp
/home/aliha951/ipdps-artifact/gapbs-master/src/libpfq_cc_nopt.h:369
  for (auto rq_it = queue.begin(); rq_it != queue.end(); ++rq_it)
  4052e1:	49 39 5d 08          	cmp    %rbx,0x8(%r13)
  4052e5:	75 f1                	jne    4052d8 <_Z12clear_queuesPFvR5stateE._omp_fn.1+0xa8>
_ZNSt6vectorI5stateSaIS0_EE5clearEv():
/usr/include/c++/10/bits/stl_vector.h:1499
       *  pointed-to memory is not touched in any way.  Managing the pointer is
       *  the user's responsibility.
       */
      void
      clear() _GLIBCXX_NOEXCEPT
      { _M_erase_at_end(this->_M_impl._M_start); }
  4052e7:	49 8b 45 00          	mov    0x0(%r13),%rax
_ZNSt6vectorI5stateSaIS0_EE15_M_erase_at_endEPS0_():
/usr/include/c++/10/bits/stl_vector.h:1794
      // Called by erase(q1,q2), clear(), resize(), _M_fill_assign,
      // _M_assign_aux.
      void
      _M_erase_at_end(pointer __pos) _GLIBCXX_NOEXCEPT
      {
	if (size_type __n = this->_M_impl._M_finish - __pos)
  4052eb:	49 3b 45 08          	cmp    0x8(%r13),%rax
  4052ef:	74 04                	je     4052f5 <_Z12clear_queuesPFvR5stateE._omp_fn.1+0xc5>
/usr/include/c++/10/bits/stl_vector.h:1798
	  {
	    std::_Destroy(__pos, this->_M_impl._M_finish,
			  _M_get_Tp_allocator());
	    this->_M_impl._M_finish = __pos;
  4052f1:	49 89 45 08          	mov    %rax,0x8(%r13)
_ZNSt6vectorI5stateSaIS0_EE5clearEv():
/usr/include/c++/10/bits/stl_vector.h:1499
      { _M_erase_at_end(this->_M_impl._M_start); }
  4052f5:	49 8b 04 24          	mov    (%r12),%rax
_ZNSt6vectorI5stateSaIS0_EE15_M_erase_at_endEPS0_():
/usr/include/c++/10/bits/stl_vector.h:1794
	if (size_type __n = this->_M_impl._M_finish - __pos)
  4052f9:	49 3b 44 24 08       	cmp    0x8(%r12),%rax
  4052fe:	74 05                	je     405305 <_Z12clear_queuesPFvR5stateE._omp_fn.1+0xd5>
/usr/include/c++/10/bits/stl_vector.h:1798
	    this->_M_impl._M_finish = __pos;
  405300:	49 89 44 24 08       	mov    %rax,0x8(%r12)
  405305:	49 83 c4 18          	add    $0x18,%r12
  405309:	49 83 c5 18          	add    $0x18,%r13
  40530d:	4d 39 f4             	cmp    %r14,%r12
  405310:	75 96                	jne    4052a8 <_Z12clear_queuesPFvR5stateE._omp_fn.1+0x78>
_Z12clear_queuesPFvR5stateE._omp_fn.1():
/home/aliha951/ipdps-artifact/gapbs-master/src/libpfq_cc_nopt.h:386
  #pragma omp parallel for
  405312:	5b                   	pop    %rbx
  405313:	5d                   	pop    %rbp
  405314:	41 5c                	pop    %r12
  405316:	41 5d                	pop    %r13
  405318:	41 5e                	pop    %r14
  40531a:	c3                   	retq   
  40531b:	83 c0 01             	add    $0x1,%eax
  40531e:	31 d2                	xor    %edx,%edx
  405320:	e9 36 ff ff ff       	jmpq   40525b <_Z12clear_queuesPFvR5stateE._omp_fn.1+0x2b>
  405325:	66 66 2e 0f 1f 84 00 	data16 nopw %cs:0x0(%rax,%rax,1)
  40532c:	00 00 00 00 

0000000000405330 <_Z8CompressRK8CSRGraphIiiLb1EER7pvectorIiE._omp_fn.0>:
_Z8CompressRK8CSRGraphIiiLb1EER7pvectorIiE._omp_fn.0():
/home/aliha951/ipdps-artifact/gapbs-master/src/cc_batching_nopt.cc:61
  #pragma omp parallel for schedule(dynamic, 16384)
  405330:	f3 0f 1e fa          	endbr64 
  405334:	41 54                	push   %r12
  405336:	b9 00 40 00 00       	mov    $0x4000,%ecx
  40533b:	ba 01 00 00 00       	mov    $0x1,%edx
  405340:	55                   	push   %rbp
  405341:	53                   	push   %rbx
  405342:	48 89 fb             	mov    %rdi,%rbx
  405345:	48 83 ec 20          	sub    $0x20,%rsp
  405349:	64 48 8b 04 25 28 00 	mov    %fs:0x28,%rax
  405350:	00 00 
  405352:	48 89 44 24 18       	mov    %rax,0x18(%rsp)
  405357:	31 c0                	xor    %eax,%eax
_ZNK8CSRGraphIiiLb1EE9num_nodesEv():
/home/aliha951/ipdps-artifact/gapbs-master/src/graph.h:194
  bool directed() const {
    return directed_;
  }

  int64_t num_nodes() const {
    return num_nodes_;
  405359:	48 8b 07             	mov    (%rdi),%rax
  40535c:	4c 8d 64 24 10       	lea    0x10(%rsp),%r12
  405361:	48 8d 6c 24 08       	lea    0x8(%rsp),%rbp
  405366:	31 ff                	xor    %edi,%edi
  405368:	4d 89 e1             	mov    %r12,%r9
  40536b:	49 89 e8             	mov    %rbp,%r8
  40536e:	48 63 70 08          	movslq 0x8(%rax),%rsi
  405372:	e8 59 e5 ff ff       	callq  4038d0 <GOMP_loop_nonmonotonic_dynamic_start@plt>
  405377:	84 c0                	test   %al,%al
  405379:	75 34                	jne    4053af <_Z8CompressRK8CSRGraphIiiLb1EER7pvectorIiE._omp_fn.0+0x7f>
  40537b:	e8 90 e3 ff ff       	callq  403710 <GOMP_loop_end_nowait@plt>
_Z8CompressRK8CSRGraphIiiLb1EER7pvectorIiE._omp_fn.0():
/home/aliha951/ipdps-artifact/gapbs-master/src/cc_batching_nopt.cc:61
  405380:	48 8b 44 24 18       	mov    0x18(%rsp),%rax
  405385:	64 48 2b 04 25 28 00 	sub    %fs:0x28,%rax
  40538c:	00 00 
  40538e:	75 6b                	jne    4053fb <_Z8CompressRK8CSRGraphIiiLb1EER7pvectorIiE._omp_fn.0+0xcb>
  405390:	48 83 c4 20          	add    $0x20,%rsp
  405394:	5b                   	pop    %rbx
  405395:	5d                   	pop    %rbp
  405396:	41 5c                	pop    %r12
  405398:	c3                   	retq   
  405399:	0f 1f 80 00 00 00 00 	nopl   0x0(%rax)
  4053a0:	4c 89 e6             	mov    %r12,%rsi
  4053a3:	48 89 ef             	mov    %rbp,%rdi
  4053a6:	e8 85 e6 ff ff       	callq  403a30 <GOMP_loop_nonmonotonic_dynamic_next@plt>
  4053ab:	84 c0                	test   %al,%al
  4053ad:	74 cc                	je     40537b <_Z8CompressRK8CSRGraphIiiLb1EER7pvectorIiE._omp_fn.0+0x4b>
_ZN7pvectorIiEixEm():
/home/aliha951/ipdps-artifact/gapbs-master/src/pvector.h:116
    reserve(num_elements);
    end_size_ = start_ + num_elements;
  }

  T_& operator[](size_t n) {
    return start_[n];
  4053af:	48 8b 53 08          	mov    0x8(%rbx),%rdx
  4053b3:	48 8b 44 24 08       	mov    0x8(%rsp),%rax
  4053b8:	8b 7c 24 10          	mov    0x10(%rsp),%edi
  4053bc:	48 8b 0a             	mov    (%rdx),%rcx
  4053bf:	89 c6                	mov    %eax,%esi
_Z8CompressRK8CSRGraphIiiLb1EER7pvectorIiE._omp_fn.0():
/home/aliha951/ipdps-artifact/gapbs-master/src/cc_batching_nopt.cc:63
    while (comp[n] != comp[comp[n]]) {
  4053c1:	48 98                	cltq   
  4053c3:	8b 14 81             	mov    (%rcx,%rax,4),%edx
  4053c6:	66 2e 0f 1f 84 00 00 	nopw   %cs:0x0(%rax,%rax,1)
  4053cd:	00 00 00 
/home/aliha951/ipdps-artifact/gapbs-master/src/cc_batching_nopt.cc:63 (discriminator 1)
  4053d0:	48 63 c2             	movslq %edx,%rax
  4053d3:	8b 04 81             	mov    (%rcx,%rax,4),%eax
  4053d6:	39 d0                	cmp    %edx,%eax
  4053d8:	74 12                	je     4053ec <_Z8CompressRK8CSRGraphIiiLb1EER7pvectorIiE._omp_fn.0+0xbc>
/home/aliha951/ipdps-artifact/gapbs-master/src/cc_batching_nopt.cc:63
  4053da:	48 63 d6             	movslq %esi,%rdx
/home/aliha951/ipdps-artifact/gapbs-master/src/cc_batching_nopt.cc:64
      comp[n] = comp[comp[n]];
  4053dd:	89 04 91             	mov    %eax,(%rcx,%rdx,4)
/home/aliha951/ipdps-artifact/gapbs-master/src/cc_batching_nopt.cc:63
    while (comp[n] != comp[comp[n]]) {
  4053e0:	89 c2                	mov    %eax,%edx
  4053e2:	48 63 c2             	movslq %edx,%rax
  4053e5:	8b 04 81             	mov    (%rcx,%rax,4),%eax
  4053e8:	39 d0                	cmp    %edx,%eax
  4053ea:	75 ee                	jne    4053da <_Z8CompressRK8CSRGraphIiiLb1EER7pvectorIiE._omp_fn.0+0xaa>
  4053ec:	83 c6 01             	add    $0x1,%esi
  4053ef:	39 f7                	cmp    %esi,%edi
  4053f1:	7e ad                	jle    4053a0 <_Z8CompressRK8CSRGraphIiiLb1EER7pvectorIiE._omp_fn.0+0x70>
  4053f3:	48 63 c6             	movslq %esi,%rax
  4053f6:	8b 14 81             	mov    (%rcx,%rax,4),%edx
  4053f9:	eb d5                	jmp    4053d0 <_Z8CompressRK8CSRGraphIiiLb1EER7pvectorIiE._omp_fn.0+0xa0>
/home/aliha951/ipdps-artifact/gapbs-master/src/cc_batching_nopt.cc:61
  #pragma omp parallel for schedule(dynamic, 16384)
  4053fb:	e8 40 e6 ff ff       	callq  403a40 <__stack_chk_fail@plt>

0000000000405400 <_Z8AfforestRK8CSRGraphIiiLb1EEbi._omp_fn.0>:
_Z8AfforestRK8CSRGraphIiiLb1EEbi._omp_fn.0():
/home/aliha951/ipdps-artifact/gapbs-master/src/cc_batching_nopt.cc:101
  #pragma omp parallel for
  405400:	f3 0f 1e fa          	endbr64 
  405404:	55                   	push   %rbp
  405405:	53                   	push   %rbx
  405406:	48 89 fb             	mov    %rdi,%rbx
  405409:	48 83 ec 08          	sub    $0x8,%rsp
  40540d:	e8 be e7 ff ff       	callq  403bd0 <omp_get_num_threads@plt>
  405412:	89 c5                	mov    %eax,%ebp
  405414:	e8 57 e6 ff ff       	callq  403a70 <omp_get_thread_num@plt>
  405419:	89 c1                	mov    %eax,%ecx
_ZNK8CSRGraphIiiLb1EE9num_nodesEv():
/home/aliha951/ipdps-artifact/gapbs-master/src/graph.h:194
  40541b:	48 8b 03             	mov    (%rbx),%rax
_Z8AfforestRK8CSRGraphIiiLb1EEbi._omp_fn.0():
/home/aliha951/ipdps-artifact/gapbs-master/src/cc_batching_nopt.cc:102
  for (NodeID n = 0; n < g.num_nodes(); n++)
  40541e:	48 8b 40 08          	mov    0x8(%rax),%rax
  405422:	99                   	cltd   
  405423:	f7 fd                	idiv   %ebp
  405425:	39 d1                	cmp    %edx,%ecx
  405427:	0f 8c a3 00 00 00    	jl     4054d0 <_Z8AfforestRK8CSRGraphIiiLb1EEbi._omp_fn.0+0xd0>
  40542d:	0f af c8             	imul   %eax,%ecx
  405430:	01 ca                	add    %ecx,%edx
  405432:	8d 3c 10             	lea    (%rax,%rdx,1),%edi
  405435:	39 fa                	cmp    %edi,%edx
  405437:	0f 8d 86 00 00 00    	jge    4054c3 <_Z8AfforestRK8CSRGraphIiiLb1EEbi._omp_fn.0+0xc3>
_ZN7pvectorIiEixEm():
/home/aliha951/ipdps-artifact/gapbs-master/src/pvector.h:116
  40543d:	48 8b 4b 08          	mov    0x8(%rbx),%rcx
  405441:	4c 8b 01             	mov    (%rcx),%r8
  405444:	8d 48 ff             	lea    -0x1(%rax),%ecx
  405447:	83 f9 02             	cmp    $0x2,%ecx
  40544a:	76 54                	jbe    4054a0 <_Z8AfforestRK8CSRGraphIiiLb1EEbi._omp_fn.0+0xa0>
  40544c:	89 c6                	mov    %eax,%esi
  40544e:	66 0f 6e da          	movd   %edx,%xmm3
  405452:	48 63 ca             	movslq %edx,%rcx
  405455:	66 0f 6f 15 63 0c 01 	movdqa 0x10c63(%rip),%xmm2        # 4160c0 <_ZZNSt8__detail18__to_chars_10_implIjEEvPcjT_E8__digits+0xe0>
  40545c:	00 
  40545d:	c1 ee 02             	shr    $0x2,%esi
  405460:	66 0f 70 c3 00       	pshufd $0x0,%xmm3,%xmm0
  405465:	49 8d 0c 88          	lea    (%r8,%rcx,4),%rcx
  405469:	48 c1 e6 04          	shl    $0x4,%rsi
  40546d:	66 0f fe 05 3b 0c 01 	paddd  0x10c3b(%rip),%xmm0        # 4160b0 <_ZZNSt8__detail18__to_chars_10_implIjEEvPcjT_E8__digits+0xd0>
  405474:	00 
  405475:	48 01 ce             	add    %rcx,%rsi
  405478:	0f 1f 84 00 00 00 00 	nopl   0x0(%rax,%rax,1)
  40547f:	00 
  405480:	66 0f 6f c8          	movdqa %xmm0,%xmm1
  405484:	48 83 c1 10          	add    $0x10,%rcx
  405488:	66 0f fe c2          	paddd  %xmm2,%xmm0
_Z8AfforestRK8CSRGraphIiiLb1EEbi._omp_fn.0():
/home/aliha951/ipdps-artifact/gapbs-master/src/cc_batching_nopt.cc:103 (discriminator 1)
    comp[n] = n;
  40548c:	0f 11 49 f0          	movups %xmm1,-0x10(%rcx)
  405490:	48 39 f1             	cmp    %rsi,%rcx
  405493:	75 eb                	jne    405480 <_Z8AfforestRK8CSRGraphIiiLb1EEbi._omp_fn.0+0x80>
  405495:	89 c1                	mov    %eax,%ecx
  405497:	83 e1 fc             	and    $0xfffffffc,%ecx
  40549a:	01 ca                	add    %ecx,%edx
  40549c:	39 c8                	cmp    %ecx,%eax
  40549e:	74 23                	je     4054c3 <_Z8AfforestRK8CSRGraphIiiLb1EEbi._omp_fn.0+0xc3>
/home/aliha951/ipdps-artifact/gapbs-master/src/cc_batching_nopt.cc:103
  4054a0:	48 63 c2             	movslq %edx,%rax
  4054a3:	41 89 14 80          	mov    %edx,(%r8,%rax,4)
  4054a7:	8d 42 01             	lea    0x1(%rdx),%eax
  4054aa:	39 c7                	cmp    %eax,%edi
  4054ac:	7e 15                	jle    4054c3 <_Z8AfforestRK8CSRGraphIiiLb1EEbi._omp_fn.0+0xc3>
  4054ae:	48 63 c8             	movslq %eax,%rcx
  4054b1:	83 c2 02             	add    $0x2,%edx
  4054b4:	41 89 04 88          	mov    %eax,(%r8,%rcx,4)
  4054b8:	39 d7                	cmp    %edx,%edi
  4054ba:	7e 07                	jle    4054c3 <_Z8AfforestRK8CSRGraphIiiLb1EEbi._omp_fn.0+0xc3>
  4054bc:	48 63 c2             	movslq %edx,%rax
  4054bf:	41 89 14 80          	mov    %edx,(%r8,%rax,4)
/home/aliha951/ipdps-artifact/gapbs-master/src/cc_batching_nopt.cc:101
  #pragma omp parallel for
  4054c3:	48 83 c4 08          	add    $0x8,%rsp
  4054c7:	5b                   	pop    %rbx
  4054c8:	5d                   	pop    %rbp
  4054c9:	c3                   	retq   
  4054ca:	66 0f 1f 44 00 00    	nopw   0x0(%rax,%rax,1)
  4054d0:	83 c0 01             	add    $0x1,%eax
/home/aliha951/ipdps-artifact/gapbs-master/src/cc_batching_nopt.cc:102
  for (NodeID n = 0; n < g.num_nodes(); n++)
  4054d3:	31 d2                	xor    %edx,%edx
  4054d5:	e9 53 ff ff ff       	jmpq   40542d <_Z8AfforestRK8CSRGraphIiiLb1EEbi._omp_fn.0+0x2d>
  4054da:	66 0f 1f 44 00 00    	nopw   0x0(%rax,%rax,1)

00000000004054e0 <_ZN8CSRGraphIiiLb1EE8GenIndexERK7pvectorIlEPi._omp_fn.0>:
_ZN8CSRGraphIiiLb1EE8GenIndexERK7pvectorIlEPi._omp_fn.0():
/home/aliha951/ipdps-artifact/gapbs-master/src/graph.h:245
  }

  static DestID_** GenIndex(const pvector<SGOffset> &offsets, DestID_* neighs) {
    NodeID_ length = offsets.size();
    DestID_** index = new DestID_*[length];
    #pragma omp parallel for
  4054e0:	f3 0f 1e fa          	endbr64 
  4054e4:	55                   	push   %rbp
  4054e5:	53                   	push   %rbx
  4054e6:	48 89 fb             	mov    %rdi,%rbx
  4054e9:	48 83 ec 08          	sub    $0x8,%rsp
  4054ed:	e8 de e6 ff ff       	callq  403bd0 <omp_get_num_threads@plt>
  4054f2:	89 c5                	mov    %eax,%ebp
  4054f4:	e8 77 e5 ff ff       	callq  403a70 <omp_get_thread_num@plt>
  4054f9:	89 c1                	mov    %eax,%ecx
  4054fb:	8b 43 18             	mov    0x18(%rbx),%eax
  4054fe:	99                   	cltd   
  4054ff:	f7 fd                	idiv   %ebp
  405501:	39 d1                	cmp    %edx,%ecx
  405503:	7c 43                	jl     405548 <_ZN8CSRGraphIiiLb1EE8GenIndexERK7pvectorIlEPi._omp_fn.0+0x68>
  405505:	0f af c8             	imul   %eax,%ecx
  405508:	01 ca                	add    %ecx,%edx
  40550a:	01 d0                	add    %edx,%eax
  40550c:	39 c2                	cmp    %eax,%edx
  40550e:	7d 2c                	jge    40553c <_ZN8CSRGraphIiiLb1EE8GenIndexERK7pvectorIlEPi._omp_fn.0+0x5c>
_ZNK7pvectorIlEixEm():
/home/aliha951/ipdps-artifact/gapbs-master/src/pvector.h:120
  }

  const T_& operator[](size_t n) const {
    return start_[n];
  405510:	48 8b 0b             	mov    (%rbx),%rcx
_ZN8CSRGraphIiiLb1EE8GenIndexERK7pvectorIlEPi._omp_fn.0():
/home/aliha951/ipdps-artifact/gapbs-master/src/graph.h:245
  405513:	4c 8b 43 10          	mov    0x10(%rbx),%r8
  405517:	48 63 d2             	movslq %edx,%rdx
  40551a:	48 8b 7b 08          	mov    0x8(%rbx),%rdi
_ZNK7pvectorIlEixEm():
/home/aliha951/ipdps-artifact/gapbs-master/src/pvector.h:120
  40551e:	48 8b 31             	mov    (%rcx),%rsi
  405521:	0f 1f 80 00 00 00 00 	nopl   0x0(%rax)
_ZN8CSRGraphIiiLb1EE8GenIndexERK7pvectorIlEPi._omp_fn.0():
/home/aliha951/ipdps-artifact/gapbs-master/src/graph.h:247 (discriminator 1)
    for (NodeID_ n=0; n < length; n++)
      index[n] = neighs + offsets[n];
  405528:	48 8b 0c d6          	mov    (%rsi,%rdx,8),%rcx
  40552c:	48 8d 0c 8f          	lea    (%rdi,%rcx,4),%rcx
  405530:	49 89 0c d0          	mov    %rcx,(%r8,%rdx,8)
  405534:	48 83 c2 01          	add    $0x1,%rdx
  405538:	39 d0                	cmp    %edx,%eax
  40553a:	7f ec                	jg     405528 <_ZN8CSRGraphIiiLb1EE8GenIndexERK7pvectorIlEPi._omp_fn.0+0x48>
/home/aliha951/ipdps-artifact/gapbs-master/src/graph.h:245
    #pragma omp parallel for
  40553c:	48 83 c4 08          	add    $0x8,%rsp
  405540:	5b                   	pop    %rbx
  405541:	5d                   	pop    %rbp
  405542:	c3                   	retq   
  405543:	0f 1f 44 00 00       	nopl   0x0(%rax,%rax,1)
  405548:	83 c0 01             	add    $0x1,%eax
  40554b:	31 d2                	xor    %edx,%edx
  40554d:	eb b6                	jmp    405505 <_ZN8CSRGraphIiiLb1EE8GenIndexERK7pvectorIlEPi._omp_fn.0+0x25>
  40554f:	90                   	nop

0000000000405550 <_ZN7pvectorI8EdgePairIiiEE7reserveEm._omp_fn.0>:
_ZN7pvectorI8EdgePairIiiEE7reserveEm._omp_fn.0():
/home/aliha951/ipdps-artifact/gapbs-master/src/pvector.h:86
      #pragma omp parallel for
  405550:	f3 0f 1e fa          	endbr64 
  405554:	41 55                	push   %r13
  405556:	41 54                	push   %r12
  405558:	55                   	push   %rbp
  405559:	53                   	push   %rbx
  40555a:	48 83 ec 08          	sub    $0x8,%rsp
  40555e:	48 8b 07             	mov    (%rdi),%rax
_ZNK7pvectorI8EdgePairIiiEE4sizeEv():
/home/aliha951/ipdps-artifact/gapbs-master/src/pvector.h:143
  size_t capacity() const {
    return end_capacity_ - start_;
  }

  size_t size() const {
    return end_size_ - start_;
  405561:	4c 8b 20             	mov    (%rax),%r12
  405564:	48 8b 40 08          	mov    0x8(%rax),%rax
  405568:	4c 29 e0             	sub    %r12,%rax
  40556b:	48 c1 f8 03          	sar    $0x3,%rax
  40556f:	74 50                	je     4055c1 <_ZN7pvectorI8EdgePairIiiEE7reserveEm._omp_fn.0+0x71>
  405571:	49 89 fd             	mov    %rdi,%r13
  405574:	48 89 c3             	mov    %rax,%rbx
  405577:	e8 54 e6 ff ff       	callq  403bd0 <omp_get_num_threads@plt>
  40557c:	89 c5                	mov    %eax,%ebp
  40557e:	e8 ed e4 ff ff       	callq  403a70 <omp_get_thread_num@plt>
  405583:	48 63 f5             	movslq %ebp,%rsi
  405586:	31 d2                	xor    %edx,%edx
  405588:	48 63 c8             	movslq %eax,%rcx
  40558b:	48 89 d8             	mov    %rbx,%rax
  40558e:	48 f7 f6             	div    %rsi
  405591:	48 39 d1             	cmp    %rdx,%rcx
  405594:	72 3a                	jb     4055d0 <_ZN7pvectorI8EdgePairIiiEE7reserveEm._omp_fn.0+0x80>
  405596:	48 0f af c8          	imul   %rax,%rcx
  40559a:	48 01 ca             	add    %rcx,%rdx
  40559d:	48 01 d0             	add    %rdx,%rax
  4055a0:	48 39 c2             	cmp    %rax,%rdx
  4055a3:	73 1c                	jae    4055c1 <_ZN7pvectorI8EdgePairIiiEE7reserveEm._omp_fn.0+0x71>
_ZN7pvectorI8EdgePairIiiEE7reserveEm._omp_fn.0():
/home/aliha951/ipdps-artifact/gapbs-master/src/pvector.h:86
      #pragma omp parallel for
  4055a5:	49 8b 75 08          	mov    0x8(%r13),%rsi
  4055a9:	0f 1f 80 00 00 00 00 	nopl   0x0(%rax)
/home/aliha951/ipdps-artifact/gapbs-master/src/pvector.h:88 (discriminator 1)
        new_range[i] = start_[i];
  4055b0:	49 8b 0c d4          	mov    (%r12,%rdx,8),%rcx
  4055b4:	48 89 0c d6          	mov    %rcx,(%rsi,%rdx,8)
  4055b8:	48 83 c2 01          	add    $0x1,%rdx
  4055bc:	48 39 d0             	cmp    %rdx,%rax
  4055bf:	75 ef                	jne    4055b0 <_ZN7pvectorI8EdgePairIiiEE7reserveEm._omp_fn.0+0x60>
/home/aliha951/ipdps-artifact/gapbs-master/src/pvector.h:86
      #pragma omp parallel for
  4055c1:	48 83 c4 08          	add    $0x8,%rsp
  4055c5:	5b                   	pop    %rbx
  4055c6:	5d                   	pop    %rbp
  4055c7:	41 5c                	pop    %r12
  4055c9:	41 5d                	pop    %r13
  4055cb:	c3                   	retq   
  4055cc:	0f 1f 40 00          	nopl   0x0(%rax)
  4055d0:	48 83 c0 01          	add    $0x1,%rax
_ZNK7pvectorI8EdgePairIiiEE4sizeEv():
/home/aliha951/ipdps-artifact/gapbs-master/src/pvector.h:143
    return end_size_ - start_;
  4055d4:	31 d2                	xor    %edx,%edx
  4055d6:	eb be                	jmp    405596 <_ZN7pvectorI8EdgePairIiiEE7reserveEm._omp_fn.0+0x46>
_ZN7pvectorI8EdgePairIiiEE7reserveEm._omp_fn.0():
/home/aliha951/ipdps-artifact/gapbs-master/src/pvector.h:143
  4055d8:	0f 1f 84 00 00 00 00 	nopl   0x0(%rax,%rax,1)
  4055df:	00 

00000000004055e0 <_ZN11BuilderBaseIiiiLb1EE12CountDegreesERK7pvectorI8EdgePairIiiEEb._omp_fn.0>:
_ZN11BuilderBaseIiiiLb1EE12CountDegreesERK7pvectorI8EdgePairIiiEEb._omp_fn.0():
/home/aliha951/ipdps-artifact/gapbs-master/src/builder.h:82
    return max_seen;
  }

  pvector<NodeID_> CountDegrees(const EdgeList &el, bool transpose) {
    pvector<NodeID_> degrees(num_nodes_, 0);
    #pragma omp parallel for
  4055e0:	f3 0f 1e fa          	endbr64 
  4055e4:	41 55                	push   %r13
  4055e6:	41 54                	push   %r12
  4055e8:	55                   	push   %rbp
  4055e9:	53                   	push   %rbx
  4055ea:	48 83 ec 08          	sub    $0x8,%rsp
/home/aliha951/ipdps-artifact/gapbs-master/src/builder.h:83
    for (auto it = el.begin(); it < el.end(); it++) {
  4055ee:	48 8b 47 08          	mov    0x8(%rdi),%rax
_ZNK7pvectorI8EdgePairIiiEE5beginEv():
/home/aliha951/ipdps-artifact/gapbs-master/src/pvector.h:147
  }

  iterator begin() const {
    return start_;
  4055f2:	4c 8b 20             	mov    (%rax),%r12
_ZNK7pvectorI8EdgePairIiiEE3endEv():
/home/aliha951/ipdps-artifact/gapbs-master/src/pvector.h:151
  }

  iterator end() const {
    return end_size_;
  4055f5:	4c 8b 68 08          	mov    0x8(%rax),%r13
  4055f9:	4d 39 e5             	cmp    %r12,%r13
  4055fc:	0f 86 8a 00 00 00    	jbe    40568c <_ZN11BuilderBaseIiiiLb1EE12CountDegreesERK7pvectorI8EdgePairIiiEEb._omp_fn.0+0xac>
  405602:	48 89 fb             	mov    %rdi,%rbx
  405605:	e8 c6 e5 ff ff       	callq  403bd0 <omp_get_num_threads@plt>
  40560a:	48 63 e8             	movslq %eax,%rbp
  40560d:	e8 5e e4 ff ff       	callq  403a70 <omp_get_thread_num@plt>
  405612:	48 63 c8             	movslq %eax,%rcx
  405615:	49 8d 45 07          	lea    0x7(%r13),%rax
  405619:	4c 29 e0             	sub    %r12,%rax
  40561c:	48 89 c2             	mov    %rax,%rdx
  40561f:	48 8d 40 07          	lea    0x7(%rax),%rax
  405623:	48 0f 49 c2          	cmovns %rdx,%rax
  405627:	48 c1 f8 03          	sar    $0x3,%rax
  40562b:	48 99                	cqto   
  40562d:	48 f7 fd             	idiv   %rbp
  405630:	48 39 d1             	cmp    %rdx,%rcx
  405633:	7c 6b                	jl     4056a0 <_ZN11BuilderBaseIiiiLb1EE12CountDegreesERK7pvectorI8EdgePairIiiEEb._omp_fn.0+0xc0>
  405635:	48 0f af c8          	imul   %rax,%rcx
  405639:	48 01 ca             	add    %rcx,%rdx
  40563c:	48 01 d0             	add    %rdx,%rax
  40563f:	48 39 c2             	cmp    %rax,%rdx
  405642:	7d 48                	jge    40568c <_ZN11BuilderBaseIiiiLb1EE12CountDegreesERK7pvectorI8EdgePairIiiEEb._omp_fn.0+0xac>
  405644:	80 7b 18 00          	cmpb   $0x0,0x18(%rbx)
_ZN11BuilderBaseIiiiLb1EE12CountDegreesERK7pvectorI8EdgePairIiiEEb._omp_fn.0():
/home/aliha951/ipdps-artifact/gapbs-master/src/builder.h:82
    #pragma omp parallel for
  405648:	48 8b 3b             	mov    (%rbx),%rdi
  40564b:	49 8d 14 d4          	lea    (%r12,%rdx,8),%rdx
  40564f:	4d 8d 04 c4          	lea    (%r12,%rax,8),%r8
  405653:	75 53                	jne    4056a8 <_ZN11BuilderBaseIiiiLb1EE12CountDegreesERK7pvectorI8EdgePairIiiEEb._omp_fn.0+0xc8>
  405655:	0f 1f 00             	nopl   (%rax)
_ZN7pvectorIiEixEm():
/home/aliha951/ipdps-artifact/gapbs-master/src/pvector.h:116
    return start_[n];
  405658:	48 8b 4b 10          	mov    0x10(%rbx),%rcx
_ZN11BuilderBaseIiiiLb1EE12CountDegreesERK7pvectorI8EdgePairIiiEEb._omp_fn.0():
/home/aliha951/ipdps-artifact/gapbs-master/src/builder.h:84
      Edge e = *it;
  40565c:	48 63 42 04          	movslq 0x4(%rdx),%rax
/home/aliha951/ipdps-artifact/gapbs-master/src/builder.h:86
      if (symmetrize_ || (!symmetrize_ && !transpose))
        fetch_and_add(degrees[e.u], 1);
  405660:	48 63 32             	movslq (%rdx),%rsi
_Z13fetch_and_addIiiET_RS0_T0_():
/home/aliha951/ipdps-artifact/gapbs-master/src/platform_atomics.h:26

    // gcc/clang/icc instrinsics

    template<typename T, typename U>
    T fetch_and_add(T &x, U inc) {
      return __sync_fetch_and_add(&x, inc);
  405663:	48 8b 09             	mov    (%rcx),%rcx
  405666:	f0 83 04 b1 01       	lock addl $0x1,(%rcx,%rsi,4)
_ZN11BuilderBaseIiiiLb1EE12CountDegreesERK7pvectorI8EdgePairIiiEEb._omp_fn.0():
/home/aliha951/ipdps-artifact/gapbs-master/src/builder.h:87
      if ((symmetrize_ && !in_place_) || (!symmetrize_ && transpose))
  40566b:	80 7f 08 00          	cmpb   $0x0,0x8(%rdi)
  40566f:	74 12                	je     405683 <_ZN11BuilderBaseIiiiLb1EE12CountDegreesERK7pvectorI8EdgePairIiiEEb._omp_fn.0+0xa3>
  405671:	80 7f 0a 00          	cmpb   $0x0,0xa(%rdi)
  405675:	75 0c                	jne    405683 <_ZN11BuilderBaseIiiiLb1EE12CountDegreesERK7pvectorI8EdgePairIiiEEb._omp_fn.0+0xa3>
_ZN7pvectorIiEixEm():
/home/aliha951/ipdps-artifact/gapbs-master/src/pvector.h:116
  405677:	48 8b 4b 10          	mov    0x10(%rbx),%rcx
_Z13fetch_and_addIiiET_RS0_T0_():
/home/aliha951/ipdps-artifact/gapbs-master/src/platform_atomics.h:26
  40567b:	48 8b 09             	mov    (%rcx),%rcx
  40567e:	f0 83 04 81 01       	lock addl $0x1,(%rcx,%rax,4)
  405683:	48 83 c2 08          	add    $0x8,%rdx
  405687:	49 39 d0             	cmp    %rdx,%r8
  40568a:	77 cc                	ja     405658 <_ZN11BuilderBaseIiiiLb1EE12CountDegreesERK7pvectorI8EdgePairIiiEEb._omp_fn.0+0x78>
_ZN11BuilderBaseIiiiLb1EE12CountDegreesERK7pvectorI8EdgePairIiiEEb._omp_fn.0():
/home/aliha951/ipdps-artifact/gapbs-master/src/builder.h:82
    #pragma omp parallel for
  40568c:	48 83 c4 08          	add    $0x8,%rsp
  405690:	5b                   	pop    %rbx
  405691:	5d                   	pop    %rbp
  405692:	41 5c                	pop    %r12
  405694:	41 5d                	pop    %r13
  405696:	c3                   	retq   
  405697:	66 0f 1f 84 00 00 00 	nopw   0x0(%rax,%rax,1)
  40569e:	00 00 
  4056a0:	48 83 c0 01          	add    $0x1,%rax
_ZNK7pvectorI8EdgePairIiiEE3endEv():
/home/aliha951/ipdps-artifact/gapbs-master/src/pvector.h:151
    return end_size_;
  4056a4:	31 d2                	xor    %edx,%edx
  4056a6:	eb 8d                	jmp    405635 <_ZN11BuilderBaseIiiiLb1EE12CountDegreesERK7pvectorI8EdgePairIiiEEb._omp_fn.0+0x55>
_ZN11BuilderBaseIiiiLb1EE12CountDegreesERK7pvectorI8EdgePairIiiEEb._omp_fn.0():
/home/aliha951/ipdps-artifact/gapbs-master/src/builder.h:85
      if (symmetrize_ || (!symmetrize_ && !transpose))
  4056a8:	80 7f 08 00          	cmpb   $0x0,0x8(%rdi)
/home/aliha951/ipdps-artifact/gapbs-master/src/builder.h:84
      Edge e = *it;
  4056ac:	48 63 42 04          	movslq 0x4(%rdx),%rax
/home/aliha951/ipdps-artifact/gapbs-master/src/builder.h:85
      if (symmetrize_ || (!symmetrize_ && !transpose))
  4056b0:	74 1b                	je     4056cd <_ZN11BuilderBaseIiiiLb1EE12CountDegreesERK7pvectorI8EdgePairIiiEEb._omp_fn.0+0xed>
_ZN7pvectorIiEixEm():
/home/aliha951/ipdps-artifact/gapbs-master/src/pvector.h:116
    return start_[n];
  4056b2:	48 8b 4b 10          	mov    0x10(%rbx),%rcx
_ZN11BuilderBaseIiiiLb1EE12CountDegreesERK7pvectorI8EdgePairIiiEEb._omp_fn.0():
/home/aliha951/ipdps-artifact/gapbs-master/src/builder.h:86
        fetch_and_add(degrees[e.u], 1);
  4056b6:	48 63 32             	movslq (%rdx),%rsi
_Z13fetch_and_addIiiET_RS0_T0_():
/home/aliha951/ipdps-artifact/gapbs-master/src/platform_atomics.h:26
  4056b9:	48 8b 09             	mov    (%rcx),%rcx
  4056bc:	f0 83 04 b1 01       	lock addl $0x1,(%rcx,%rsi,4)
_ZN11BuilderBaseIiiiLb1EE12CountDegreesERK7pvectorI8EdgePairIiiEEb._omp_fn.0():
/home/aliha951/ipdps-artifact/gapbs-master/src/builder.h:87
      if ((symmetrize_ && !in_place_) || (!symmetrize_ && transpose))
  4056c1:	80 7f 08 00          	cmpb   $0x0,0x8(%rdi)
  4056c5:	74 06                	je     4056cd <_ZN11BuilderBaseIiiiLb1EE12CountDegreesERK7pvectorI8EdgePairIiiEEb._omp_fn.0+0xed>
/home/aliha951/ipdps-artifact/gapbs-master/src/builder.h:87 (discriminator 1)
  4056c7:	80 7f 0a 00          	cmpb   $0x0,0xa(%rdi)
  4056cb:	75 0c                	jne    4056d9 <_ZN11BuilderBaseIiiiLb1EE12CountDegreesERK7pvectorI8EdgePairIiiEEb._omp_fn.0+0xf9>
_ZN7pvectorIiEixEm():
/home/aliha951/ipdps-artifact/gapbs-master/src/pvector.h:116
  4056cd:	48 8b 4b 10          	mov    0x10(%rbx),%rcx
_Z13fetch_and_addIiiET_RS0_T0_():
/home/aliha951/ipdps-artifact/gapbs-master/src/platform_atomics.h:26
  4056d1:	48 8b 09             	mov    (%rcx),%rcx
  4056d4:	f0 83 04 81 01       	lock addl $0x1,(%rcx,%rax,4)
  4056d9:	48 83 c2 08          	add    $0x8,%rdx
  4056dd:	49 39 d0             	cmp    %rdx,%r8
  4056e0:	77 c6                	ja     4056a8 <_ZN11BuilderBaseIiiiLb1EE12CountDegreesERK7pvectorI8EdgePairIiiEEb._omp_fn.0+0xc8>
  4056e2:	eb a8                	jmp    40568c <_ZN11BuilderBaseIiiiLb1EE12CountDegreesERK7pvectorI8EdgePairIiiEEb._omp_fn.0+0xac>
_ZN11BuilderBaseIiiiLb1EE12CountDegreesERK7pvectorI8EdgePairIiiEEb._omp_fn.0():
/home/aliha951/ipdps-artifact/gapbs-master/src/platform_atomics.h:26
  4056e4:	66 66 2e 0f 1f 84 00 	data16 nopw %cs:0x0(%rax,%rax,1)
  4056eb:	00 00 00 00 
  4056ef:	90                   	nop

00000000004056f0 <_ZN11BuilderBaseIiiiLb1EE17ParallelPrefixSumERK7pvectorIiE._omp_fn.0>:
_ZN11BuilderBaseIiiiLb1EE17ParallelPrefixSumERK7pvectorIiE._omp_fn.0():
/home/aliha951/ipdps-artifact/gapbs-master/src/builder.h:110
  static
  pvector<SGOffset> ParallelPrefixSum(const pvector<NodeID_> &degrees) {
    const size_t block_size = 1<<20;
    const size_t num_blocks = (degrees.size() + block_size - 1) / block_size;
    pvector<SGOffset> local_sums(num_blocks);
    #pragma omp parallel for
  4056f0:	f3 0f 1e fa          	endbr64 
  4056f4:	41 54                	push   %r12
  4056f6:	55                   	push   %rbp
  4056f7:	53                   	push   %rbx
  4056f8:	48 8b 5f 08          	mov    0x8(%rdi),%rbx
  4056fc:	48 85 db             	test   %rbx,%rbx
  4056ff:	0f 84 4d 01 00 00    	je     405852 <_ZN11BuilderBaseIiiiLb1EE17ParallelPrefixSumERK7pvectorIiE._omp_fn.0+0x162>
  405705:	49 89 fc             	mov    %rdi,%r12
  405708:	e8 c3 e4 ff ff       	callq  403bd0 <omp_get_num_threads@plt>
  40570d:	89 c5                	mov    %eax,%ebp
  40570f:	e8 5c e3 ff ff       	callq  403a70 <omp_get_thread_num@plt>
  405714:	48 63 cd             	movslq %ebp,%rcx
  405717:	31 d2                	xor    %edx,%edx
  405719:	48 63 f0             	movslq %eax,%rsi
  40571c:	48 89 d8             	mov    %rbx,%rax
  40571f:	48 f7 f1             	div    %rcx
  405722:	48 39 d6             	cmp    %rdx,%rsi
  405725:	0f 82 3d 01 00 00    	jb     405868 <_ZN11BuilderBaseIiiiLb1EE17ParallelPrefixSumERK7pvectorIiE._omp_fn.0+0x178>
  40572b:	48 0f af f0          	imul   %rax,%rsi
  40572f:	48 01 d6             	add    %rdx,%rsi
  405732:	48 01 f0             	add    %rsi,%rax
  405735:	48 39 c6             	cmp    %rax,%rsi
  405738:	0f 83 14 01 00 00    	jae    405852 <_ZN11BuilderBaseIiiiLb1EE17ParallelPrefixSumERK7pvectorIiE._omp_fn.0+0x162>
/home/aliha951/ipdps-artifact/gapbs-master/src/builder.h:113
    for (size_t block=0; block < num_blocks; block++) {
      SGOffset lsum = 0;
      size_t block_end = std::min((block + 1) * block_size, degrees.size());
  40573e:	49 8b 14 24          	mov    (%r12),%rdx
  405742:	49 89 f0             	mov    %rsi,%r8
/home/aliha951/ipdps-artifact/gapbs-master/src/builder.h:115
      for (size_t i=block * block_size; i < block_end; i++)
        lsum += degrees[i];
  405745:	66 0f ef e4          	pxor   %xmm4,%xmm4
  405749:	49 c1 e0 14          	shl    $0x14,%r8
_ZNK7pvectorIiE4sizeEv():
/home/aliha951/ipdps-artifact/gapbs-master/src/pvector.h:143
    return end_size_ - start_;
  40574d:	4c 8b 1a             	mov    (%rdx),%r11
  405750:	4c 8b 52 08          	mov    0x8(%rdx),%r10
_ZN7pvectorIlEixEm():
/home/aliha951/ipdps-artifact/gapbs-master/src/pvector.h:116
    return start_[n];
  405754:	49 8b 54 24 10       	mov    0x10(%r12),%rdx
_ZNK7pvectorIiE4sizeEv():
/home/aliha951/ipdps-artifact/gapbs-master/src/pvector.h:143
    return end_size_ - start_;
  405759:	4d 29 da             	sub    %r11,%r10
_ZN7pvectorIlEixEm():
/home/aliha951/ipdps-artifact/gapbs-master/src/pvector.h:116
    return start_[n];
  40575c:	48 8b 12             	mov    (%rdx),%rdx
_ZNK7pvectorIiE4sizeEv():
/home/aliha951/ipdps-artifact/gapbs-master/src/pvector.h:143
    return end_size_ - start_;
  40575f:	49 c1 fa 02          	sar    $0x2,%r10
  405763:	4c 8d 0c f2          	lea    (%rdx,%rsi,8),%r9
  405767:	48 c1 e6 16          	shl    $0x16,%rsi
  40576b:	48 8d 2c c2          	lea    (%rdx,%rax,8),%rbp
  40576f:	4c 01 de             	add    %r11,%rsi
  405772:	66 0f 1f 44 00 00    	nopw   0x0(%rax,%rax,1)
/home/aliha951/ipdps-artifact/gapbs-master/src/pvector.h:142
  size_t size() const {
  405778:	4c 89 c1             	mov    %r8,%rcx
_ZN11BuilderBaseIiiiLb1EE17ParallelPrefixSumERK7pvectorIiE._omp_fn.0():
/home/aliha951/ipdps-artifact/gapbs-master/src/builder.h:113
      size_t block_end = std::min((block + 1) * block_size, degrees.size());
  40577b:	49 81 c0 00 00 10 00 	add    $0x100000,%r8
  405782:	4c 89 d3             	mov    %r10,%rbx
  405785:	4d 39 d0             	cmp    %r10,%r8
  405788:	49 0f 46 d8          	cmovbe %r8,%rbx
/home/aliha951/ipdps-artifact/gapbs-master/src/builder.h:114
      for (size_t i=block * block_size; i < block_end; i++)
  40578c:	48 39 cb             	cmp    %rcx,%rbx
  40578f:	0f 86 cb 00 00 00    	jbe    405860 <_ZN11BuilderBaseIiiiLb1EE17ParallelPrefixSumERK7pvectorIiE._omp_fn.0+0x170>
  405795:	48 89 df             	mov    %rbx,%rdi
  405798:	48 29 cf             	sub    %rcx,%rdi
  40579b:	48 8d 47 ff          	lea    -0x1(%rdi),%rax
  40579f:	48 83 f8 02          	cmp    $0x2,%rax
  4057a3:	0f 86 bb 00 00 00    	jbe    405864 <_ZN11BuilderBaseIiiiLb1EE17ParallelPrefixSumERK7pvectorIiE._omp_fn.0+0x174>
  4057a9:	48 89 fa             	mov    %rdi,%rdx
  4057ac:	48 89 f0             	mov    %rsi,%rax
  4057af:	66 0f ef c9          	pxor   %xmm1,%xmm1
  4057b3:	48 c1 ea 02          	shr    $0x2,%rdx
  4057b7:	48 c1 e2 04          	shl    $0x4,%rdx
  4057bb:	48 01 f2             	add    %rsi,%rdx
  4057be:	66 90                	xchg   %ax,%ax
/home/aliha951/ipdps-artifact/gapbs-master/src/builder.h:115 (discriminator 2)
        lsum += degrees[i];
  4057c0:	f3 0f 6f 00          	movdqu (%rax),%xmm0
  4057c4:	66 0f 6f d4          	movdqa %xmm4,%xmm2
  4057c8:	48 83 c0 10          	add    $0x10,%rax
  4057cc:	66 0f 66 d0          	pcmpgtd %xmm0,%xmm2
  4057d0:	66 0f 6f d8          	movdqa %xmm0,%xmm3
  4057d4:	66 0f 62 da          	punpckldq %xmm2,%xmm3
  4057d8:	66 0f 6a c2          	punpckhdq %xmm2,%xmm0
  4057dc:	66 0f d4 cb          	paddq  %xmm3,%xmm1
  4057e0:	66 0f d4 c8          	paddq  %xmm0,%xmm1
/home/aliha951/ipdps-artifact/gapbs-master/src/builder.h:114 (discriminator 2)
      for (size_t i=block * block_size; i < block_end; i++)
  4057e4:	48 39 d0             	cmp    %rdx,%rax
  4057e7:	75 d7                	jne    4057c0 <_ZN11BuilderBaseIiiiLb1EE17ParallelPrefixSumERK7pvectorIiE._omp_fn.0+0xd0>
  4057e9:	66 0f 6f c1          	movdqa %xmm1,%xmm0
  4057ed:	48 89 fa             	mov    %rdi,%rdx
  4057f0:	66 0f 73 d8 08       	psrldq $0x8,%xmm0
  4057f5:	48 83 e2 fc          	and    $0xfffffffffffffffc,%rdx
  4057f9:	66 0f d4 c1          	paddq  %xmm1,%xmm0
  4057fd:	48 01 d1             	add    %rdx,%rcx
  405800:	66 48 0f 7e c0       	movq   %xmm0,%rax
  405805:	48 39 fa             	cmp    %rdi,%rdx
  405808:	74 31                	je     40583b <_ZN11BuilderBaseIiiiLb1EE17ParallelPrefixSumERK7pvectorIiE._omp_fn.0+0x14b>
/home/aliha951/ipdps-artifact/gapbs-master/src/builder.h:115
        lsum += degrees[i];
  40580a:	49 63 3c 8b          	movslq (%r11,%rcx,4),%rdi
_ZNK7pvectorIiEixEm():
/home/aliha951/ipdps-artifact/gapbs-master/src/pvector.h:120
    return start_[n];
  40580e:	48 8d 14 8d 00 00 00 	lea    0x0(,%rcx,4),%rdx
  405815:	00 
_ZN11BuilderBaseIiiiLb1EE17ParallelPrefixSumERK7pvectorIiE._omp_fn.0():
/home/aliha951/ipdps-artifact/gapbs-master/src/builder.h:115
  405816:	48 01 f8             	add    %rdi,%rax
/home/aliha951/ipdps-artifact/gapbs-master/src/builder.h:114
      for (size_t i=block * block_size; i < block_end; i++)
  405819:	48 8d 79 01          	lea    0x1(%rcx),%rdi
  40581d:	48 39 df             	cmp    %rbx,%rdi
  405820:	73 19                	jae    40583b <_ZN11BuilderBaseIiiiLb1EE17ParallelPrefixSumERK7pvectorIiE._omp_fn.0+0x14b>
/home/aliha951/ipdps-artifact/gapbs-master/src/builder.h:115
        lsum += degrees[i];
  405822:	49 63 7c 13 04       	movslq 0x4(%r11,%rdx,1),%rdi
/home/aliha951/ipdps-artifact/gapbs-master/src/builder.h:114
      for (size_t i=block * block_size; i < block_end; i++)
  405827:	48 83 c1 02          	add    $0x2,%rcx
/home/aliha951/ipdps-artifact/gapbs-master/src/builder.h:115
        lsum += degrees[i];
  40582b:	48 01 f8             	add    %rdi,%rax
/home/aliha951/ipdps-artifact/gapbs-master/src/builder.h:114
      for (size_t i=block * block_size; i < block_end; i++)
  40582e:	48 39 cb             	cmp    %rcx,%rbx
  405831:	76 08                	jbe    40583b <_ZN11BuilderBaseIiiiLb1EE17ParallelPrefixSumERK7pvectorIiE._omp_fn.0+0x14b>
/home/aliha951/ipdps-artifact/gapbs-master/src/builder.h:115
        lsum += degrees[i];
  405833:	49 63 54 13 08       	movslq 0x8(%r11,%rdx,1),%rdx
  405838:	48 01 d0             	add    %rdx,%rax
/home/aliha951/ipdps-artifact/gapbs-master/src/builder.h:116
      local_sums[block] = lsum;
  40583b:	49 89 01             	mov    %rax,(%r9)
  40583e:	49 83 c1 08          	add    $0x8,%r9
  405842:	48 81 c6 00 00 40 00 	add    $0x400000,%rsi
  405849:	49 39 e9             	cmp    %rbp,%r9
  40584c:	0f 85 26 ff ff ff    	jne    405778 <_ZN11BuilderBaseIiiiLb1EE17ParallelPrefixSumERK7pvectorIiE._omp_fn.0+0x88>
/home/aliha951/ipdps-artifact/gapbs-master/src/builder.h:110
    #pragma omp parallel for
  405852:	5b                   	pop    %rbx
  405853:	5d                   	pop    %rbp
  405854:	41 5c                	pop    %r12
  405856:	c3                   	retq   
  405857:	66 0f 1f 84 00 00 00 	nopw   0x0(%rax,%rax,1)
  40585e:	00 00 
/home/aliha951/ipdps-artifact/gapbs-master/src/builder.h:112
      SGOffset lsum = 0;
  405860:	31 c0                	xor    %eax,%eax
  405862:	eb d7                	jmp    40583b <_ZN11BuilderBaseIiiiLb1EE17ParallelPrefixSumERK7pvectorIiE._omp_fn.0+0x14b>
  405864:	31 c0                	xor    %eax,%eax
  405866:	eb a2                	jmp    40580a <_ZN11BuilderBaseIiiiLb1EE17ParallelPrefixSumERK7pvectorIiE._omp_fn.0+0x11a>
  405868:	48 83 c0 01          	add    $0x1,%rax
/home/aliha951/ipdps-artifact/gapbs-master/src/builder.h:110
    #pragma omp parallel for
  40586c:	31 d2                	xor    %edx,%edx
  40586e:	e9 b8 fe ff ff       	jmpq   40572b <_ZN11BuilderBaseIiiiLb1EE17ParallelPrefixSumERK7pvectorIiE._omp_fn.0+0x3b>
  405873:	66 66 2e 0f 1f 84 00 	data16 nopw %cs:0x0(%rax,%rax,1)
  40587a:	00 00 00 00 
  40587e:	66 90                	xchg   %ax,%ax

0000000000405880 <_ZN11BuilderBaseIiiiLb1EE17ParallelPrefixSumERK7pvectorIiE._omp_fn.1>:
_ZN11BuilderBaseIiiiLb1EE17ParallelPrefixSumERK7pvectorIiE._omp_fn.1():
/home/aliha951/ipdps-artifact/gapbs-master/src/builder.h:126
      bulk_prefix[block] = total;
      total += local_sums[block];
    }
    bulk_prefix[num_blocks] = total;
    pvector<SGOffset> prefix(degrees.size() + 1);
    #pragma omp parallel for
  405880:	f3 0f 1e fa          	endbr64 
  405884:	41 54                	push   %r12
  405886:	55                   	push   %rbp
  405887:	53                   	push   %rbx
  405888:	48 8b 5f 10          	mov    0x10(%rdi),%rbx
  40588c:	48 85 db             	test   %rbx,%rbx
  40588f:	0f 84 98 00 00 00    	je     40592d <_ZN11BuilderBaseIiiiLb1EE17ParallelPrefixSumERK7pvectorIiE._omp_fn.1+0xad>
  405895:	48 89 fd             	mov    %rdi,%rbp
  405898:	e8 33 e3 ff ff       	callq  403bd0 <omp_get_num_threads@plt>
  40589d:	41 89 c4             	mov    %eax,%r12d
  4058a0:	e8 cb e1 ff ff       	callq  403a70 <omp_get_thread_num@plt>
  4058a5:	49 63 cc             	movslq %r12d,%rcx
  4058a8:	31 d2                	xor    %edx,%edx
  4058aa:	4c 63 c8             	movslq %eax,%r9
  4058ad:	48 89 d8             	mov    %rbx,%rax
  4058b0:	48 f7 f1             	div    %rcx
  4058b3:	49 39 d1             	cmp    %rdx,%r9
  4058b6:	72 7a                	jb     405932 <_ZN11BuilderBaseIiiiLb1EE17ParallelPrefixSumERK7pvectorIiE._omp_fn.1+0xb2>
  4058b8:	4c 0f af c8          	imul   %rax,%r9
  4058bc:	49 01 d1             	add    %rdx,%r9
  4058bf:	4c 01 c8             	add    %r9,%rax
  4058c2:	49 39 c1             	cmp    %rax,%r9
  4058c5:	73 66                	jae    40592d <_ZN11BuilderBaseIiiiLb1EE17ParallelPrefixSumERK7pvectorIiE._omp_fn.1+0xad>
/home/aliha951/ipdps-artifact/gapbs-master/src/builder.h:129
    for (size_t block=0; block < num_blocks; block++) {
      SGOffset local_total = bulk_prefix[block];
      size_t block_end = std::min((block + 1) * block_size, degrees.size());
  4058c7:	48 8b 4d 00          	mov    0x0(%rbp),%rcx
_ZN7pvectorIlEixEm():
/home/aliha951/ipdps-artifact/gapbs-master/src/pvector.h:116
    return start_[n];
  4058cb:	48 8b 55 18          	mov    0x18(%rbp),%rdx
_ZN11BuilderBaseIiiiLb1EE17ParallelPrefixSumERK7pvectorIiE._omp_fn.1():
/home/aliha951/ipdps-artifact/gapbs-master/src/builder.h:131
      for (size_t i=block * block_size; i < block_end; i++) {
        prefix[i] = local_total;
  4058cf:	48 8b 6d 08          	mov    0x8(%rbp),%rbp
_ZNK7pvectorIiE4sizeEv():
/home/aliha951/ipdps-artifact/gapbs-master/src/pvector.h:143
    return end_size_ - start_;
  4058d3:	4c 8b 01             	mov    (%rcx),%r8
  4058d6:	4c 8b 59 08          	mov    0x8(%rcx),%r11
_ZN7pvectorIlEixEm():
/home/aliha951/ipdps-artifact/gapbs-master/src/pvector.h:116
    return start_[n];
  4058da:	48 8b 12             	mov    (%rdx),%rdx
_ZNK7pvectorIiE4sizeEv():
/home/aliha951/ipdps-artifact/gapbs-master/src/pvector.h:143
    return end_size_ - start_;
  4058dd:	4d 29 c3             	sub    %r8,%r11
  4058e0:	4e 8d 14 ca          	lea    (%rdx,%r9,8),%r10
  4058e4:	49 c1 fb 02          	sar    $0x2,%r11
  4058e8:	49 c1 e1 14          	shl    $0x14,%r9
  4058ec:	48 8d 1c c2          	lea    (%rdx,%rax,8),%rbx
_ZN7pvectorIlEixEm():
/home/aliha951/ipdps-artifact/gapbs-master/src/pvector.h:115
  T_& operator[](size_t n) {
  4058f0:	4c 89 c8             	mov    %r9,%rax
_ZN11BuilderBaseIiiiLb1EE17ParallelPrefixSumERK7pvectorIiE._omp_fn.1():
/home/aliha951/ipdps-artifact/gapbs-master/src/builder.h:129
      size_t block_end = std::min((block + 1) * block_size, degrees.size());
  4058f3:	49 81 c1 00 00 10 00 	add    $0x100000,%r9
  4058fa:	4c 89 de             	mov    %r11,%rsi
/home/aliha951/ipdps-artifact/gapbs-master/src/builder.h:128
      SGOffset local_total = bulk_prefix[block];
  4058fd:	49 8b 12             	mov    (%r10),%rdx
_ZNK7pvectorIiE4sizeEv():
/home/aliha951/ipdps-artifact/gapbs-master/src/pvector.h:142
  size_t size() const {
  405900:	4d 39 d9             	cmp    %r11,%r9
  405903:	49 0f 46 f1          	cmovbe %r9,%rsi
_ZN11BuilderBaseIiiiLb1EE17ParallelPrefixSumERK7pvectorIiE._omp_fn.1():
/home/aliha951/ipdps-artifact/gapbs-master/src/builder.h:130
      for (size_t i=block * block_size; i < block_end; i++) {
  405907:	48 39 c6             	cmp    %rax,%rsi
  40590a:	76 18                	jbe    405924 <_ZN11BuilderBaseIiiiLb1EE17ParallelPrefixSumERK7pvectorIiE._omp_fn.1+0xa4>
_ZN7pvectorIlEixEm():
/home/aliha951/ipdps-artifact/gapbs-master/src/pvector.h:116
    return start_[n];
  40590c:	48 8b 7d 00          	mov    0x0(%rbp),%rdi
_ZN11BuilderBaseIiiiLb1EE17ParallelPrefixSumERK7pvectorIiE._omp_fn.1():
/home/aliha951/ipdps-artifact/gapbs-master/src/builder.h:132 (discriminator 2)
        local_total += degrees[i];
  405910:	49 63 0c 80          	movslq (%r8,%rax,4),%rcx
/home/aliha951/ipdps-artifact/gapbs-master/src/builder.h:131 (discriminator 2)
        prefix[i] = local_total;
  405914:	48 89 14 c7          	mov    %rdx,(%rdi,%rax,8)
/home/aliha951/ipdps-artifact/gapbs-master/src/builder.h:130 (discriminator 2)
      for (size_t i=block * block_size; i < block_end; i++) {
  405918:	48 83 c0 01          	add    $0x1,%rax
/home/aliha951/ipdps-artifact/gapbs-master/src/builder.h:132 (discriminator 2)
        local_total += degrees[i];
  40591c:	48 01 ca             	add    %rcx,%rdx
/home/aliha951/ipdps-artifact/gapbs-master/src/builder.h:130 (discriminator 2)
      for (size_t i=block * block_size; i < block_end; i++) {
  40591f:	48 39 c6             	cmp    %rax,%rsi
  405922:	75 ec                	jne    405910 <_ZN11BuilderBaseIiiiLb1EE17ParallelPrefixSumERK7pvectorIiE._omp_fn.1+0x90>
  405924:	49 83 c2 08          	add    $0x8,%r10
  405928:	49 39 da             	cmp    %rbx,%r10
  40592b:	75 c3                	jne    4058f0 <_ZN11BuilderBaseIiiiLb1EE17ParallelPrefixSumERK7pvectorIiE._omp_fn.1+0x70>
/home/aliha951/ipdps-artifact/gapbs-master/src/builder.h:126
    #pragma omp parallel for
  40592d:	5b                   	pop    %rbx
  40592e:	5d                   	pop    %rbp
  40592f:	41 5c                	pop    %r12
  405931:	c3                   	retq   
  405932:	48 83 c0 01          	add    $0x1,%rax
  405936:	31 d2                	xor    %edx,%edx
  405938:	e9 7b ff ff ff       	jmpq   4058b8 <_ZN11BuilderBaseIiiiLb1EE17ParallelPrefixSumERK7pvectorIiE._omp_fn.1+0x38>
  40593d:	0f 1f 00             	nopl   (%rax)

0000000000405940 <_ZN7pvectorIiE4fillEi._omp_fn.0>:
_ZN7pvectorIiE4fillEi._omp_fn.0():
/home/aliha951/ipdps-artifact/gapbs-master/src/pvector.h:133
    #pragma omp parallel for
  405940:	f3 0f 1e fa          	endbr64 
  405944:	41 55                	push   %r13
  405946:	41 54                	push   %r12
  405948:	55                   	push   %rbp
  405949:	53                   	push   %rbx
  40594a:	48 83 ec 08          	sub    $0x8,%rsp
  40594e:	48 8b 07             	mov    (%rdi),%rax
/home/aliha951/ipdps-artifact/gapbs-master/src/pvector.h:134
    for (T_* ptr=start_; ptr < end_size_; ptr++)
  405951:	48 8b 28             	mov    (%rax),%rbp
  405954:	4c 8b 68 08          	mov    0x8(%rax),%r13
  405958:	4c 39 ed             	cmp    %r13,%rbp
  40595b:	0f 83 dd 00 00 00    	jae    405a3e <_ZN7pvectorIiE4fillEi._omp_fn.0+0xfe>
  405961:	49 89 fc             	mov    %rdi,%r12
  405964:	e8 67 e2 ff ff       	callq  403bd0 <omp_get_num_threads@plt>
  405969:	48 63 d8             	movslq %eax,%rbx
  40596c:	e8 ff e0 ff ff       	callq  403a70 <omp_get_thread_num@plt>
  405971:	48 63 c8             	movslq %eax,%rcx
  405974:	49 8d 45 03          	lea    0x3(%r13),%rax
  405978:	48 29 e8             	sub    %rbp,%rax
  40597b:	48 89 c2             	mov    %rax,%rdx
  40597e:	48 8d 40 03          	lea    0x3(%rax),%rax
  405982:	48 0f 49 c2          	cmovns %rdx,%rax
  405986:	48 c1 f8 02          	sar    $0x2,%rax
  40598a:	48 99                	cqto   
  40598c:	48 f7 fb             	idiv   %rbx
  40598f:	48 39 d1             	cmp    %rdx,%rcx
  405992:	0f 8c b8 00 00 00    	jl     405a50 <_ZN7pvectorIiE4fillEi._omp_fn.0+0x110>
  405998:	48 0f af c8          	imul   %rax,%rcx
  40599c:	48 01 ca             	add    %rcx,%rdx
  40599f:	48 01 d0             	add    %rdx,%rax
  4059a2:	48 39 c2             	cmp    %rax,%rdx
  4059a5:	0f 8d 93 00 00 00    	jge    405a3e <_ZN7pvectorIiE4fillEi._omp_fn.0+0xfe>
  4059ab:	48 c1 e2 02          	shl    $0x2,%rdx
  4059af:	48 c1 e0 02          	shl    $0x2,%rax
/home/aliha951/ipdps-artifact/gapbs-master/src/pvector.h:133
    #pragma omp parallel for
  4059b3:	41 8b 7c 24 08       	mov    0x8(%r12),%edi
  4059b8:	48 8d 74 15 00       	lea    0x0(%rbp,%rdx,1),%rsi
  4059bd:	48 01 c5             	add    %rax,%rbp
  4059c0:	48 29 d0             	sub    %rdx,%rax
  4059c3:	48 83 e8 01          	sub    $0x1,%rax
  4059c7:	4c 8d 46 01          	lea    0x1(%rsi),%r8
  4059cb:	48 89 f1             	mov    %rsi,%rcx
  4059ce:	48 89 c2             	mov    %rax,%rdx
  4059d1:	48 c1 ea 02          	shr    $0x2,%rdx
  4059d5:	48 83 c2 01          	add    $0x1,%rdx
  4059d9:	4c 39 c5             	cmp    %r8,%rbp
  4059dc:	41 b8 01 00 00 00    	mov    $0x1,%r8d
  4059e2:	49 0f 42 d0          	cmovb  %r8,%rdx
  4059e6:	72 3c                	jb     405a24 <_ZN7pvectorIiE4fillEi._omp_fn.0+0xe4>
  4059e8:	48 83 f8 0b          	cmp    $0xb,%rax
  4059ec:	76 36                	jbe    405a24 <_ZN7pvectorIiE4fillEi._omp_fn.0+0xe4>
  4059ee:	48 89 d0             	mov    %rdx,%rax
  4059f1:	66 0f 6e cf          	movd   %edi,%xmm1
  4059f5:	48 c1 e8 02          	shr    $0x2,%rax
  4059f9:	66 0f 70 c1 00       	pshufd $0x0,%xmm1,%xmm0
  4059fe:	48 c1 e0 04          	shl    $0x4,%rax
  405a02:	48 01 f0             	add    %rsi,%rax
  405a05:	0f 1f 00             	nopl   (%rax)
/home/aliha951/ipdps-artifact/gapbs-master/src/pvector.h:135 (discriminator 1)
      *ptr = init_val;
  405a08:	0f 11 01             	movups %xmm0,(%rcx)
  405a0b:	48 83 c1 10          	add    $0x10,%rcx
  405a0f:	48 39 c1             	cmp    %rax,%rcx
  405a12:	75 f4                	jne    405a08 <_ZN7pvectorIiE4fillEi._omp_fn.0+0xc8>
  405a14:	48 89 d0             	mov    %rdx,%rax
  405a17:	48 83 e0 fc          	and    $0xfffffffffffffffc,%rax
  405a1b:	48 8d 34 86          	lea    (%rsi,%rax,4),%rsi
  405a1f:	48 39 c2             	cmp    %rax,%rdx
  405a22:	74 1a                	je     405a3e <_ZN7pvectorIiE4fillEi._omp_fn.0+0xfe>
  405a24:	48 8d 46 04          	lea    0x4(%rsi),%rax
/home/aliha951/ipdps-artifact/gapbs-master/src/pvector.h:135
  405a28:	89 3e                	mov    %edi,(%rsi)
  405a2a:	48 39 c5             	cmp    %rax,%rbp
  405a2d:	76 0f                	jbe    405a3e <_ZN7pvectorIiE4fillEi._omp_fn.0+0xfe>
  405a2f:	48 8d 46 08          	lea    0x8(%rsi),%rax
  405a33:	89 7e 04             	mov    %edi,0x4(%rsi)
  405a36:	48 39 c5             	cmp    %rax,%rbp
  405a39:	76 03                	jbe    405a3e <_ZN7pvectorIiE4fillEi._omp_fn.0+0xfe>
  405a3b:	89 7e 08             	mov    %edi,0x8(%rsi)
/home/aliha951/ipdps-artifact/gapbs-master/src/pvector.h:133
    #pragma omp parallel for
  405a3e:	48 83 c4 08          	add    $0x8,%rsp
  405a42:	5b                   	pop    %rbx
  405a43:	5d                   	pop    %rbp
  405a44:	41 5c                	pop    %r12
  405a46:	41 5d                	pop    %r13
  405a48:	c3                   	retq   
  405a49:	0f 1f 80 00 00 00 00 	nopl   0x0(%rax)
  405a50:	48 83 c0 01          	add    $0x1,%rax
/home/aliha951/ipdps-artifact/gapbs-master/src/pvector.h:134
    for (T_* ptr=start_; ptr < end_size_; ptr++)
  405a54:	31 d2                	xor    %edx,%edx
  405a56:	e9 3d ff ff ff       	jmpq   405998 <_ZN7pvectorIiE4fillEi._omp_fn.0+0x58>
  405a5b:	0f 1f 44 00 00       	nopl   0x0(%rax,%rax,1)

0000000000405a60 <_ZN11BuilderBaseIiiiLb1EE7MakeCSRERK7pvectorI8EdgePairIiiEEbPPPiS8_._omp_fn.0>:
_ZN11BuilderBaseIiiiLb1EE7MakeCSRERK7pvectorI8EdgePairIiiEEbPPPiS8_._omp_fn.0():
/home/aliha951/ipdps-artifact/gapbs-master/src/builder.h:306
               DestID_** neighs) {
    pvector<NodeID_> degrees = CountDegrees(el, transpose);
    pvector<SGOffset> offsets = ParallelPrefixSum(degrees);
    *neighs = new DestID_[offsets[num_nodes_]];
    *index = CSRGraph<NodeID_, DestID_>::GenIndex(offsets, *neighs);
    #pragma omp parallel for
  405a60:	f3 0f 1e fa          	endbr64 
  405a64:	41 55                	push   %r13
  405a66:	41 54                	push   %r12
  405a68:	55                   	push   %rbp
  405a69:	53                   	push   %rbx
  405a6a:	48 83 ec 08          	sub    $0x8,%rsp
/home/aliha951/ipdps-artifact/gapbs-master/src/builder.h:307
    for (auto it = el.begin(); it < el.end(); it++) {
  405a6e:	48 8b 47 08          	mov    0x8(%rdi),%rax
_ZNK7pvectorI8EdgePairIiiEE5beginEv():
/home/aliha951/ipdps-artifact/gapbs-master/src/pvector.h:147
    return start_;
  405a72:	4c 8b 20             	mov    (%rax),%r12
_ZNK7pvectorI8EdgePairIiiEE3endEv():
/home/aliha951/ipdps-artifact/gapbs-master/src/pvector.h:151
    return end_size_;
  405a75:	4c 8b 68 08          	mov    0x8(%rax),%r13
  405a79:	4d 39 e5             	cmp    %r12,%r13
  405a7c:	0f 86 c5 00 00 00    	jbe    405b47 <_ZN11BuilderBaseIiiiLb1EE7MakeCSRERK7pvectorI8EdgePairIiiEEbPPPiS8_._omp_fn.0+0xe7>
  405a82:	48 89 fb             	mov    %rdi,%rbx
  405a85:	e8 46 e1 ff ff       	callq  403bd0 <omp_get_num_threads@plt>
  405a8a:	48 63 e8             	movslq %eax,%rbp
  405a8d:	e8 de df ff ff       	callq  403a70 <omp_get_thread_num@plt>
  405a92:	48 63 c8             	movslq %eax,%rcx
  405a95:	49 8d 45 07          	lea    0x7(%r13),%rax
  405a99:	4c 29 e0             	sub    %r12,%rax
  405a9c:	48 89 c2             	mov    %rax,%rdx
  405a9f:	48 8d 40 07          	lea    0x7(%rax),%rax
  405aa3:	48 0f 49 c2          	cmovns %rdx,%rax
  405aa7:	48 c1 f8 03          	sar    $0x3,%rax
  405aab:	48 99                	cqto   
  405aad:	48 f7 fd             	idiv   %rbp
  405ab0:	48 39 d1             	cmp    %rdx,%rcx
  405ab3:	0f 8c 9f 00 00 00    	jl     405b58 <_ZN11BuilderBaseIiiiLb1EE7MakeCSRERK7pvectorI8EdgePairIiiEEbPPPiS8_._omp_fn.0+0xf8>
  405ab9:	48 0f af c8          	imul   %rax,%rcx
  405abd:	48 01 ca             	add    %rcx,%rdx
  405ac0:	48 01 d0             	add    %rdx,%rax
  405ac3:	48 39 c2             	cmp    %rax,%rdx
  405ac6:	7d 7f                	jge    405b47 <_ZN11BuilderBaseIiiiLb1EE7MakeCSRERK7pvectorI8EdgePairIiiEEbPPPiS8_._omp_fn.0+0xe7>
  405ac8:	49 8d 14 d4          	lea    (%r12,%rdx,8),%rdx
_ZN11BuilderBaseIiiiLb1EE7MakeCSRERK7pvectorI8EdgePairIiiEEbPPPiS8_._omp_fn.0():
/home/aliha951/ipdps-artifact/gapbs-master/src/builder.h:306
    #pragma omp parallel for
  405acc:	4c 8b 4b 10          	mov    0x10(%rbx),%r9
  405ad0:	44 0f b6 53 20       	movzbl 0x20(%rbx),%r10d
  405ad5:	4d 8d 24 c4          	lea    (%r12,%rax,8),%r12
  405ad9:	4c 8b 03             	mov    (%rbx),%r8
  405adc:	eb 2c                	jmp    405b0a <_ZN11BuilderBaseIiiiLb1EE7MakeCSRERK7pvectorI8EdgePairIiiEEbPPPiS8_._omp_fn.0+0xaa>
  405ade:	66 90                	xchg   %ax,%ax
/home/aliha951/ipdps-artifact/gapbs-master/src/builder.h:309
      Edge e = *it;
      if (symmetrize_ || (!symmetrize_ && !transpose))
  405ae0:	45 84 d2             	test   %r10b,%r10b
  405ae3:	74 31                	je     405b16 <_ZN11BuilderBaseIiiiLb1EE7MakeCSRERK7pvectorI8EdgePairIiiEEbPPPiS8_._omp_fn.0+0xb6>
_ZN7pvectorIlEixEm():
