
../converter:     file format elf64-x86-64


Disassembly of section .init:

0000000000403000 <_init>:
_init():
  403000:	f3 0f 1e fa          	endbr64 
  403004:	48 83 ec 08          	sub    $0x8,%rsp
  403008:	48 8b 05 d9 bf 01 00 	mov    0x1bfd9(%rip),%rax        # 41efe8 <__gmon_start__>
  40300f:	48 85 c0             	test   %rax,%rax
  403012:	74 02                	je     403016 <_init+0x16>
  403014:	ff d0                	callq  *%rax
  403016:	48 83 c4 08          	add    $0x8,%rsp
  40301a:	c3                   	retq   

Disassembly of section .plt:

0000000000403020 <.plt>:
  403020:	ff 35 e2 bf 01 00    	pushq  0x1bfe2(%rip)        # 41f008 <_GLOBAL_OFFSET_TABLE_+0x8>
  403026:	f2 ff 25 e3 bf 01 00 	bnd jmpq *0x1bfe3(%rip)        # 41f010 <_GLOBAL_OFFSET_TABLE_+0x10>
  40302d:	0f 1f 00             	nopl   (%rax)
  403030:	f3 0f 1e fa          	endbr64 
  403034:	68 00 00 00 00       	pushq  $0x0
  403039:	f2 e9 e1 ff ff ff    	bnd jmpq 403020 <.plt>
  40303f:	90                   	nop
  403040:	f3 0f 1e fa          	endbr64 
  403044:	68 01 00 00 00       	pushq  $0x1
  403049:	f2 e9 d1 ff ff ff    	bnd jmpq 403020 <.plt>
  40304f:	90                   	nop
  403050:	f3 0f 1e fa          	endbr64 
  403054:	68 02 00 00 00       	pushq  $0x2
  403059:	f2 e9 c1 ff ff ff    	bnd jmpq 403020 <.plt>
  40305f:	90                   	nop
  403060:	f3 0f 1e fa          	endbr64 
  403064:	68 03 00 00 00       	pushq  $0x3
  403069:	f2 e9 b1 ff ff ff    	bnd jmpq 403020 <.plt>
  40306f:	90                   	nop
  403070:	f3 0f 1e fa          	endbr64 
  403074:	68 04 00 00 00       	pushq  $0x4
  403079:	f2 e9 a1 ff ff ff    	bnd jmpq 403020 <.plt>
  40307f:	90                   	nop
  403080:	f3 0f 1e fa          	endbr64 
  403084:	68 05 00 00 00       	pushq  $0x5
  403089:	f2 e9 91 ff ff ff    	bnd jmpq 403020 <.plt>
  40308f:	90                   	nop
  403090:	f3 0f 1e fa          	endbr64 
  403094:	68 06 00 00 00       	pushq  $0x6
  403099:	f2 e9 81 ff ff ff    	bnd jmpq 403020 <.plt>
  40309f:	90                   	nop
  4030a0:	f3 0f 1e fa          	endbr64 
  4030a4:	68 07 00 00 00       	pushq  $0x7
  4030a9:	f2 e9 71 ff ff ff    	bnd jmpq 403020 <.plt>
  4030af:	90                   	nop
  4030b0:	f3 0f 1e fa          	endbr64 
  4030b4:	68 08 00 00 00       	pushq  $0x8
  4030b9:	f2 e9 61 ff ff ff    	bnd jmpq 403020 <.plt>
  4030bf:	90                   	nop
  4030c0:	f3 0f 1e fa          	endbr64 
  4030c4:	68 09 00 00 00       	pushq  $0x9
  4030c9:	f2 e9 51 ff ff ff    	bnd jmpq 403020 <.plt>
  4030cf:	90                   	nop
  4030d0:	f3 0f 1e fa          	endbr64 
  4030d4:	68 0a 00 00 00       	pushq  $0xa
  4030d9:	f2 e9 41 ff ff ff    	bnd jmpq 403020 <.plt>
  4030df:	90                   	nop
  4030e0:	f3 0f 1e fa          	endbr64 
  4030e4:	68 0b 00 00 00       	pushq  $0xb
  4030e9:	f2 e9 31 ff ff ff    	bnd jmpq 403020 <.plt>
  4030ef:	90                   	nop
  4030f0:	f3 0f 1e fa          	endbr64 
  4030f4:	68 0c 00 00 00       	pushq  $0xc
  4030f9:	f2 e9 21 ff ff ff    	bnd jmpq 403020 <.plt>
  4030ff:	90                   	nop
  403100:	f3 0f 1e fa          	endbr64 
  403104:	68 0d 00 00 00       	pushq  $0xd
  403109:	f2 e9 11 ff ff ff    	bnd jmpq 403020 <.plt>
  40310f:	90                   	nop
  403110:	f3 0f 1e fa          	endbr64 
  403114:	68 0e 00 00 00       	pushq  $0xe
  403119:	f2 e9 01 ff ff ff    	bnd jmpq 403020 <.plt>
  40311f:	90                   	nop
  403120:	f3 0f 1e fa          	endbr64 
  403124:	68 0f 00 00 00       	pushq  $0xf
  403129:	f2 e9 f1 fe ff ff    	bnd jmpq 403020 <.plt>
  40312f:	90                   	nop
  403130:	f3 0f 1e fa          	endbr64 
  403134:	68 10 00 00 00       	pushq  $0x10
  403139:	f2 e9 e1 fe ff ff    	bnd jmpq 403020 <.plt>
  40313f:	90                   	nop
  403140:	f3 0f 1e fa          	endbr64 
  403144:	68 11 00 00 00       	pushq  $0x11
  403149:	f2 e9 d1 fe ff ff    	bnd jmpq 403020 <.plt>
  40314f:	90                   	nop
  403150:	f3 0f 1e fa          	endbr64 
  403154:	68 12 00 00 00       	pushq  $0x12
  403159:	f2 e9 c1 fe ff ff    	bnd jmpq 403020 <.plt>
  40315f:	90                   	nop
  403160:	f3 0f 1e fa          	endbr64 
  403164:	68 13 00 00 00       	pushq  $0x13
  403169:	f2 e9 b1 fe ff ff    	bnd jmpq 403020 <.plt>
  40316f:	90                   	nop
  403170:	f3 0f 1e fa          	endbr64 
  403174:	68 14 00 00 00       	pushq  $0x14
  403179:	f2 e9 a1 fe ff ff    	bnd jmpq 403020 <.plt>
  40317f:	90                   	nop
  403180:	f3 0f 1e fa          	endbr64 
  403184:	68 15 00 00 00       	pushq  $0x15
  403189:	f2 e9 91 fe ff ff    	bnd jmpq 403020 <.plt>
  40318f:	90                   	nop
  403190:	f3 0f 1e fa          	endbr64 
  403194:	68 16 00 00 00       	pushq  $0x16
  403199:	f2 e9 81 fe ff ff    	bnd jmpq 403020 <.plt>
  40319f:	90                   	nop
  4031a0:	f3 0f 1e fa          	endbr64 
  4031a4:	68 17 00 00 00       	pushq  $0x17
  4031a9:	f2 e9 71 fe ff ff    	bnd jmpq 403020 <.plt>
  4031af:	90                   	nop
  4031b0:	f3 0f 1e fa          	endbr64 
  4031b4:	68 18 00 00 00       	pushq  $0x18
  4031b9:	f2 e9 61 fe ff ff    	bnd jmpq 403020 <.plt>
  4031bf:	90                   	nop
  4031c0:	f3 0f 1e fa          	endbr64 
  4031c4:	68 19 00 00 00       	pushq  $0x19
  4031c9:	f2 e9 51 fe ff ff    	bnd jmpq 403020 <.plt>
  4031cf:	90                   	nop
  4031d0:	f3 0f 1e fa          	endbr64 
  4031d4:	68 1a 00 00 00       	pushq  $0x1a
  4031d9:	f2 e9 41 fe ff ff    	bnd jmpq 403020 <.plt>
  4031df:	90                   	nop
  4031e0:	f3 0f 1e fa          	endbr64 
  4031e4:	68 1b 00 00 00       	pushq  $0x1b
  4031e9:	f2 e9 31 fe ff ff    	bnd jmpq 403020 <.plt>
  4031ef:	90                   	nop
  4031f0:	f3 0f 1e fa          	endbr64 
  4031f4:	68 1c 00 00 00       	pushq  $0x1c
  4031f9:	f2 e9 21 fe ff ff    	bnd jmpq 403020 <.plt>
  4031ff:	90                   	nop
  403200:	f3 0f 1e fa          	endbr64 
  403204:	68 1d 00 00 00       	pushq  $0x1d
  403209:	f2 e9 11 fe ff ff    	bnd jmpq 403020 <.plt>
  40320f:	90                   	nop
  403210:	f3 0f 1e fa          	endbr64 
  403214:	68 1e 00 00 00       	pushq  $0x1e
  403219:	f2 e9 01 fe ff ff    	bnd jmpq 403020 <.plt>
  40321f:	90                   	nop
  403220:	f3 0f 1e fa          	endbr64 
  403224:	68 1f 00 00 00       	pushq  $0x1f
  403229:	f2 e9 f1 fd ff ff    	bnd jmpq 403020 <.plt>
  40322f:	90                   	nop
  403230:	f3 0f 1e fa          	endbr64 
  403234:	68 20 00 00 00       	pushq  $0x20
  403239:	f2 e9 e1 fd ff ff    	bnd jmpq 403020 <.plt>
  40323f:	90                   	nop
  403240:	f3 0f 1e fa          	endbr64 
  403244:	68 21 00 00 00       	pushq  $0x21
  403249:	f2 e9 d1 fd ff ff    	bnd jmpq 403020 <.plt>
  40324f:	90                   	nop
  403250:	f3 0f 1e fa          	endbr64 
  403254:	68 22 00 00 00       	pushq  $0x22
  403259:	f2 e9 c1 fd ff ff    	bnd jmpq 403020 <.plt>
  40325f:	90                   	nop
  403260:	f3 0f 1e fa          	endbr64 
  403264:	68 23 00 00 00       	pushq  $0x23
  403269:	f2 e9 b1 fd ff ff    	bnd jmpq 403020 <.plt>
  40326f:	90                   	nop
  403270:	f3 0f 1e fa          	endbr64 
  403274:	68 24 00 00 00       	pushq  $0x24
  403279:	f2 e9 a1 fd ff ff    	bnd jmpq 403020 <.plt>
  40327f:	90                   	nop
  403280:	f3 0f 1e fa          	endbr64 
  403284:	68 25 00 00 00       	pushq  $0x25
  403289:	f2 e9 91 fd ff ff    	bnd jmpq 403020 <.plt>
  40328f:	90                   	nop
  403290:	f3 0f 1e fa          	endbr64 
  403294:	68 26 00 00 00       	pushq  $0x26
  403299:	f2 e9 81 fd ff ff    	bnd jmpq 403020 <.plt>
  40329f:	90                   	nop
  4032a0:	f3 0f 1e fa          	endbr64 
  4032a4:	68 27 00 00 00       	pushq  $0x27
  4032a9:	f2 e9 71 fd ff ff    	bnd jmpq 403020 <.plt>
  4032af:	90                   	nop
  4032b0:	f3 0f 1e fa          	endbr64 
  4032b4:	68 28 00 00 00       	pushq  $0x28
  4032b9:	f2 e9 61 fd ff ff    	bnd jmpq 403020 <.plt>
  4032bf:	90                   	nop
  4032c0:	f3 0f 1e fa          	endbr64 
  4032c4:	68 29 00 00 00       	pushq  $0x29
  4032c9:	f2 e9 51 fd ff ff    	bnd jmpq 403020 <.plt>
  4032cf:	90                   	nop
  4032d0:	f3 0f 1e fa          	endbr64 
  4032d4:	68 2a 00 00 00       	pushq  $0x2a
  4032d9:	f2 e9 41 fd ff ff    	bnd jmpq 403020 <.plt>
  4032df:	90                   	nop
  4032e0:	f3 0f 1e fa          	endbr64 
  4032e4:	68 2b 00 00 00       	pushq  $0x2b
  4032e9:	f2 e9 31 fd ff ff    	bnd jmpq 403020 <.plt>
  4032ef:	90                   	nop
  4032f0:	f3 0f 1e fa          	endbr64 
  4032f4:	68 2c 00 00 00       	pushq  $0x2c
  4032f9:	f2 e9 21 fd ff ff    	bnd jmpq 403020 <.plt>
  4032ff:	90                   	nop
  403300:	f3 0f 1e fa          	endbr64 
  403304:	68 2d 00 00 00       	pushq  $0x2d
  403309:	f2 e9 11 fd ff ff    	bnd jmpq 403020 <.plt>
  40330f:	90                   	nop
  403310:	f3 0f 1e fa          	endbr64 
  403314:	68 2e 00 00 00       	pushq  $0x2e
  403319:	f2 e9 01 fd ff ff    	bnd jmpq 403020 <.plt>
  40331f:	90                   	nop
  403320:	f3 0f 1e fa          	endbr64 
  403324:	68 2f 00 00 00       	pushq  $0x2f
  403329:	f2 e9 f1 fc ff ff    	bnd jmpq 403020 <.plt>
  40332f:	90                   	nop
  403330:	f3 0f 1e fa          	endbr64 
  403334:	68 30 00 00 00       	pushq  $0x30
  403339:	f2 e9 e1 fc ff ff    	bnd jmpq 403020 <.plt>
  40333f:	90                   	nop
  403340:	f3 0f 1e fa          	endbr64 
  403344:	68 31 00 00 00       	pushq  $0x31
  403349:	f2 e9 d1 fc ff ff    	bnd jmpq 403020 <.plt>
  40334f:	90                   	nop
  403350:	f3 0f 1e fa          	endbr64 
  403354:	68 32 00 00 00       	pushq  $0x32
  403359:	f2 e9 c1 fc ff ff    	bnd jmpq 403020 <.plt>
  40335f:	90                   	nop
  403360:	f3 0f 1e fa          	endbr64 
  403364:	68 33 00 00 00       	pushq  $0x33
  403369:	f2 e9 b1 fc ff ff    	bnd jmpq 403020 <.plt>
  40336f:	90                   	nop
  403370:	f3 0f 1e fa          	endbr64 
  403374:	68 34 00 00 00       	pushq  $0x34
  403379:	f2 e9 a1 fc ff ff    	bnd jmpq 403020 <.plt>
  40337f:	90                   	nop
  403380:	f3 0f 1e fa          	endbr64 
  403384:	68 35 00 00 00       	pushq  $0x35
  403389:	f2 e9 91 fc ff ff    	bnd jmpq 403020 <.plt>
  40338f:	90                   	nop
  403390:	f3 0f 1e fa          	endbr64 
  403394:	68 36 00 00 00       	pushq  $0x36
  403399:	f2 e9 81 fc ff ff    	bnd jmpq 403020 <.plt>
  40339f:	90                   	nop
  4033a0:	f3 0f 1e fa          	endbr64 
  4033a4:	68 37 00 00 00       	pushq  $0x37
  4033a9:	f2 e9 71 fc ff ff    	bnd jmpq 403020 <.plt>
  4033af:	90                   	nop
  4033b0:	f3 0f 1e fa          	endbr64 
  4033b4:	68 38 00 00 00       	pushq  $0x38
  4033b9:	f2 e9 61 fc ff ff    	bnd jmpq 403020 <.plt>
  4033bf:	90                   	nop
  4033c0:	f3 0f 1e fa          	endbr64 
  4033c4:	68 39 00 00 00       	pushq  $0x39
  4033c9:	f2 e9 51 fc ff ff    	bnd jmpq 403020 <.plt>
  4033cf:	90                   	nop
  4033d0:	f3 0f 1e fa          	endbr64 
  4033d4:	68 3a 00 00 00       	pushq  $0x3a
  4033d9:	f2 e9 41 fc ff ff    	bnd jmpq 403020 <.plt>
  4033df:	90                   	nop
  4033e0:	f3 0f 1e fa          	endbr64 
  4033e4:	68 3b 00 00 00       	pushq  $0x3b
  4033e9:	f2 e9 31 fc ff ff    	bnd jmpq 403020 <.plt>
  4033ef:	90                   	nop
  4033f0:	f3 0f 1e fa          	endbr64 
  4033f4:	68 3c 00 00 00       	pushq  $0x3c
  4033f9:	f2 e9 21 fc ff ff    	bnd jmpq 403020 <.plt>
  4033ff:	90                   	nop
  403400:	f3 0f 1e fa          	endbr64 
  403404:	68 3d 00 00 00       	pushq  $0x3d
  403409:	f2 e9 11 fc ff ff    	bnd jmpq 403020 <.plt>
  40340f:	90                   	nop
  403410:	f3 0f 1e fa          	endbr64 
  403414:	68 3e 00 00 00       	pushq  $0x3e
  403419:	f2 e9 01 fc ff ff    	bnd jmpq 403020 <.plt>
  40341f:	90                   	nop
  403420:	f3 0f 1e fa          	endbr64 
  403424:	68 3f 00 00 00       	pushq  $0x3f
  403429:	f2 e9 f1 fb ff ff    	bnd jmpq 403020 <.plt>
  40342f:	90                   	nop
  403430:	f3 0f 1e fa          	endbr64 
  403434:	68 40 00 00 00       	pushq  $0x40
  403439:	f2 e9 e1 fb ff ff    	bnd jmpq 403020 <.plt>
  40343f:	90                   	nop
  403440:	f3 0f 1e fa          	endbr64 
  403444:	68 41 00 00 00       	pushq  $0x41
  403449:	f2 e9 d1 fb ff ff    	bnd jmpq 403020 <.plt>
  40344f:	90                   	nop
  403450:	f3 0f 1e fa          	endbr64 
  403454:	68 42 00 00 00       	pushq  $0x42
  403459:	f2 e9 c1 fb ff ff    	bnd jmpq 403020 <.plt>
  40345f:	90                   	nop
  403460:	f3 0f 1e fa          	endbr64 
  403464:	68 43 00 00 00       	pushq  $0x43
  403469:	f2 e9 b1 fb ff ff    	bnd jmpq 403020 <.plt>
  40346f:	90                   	nop
  403470:	f3 0f 1e fa          	endbr64 
  403474:	68 44 00 00 00       	pushq  $0x44
  403479:	f2 e9 a1 fb ff ff    	bnd jmpq 403020 <.plt>
  40347f:	90                   	nop
  403480:	f3 0f 1e fa          	endbr64 
  403484:	68 45 00 00 00       	pushq  $0x45
  403489:	f2 e9 91 fb ff ff    	bnd jmpq 403020 <.plt>
  40348f:	90                   	nop
  403490:	f3 0f 1e fa          	endbr64 
  403494:	68 46 00 00 00       	pushq  $0x46
  403499:	f2 e9 81 fb ff ff    	bnd jmpq 403020 <.plt>
  40349f:	90                   	nop
  4034a0:	f3 0f 1e fa          	endbr64 
  4034a4:	68 47 00 00 00       	pushq  $0x47
  4034a9:	f2 e9 71 fb ff ff    	bnd jmpq 403020 <.plt>
  4034af:	90                   	nop
  4034b0:	f3 0f 1e fa          	endbr64 
  4034b4:	68 48 00 00 00       	pushq  $0x48
  4034b9:	f2 e9 61 fb ff ff    	bnd jmpq 403020 <.plt>
  4034bf:	90                   	nop
  4034c0:	f3 0f 1e fa          	endbr64 
  4034c4:	68 49 00 00 00       	pushq  $0x49
  4034c9:	f2 e9 51 fb ff ff    	bnd jmpq 403020 <.plt>
  4034cf:	90                   	nop
  4034d0:	f3 0f 1e fa          	endbr64 
  4034d4:	68 4a 00 00 00       	pushq  $0x4a
  4034d9:	f2 e9 41 fb ff ff    	bnd jmpq 403020 <.plt>
  4034df:	90                   	nop
  4034e0:	f3 0f 1e fa          	endbr64 
  4034e4:	68 4b 00 00 00       	pushq  $0x4b
  4034e9:	f2 e9 31 fb ff ff    	bnd jmpq 403020 <.plt>
  4034ef:	90                   	nop
  4034f0:	f3 0f 1e fa          	endbr64 
  4034f4:	68 4c 00 00 00       	pushq  $0x4c
  4034f9:	f2 e9 21 fb ff ff    	bnd jmpq 403020 <.plt>
  4034ff:	90                   	nop
  403500:	f3 0f 1e fa          	endbr64 
  403504:	68 4d 00 00 00       	pushq  $0x4d
  403509:	f2 e9 11 fb ff ff    	bnd jmpq 403020 <.plt>
  40350f:	90                   	nop
  403510:	f3 0f 1e fa          	endbr64 
  403514:	68 4e 00 00 00       	pushq  $0x4e
  403519:	f2 e9 01 fb ff ff    	bnd jmpq 403020 <.plt>
  40351f:	90                   	nop
  403520:	f3 0f 1e fa          	endbr64 
  403524:	68 4f 00 00 00       	pushq  $0x4f
  403529:	f2 e9 f1 fa ff ff    	bnd jmpq 403020 <.plt>
  40352f:	90                   	nop
  403530:	f3 0f 1e fa          	endbr64 
  403534:	68 50 00 00 00       	pushq  $0x50
  403539:	f2 e9 e1 fa ff ff    	bnd jmpq 403020 <.plt>
  40353f:	90                   	nop
  403540:	f3 0f 1e fa          	endbr64 
  403544:	68 51 00 00 00       	pushq  $0x51
  403549:	f2 e9 d1 fa ff ff    	bnd jmpq 403020 <.plt>
  40354f:	90                   	nop
  403550:	f3 0f 1e fa          	endbr64 
  403554:	68 52 00 00 00       	pushq  $0x52
  403559:	f2 e9 c1 fa ff ff    	bnd jmpq 403020 <.plt>
  40355f:	90                   	nop
  403560:	f3 0f 1e fa          	endbr64 
  403564:	68 53 00 00 00       	pushq  $0x53
  403569:	f2 e9 b1 fa ff ff    	bnd jmpq 403020 <.plt>
  40356f:	90                   	nop
  403570:	f3 0f 1e fa          	endbr64 
  403574:	68 54 00 00 00       	pushq  $0x54
  403579:	f2 e9 a1 fa ff ff    	bnd jmpq 403020 <.plt>
  40357f:	90                   	nop
  403580:	f3 0f 1e fa          	endbr64 
  403584:	68 55 00 00 00       	pushq  $0x55
  403589:	f2 e9 91 fa ff ff    	bnd jmpq 403020 <.plt>
  40358f:	90                   	nop
  403590:	f3 0f 1e fa          	endbr64 
  403594:	68 56 00 00 00       	pushq  $0x56
  403599:	f2 e9 81 fa ff ff    	bnd jmpq 403020 <.plt>
  40359f:	90                   	nop
  4035a0:	f3 0f 1e fa          	endbr64 
  4035a4:	68 57 00 00 00       	pushq  $0x57
  4035a9:	f2 e9 71 fa ff ff    	bnd jmpq 403020 <.plt>
  4035af:	90                   	nop
  4035b0:	f3 0f 1e fa          	endbr64 
  4035b4:	68 58 00 00 00       	pushq  $0x58
  4035b9:	f2 e9 61 fa ff ff    	bnd jmpq 403020 <.plt>
  4035bf:	90                   	nop

Disassembly of section .plt.sec:

00000000004035c0 <__printf_chk@plt>:
  4035c0:	f3 0f 1e fa          	endbr64 
  4035c4:	f2 ff 25 4d ba 01 00 	bnd jmpq *0x1ba4d(%rip)        # 41f018 <__printf_chk@GLIBC_2.3.4>
  4035cb:	0f 1f 44 00 00       	nopl   0x0(%rax,%rax,1)

00000000004035d0 <_Znam@plt>:
  4035d0:	f3 0f 1e fa          	endbr64 
  4035d4:	f2 ff 25 45 ba 01 00 	bnd jmpq *0x1ba45(%rip)        # 41f020 <_Znam@GLIBCXX_3.4>
  4035db:	0f 1f 44 00 00       	nopl   0x0(%rax,%rax,1)

00000000004035e0 <_ZNSo3putEc@plt>:
  4035e0:	f3 0f 1e fa          	endbr64 
  4035e4:	f2 ff 25 3d ba 01 00 	bnd jmpq *0x1ba3d(%rip)        # 41f028 <_ZNSo3putEc@GLIBCXX_3.4>
  4035eb:	0f 1f 44 00 00       	nopl   0x0(%rax,%rax,1)

00000000004035f0 <_ZNSt6chrono3_V212system_clock3nowEv@plt>:
  4035f0:	f3 0f 1e fa          	endbr64 
  4035f4:	f2 ff 25 35 ba 01 00 	bnd jmpq *0x1ba35(%rip)        # 41f030 <_ZNSt6chrono3_V212system_clock3nowEv@GLIBCXX_3.4.19>
  4035fb:	0f 1f 44 00 00       	nopl   0x0(%rax,%rax,1)

0000000000403600 <syscall@plt>:
  403600:	f3 0f 1e fa          	endbr64 
  403604:	f2 ff 25 2d ba 01 00 	bnd jmpq *0x1ba2d(%rip)        # 41f038 <syscall@GLIBC_2.2.5>
  40360b:	0f 1f 44 00 00       	nopl   0x0(%rax,%rax,1)

0000000000403610 <bind@plt>:
  403610:	f3 0f 1e fa          	endbr64 
  403614:	f2 ff 25 25 ba 01 00 	bnd jmpq *0x1ba25(%rip)        # 41f040 <bind@GLIBC_2.2.5>
  40361b:	0f 1f 44 00 00       	nopl   0x0(%rax,%rax,1)

0000000000403620 <strstr@plt>:
  403620:	f3 0f 1e fa          	endbr64 
  403624:	f2 ff 25 1d ba 01 00 	bnd jmpq *0x1ba1d(%rip)        # 41f048 <strstr@GLIBC_2.2.5>
  40362b:	0f 1f 44 00 00       	nopl   0x0(%rax,%rax,1)

0000000000403630 <_ZNSt13basic_fstreamIcSt11char_traitsIcEED1Ev@plt>:
  403630:	f3 0f 1e fa          	endbr64 
  403634:	f2 ff 25 15 ba 01 00 	bnd jmpq *0x1ba15(%rip)        # 41f050 <_ZNSt13basic_fstreamIcSt11char_traitsIcEED1Ev@GLIBCXX_3.4>
  40363b:	0f 1f 44 00 00       	nopl   0x0(%rax,%rax,1)

0000000000403640 <_ZNSt13basic_filebufIcSt11char_traitsIcEE5closeEv@plt>:
  403640:	f3 0f 1e fa          	endbr64 
  403644:	f2 ff 25 0d ba 01 00 	bnd jmpq *0x1ba0d(%rip)        # 41f058 <_ZNSt13basic_filebufIcSt11char_traitsIcEE5closeEv@GLIBCXX_3.4>
  40364b:	0f 1f 44 00 00       	nopl   0x0(%rax,%rax,1)

0000000000403650 <getopt@plt>:
  403650:	f3 0f 1e fa          	endbr64 
  403654:	f2 ff 25 05 ba 01 00 	bnd jmpq *0x1ba05(%rip)        # 41f060 <getopt@GLIBC_2.2.5>
  40365b:	0f 1f 44 00 00       	nopl   0x0(%rax,%rax,1)

0000000000403660 <_ZNKSt12__basic_fileIcE7is_openEv@plt>:
  403660:	f3 0f 1e fa          	endbr64 
  403664:	f2 ff 25 fd b9 01 00 	bnd jmpq *0x1b9fd(%rip)        # 41f068 <_ZNKSt12__basic_fileIcE7is_openEv@GLIBCXX_3.4>
  40366b:	0f 1f 44 00 00       	nopl   0x0(%rax,%rax,1)

0000000000403670 <socket@plt>:
  403670:	f3 0f 1e fa          	endbr64 
  403674:	f2 ff 25 f5 b9 01 00 	bnd jmpq *0x1b9f5(%rip)        # 41f070 <socket@GLIBC_2.2.5>
  40367b:	0f 1f 44 00 00       	nopl   0x0(%rax,%rax,1)

0000000000403680 <_ZNSt14basic_ifstreamIcSt11char_traitsIcEED1Ev@plt>:
  403680:	f3 0f 1e fa          	endbr64 
  403684:	f2 ff 25 ed b9 01 00 	bnd jmpq *0x1b9ed(%rip)        # 41f078 <_ZNSt14basic_ifstreamIcSt11char_traitsIcEED1Ev@GLIBCXX_3.4>
  40368b:	0f 1f 44 00 00       	nopl   0x0(%rax,%rax,1)

0000000000403690 <_ZNKSt7__cxx1112basic_stringIcSt11char_traitsIcESaIcEE7compareEPKc@plt>:
  403690:	f3 0f 1e fa          	endbr64 
  403694:	f2 ff 25 e5 b9 01 00 	bnd jmpq *0x1b9e5(%rip)        # 41f080 <_ZNKSt7__cxx1112basic_stringIcSt11char_traitsIcESaIcEE7compareEPKc@GLIBCXX_3.4.21>
  40369b:	0f 1f 44 00 00       	nopl   0x0(%rax,%rax,1)

00000000004036a0 <_ZNSt8ios_baseC2Ev@plt>:
  4036a0:	f3 0f 1e fa          	endbr64 
  4036a4:	f2 ff 25 dd b9 01 00 	bnd jmpq *0x1b9dd(%rip)        # 41f088 <_ZNSt8ios_baseC2Ev@GLIBCXX_3.4>
  4036ab:	0f 1f 44 00 00       	nopl   0x0(%rax,%rax,1)

00000000004036b0 <_ZNSt7__cxx1112basic_stringIcSt11char_traitsIcESaIcEE9_M_appendEPKcm@plt>:
  4036b0:	f3 0f 1e fa          	endbr64 
  4036b4:	f2 ff 25 d5 b9 01 00 	bnd jmpq *0x1b9d5(%rip)        # 41f090 <_ZNSt7__cxx1112basic_stringIcSt11char_traitsIcESaIcEE9_M_appendEPKcm@GLIBCXX_3.4.21>
  4036bb:	0f 1f 44 00 00       	nopl   0x0(%rax,%rax,1)

00000000004036c0 <recv@plt>:
  4036c0:	f3 0f 1e fa          	endbr64 
  4036c4:	f2 ff 25 cd b9 01 00 	bnd jmpq *0x1b9cd(%rip)        # 41f098 <recv@GLIBC_2.2.5>
  4036cb:	0f 1f 44 00 00       	nopl   0x0(%rax,%rax,1)

00000000004036d0 <_ZNSt8ios_baseD2Ev@plt>:
  4036d0:	f3 0f 1e fa          	endbr64 
  4036d4:	f2 ff 25 c5 b9 01 00 	bnd jmpq *0x1b9c5(%rip)        # 41f0a0 <_ZNSt8ios_baseD2Ev@GLIBCXX_3.4>
  4036db:	0f 1f 44 00 00       	nopl   0x0(%rax,%rax,1)

00000000004036e0 <_ZNSi4peekEv@plt>:
  4036e0:	f3 0f 1e fa          	endbr64 
  4036e4:	f2 ff 25 bd b9 01 00 	bnd jmpq *0x1b9bd(%rip)        # 41f0a8 <_ZNSi4peekEv@GLIBCXX_3.4>
  4036eb:	0f 1f 44 00 00       	nopl   0x0(%rax,%rax,1)

00000000004036f0 <__cxa_begin_catch@plt>:
  4036f0:	f3 0f 1e fa          	endbr64 
  4036f4:	f2 ff 25 b5 b9 01 00 	bnd jmpq *0x1b9b5(%rip)        # 41f0b0 <__cxa_begin_catch@CXXABI_1.3>
  4036fb:	0f 1f 44 00 00       	nopl   0x0(%rax,%rax,1)

0000000000403700 <strlen@plt>:
  403700:	f3 0f 1e fa          	endbr64 
  403704:	f2 ff 25 ad b9 01 00 	bnd jmpq *0x1b9ad(%rip)        # 41f0b8 <strlen@GLIBC_2.2.5>
  40370b:	0f 1f 44 00 00       	nopl   0x0(%rax,%rax,1)

0000000000403710 <_ZNSt7__cxx1119basic_istringstreamIcSt11char_traitsIcESaIcEED1Ev@plt>:
  403710:	f3 0f 1e fa          	endbr64 
  403714:	f2 ff 25 a5 b9 01 00 	bnd jmpq *0x1b9a5(%rip)        # 41f0c0 <_ZNSt7__cxx1119basic_istringstreamIcSt11char_traitsIcESaIcEED1Ev@GLIBCXX_3.4.21>
  40371b:	0f 1f 44 00 00       	nopl   0x0(%rax,%rax,1)

0000000000403720 <send@plt>:
  403720:	f3 0f 1e fa          	endbr64 
  403724:	f2 ff 25 9d b9 01 00 	bnd jmpq *0x1b99d(%rip)        # 41f0c8 <send@GLIBC_2.2.5>
  40372b:	0f 1f 44 00 00       	nopl   0x0(%rax,%rax,1)

0000000000403730 <_ZSt20__throw_length_errorPKc@plt>:
  403730:	f3 0f 1e fa          	endbr64 
  403734:	f2 ff 25 95 b9 01 00 	bnd jmpq *0x1b995(%rip)        # 41f0d0 <_ZSt20__throw_length_errorPKc@GLIBCXX_3.4>
  40373b:	0f 1f 44 00 00       	nopl   0x0(%rax,%rax,1)

0000000000403740 <getrusage@plt>:
  403740:	f3 0f 1e fa          	endbr64 
  403744:	f2 ff 25 8d b9 01 00 	bnd jmpq *0x1b98d(%rip)        # 41f0d8 <getrusage@GLIBC_2.2.5>
  40374b:	0f 1f 44 00 00       	nopl   0x0(%rax,%rax,1)

0000000000403750 <__snprintf_chk@plt>:
  403750:	f3 0f 1e fa          	endbr64 
  403754:	f2 ff 25 85 b9 01 00 	bnd jmpq *0x1b985(%rip)        # 41f0e0 <__snprintf_chk@GLIBC_2.3.4>
  40375b:	0f 1f 44 00 00       	nopl   0x0(%rax,%rax,1)

0000000000403760 <_ZNSirsERi@plt>:
  403760:	f3 0f 1e fa          	endbr64 
  403764:	f2 ff 25 7d b9 01 00 	bnd jmpq *0x1b97d(%rip)        # 41f0e8 <_ZNSirsERi@GLIBCXX_3.4>
  40376b:	0f 1f 44 00 00       	nopl   0x0(%rax,%rax,1)

0000000000403770 <_ZNSi6ignoreEli@plt>:
  403770:	f3 0f 1e fa          	endbr64 
  403774:	f2 ff 25 75 b9 01 00 	bnd jmpq *0x1b975(%rip)        # 41f0f0 <_ZNSi6ignoreEli@GLIBCXX_3.4>
  40377b:	0f 1f 44 00 00       	nopl   0x0(%rax,%rax,1)

0000000000403780 <_ZNSo5flushEv@plt>:
  403780:	f3 0f 1e fa          	endbr64 
  403784:	f2 ff 25 6d b9 01 00 	bnd jmpq *0x1b96d(%rip)        # 41f0f8 <_ZNSo5flushEv@GLIBCXX_3.4>
  40378b:	0f 1f 44 00 00       	nopl   0x0(%rax,%rax,1)

0000000000403790 <_ZSt19__throw_logic_errorPKc@plt>:
  403790:	f3 0f 1e fa          	endbr64 
  403794:	f2 ff 25 65 b9 01 00 	bnd jmpq *0x1b965(%rip)        # 41f100 <_ZSt19__throw_logic_errorPKc@GLIBCXX_3.4>
  40379b:	0f 1f 44 00 00       	nopl   0x0(%rax,%rax,1)

00000000004037a0 <memcpy@plt>:
  4037a0:	f3 0f 1e fa          	endbr64 
  4037a4:	f2 ff 25 5d b9 01 00 	bnd jmpq *0x1b95d(%rip)        # 41f108 <memcpy@GLIBC_2.14>
  4037ab:	0f 1f 44 00 00       	nopl   0x0(%rax,%rax,1)

00000000004037b0 <perror@plt>:
  4037b0:	f3 0f 1e fa          	endbr64 
  4037b4:	f2 ff 25 55 b9 01 00 	bnd jmpq *0x1b955(%rip)        # 41f110 <perror@GLIBC_2.2.5>
  4037bb:	0f 1f 44 00 00       	nopl   0x0(%rax,%rax,1)

00000000004037c0 <_ZSt2wsIcSt11char_traitsIcEERSt13basic_istreamIT_T0_ES6_@plt>:
  4037c0:	f3 0f 1e fa          	endbr64 
  4037c4:	f2 ff 25 4d b9 01 00 	bnd jmpq *0x1b94d(%rip)        # 41f118 <_ZSt2wsIcSt11char_traitsIcEERSt13basic_istreamIT_T0_ES6_@GLIBCXX_3.4>
  4037cb:	0f 1f 44 00 00       	nopl   0x0(%rax,%rax,1)

00000000004037d0 <__cxa_atexit@plt>:
  4037d0:	f3 0f 1e fa          	endbr64 
  4037d4:	f2 ff 25 45 b9 01 00 	bnd jmpq *0x1b945(%rip)        # 41f120 <__cxa_atexit@GLIBC_2.2.5>
  4037db:	0f 1f 44 00 00       	nopl   0x0(%rax,%rax,1)

00000000004037e0 <_ZNSt13basic_filebufIcSt11char_traitsIcEE4openEPKcSt13_Ios_Openmode@plt>:
  4037e0:	f3 0f 1e fa          	endbr64 
  4037e4:	f2 ff 25 3d b9 01 00 	bnd jmpq *0x1b93d(%rip)        # 41f128 <_ZNSt13basic_filebufIcSt11char_traitsIcEE4openEPKcSt13_Ios_Openmode@GLIBCXX_3.4>
  4037eb:	0f 1f 44 00 00       	nopl   0x0(%rax,%rax,1)

00000000004037f0 <clock_gettime@plt>:
  4037f0:	f3 0f 1e fa          	endbr64 
  4037f4:	f2 ff 25 35 b9 01 00 	bnd jmpq *0x1b935(%rip)        # 41f130 <clock_gettime@GLIBC_2.17>
  4037fb:	0f 1f 44 00 00       	nopl   0x0(%rax,%rax,1)

0000000000403800 <_ZdlPv@plt>:
  403800:	f3 0f 1e fa          	endbr64 
  403804:	f2 ff 25 2d b9 01 00 	bnd jmpq *0x1b92d(%rip)        # 41f138 <_ZdlPv@GLIBCXX_3.4>
  40380b:	0f 1f 44 00 00       	nopl   0x0(%rax,%rax,1)

0000000000403810 <_ZNSo9_M_insertIlEERSoT_@plt>:
  403810:	f3 0f 1e fa          	endbr64 
  403814:	f2 ff 25 25 b9 01 00 	bnd jmpq *0x1b925(%rip)        # 41f140 <_ZNSo9_M_insertIlEERSoT_@GLIBCXX_3.4.9>
  40381b:	0f 1f 44 00 00       	nopl   0x0(%rax,%rax,1)

0000000000403820 <__isoc99_sscanf@plt>:
  403820:	f3 0f 1e fa          	endbr64 
  403824:	f2 ff 25 1d b9 01 00 	bnd jmpq *0x1b91d(%rip)        # 41f148 <__isoc99_sscanf@GLIBC_2.7>
  40382b:	0f 1f 44 00 00       	nopl   0x0(%rax,%rax,1)

0000000000403830 <fclose@plt>:
  403830:	f3 0f 1e fa          	endbr64 
  403834:	f2 ff 25 15 b9 01 00 	bnd jmpq *0x1b915(%rip)        # 41f150 <fclose@GLIBC_2.2.5>
  40383b:	0f 1f 44 00 00       	nopl   0x0(%rax,%rax,1)

0000000000403840 <_Znwm@plt>:
  403840:	f3 0f 1e fa          	endbr64 
  403844:	f2 ff 25 0d b9 01 00 	bnd jmpq *0x1b90d(%rip)        # 41f158 <_Znwm@GLIBCXX_3.4>
  40384b:	0f 1f 44 00 00       	nopl   0x0(%rax,%rax,1)

0000000000403850 <_ZNSi10_M_extractIlEERSiRT_@plt>:
  403850:	f3 0f 1e fa          	endbr64 
  403854:	f2 ff 25 05 b9 01 00 	bnd jmpq *0x1b905(%rip)        # 41f160 <_ZNSi10_M_extractIlEERSiRT_@GLIBCXX_3.4.9>
  40385b:	0f 1f 44 00 00       	nopl   0x0(%rax,%rax,1)

0000000000403860 <_ZNSt13basic_filebufIcSt11char_traitsIcEEC1Ev@plt>:
  403860:	f3 0f 1e fa          	endbr64 
  403864:	f2 ff 25 fd b8 01 00 	bnd jmpq *0x1b8fd(%rip)        # 41f168 <_ZNSt13basic_filebufIcSt11char_traitsIcEEC1Ev@GLIBCXX_3.4>
  40386b:	0f 1f 44 00 00       	nopl   0x0(%rax,%rax,1)

0000000000403870 <__stack_chk_fail@plt>:
  403870:	f3 0f 1e fa          	endbr64 
  403874:	f2 ff 25 f5 b8 01 00 	bnd jmpq *0x1b8f5(%rip)        # 41f170 <__stack_chk_fail@GLIBC_2.4>
  40387b:	0f 1f 44 00 00       	nopl   0x0(%rax,%rax,1)

0000000000403880 <_ZSt16__ostream_insertIcSt11char_traitsIcEERSt13basic_ostreamIT_T0_ES6_PKS3_l@plt>:
  403880:	f3 0f 1e fa          	endbr64 
  403884:	f2 ff 25 ed b8 01 00 	bnd jmpq *0x1b8ed(%rip)        # 41f178 <_ZSt16__ostream_insertIcSt11char_traitsIcEERSt13basic_ostreamIT_T0_ES6_PKS3_l@GLIBCXX_3.4.9>
  40388b:	0f 1f 44 00 00       	nopl   0x0(%rax,%rax,1)

0000000000403890 <_ZNKSt5ctypeIcE13_M_widen_initEv@plt>:
  403890:	f3 0f 1e fa          	endbr64 
  403894:	f2 ff 25 e5 b8 01 00 	bnd jmpq *0x1b8e5(%rip)        # 41f180 <_ZNKSt5ctypeIcE13_M_widen_initEv@GLIBCXX_3.4.11>
  40389b:	0f 1f 44 00 00       	nopl   0x0(%rax,%rax,1)

00000000004038a0 <omp_get_thread_num@plt>:
  4038a0:	f3 0f 1e fa          	endbr64 
  4038a4:	f2 ff 25 dd b8 01 00 	bnd jmpq *0x1b8dd(%rip)        # 41f188 <omp_get_thread_num@VERSION>
  4038ab:	0f 1f 44 00 00       	nopl   0x0(%rax,%rax,1)

00000000004038b0 <_ZNSt7__cxx1112basic_stringIcSt11char_traitsIcESaIcEE12_M_constructEmc@plt>:
  4038b0:	f3 0f 1e fa          	endbr64 
  4038b4:	f2 ff 25 d5 b8 01 00 	bnd jmpq *0x1b8d5(%rip)        # 41f190 <_ZNSt7__cxx1112basic_stringIcSt11char_traitsIcESaIcEE12_M_constructEmc@GLIBCXX_3.4.21>
  4038bb:	0f 1f 44 00 00       	nopl   0x0(%rax,%rax,1)

00000000004038c0 <fopen@plt>:
  4038c0:	f3 0f 1e fa          	endbr64 
  4038c4:	f2 ff 25 cd b8 01 00 	bnd jmpq *0x1b8cd(%rip)        # 41f198 <fopen@GLIBC_2.2.5>
  4038cb:	0f 1f 44 00 00       	nopl   0x0(%rax,%rax,1)

00000000004038d0 <GOMP_barrier@plt>:
  4038d0:	f3 0f 1e fa          	endbr64 
  4038d4:	f2 ff 25 c5 b8 01 00 	bnd jmpq *0x1b8c5(%rip)        # 41f1a0 <GOMP_barrier@VERSION>
  4038db:	0f 1f 44 00 00       	nopl   0x0(%rax,%rax,1)

00000000004038e0 <exit@plt>:
  4038e0:	f3 0f 1e fa          	endbr64 
  4038e4:	f2 ff 25 bd b8 01 00 	bnd jmpq *0x1b8bd(%rip)        # 41f1a8 <exit@GLIBC_2.2.5>
  4038eb:	0f 1f 44 00 00       	nopl   0x0(%rax,%rax,1)

00000000004038f0 <getenv@plt>:
  4038f0:	f3 0f 1e fa          	endbr64 
  4038f4:	f2 ff 25 b5 b8 01 00 	bnd jmpq *0x1b8b5(%rip)        # 41f1b0 <getenv@GLIBC_2.2.5>
  4038fb:	0f 1f 44 00 00       	nopl   0x0(%rax,%rax,1)

0000000000403900 <_ZNSi4readEPcl@plt>:
  403900:	f3 0f 1e fa          	endbr64 
  403904:	f2 ff 25 ad b8 01 00 	bnd jmpq *0x1b8ad(%rip)        # 41f1b8 <_ZNSi4readEPcl@GLIBCXX_3.4>
  40390b:	0f 1f 44 00 00       	nopl   0x0(%rax,%rax,1)

0000000000403910 <_ZSt16__throw_bad_castv@plt>:
  403910:	f3 0f 1e fa          	endbr64 
  403914:	f2 ff 25 a5 b8 01 00 	bnd jmpq *0x1b8a5(%rip)        # 41f1c0 <_ZSt16__throw_bad_castv@GLIBCXX_3.4>
  40391b:	0f 1f 44 00 00       	nopl   0x0(%rax,%rax,1)

0000000000403920 <_ZStrsIcSt11char_traitsIcESaIcEERSt13basic_istreamIT_T0_ES7_RNSt7__cxx1112basic_stringIS4_S5_T1_EE@plt>:
  403920:	f3 0f 1e fa          	endbr64 
  403924:	f2 ff 25 9d b8 01 00 	bnd jmpq *0x1b89d(%rip)        # 41f1c8 <_ZStrsIcSt11char_traitsIcESaIcEERSt13basic_istreamIT_T0_ES7_RNSt7__cxx1112basic_stringIS4_S5_T1_EE@GLIBCXX_3.4.21>
  40392b:	0f 1f 44 00 00       	nopl   0x0(%rax,%rax,1)

0000000000403930 <_ZdaPv@plt>:
  403930:	f3 0f 1e fa          	endbr64 
  403934:	f2 ff 25 95 b8 01 00 	bnd jmpq *0x1b895(%rip)        # 41f1d0 <_ZdaPv@GLIBCXX_3.4>
  40393b:	0f 1f 44 00 00       	nopl   0x0(%rax,%rax,1)

0000000000403940 <_ZNSt7__cxx1115basic_stringbufIcSt11char_traitsIcESaIcEE7_M_syncEPcmm@plt>:
  403940:	f3 0f 1e fa          	endbr64 
  403944:	f2 ff 25 8d b8 01 00 	bnd jmpq *0x1b88d(%rip)        # 41f1d8 <_ZNSt7__cxx1115basic_stringbufIcSt11char_traitsIcESaIcEE7_M_syncEPcmm@GLIBCXX_3.4.21>
  40394b:	0f 1f 44 00 00       	nopl   0x0(%rax,%rax,1)

0000000000403950 <_ZNSo5writeEPKcl@plt>:
  403950:	f3 0f 1e fa          	endbr64 
  403954:	f2 ff 25 85 b8 01 00 	bnd jmpq *0x1b885(%rip)        # 41f1e0 <_ZNSo5writeEPKcl@GLIBCXX_3.4>
  40395b:	0f 1f 44 00 00       	nopl   0x0(%rax,%rax,1)

0000000000403960 <_ZStrsIcSt11char_traitsIcEERSt13basic_istreamIT_T0_ES6_RS3_@plt>:
  403960:	f3 0f 1e fa          	endbr64 
  403964:	f2 ff 25 7d b8 01 00 	bnd jmpq *0x1b87d(%rip)        # 41f1e8 <_ZStrsIcSt11char_traitsIcEERSt13basic_istreamIT_T0_ES6_RS3_@GLIBCXX_3.4>
  40396b:	0f 1f 44 00 00       	nopl   0x0(%rax,%rax,1)

0000000000403970 <_ZNSt9basic_iosIcSt11char_traitsIcEE4initEPSt15basic_streambufIcS1_E@plt>:
  403970:	f3 0f 1e fa          	endbr64 
  403974:	f2 ff 25 75 b8 01 00 	bnd jmpq *0x1b875(%rip)        # 41f1f0 <_ZNSt9basic_iosIcSt11char_traitsIcEE4initEPSt15basic_streambufIcS1_E@GLIBCXX_3.4>
  40397b:	0f 1f 44 00 00       	nopl   0x0(%rax,%rax,1)

0000000000403980 <strtol@plt>:
  403980:	f3 0f 1e fa          	endbr64 
  403984:	f2 ff 25 6d b8 01 00 	bnd jmpq *0x1b86d(%rip)        # 41f1f8 <strtol@GLIBC_2.2.5>
  40398b:	0f 1f 44 00 00       	nopl   0x0(%rax,%rax,1)

0000000000403990 <ioctl@plt>:
  403990:	f3 0f 1e fa          	endbr64 
  403994:	f2 ff 25 65 b8 01 00 	bnd jmpq *0x1b865(%rip)        # 41f200 <ioctl@GLIBC_2.2.5>
  40399b:	0f 1f 44 00 00       	nopl   0x0(%rax,%rax,1)

00000000004039a0 <_ZNSt6localeD1Ev@plt>:
  4039a0:	f3 0f 1e fa          	endbr64 
  4039a4:	f2 ff 25 5d b8 01 00 	bnd jmpq *0x1b85d(%rip)        # 41f208 <_ZNSt6localeD1Ev@GLIBCXX_3.4>
  4039ab:	0f 1f 44 00 00       	nopl   0x0(%rax,%rax,1)

00000000004039b0 <__cxa_throw_bad_array_new_length@plt>:
  4039b0:	f3 0f 1e fa          	endbr64 
  4039b4:	f2 ff 25 55 b8 01 00 	bnd jmpq *0x1b855(%rip)        # 41f210 <__cxa_throw_bad_array_new_length@CXXABI_1.3.8>
  4039bb:	0f 1f 44 00 00       	nopl   0x0(%rax,%rax,1)

00000000004039c0 <read@plt>:
  4039c0:	f3 0f 1e fa          	endbr64 
  4039c4:	f2 ff 25 4d b8 01 00 	bnd jmpq *0x1b84d(%rip)        # 41f218 <read@GLIBC_2.2.5>
  4039cb:	0f 1f 44 00 00       	nopl   0x0(%rax,%rax,1)

00000000004039d0 <omp_get_num_threads@plt>:
  4039d0:	f3 0f 1e fa          	endbr64 
  4039d4:	f2 ff 25 45 b8 01 00 	bnd jmpq *0x1b845(%rip)        # 41f220 <omp_get_num_threads@VERSION>
  4039db:	0f 1f 44 00 00       	nopl   0x0(%rax,%rax,1)

00000000004039e0 <getpid@plt>:
  4039e0:	f3 0f 1e fa          	endbr64 
  4039e4:	f2 ff 25 3d b8 01 00 	bnd jmpq *0x1b83d(%rip)        # 41f228 <getpid@GLIBC_2.2.5>
  4039eb:	0f 1f 44 00 00       	nopl   0x0(%rax,%rax,1)

00000000004039f0 <_ZSt24__throw_out_of_range_fmtPKcz@plt>:
  4039f0:	f3 0f 1e fa          	endbr64 
  4039f4:	f2 ff 25 35 b8 01 00 	bnd jmpq *0x1b835(%rip)        # 41f230 <_ZSt24__throw_out_of_range_fmtPKcz@GLIBCXX_3.4.20>
  4039fb:	0f 1f 44 00 00       	nopl   0x0(%rax,%rax,1)

0000000000403a00 <_ZNSt8ios_base4InitC1Ev@plt>:
  403a00:	f3 0f 1e fa          	endbr64 
  403a04:	f2 ff 25 2d b8 01 00 	bnd jmpq *0x1b82d(%rip)        # 41f238 <_ZNSt8ios_base4InitC1Ev@GLIBCXX_3.4>
  403a0b:	0f 1f 44 00 00       	nopl   0x0(%rax,%rax,1)

0000000000403a10 <_ZNSt13basic_filebufIcSt11char_traitsIcEED1Ev@plt>:
  403a10:	f3 0f 1e fa          	endbr64 
  403a14:	f2 ff 25 25 b8 01 00 	bnd jmpq *0x1b825(%rip)        # 41f240 <_ZNSt13basic_filebufIcSt11char_traitsIcEED1Ev@GLIBCXX_3.4>
  403a1b:	0f 1f 44 00 00       	nopl   0x0(%rax,%rax,1)

0000000000403a20 <_ZNSt7__cxx1112basic_stringIcSt11char_traitsIcESaIcEE7reserveEm@plt>:
  403a20:	f3 0f 1e fa          	endbr64 
  403a24:	f2 ff 25 1d b8 01 00 	bnd jmpq *0x1b81d(%rip)        # 41f248 <_ZNSt7__cxx1112basic_stringIcSt11char_traitsIcESaIcEE7reserveEm@GLIBCXX_3.4.21>
  403a2b:	0f 1f 44 00 00       	nopl   0x0(%rax,%rax,1)

0000000000403a30 <fgets@plt>:
  403a30:	f3 0f 1e fa          	endbr64 
  403a34:	f2 ff 25 15 b8 01 00 	bnd jmpq *0x1b815(%rip)        # 41f250 <fgets@GLIBC_2.2.5>
  403a3b:	0f 1f 44 00 00       	nopl   0x0(%rax,%rax,1)

0000000000403a40 <gettimeofday@plt>:
  403a40:	f3 0f 1e fa          	endbr64 
  403a44:	f2 ff 25 0d b8 01 00 	bnd jmpq *0x1b80d(%rip)        # 41f258 <gettimeofday@GLIBC_2.2.5>
  403a4b:	0f 1f 44 00 00       	nopl   0x0(%rax,%rax,1)

0000000000403a50 <memmove@plt>:
  403a50:	f3 0f 1e fa          	endbr64 
  403a54:	f2 ff 25 05 b8 01 00 	bnd jmpq *0x1b805(%rip)        # 41f260 <memmove@GLIBC_2.2.5>
  403a5b:	0f 1f 44 00 00       	nopl   0x0(%rax,%rax,1)

0000000000403a60 <__cxa_end_catch@plt>:
  403a60:	f3 0f 1e fa          	endbr64 
  403a64:	f2 ff 25 fd b7 01 00 	bnd jmpq *0x1b7fd(%rip)        # 41f268 <__cxa_end_catch@CXXABI_1.3>
  403a6b:	0f 1f 44 00 00       	nopl   0x0(%rax,%rax,1)

0000000000403a70 <realloc@plt>:
  403a70:	f3 0f 1e fa          	endbr64 
  403a74:	f2 ff 25 f5 b7 01 00 	bnd jmpq *0x1b7f5(%rip)        # 41f270 <realloc@GLIBC_2.2.5>
  403a7b:	0f 1f 44 00 00       	nopl   0x0(%rax,%rax,1)

0000000000403a80 <__fprintf_chk@plt>:
  403a80:	f3 0f 1e fa          	endbr64 
  403a84:	f2 ff 25 ed b7 01 00 	bnd jmpq *0x1b7ed(%rip)        # 41f278 <__fprintf_chk@GLIBC_2.3.4>
  403a8b:	0f 1f 44 00 00       	nopl   0x0(%rax,%rax,1)

0000000000403a90 <_ZNSt7__cxx1119basic_istringstreamIcSt11char_traitsIcESaIcEEC1ERKNS_12basic_stringIcS2_S3_EESt13_Ios_Openmode@plt>:
  403a90:	f3 0f 1e fa          	endbr64 
  403a94:	f2 ff 25 e5 b7 01 00 	bnd jmpq *0x1b7e5(%rip)        # 41f280 <_ZNSt7__cxx1119basic_istringstreamIcSt11char_traitsIcESaIcEEC1ERKNS_12basic_stringIcS2_S3_EESt13_Ios_Openmode@GLIBCXX_3.4.21>
  403a9b:	0f 1f 44 00 00       	nopl   0x0(%rax,%rax,1)

0000000000403aa0 <_ZNSt9basic_iosIcSt11char_traitsIcEE5clearESt12_Ios_Iostate@plt>:
  403aa0:	f3 0f 1e fa          	endbr64 
  403aa4:	f2 ff 25 dd b7 01 00 	bnd jmpq *0x1b7dd(%rip)        # 41f288 <_ZNSt9basic_iosIcSt11char_traitsIcEE5clearESt12_Ios_Iostate@GLIBCXX_3.4>
  403aab:	0f 1f 44 00 00       	nopl   0x0(%rax,%rax,1)

0000000000403ab0 <_ZNSolsEi@plt>:
  403ab0:	f3 0f 1e fa          	endbr64 
  403ab4:	f2 ff 25 d5 b7 01 00 	bnd jmpq *0x1b7d5(%rip)        # 41f290 <_ZNSolsEi@GLIBCXX_3.4>
  403abb:	0f 1f 44 00 00       	nopl   0x0(%rax,%rax,1)

0000000000403ac0 <GOMP_parallel@plt>:
  403ac0:	f3 0f 1e fa          	endbr64 
  403ac4:	f2 ff 25 cd b7 01 00 	bnd jmpq *0x1b7cd(%rip)        # 41f298 <GOMP_parallel@VERSION>
  403acb:	0f 1f 44 00 00       	nopl   0x0(%rax,%rax,1)

0000000000403ad0 <_Unwind_Resume@plt>:
  403ad0:	f3 0f 1e fa          	endbr64 
  403ad4:	f2 ff 25 c5 b7 01 00 	bnd jmpq *0x1b7c5(%rip)        # 41f2a0 <_Unwind_Resume@GCC_3.0>
  403adb:	0f 1f 44 00 00       	nopl   0x0(%rax,%rax,1)

0000000000403ae0 <_ZNSt7__cxx1112basic_stringIcSt11char_traitsIcESaIcEE9_M_createERmm@plt>:
  403ae0:	f3 0f 1e fa          	endbr64 
  403ae4:	f2 ff 25 bd b7 01 00 	bnd jmpq *0x1b7bd(%rip)        # 41f2a8 <_ZNSt7__cxx1112basic_stringIcSt11char_traitsIcESaIcEE9_M_createERmm@GLIBCXX_3.4.21>
  403aeb:	0f 1f 44 00 00       	nopl   0x0(%rax,%rax,1)

0000000000403af0 <__isoc99_fscanf@plt>:
  403af0:	f3 0f 1e fa          	endbr64 
  403af4:	f2 ff 25 b5 b7 01 00 	bnd jmpq *0x1b7b5(%rip)        # 41f2b0 <__isoc99_fscanf@GLIBC_2.7>
  403afb:	0f 1f 44 00 00       	nopl   0x0(%rax,%rax,1)

0000000000403b00 <_ZSt7getlineIcSt11char_traitsIcESaIcEERSt13basic_istreamIT_T0_ES7_RNSt7__cxx1112basic_stringIS4_S5_T1_EES4_@plt>:
  403b00:	f3 0f 1e fa          	endbr64 
  403b04:	f2 ff 25 ad b7 01 00 	bnd jmpq *0x1b7ad(%rip)        # 41f2b8 <_ZSt7getlineIcSt11char_traitsIcESaIcEERSt13basic_istreamIT_T0_ES7_RNSt7__cxx1112basic_stringIS4_S5_T1_EES4_@GLIBCXX_3.4.21>
  403b0b:	0f 1f 44 00 00       	nopl   0x0(%rax,%rax,1)

0000000000403b10 <_ZNSt12__basic_fileIcED1Ev@plt>:
  403b10:	f3 0f 1e fa          	endbr64 
  403b14:	f2 ff 25 a5 b7 01 00 	bnd jmpq *0x1b7a5(%rip)        # 41f2c0 <_ZNSt12__basic_fileIcED1Ev@GLIBCXX_3.4>
  403b1b:	0f 1f 44 00 00       	nopl   0x0(%rax,%rax,1)

0000000000403b20 <close@plt>:
  403b20:	f3 0f 1e fa          	endbr64 
  403b24:	f2 ff 25 9d b7 01 00 	bnd jmpq *0x1b79d(%rip)        # 41f2c8 <close@GLIBC_2.2.5>
  403b2b:	0f 1f 44 00 00       	nopl   0x0(%rax,%rax,1)

0000000000403b30 <_ZNKSt7__cxx1112basic_stringIcSt11char_traitsIcESaIcEE5rfindEcm@plt>:
  403b30:	f3 0f 1e fa          	endbr64 
  403b34:	f2 ff 25 95 b7 01 00 	bnd jmpq *0x1b795(%rip)        # 41f2d0 <_ZNKSt7__cxx1112basic_stringIcSt11char_traitsIcESaIcEE5rfindEcm@GLIBCXX_3.4.21>
  403b3b:	0f 1f 44 00 00       	nopl   0x0(%rax,%rax,1)

0000000000403b40 <_ZNSt6localeC1Ev@plt>:
  403b40:	f3 0f 1e fa          	endbr64 
  403b44:	f2 ff 25 8d b7 01 00 	bnd jmpq *0x1b78d(%rip)        # 41f2d8 <_ZNSt6localeC1Ev@GLIBCXX_3.4>
  403b4b:	0f 1f 44 00 00       	nopl   0x0(%rax,%rax,1)

Disassembly of section .text:

0000000000403b50 <_Z10PrintLabelRKNSt7__cxx1112basic_stringIcSt11char_traitsIcESaIcEEES6_.cold>:
_ZNKSt7__cxx1112basic_stringIcSt11char_traitsIcESaIcEE7_M_dataEv():
/usr/include/c++/10/bits/basic_string.h:195 (discriminator 1)
      _M_length(size_type __length)
      { _M_string_length = __length; }

      pointer
      _M_data() const
      { return _M_dataplus._M_p; }
  403b50:	48 8b 7c 24 10       	mov    0x10(%rsp),%rdi
_ZNSt7__cxx1112basic_stringIcSt11char_traitsIcESaIcEE10_M_disposeEv():
/usr/include/c++/10/bits/basic_string.h:239 (discriminator 1)
      _M_create(size_type&, size_type);

      void
      _M_dispose()
      {
	if (!_M_is_local())
  403b55:	48 39 df             	cmp    %rbx,%rdi
  403b58:	74 05                	je     403b5f <_Z10PrintLabelRKNSt7__cxx1112basic_stringIcSt11char_traitsIcESaIcEEES6_.cold+0xf>
_ZN9__gnu_cxx13new_allocatorIcE10deallocateEPcm():
/usr/include/c++/10/ext/new_allocator.h:139
# endif
			      std::align_val_t(alignof(_Tp)));
	    return;
	  }
#endif
	::operator delete(__p
  403b5a:	e8 a1 fc ff ff       	callq  403800 <_ZdlPv@plt>
_ZN9__gnu_cxx13new_allocatorIcED4Ev():
/usr/include/c++/10/ext/new_allocator.h:89
      ~new_allocator() _GLIBCXX_USE_NOEXCEPT { }
  403b5f:	48 89 ef             	mov    %rbp,%rdi
  403b62:	e8 69 ff ff ff       	callq  403ad0 <_Unwind_Resume@plt>

0000000000403b67 <_Z9PrintTimeRKNSt7__cxx1112basic_stringIcSt11char_traitsIcESaIcEEEd.cold>:
_ZNKSt7__cxx1112basic_stringIcSt11char_traitsIcESaIcEE7_M_dataEv():
/usr/include/c++/10/bits/basic_string.h:195 (discriminator 1)
      { return _M_dataplus._M_p; }
  403b67:	48 8b 7c 24 10       	mov    0x10(%rsp),%rdi
_ZNSt7__cxx1112basic_stringIcSt11char_traitsIcESaIcEE10_M_disposeEv():
/usr/include/c++/10/bits/basic_string.h:239 (discriminator 1)
	if (!_M_is_local())
  403b6c:	48 39 df             	cmp    %rbx,%rdi
  403b6f:	74 05                	je     403b76 <_Z9PrintTimeRKNSt7__cxx1112basic_stringIcSt11char_traitsIcESaIcEEEd.cold+0xf>
_ZN9__gnu_cxx13new_allocatorIcE10deallocateEPcm():
/usr/include/c++/10/ext/new_allocator.h:139
	::operator delete(__p
  403b71:	e8 8a fc ff ff       	callq  403800 <_ZdlPv@plt>
_ZN9__gnu_cxx13new_allocatorIcED4Ev():
/usr/include/c++/10/ext/new_allocator.h:89
      ~new_allocator() _GLIBCXX_USE_NOEXCEPT { }
  403b76:	48 89 ef             	mov    %rbp,%rdi
  403b79:	e8 52 ff ff ff       	callq  403ad0 <_Unwind_Resume@plt>

0000000000403b7e <_Z9PrintStepRKNSt7__cxx1112basic_stringIcSt11char_traitsIcESaIcEEEl.cold>:
_ZNKSt7__cxx1112basic_stringIcSt11char_traitsIcESaIcEE7_M_dataEv():
/usr/include/c++/10/bits/basic_string.h:195 (discriminator 1)
      { return _M_dataplus._M_p; }
  403b7e:	48 8b 7c 24 10       	mov    0x10(%rsp),%rdi
_ZNSt7__cxx1112basic_stringIcSt11char_traitsIcESaIcEE10_M_disposeEv():
/usr/include/c++/10/bits/basic_string.h:239 (discriminator 1)
	if (!_M_is_local())
  403b83:	48 39 df             	cmp    %rbx,%rdi
  403b86:	74 05                	je     403b8d <_Z9PrintStepRKNSt7__cxx1112basic_stringIcSt11char_traitsIcESaIcEEEl.cold+0xf>
_ZN9__gnu_cxx13new_allocatorIcE10deallocateEPcm():
/usr/include/c++/10/ext/new_allocator.h:139
	::operator delete(__p
  403b88:	e8 73 fc ff ff       	callq  403800 <_ZdlPv@plt>
_ZN9__gnu_cxx13new_allocatorIcED4Ev():
/usr/include/c++/10/ext/new_allocator.h:89
      ~new_allocator() _GLIBCXX_USE_NOEXCEPT { }
  403b8d:	48 89 ef             	mov    %rbp,%rdi
  403b90:	e8 3b ff ff ff       	callq  403ad0 <_Unwind_Resume@plt>

0000000000403b95 <_Z9PrintStepidl.cold>:
_ZNKSt7__cxx1112basic_stringIcSt11char_traitsIcESaIcEE7_M_dataEv():
/usr/include/c++/10/bits/basic_string.h:195 (discriminator 1)
      { return _M_dataplus._M_p; }
  403b95:	48 8b 7c 24 10       	mov    0x10(%rsp),%rdi
_ZNSt7__cxx1112basic_stringIcSt11char_traitsIcESaIcEE10_M_disposeEv():
/usr/include/c++/10/bits/basic_string.h:239 (discriminator 1)
	if (!_M_is_local())
  403b9a:	48 39 ef             	cmp    %rbp,%rdi
  403b9d:	74 05                	je     403ba4 <_Z9PrintStepidl.cold+0xf>
_ZN9__gnu_cxx13new_allocatorIcE10deallocateEPcm():
/usr/include/c++/10/ext/new_allocator.h:139
	::operator delete(__p
  403b9f:	e8 5c fc ff ff       	callq  403800 <_ZdlPv@plt>
_ZN9__gnu_cxx13new_allocatorIcED4Ev():
/usr/include/c++/10/ext/new_allocator.h:89
      ~new_allocator() _GLIBCXX_USE_NOEXCEPT { }
  403ba4:	4c 89 e7             	mov    %r12,%rdi
  403ba7:	e8 24 ff ff ff       	callq  403ad0 <_Unwind_Resume@plt>

0000000000403bac <main.cold>:
_ZNKSt7__cxx1112basic_stringIcSt11char_traitsIcESaIcEE7_M_dataEv():
/usr/include/c++/10/bits/basic_string.h:195 (discriminator 2)
      { return _M_dataplus._M_p; }
  403bac:	48 8b 7c 24 70       	mov    0x70(%rsp),%rdi
_ZNSt7__cxx1112basic_stringIcSt11char_traitsIcESaIcEE10_M_disposeEv():
/usr/include/c++/10/bits/basic_string.h:239 (discriminator 2)
	if (!_M_is_local())
  403bb1:	48 39 df             	cmp    %rbx,%rdi
  403bb4:	74 05                	je     403bbb <main.cold+0xf>
_ZN9__gnu_cxx13new_allocatorIcE10deallocateEPcm():
/usr/include/c++/10/ext/new_allocator.h:139
	::operator delete(__p
  403bb6:	e8 45 fc ff ff       	callq  403800 <_ZdlPv@plt>
_ZN9__gnu_cxx13new_allocatorIcED4Ev():
/usr/include/c++/10/ext/new_allocator.h:89
      ~new_allocator() _GLIBCXX_USE_NOEXCEPT { }
  403bbb:	4c 89 e3             	mov    %r12,%rbx
_ZNKSt7__cxx1112basic_stringIcSt11char_traitsIcESaIcEE7_M_dataEv():
/usr/include/c++/10/bits/basic_string.h:195
      { return _M_dataplus._M_p; }
  403bbe:	48 8b bc 24 98 00 00 	mov    0x98(%rsp),%rdi
  403bc5:	00 
_ZNSt7__cxx1112basic_stringIcSt11char_traitsIcESaIcEE10_M_disposeEv():
/usr/include/c++/10/bits/basic_string.h:239
	if (!_M_is_local())
  403bc6:	48 3b 3c 24          	cmp    (%rsp),%rdi
  403bca:	75 18                	jne    403be4 <main.cold+0x38>
_ZN8CSRGraphIiiLb1EED4Ev():
/home/aliha951/ipdps-artifact/gapbs-master/src/graph.h:166
      other.in_index_ = nullptr;
      other.in_neighbors_ = nullptr;
  }

  ~CSRGraph() {
    ReleaseResources();
  403bcc:	48 89 ef             	mov    %rbp,%rdi
  403bcf:	e8 fc 65 00 00       	callq  40a1d0 <_ZN8CSRGraphIiiLb1EE16ReleaseResourcesEv>
main.cold():
/home/aliha951/ipdps-artifact/gapbs-master/src/converter.cc:15
#include "writer.h"

using namespace std;

int main(int argc, char* argv[]) {
  CLConvert cli(argc, argv, "converter");
  403bd4:	4c 89 f7             	mov    %r14,%rdi
main():
/home/aliha951/ipdps-artifact/gapbs-master/src/converter.cc:15
  403bd7:	e8 44 62 00 00       	callq  409e20 <_ZN9CLConvertD1Ev>
  403bdc:	48 89 df             	mov    %rbx,%rdi
  403bdf:	e8 ec fe ff ff       	callq  403ad0 <_Unwind_Resume@plt>
_ZN9__gnu_cxx13new_allocatorIcE10deallocateEPcm():
/usr/include/c++/10/ext/new_allocator.h:139
	::operator delete(__p
  403be4:	e8 17 fc ff ff       	callq  403800 <_ZdlPv@plt>
_ZNSt7__cxx1112basic_stringIcSt11char_traitsIcESaIcEE10_M_destroyEm():
/usr/include/c++/10/bits/basic_string.h:245
	  _M_destroy(_M_allocated_capacity);
      }

      void
      _M_destroy(size_type __size) throw()
      { _Alloc_traits::deallocate(_M_get_allocator(), _M_data(), __size + 1); }
  403be9:	eb e1                	jmp    403bcc <main.cold+0x20>
_ZNKSt7__cxx1112basic_stringIcSt11char_traitsIcESaIcEE7_M_dataEv():
/usr/include/c++/10/bits/basic_string.h:195 (discriminator 2)
      { return _M_dataplus._M_p; }
  403beb:	48 8b 7c 24 70       	mov    0x70(%rsp),%rdi
_ZNSt7__cxx1112basic_stringIcSt11char_traitsIcESaIcEE10_M_disposeEv():
/usr/include/c++/10/bits/basic_string.h:239 (discriminator 2)
	if (!_M_is_local())
  403bf0:	48 39 df             	cmp    %rbx,%rdi
  403bf3:	74 05                	je     403bfa <main.cold+0x4e>
_ZN9__gnu_cxx13new_allocatorIcE10deallocateEPcm():
/usr/include/c++/10/ext/new_allocator.h:139
  403bf5:	e8 06 fc ff ff       	callq  403800 <_ZdlPv@plt>
_ZN9__gnu_cxx13new_allocatorIcED4Ev():
/usr/include/c++/10/ext/new_allocator.h:89
      ~new_allocator() _GLIBCXX_USE_NOEXCEPT { }
  403bfa:	4c 89 e3             	mov    %r12,%rbx
_ZNKSt7__cxx1112basic_stringIcSt11char_traitsIcESaIcEE7_M_dataEv():
/usr/include/c++/10/bits/basic_string.h:195
      { return _M_dataplus._M_p; }
  403bfd:	48 8b bc 24 98 00 00 	mov    0x98(%rsp),%rdi
  403c04:	00 
_ZNSt7__cxx1112basic_stringIcSt11char_traitsIcESaIcEE10_M_disposeEv():
/usr/include/c++/10/bits/basic_string.h:239
	if (!_M_is_local())
  403c05:	48 3b 3c 24          	cmp    (%rsp),%rdi
  403c09:	74 05                	je     403c10 <main.cold+0x64>
_ZN9__gnu_cxx13new_allocatorIcE10deallocateEPcm():
/usr/include/c++/10/ext/new_allocator.h:139
	::operator delete(__p
  403c0b:	e8 f0 fb ff ff       	callq  403800 <_ZdlPv@plt>
_ZN8CSRGraphIi10NodeWeightIiiELb1EED4Ev():
/home/aliha951/ipdps-artifact/gapbs-master/src/graph.h:166
  403c10:	48 89 ef             	mov    %rbp,%rdi
  403c13:	e8 58 65 00 00       	callq  40a170 <_ZN8CSRGraphIi10NodeWeightIiiELb1EE16ReleaseResourcesEv>
  403c18:	eb ba                	jmp    403bd4 <main.cold+0x28>
_ZNKSt7__cxx1112basic_stringIcSt11char_traitsIcESaIcEE7_M_dataEv():
/usr/include/c++/10/bits/basic_string.h:195
      { return _M_dataplus._M_p; }
  403c1a:	48 8b bc 24 90 00 00 	mov    0x90(%rsp),%rdi
  403c21:	00 
_ZNSt7__cxx1112basic_stringIcSt11char_traitsIcESaIcEE10_M_disposeEv():
/usr/include/c++/10/bits/basic_string.h:239
	if (!_M_is_local())
  403c22:	48 8d 84 24 a0 00 00 	lea    0xa0(%rsp),%rax
  403c29:	00 
  403c2a:	48 39 c7             	cmp    %rax,%rdi
  403c2d:	74 05                	je     403c34 <main.cold+0x88>
_ZN9__gnu_cxx13new_allocatorIcE10deallocateEPcm():
/usr/include/c++/10/ext/new_allocator.h:139
  403c2f:	e8 cc fb ff ff       	callq  403800 <_ZdlPv@plt>
_ZN9__gnu_cxx13new_allocatorIcED4Ev():
/usr/include/c++/10/ext/new_allocator.h:89
      ~new_allocator() _GLIBCXX_USE_NOEXCEPT { }
  403c34:	48 89 ef             	mov    %rbp,%rdi
  403c37:	e8 94 fe ff ff       	callq  403ad0 <_Unwind_Resume@plt>
main.cold():
  403c3c:	0f 1f 40 00          	nopl   0x0(%rax)

0000000000403c40 <main>:
main():
/home/aliha951/ipdps-artifact/gapbs-master/src/converter.cc:14
int main(int argc, char* argv[]) {
  403c40:	f3 0f 1e fa          	endbr64 
  403c44:	41 57                	push   %r15
  403c46:	41 56                	push   %r14
  403c48:	41 55                	push   %r13
  403c4a:	49 89 f5             	mov    %rsi,%r13
/home/aliha951/ipdps-artifact/gapbs-master/src/converter.cc:15
  CLConvert cli(argc, argv, "converter");
  403c4d:	48 8d 35 6e 66 01 00 	lea    0x1666e(%rip),%rsi        # 41a2c2 <_IO_stdin_used+0x2c2>
/home/aliha951/ipdps-artifact/gapbs-master/src/converter.cc:14
int main(int argc, char* argv[]) {
  403c54:	41 54                	push   %r12
  403c56:	55                   	push   %rbp
  403c57:	89 fd                	mov    %edi,%ebp
  403c59:	53                   	push   %rbx
  403c5a:	48 81 ec a8 01 00 00 	sub    $0x1a8,%rsp
/home/aliha951/ipdps-artifact/gapbs-master/src/converter.cc:15
  CLConvert cli(argc, argv, "converter");
  403c61:	4c 8d a4 24 90 00 00 	lea    0x90(%rsp),%r12
  403c68:	00 
  403c69:	4c 8d b4 24 c0 00 00 	lea    0xc0(%rsp),%r14
  403c70:	00 
/home/aliha951/ipdps-artifact/gapbs-master/src/converter.cc:14
int main(int argc, char* argv[]) {
  403c71:	64 48 8b 04 25 28 00 	mov    %fs:0x28,%rax
  403c78:	00 00 
  403c7a:	48 89 84 24 98 01 00 	mov    %rax,0x198(%rsp)
  403c81:	00 
  403c82:	31 c0                	xor    %eax,%eax
/home/aliha951/ipdps-artifact/gapbs-master/src/converter.cc:15
  CLConvert cli(argc, argv, "converter");
  403c84:	4c 89 e7             	mov    %r12,%rdi
  403c87:	e8 44 26 00 00       	callq  4062d0 <_ZNSt7__cxx1112basic_stringIcSt11char_traitsIcESaIcEEC2EPKcRKS3_.constprop.0>
  403c8c:	4c 89 e1             	mov    %r12,%rcx
  403c8f:	4c 89 ea             	mov    %r13,%rdx
  403c92:	89 ee                	mov    %ebp,%esi
  403c94:	4c 89 f7             	mov    %r14,%rdi
  403c97:	e8 84 78 00 00       	callq  40b520 <_ZN9CLConvertC1EiPPcNSt7__cxx1112basic_stringIcSt11char_traitsIcESaIcEEE>
_ZNKSt7__cxx1112basic_stringIcSt11char_traitsIcESaIcEE7_M_dataEv():
/usr/include/c++/10/bits/basic_string.h:195
      { return _M_dataplus._M_p; }
  403c9c:	48 8b bc 24 90 00 00 	mov    0x90(%rsp),%rdi
  403ca3:	00 
_ZNSt7__cxx1112basic_stringIcSt11char_traitsIcESaIcEE10_M_disposeEv():
/usr/include/c++/10/bits/basic_string.h:239
	if (!_M_is_local())
  403ca4:	48 8d 9c 24 a0 00 00 	lea    0xa0(%rsp),%rbx
  403cab:	00 
  403cac:	48 39 df             	cmp    %rbx,%rdi
  403caf:	74 05                	je     403cb6 <main+0x76>
_ZN9__gnu_cxx13new_allocatorIcE10deallocateEPcm():
/usr/include/c++/10/ext/new_allocator.h:139
	::operator delete(__p
  403cb1:	e8 4a fb ff ff       	callq  403800 <_ZdlPv@plt>
_ZNSt7__cxx1112basic_stringIcSt11char_traitsIcESaIcEEaSEOS4_():
/usr/include/c++/10/bits/basic_string.h:745
	    || _M_get_allocator() == __str._M_get_allocator())
	  {
	    // Just move the allocated pointer, our allocator can free it.
	    pointer __data = nullptr;
	    size_type __capacity;
	    if (!_M_is_local())
  403cb6:	48 8d 84 24 80 01 00 	lea    0x180(%rsp),%rax
  403cbd:	00 
_ZN6CLBase9HandleArgEaPc():
/home/aliha951/ipdps-artifact/gapbs-master/src/command_line.h:100
      symmetrize_ = true;
    return true;
  }

  void virtual HandleArg(signed char opt, char* opt_arg) {
    switch (opt) {
  403cbe:	4c 8d 2d 87 70 01 00 	lea    0x17087(%rip),%r13        # 41ad4c <_IO_stdin_used+0xd4c>
_ZNSt7__cxx1112basic_stringIcSt11char_traitsIcESaIcEEaSEOS4_():
/usr/include/c++/10/bits/basic_string.h:745
  403cc5:	48 89 04 24          	mov    %rax,(%rsp)
_ZNSt7__cxx1112basic_stringIcSt11char_traitsIcESaIcEE7_M_dataEPc():
/usr/include/c++/10/bits/basic_string.h:187
      { _M_dataplus._M_p = __p; }
  403cc9:	48 8d 84 24 a0 00 00 	lea    0xa0(%rsp),%rax
  403cd0:	00 
  403cd1:	48 89 44 24 08       	mov    %rax,0x8(%rsp)
  403cd6:	66 2e 0f 1f 84 00 00 	nopw   %cs:0x0(%rax,%rax,1)
  403cdd:	00 00 00 
_ZN6CLBase9ParseArgsEv():
/home/aliha951/ipdps-artifact/gapbs-master/src/command_line.h:87
    while ((c_opt = getopt(argc_, argv_, get_args_.c_str())) != -1) {
  403ce0:	48 8b 94 24 f8 00 00 	mov    0xf8(%rsp),%rdx
  403ce7:	00 
  403ce8:	48 8b b4 24 d0 00 00 	mov    0xd0(%rsp),%rsi
  403cef:	00 
  403cf0:	8b bc 24 c8 00 00 00 	mov    0xc8(%rsp),%edi
  403cf7:	e8 54 f9 ff ff       	callq  403650 <getopt@plt>
  403cfc:	3c ff                	cmp    $0xff,%al
  403cfe:	0f 84 5c 02 00 00    	je     403f60 <main+0x320>
/home/aliha951/ipdps-artifact/gapbs-master/src/command_line.h:88
      HandleArg(c_opt, optarg);
  403d04:	48 8b 2d f5 b5 01 00 	mov    0x1b5f5(%rip),%rbp        # 41f300 <optarg@@GLIBC_2.2.5>
_ZN9CLConvert9HandleArgEaPc():
/home/aliha951/ipdps-artifact/gapbs-master/src/command_line.h:285
    AddHelpLine('e', "file", "output edge list to file");
    AddHelpLine('w', "file", "make output weighted");
  }

  void HandleArg(signed char opt, char* opt_arg) override {
    switch (opt) {
  403d0b:	3c 65                	cmp    $0x65,%al
  403d0d:	74 29                	je     403d38 <main+0xf8>
  403d0f:	3c 77                	cmp    $0x77,%al
  403d11:	0f 84 f1 01 00 00    	je     403f08 <main+0x2c8>
  403d17:	3c 62                	cmp    $0x62,%al
  403d19:	0f 84 11 01 00 00    	je     403e30 <main+0x1f0>
_ZN6CLBase9HandleArgEaPc():
/home/aliha951/ipdps-artifact/gapbs-master/src/command_line.h:100
    switch (opt) {
  403d1f:	83 e8 66             	sub    $0x66,%eax
  403d22:	3c 13                	cmp    $0x13,%al
  403d24:	77 ba                	ja     403ce0 <main+0xa0>
  403d26:	0f b6 c0             	movzbl %al,%eax
  403d29:	49 63 44 85 00       	movslq 0x0(%r13,%rax,4),%rax
  403d2e:	4c 01 e8             	add    %r13,%rax
  403d31:	3e ff e0             	notrack jmpq *%rax
  403d34:	0f 1f 40 00          	nopl   0x0(%rax)
_ZN9CLConvert9HandleArgEaPc():
/home/aliha951/ipdps-artifact/gapbs-master/src/command_line.h:287
      case 'b': out_sg_ = true; out_filename_ = std::string(opt_arg);   break;
      case 'e': out_el_ = true; out_filename_ = std::string(opt_arg);   break;
  403d38:	c6 84 24 91 01 00 00 	movb   $0x1,0x191(%rsp)
  403d3f:	01 
_ZNSt7__cxx1112basic_stringIcSt11char_traitsIcESaIcEE12_Alloc_hiderC4EPcRKS3_():
/usr/include/c++/10/bits/basic_string.h:165
	: allocator_type(__a), _M_p(__dat) { }
  403d40:	48 89 9c 24 90 00 00 	mov    %rbx,0x90(%rsp)
  403d47:	00 
_ZNSt7__cxx1112basic_stringIcSt11char_traitsIcESaIcEEC4EPKcRKS3_():
/usr/include/c++/10/bits/basic_string.h:536
	const _CharT* __end = __s ? __s + traits_type::length(__s)
  403d48:	48 85 ed             	test   %rbp,%rbp
  403d4b:	0f 84 ad 07 00 00    	je     4044fe <main+0x8be>
_ZNSt11char_traitsIcE6lengthEPKc():
/usr/include/c++/10/bits/char_traits.h:399
      {
#if __cplusplus >= 201703L
	if (__constant_string_p(__s))
	  return __gnu_cxx::char_traits<char_type>::length(__s);
#endif
	return __builtin_strlen(__s);
  403d51:	48 89 ef             	mov    %rbp,%rdi
  403d54:	e8 a7 f9 ff ff       	callq  403700 <strlen@plt>
_ZNSt7__cxx1112basic_stringIcSt11char_traitsIcESaIcEE12_M_constructIPKcEEvT_S8_St20forward_iterator_tag():
/usr/include/c++/10/bits/basic_string.tcc:215
	// NB: Not required, but considered best practice.
	if (__gnu_cxx::__is_null_pointer(__beg) && __beg != __end)
	  std::__throw_logic_error(__N("basic_string::"
				       "_M_construct null not valid"));

	size_type __dnew = static_cast<size_type>(std::distance(__beg, __end));
  403d59:	48 89 44 24 30       	mov    %rax,0x30(%rsp)
_ZNSt11char_traitsIcE6lengthEPKc():
/usr/include/c++/10/bits/char_traits.h:399
  403d5e:	49 89 c7             	mov    %rax,%r15
_ZNSt7__cxx1112basic_stringIcSt11char_traitsIcESaIcEE12_M_constructIPKcEEvT_S8_St20forward_iterator_tag():
/usr/include/c++/10/bits/basic_string.tcc:217

	if (__dnew > size_type(_S_local_capacity))
  403d61:	48 83 f8 0f          	cmp    $0xf,%rax
  403d65:	0f 87 c2 03 00 00    	ja     40412d <main+0x4ed>
_ZNSt7__cxx1112basic_stringIcSt11char_traitsIcESaIcEE7_S_copyEPcPKcm():
/usr/include/c++/10/bits/basic_string.h:356
	if (__n == 1)
  403d6b:	48 83 f8 01          	cmp    $0x1,%rax
  403d6f:	0f 85 4b 03 00 00    	jne    4040c0 <main+0x480>
_ZNSt11char_traitsIcE6assignERcRKc():
/usr/include/c++/10/bits/char_traits.h:357
      { __c1 = __c2; }
  403d75:	0f b6 55 00          	movzbl 0x0(%rbp),%edx
  403d79:	88 94 24 a0 00 00 00 	mov    %dl,0xa0(%rsp)
  403d80:	48 89 da             	mov    %rbx,%rdx
_ZNSt7__cxx1112basic_stringIcSt11char_traitsIcESaIcEE9_M_lengthEm():
/usr/include/c++/10/bits/basic_string.h:191
      { _M_string_length = __length; }
  403d83:	48 89 84 24 98 00 00 	mov    %rax,0x98(%rsp)
  403d8a:	00 
_ZNSt11char_traitsIcE6assignERcRKc():
/usr/include/c++/10/bits/char_traits.h:357
  403d8b:	c6 04 02 00          	movb   $0x0,(%rdx,%rax,1)
_ZNKSt7__cxx1112basic_stringIcSt11char_traitsIcESaIcEE7_M_dataEv():
/usr/include/c++/10/bits/basic_string.h:195
      { return _M_dataplus._M_p; }
  403d8f:	48 8b bc 24 70 01 00 	mov    0x170(%rsp),%rdi
  403d96:	00 
  403d97:	48 8b 8c 24 90 00 00 	mov    0x90(%rsp),%rcx
  403d9e:	00 
  403d9f:	48 89 f8             	mov    %rdi,%rax
_ZNSt7__cxx1112basic_stringIcSt11char_traitsIcESaIcEEaSEOS4_():
/usr/include/c++/10/bits/basic_string.h:731
	if (__str._M_is_local())
  403da2:	48 39 d9             	cmp    %rbx,%rcx
  403da5:	0f 84 6a 01 00 00    	je     403f15 <main+0x2d5>
/usr/include/c++/10/bits/basic_string.h:759
		  _M_destroy(_M_allocated_capacity);
	      }

	    _M_data(__str._M_data());
	    _M_length(__str.length());
	    _M_capacity(__str._M_allocated_capacity);
  403dab:	48 8b b4 24 a0 00 00 	mov    0xa0(%rsp),%rsi
  403db2:	00 
_ZNKSt7__cxx1112basic_stringIcSt11char_traitsIcESaIcEE4sizeEv():
/usr/include/c++/10/bits/basic_string.h:915
      // Capacity:
      ///  Returns the number of characters in the string, not including any
      ///  null-termination.
      size_type
      size() const _GLIBCXX_NOEXCEPT
      { return _M_string_length; }
  403db3:	48 8b 94 24 98 00 00 	mov    0x98(%rsp),%rdx
  403dba:	00 
_ZNSt7__cxx1112basic_stringIcSt11char_traitsIcESaIcEEaSEOS4_():
/usr/include/c++/10/bits/basic_string.h:745
	    if (!_M_is_local())
  403dbb:	48 3b 3c 24          	cmp    (%rsp),%rdi
  403dbf:	0f 84 f3 04 00 00    	je     4042b8 <main+0x678>
_ZNSt7__cxx1112basic_stringIcSt11char_traitsIcESaIcEE9_M_lengthEm():
/usr/include/c++/10/bits/basic_string.h:191
      { _M_string_length = __length; }
  403dc5:	66 48 0f 6e c2       	movq   %rdx,%xmm0
  403dca:	66 48 0f 6e d6       	movq   %rsi,%xmm2
_ZNSt7__cxx1112basic_stringIcSt11char_traitsIcESaIcEEaSEOS4_():
/usr/include/c++/10/bits/basic_string.h:751
		    __capacity = _M_allocated_capacity;
  403dcf:	48 8b bc 24 80 01 00 	mov    0x180(%rsp),%rdi
  403dd6:	00 
_ZNSt7__cxx1112basic_stringIcSt11char_traitsIcESaIcEE7_M_dataEPc():
/usr/include/c++/10/bits/basic_string.h:187
      { _M_dataplus._M_p = __p; }
  403dd7:	48 89 8c 24 70 01 00 	mov    %rcx,0x170(%rsp)
  403dde:	00 
_ZNSt7__cxx1112basic_stringIcSt11char_traitsIcESaIcEE9_M_lengthEm():
/usr/include/c++/10/bits/basic_string.h:191
      { _M_string_length = __length; }
  403ddf:	66 0f 6c c2          	punpcklqdq %xmm2,%xmm0
  403de3:	0f 11 84 24 78 01 00 	movups %xmm0,0x178(%rsp)
  403dea:	00 
_ZNSt7__cxx1112basic_stringIcSt11char_traitsIcESaIcEEaSEOS4_():
/usr/include/c++/10/bits/basic_string.h:760
	    if (__data)
  403deb:	48 85 c0             	test   %rax,%rax
  403dee:	0f 84 fc 00 00 00    	je     403ef0 <main+0x2b0>
_ZNSt7__cxx1112basic_stringIcSt11char_traitsIcESaIcEE7_M_dataEPc():
/usr/include/c++/10/bits/basic_string.h:187
      { _M_dataplus._M_p = __p; }
  403df4:	48 89 84 24 90 00 00 	mov    %rax,0x90(%rsp)
  403dfb:	00 
_ZNSt7__cxx1112basic_stringIcSt11char_traitsIcESaIcEE11_M_capacityEm():
/usr/include/c++/10/bits/basic_string.h:219
      { _M_allocated_capacity = __capacity; }
  403dfc:	48 89 bc 24 a0 00 00 	mov    %rdi,0xa0(%rsp)
  403e03:	00 
_ZNSt7__cxx1112basic_stringIcSt11char_traitsIcESaIcEE9_M_lengthEm():
/usr/include/c++/10/bits/basic_string.h:191
      { _M_string_length = __length; }
  403e04:	48 c7 84 24 98 00 00 	movq   $0x0,0x98(%rsp)
  403e0b:	00 00 00 00 00 
_ZNSt11char_traitsIcE6assignERcRKc():
/usr/include/c++/10/bits/char_traits.h:357
  403e10:	c6 00 00             	movb   $0x0,(%rax)
_ZNKSt7__cxx1112basic_stringIcSt11char_traitsIcESaIcEE7_M_dataEv():
/usr/include/c++/10/bits/basic_string.h:195
      { return _M_dataplus._M_p; }
  403e13:	48 8b bc 24 90 00 00 	mov    0x90(%rsp),%rdi
  403e1a:	00 
_ZNSt7__cxx1112basic_stringIcSt11char_traitsIcESaIcEE10_M_disposeEv():
/usr/include/c++/10/bits/basic_string.h:239
	if (!_M_is_local())
  403e1b:	48 39 df             	cmp    %rbx,%rdi
  403e1e:	0f 84 bc fe ff ff    	je     403ce0 <main+0xa0>
_ZN9__gnu_cxx13new_allocatorIcE10deallocateEPcm():
/usr/include/c++/10/ext/new_allocator.h:139
  403e24:	e8 d7 f9 ff ff       	callq  403800 <_ZdlPv@plt>
_ZN6CLBase9HandleArgEaPc():
/home/aliha951/ipdps-artifact/gapbs-master/src/command_line.h:114
  }
  403e29:	e9 b2 fe ff ff       	jmpq   403ce0 <main+0xa0>
  403e2e:	66 90                	xchg   %ax,%ax
_ZN9CLConvert9HandleArgEaPc():
/home/aliha951/ipdps-artifact/gapbs-master/src/command_line.h:286
      case 'b': out_sg_ = true; out_filename_ = std::string(opt_arg);   break;
  403e30:	c6 84 24 92 01 00 00 	movb   $0x1,0x192(%rsp)
  403e37:	01 
_ZNSt7__cxx1112basic_stringIcSt11char_traitsIcESaIcEE12_Alloc_hiderC4EPcRKS3_():
/usr/include/c++/10/bits/basic_string.h:165
	: allocator_type(__a), _M_p(__dat) { }
  403e38:	48 89 9c 24 90 00 00 	mov    %rbx,0x90(%rsp)
  403e3f:	00 
_ZNSt7__cxx1112basic_stringIcSt11char_traitsIcESaIcEEC4EPKcRKS3_():
/usr/include/c++/10/bits/basic_string.h:536
	const _CharT* __end = __s ? __s + traits_type::length(__s)
  403e40:	48 85 ed             	test   %rbp,%rbp
  403e43:	0f 84 c1 06 00 00    	je     40450a <main+0x8ca>
_ZNSt11char_traitsIcE6lengthEPKc():
/usr/include/c++/10/bits/char_traits.h:399
	return __builtin_strlen(__s);
  403e49:	48 89 ef             	mov    %rbp,%rdi
  403e4c:	e8 af f8 ff ff       	callq  403700 <strlen@plt>
_ZNSt7__cxx1112basic_stringIcSt11char_traitsIcESaIcEE12_M_constructIPKcEEvT_S8_St20forward_iterator_tag():
/usr/include/c++/10/bits/basic_string.tcc:215
	size_type __dnew = static_cast<size_type>(std::distance(__beg, __end));
  403e51:	48 89 44 24 30       	mov    %rax,0x30(%rsp)
_ZNSt11char_traitsIcE6lengthEPKc():
/usr/include/c++/10/bits/char_traits.h:399
  403e56:	49 89 c7             	mov    %rax,%r15
_ZNSt7__cxx1112basic_stringIcSt11char_traitsIcESaIcEE12_M_constructIPKcEEvT_S8_St20forward_iterator_tag():
/usr/include/c++/10/bits/basic_string.tcc:217
	if (__dnew > size_type(_S_local_capacity))
  403e59:	48 83 f8 0f          	cmp    $0xf,%rax
  403e5d:	0f 87 86 02 00 00    	ja     4040e9 <main+0x4a9>
_ZNSt7__cxx1112basic_stringIcSt11char_traitsIcESaIcEE7_S_copyEPcPKcm():
/usr/include/c++/10/bits/basic_string.h:356
	if (__n == 1)
  403e63:	48 83 f8 01          	cmp    $0x1,%rax
  403e67:	0f 85 6b 02 00 00    	jne    4040d8 <main+0x498>
_ZNSt11char_traitsIcE6assignERcRKc():
/usr/include/c++/10/bits/char_traits.h:357
      { __c1 = __c2; }
  403e6d:	0f b6 55 00          	movzbl 0x0(%rbp),%edx
  403e71:	88 94 24 a0 00 00 00 	mov    %dl,0xa0(%rsp)
  403e78:	48 89 da             	mov    %rbx,%rdx
_ZNSt7__cxx1112basic_stringIcSt11char_traitsIcESaIcEE9_M_lengthEm():
/usr/include/c++/10/bits/basic_string.h:191
      { _M_string_length = __length; }
  403e7b:	48 89 84 24 98 00 00 	mov    %rax,0x98(%rsp)
  403e82:	00 
_ZNSt11char_traitsIcE6assignERcRKc():
/usr/include/c++/10/bits/char_traits.h:357
  403e83:	c6 04 02 00          	movb   $0x0,(%rdx,%rax,1)
_ZNKSt7__cxx1112basic_stringIcSt11char_traitsIcESaIcEE7_M_dataEv():
/usr/include/c++/10/bits/basic_string.h:195
      { return _M_dataplus._M_p; }
  403e87:	48 8b bc 24 70 01 00 	mov    0x170(%rsp),%rdi
  403e8e:	00 
  403e8f:	48 8b 8c 24 90 00 00 	mov    0x90(%rsp),%rcx
  403e96:	00 
_ZNKSt7__cxx1112basic_stringIcSt11char_traitsIcESaIcEE4sizeEv():
/usr/include/c++/10/bits/basic_string.h:915
      { return _M_string_length; }
  403e97:	48 8b 94 24 98 00 00 	mov    0x98(%rsp),%rdx
  403e9e:	00 
_ZNKSt7__cxx1112basic_stringIcSt11char_traitsIcESaIcEE7_M_dataEv():
/usr/include/c++/10/bits/basic_string.h:195
      { return _M_dataplus._M_p; }
  403e9f:	48 89 f8             	mov    %rdi,%rax
_ZNSt7__cxx1112basic_stringIcSt11char_traitsIcESaIcEEaSEOS4_():
/usr/include/c++/10/bits/basic_string.h:731
	if (__str._M_is_local())
  403ea2:	48 39 d9             	cmp    %rbx,%rcx
  403ea5:	74 76                	je     403f1d <main+0x2dd>
/usr/include/c++/10/bits/basic_string.h:759
	    _M_capacity(__str._M_allocated_capacity);
  403ea7:	48 8b b4 24 a0 00 00 	mov    0xa0(%rsp),%rsi
  403eae:	00 
/usr/include/c++/10/bits/basic_string.h:745
	    if (!_M_is_local())
  403eaf:	48 3b 3c 24          	cmp    (%rsp),%rdi
  403eb3:	0f 84 dc 03 00 00    	je     404295 <main+0x655>
_ZNSt7__cxx1112basic_stringIcSt11char_traitsIcESaIcEE9_M_lengthEm():
/usr/include/c++/10/bits/basic_string.h:191
      { _M_string_length = __length; }
  403eb9:	66 48 0f 6e c2       	movq   %rdx,%xmm0
  403ebe:	66 48 0f 6e ce       	movq   %rsi,%xmm1
_ZNSt7__cxx1112basic_stringIcSt11char_traitsIcESaIcEEaSEOS4_():
/usr/include/c++/10/bits/basic_string.h:751
		    __capacity = _M_allocated_capacity;
  403ec3:	48 8b bc 24 80 01 00 	mov    0x180(%rsp),%rdi
  403eca:	00 
_ZNSt7__cxx1112basic_stringIcSt11char_traitsIcESaIcEE7_M_dataEPc():
/usr/include/c++/10/bits/basic_string.h:187
      { _M_dataplus._M_p = __p; }
  403ecb:	48 89 8c 24 70 01 00 	mov    %rcx,0x170(%rsp)
  403ed2:	00 
_ZNSt7__cxx1112basic_stringIcSt11char_traitsIcESaIcEE9_M_lengthEm():
/usr/include/c++/10/bits/basic_string.h:191
      { _M_string_length = __length; }
  403ed3:	66 0f 6c c1          	punpcklqdq %xmm1,%xmm0
  403ed7:	0f 11 84 24 78 01 00 	movups %xmm0,0x178(%rsp)
  403ede:	00 
_ZNSt7__cxx1112basic_stringIcSt11char_traitsIcESaIcEEaSEOS4_():
/usr/include/c++/10/bits/basic_string.h:760
	    if (__data)
  403edf:	48 85 c0             	test   %rax,%rax
  403ee2:	0f 85 0c ff ff ff    	jne    403df4 <main+0x1b4>
  403ee8:	0f 1f 84 00 00 00 00 	nopl   0x0(%rax,%rax,1)
  403eef:	00 
_ZNSt7__cxx1112basic_stringIcSt11char_traitsIcESaIcEE7_M_dataEPc():
/usr/include/c++/10/bits/basic_string.h:187
      { _M_dataplus._M_p = __p; }
  403ef0:	48 8b 44 24 08       	mov    0x8(%rsp),%rax
  403ef5:	48 89 9c 24 90 00 00 	mov    %rbx,0x90(%rsp)
  403efc:	00 
  403efd:	48 89 c3             	mov    %rax,%rbx
  403f00:	e9 ff fe ff ff       	jmpq   403e04 <main+0x1c4>
  403f05:	0f 1f 00             	nopl   (%rax)
_ZN9CLConvert9HandleArgEaPc():
/home/aliha951/ipdps-artifact/gapbs-master/src/command_line.h:288
      case 'w': out_weighted_ = true;                                   break;
  403f08:	c6 84 24 90 01 00 00 	movb   $0x1,0x190(%rsp)
  403f0f:	01 
  403f10:	e9 cb fd ff ff       	jmpq   403ce0 <main+0xa0>
_ZNKSt7__cxx1112basic_stringIcSt11char_traitsIcESaIcEE4sizeEv():
/usr/include/c++/10/bits/basic_string.h:915
      { return _M_string_length; }
  403f15:	48 8b 94 24 98 00 00 	mov    0x98(%rsp),%rdx
  403f1c:	00 
_ZNSt7__cxx1112basic_stringIcSt11char_traitsIcESaIcEEaSEOS4_():
/usr/include/c++/10/bits/basic_string.h:734
	    if (__str.size())
  403f1d:	48 85 d2             	test   %rdx,%rdx
  403f20:	74 22                	je     403f44 <main+0x304>
_ZNSt7__cxx1112basic_stringIcSt11char_traitsIcESaIcEE7_S_copyEPcPKcm():
/usr/include/c++/10/bits/basic_string.h:356
	if (__n == 1)
  403f22:	48 83 fa 01          	cmp    $0x1,%rdx
  403f26:	0f 84 60 02 00 00    	je     40418c <main+0x54c>
_ZNSt11char_traitsIcE4copyEPcPKcm():
/usr/include/c++/10/bits/char_traits.h:437
	  return __s1;
#ifdef __cpp_lib_is_constant_evaluated
	if (std::is_constant_evaluated())
	  return __gnu_cxx::char_traits<char_type>::copy(__s1, __s2, __n);
#endif
	return static_cast<char_type*>(__builtin_memcpy(__s1, __s2, __n));
  403f2c:	48 89 de             	mov    %rbx,%rsi
  403f2f:	e8 6c f8 ff ff       	callq  4037a0 <memcpy@plt>
  403f34:	48 8b bc 24 70 01 00 	mov    0x170(%rsp),%rdi
  403f3b:	00 
  403f3c:	48 8b 94 24 98 00 00 	mov    0x98(%rsp),%rdx
  403f43:	00 
_ZNSt7__cxx1112basic_stringIcSt11char_traitsIcESaIcEE9_M_lengthEm():
/usr/include/c++/10/bits/basic_string.h:191
      { _M_string_length = __length; }
  403f44:	48 89 94 24 78 01 00 	mov    %rdx,0x178(%rsp)
  403f4b:	00 
_ZNSt11char_traitsIcE6assignERcRKc():
/usr/include/c++/10/bits/char_traits.h:357
      { __c1 = __c2; }
  403f4c:	c6 04 17 00          	movb   $0x0,(%rdi,%rdx,1)
_ZNKSt7__cxx1112basic_stringIcSt11char_traitsIcESaIcEE7_M_dataEv():
/usr/include/c++/10/bits/basic_string.h:195
      { return _M_dataplus._M_p; }
  403f50:	48 8b 84 24 90 00 00 	mov    0x90(%rsp),%rax
  403f57:	00 
_ZNSt7__cxx1112basic_stringIcSt11char_traitsIcESaIcEE13_M_set_lengthEm():
/usr/include/c++/10/bits/basic_string.h:226
      }
  403f58:	e9 a7 fe ff ff       	jmpq   403e04 <main+0x1c4>
  403f5d:	0f 1f 00             	nopl   (%rax)
_ZSteqIcSt11char_traitsIcESaIcEEbRKNSt7__cxx1112basic_stringIT_T0_T1_EEPKS5_():
/usr/include/c++/10/bits/basic_string.h:6199
   */
  template<typename _CharT, typename _Traits, typename _Alloc>
    inline bool
    operator==(const basic_string<_CharT, _Traits, _Alloc>& __lhs,
	       const _CharT* __rhs)
    { return __lhs.compare(__rhs) == 0; }
  403f60:	48 8d bc 24 38 01 00 	lea    0x138(%rsp),%rdi
  403f67:	00 
  403f68:	48 8d 35 de 62 01 00 	lea    0x162de(%rip),%rsi        # 41a24d <_IO_stdin_used+0x24d>
  403f6f:	e8 1c f7 ff ff       	callq  403690 <_ZNKSt7__cxx1112basic_stringIcSt11char_traitsIcESaIcEE7compareEPKc@plt>
_ZN6CLBase9ParseArgsEv():
/home/aliha951/ipdps-artifact/gapbs-master/src/command_line.h:90
    if ((filename_ == "") && (scale_ == -1)) {
  403f74:	85 c0                	test   %eax,%eax
  403f76:	0f 84 f5 01 00 00    	je     404171 <main+0x531>
/home/aliha951/ipdps-artifact/gapbs-master/src/command_line.h:94
    if (scale_ != -1)
  403f7c:	83 bc 24 30 01 00 00 	cmpl   $0xffffffff,0x130(%rsp)
  403f83:	ff 
  403f84:	0f 85 f5 01 00 00    	jne    40417f <main+0x53f>
_ZNK6CLBase10symmetrizeEv():
/home/aliha951/ipdps-artifact/gapbs-master/src/command_line.h:127
  bool symmetrize() const { return symmetrize_; }
  403f8a:	0f b6 94 24 58 01 00 	movzbl 0x158(%rsp),%edx
  403f91:	00 
_ZN11BuilderBaseIi10NodeWeightIiiEiLb1EEC4ERK6CLBase():
/home/aliha951/ipdps-artifact/gapbs-master/src/builder.h:50
  bool needs_weights_;
  bool in_place_ = false;
  int64_t num_nodes_ = -1;

 public:
  explicit BuilderBase(const CLBase &cli) : cli_(cli) {
  403f92:	4c 89 74 24 10       	mov    %r14,0x10(%rsp)
main():
/home/aliha951/ipdps-artifact/gapbs-master/src/converter.cc:17
  cli.ParseArgs();
  if (cli.out_weighted()) {
  403f97:	80 bc 24 90 01 00 00 	cmpb   $0x0,0x190(%rsp)
  403f9e:	00 
_ZNK6CLBase8in_placeEv():
/home/aliha951/ipdps-artifact/gapbs-master/src/command_line.h:129
  bool in_place() const { return in_place_; }
  403f9f:	0f b6 84 24 5a 01 00 	movzbl 0x15a(%rsp),%eax
  403fa6:	00 
_ZN11BuilderBaseIi10NodeWeightIiiEiLb1EEC4ERK6CLBase():
/home/aliha951/ipdps-artifact/gapbs-master/src/builder.h:50
  403fa7:	48 c7 44 24 20 ff ff 	movq   $0xffffffffffffffff,0x20(%rsp)
  403fae:	ff ff 
/home/aliha951/ipdps-artifact/gapbs-master/src/builder.h:51
    symmetrize_ = cli_.symmetrize();
  403fb0:	88 54 24 18          	mov    %dl,0x18(%rsp)
main():
/home/aliha951/ipdps-artifact/gapbs-master/src/converter.cc:17
  403fb4:	0f 84 14 02 00 00    	je     4041ce <main+0x58e>
_ZN11BuilderBaseIi10NodeWeightIiiEiLb1EEC4ERK6CLBase():
/home/aliha951/ipdps-artifact/gapbs-master/src/builder.h:52
    needs_weights_ = !std::is_same<NodeID_, DestID_>::value;
  403fba:	c6 44 24 19 01       	movb   $0x1,0x19(%rsp)
/home/aliha951/ipdps-artifact/gapbs-master/src/builder.h:53
    in_place_ = cli_.in_place();
  403fbf:	88 44 24 1a          	mov    %al,0x1a(%rsp)
/home/aliha951/ipdps-artifact/gapbs-master/src/builder.h:54
    if (in_place_ && needs_weights_) {
  403fc3:	84 c0                	test   %al,%al
  403fc5:	0f 85 f8 04 00 00    	jne    4044c3 <main+0x883>
main():
/home/aliha951/ipdps-artifact/gapbs-master/src/converter.cc:19
    WeightedBuilder bw(cli);
    WGraph wg = bw.MakeGraph();
  403fcb:	48 8d 6c 24 30       	lea    0x30(%rsp),%rbp
  403fd0:	48 8d 74 24 10       	lea    0x10(%rsp),%rsi
  403fd5:	48 89 ef             	mov    %rbp,%rdi
  403fd8:	e8 c3 3d 01 00       	callq  417da0 <_ZN11BuilderBaseIi10NodeWeightIiiEiLb1EE9MakeGraphEv>
/home/aliha951/ipdps-artifact/gapbs-master/src/converter.cc:20
    wg.PrintStats();
  403fdd:	48 89 ef             	mov    %rbp,%rdi
  403fe0:	e8 0b 5f 00 00       	callq  409ef0 <_ZNK8CSRGraphIi10NodeWeightIiiELb1EE10PrintStatsEv>
_ZN10WriterBaseIi10NodeWeightIiiEEC4ER8CSRGraphIiS1_Lb1EE():
/home/aliha951/ipdps-artifact/gapbs-master/src/writer.h:30


template <typename NodeID_, typename DestID_ = NodeID_>
class WriterBase {
 public:
  explicit WriterBase(CSRGraph<NodeID_, DestID_> &g) : g_(g) {}
  403fe5:	48 8d 84 24 a8 00 00 	lea    0xa8(%rsp),%rax
  403fec:	00 
  403fed:	66 48 0f 6e c5       	movq   %rbp,%xmm0
_ZNSt7__cxx1112basic_stringIcSt11char_traitsIcESaIcEE12_Alloc_hiderC4EPcOS3_():
/usr/include/c++/10/bits/basic_string.h:168
	: allocator_type(std::move(__a)), _M_p(__dat) { }
  403ff2:	4c 8d 6c 24 70       	lea    0x70(%rsp),%r13
_ZNKSt7__cxx1112basic_stringIcSt11char_traitsIcESaIcEE7_M_dataEv():
/usr/include/c++/10/bits/basic_string.h:195
      { return _M_dataplus._M_p; }
  403ff7:	48 8b b4 24 70 01 00 	mov    0x170(%rsp),%rsi
  403ffe:	00 
_ZN10WriterBaseIi10NodeWeightIiiEEC4ER8CSRGraphIiS1_Lb1EE():
/home/aliha951/ipdps-artifact/gapbs-master/src/writer.h:30
  403fff:	48 89 04 24          	mov    %rax,(%rsp)
_ZNSt7__cxx1112basic_stringIcSt11char_traitsIcESaIcEEC4ERKS4_():
/usr/include/c++/10/bits/basic_string.h:459
      { _M_construct(__str._M_data(), __str._M_data() + __str.length()); }
  404003:	48 8b 94 24 78 01 00 	mov    0x178(%rsp),%rdx
  40400a:	00 
_ZNSt7__cxx1112basic_stringIcSt11char_traitsIcESaIcEE12_Alloc_hiderC4EPcOS3_():
/usr/include/c++/10/bits/basic_string.h:168
	: allocator_type(std::move(__a)), _M_p(__dat) { }
  40400b:	48 8d 9c 24 80 00 00 	lea    0x80(%rsp),%rbx
  404012:	00 
_ZNSt7__cxx1112basic_stringIcSt11char_traitsIcESaIcEE16_M_construct_auxIPcEEvT_S7_St12__false_type():
/usr/include/c++/10/bits/basic_string.h:255
          _M_construct(__beg, __end, _Tag());
  404013:	4c 89 ef             	mov    %r13,%rdi
main():
/home/aliha951/ipdps-artifact/gapbs-master/src/converter.cc:22
    WeightedWriter ww(wg);
    ww.WriteGraph(cli.out_filename(), cli.out_sg());
  404016:	44 0f b6 bc 24 92 01 	movzbl 0x192(%rsp),%r15d
  40401d:	00 00 
_ZNSt7__cxx1112basic_stringIcSt11char_traitsIcESaIcEE12_Alloc_hiderC4EPcOS3_():
/usr/include/c++/10/bits/basic_string.h:168
	: allocator_type(std::move(__a)), _M_p(__dat) { }
  40401f:	48 89 5c 24 70       	mov    %rbx,0x70(%rsp)
_ZNSt7__cxx1112basic_stringIcSt11char_traitsIcESaIcEEC4ERKS4_():
/usr/include/c++/10/bits/basic_string.h:459
      { _M_construct(__str._M_data(), __str._M_data() + __str.length()); }
  404024:	48 01 f2             	add    %rsi,%rdx
_ZNSt11char_traitsIcE6assignERcRKc():
/usr/include/c++/10/bits/char_traits.h:357
  404027:	c6 84 24 a8 00 00 00 	movb   $0x0,0xa8(%rsp)
  40402e:	00 
_ZNSt7__cxx1112basic_stringIcSt11char_traitsIcESaIcEE9_M_lengthEm():
/usr/include/c++/10/bits/basic_string.h:191
      { _M_string_length = __length; }
  40402f:	48 c7 84 24 a0 00 00 	movq   $0x0,0xa0(%rsp)
  404036:	00 00 00 00 00 
_ZN10WriterBaseIi10NodeWeightIiiEEC4ER8CSRGraphIiS1_Lb1EE():
/home/aliha951/ipdps-artifact/gapbs-master/src/writer.h:30
  40403b:	0f 16 04 24          	movhps (%rsp),%xmm0
  40403f:	0f 29 84 24 90 00 00 	movaps %xmm0,0x90(%rsp)
  404046:	00 
_ZNSt7__cxx1112basic_stringIcSt11char_traitsIcESaIcEE16_M_construct_auxIPcEEvT_S7_St12__false_type():
/usr/include/c++/10/bits/basic_string.h:255
          _M_construct(__beg, __end, _Tag());
  404047:	e8 74 1a 00 00       	callq  405ac0 <_ZNSt7__cxx1112basic_stringIcSt11char_traitsIcESaIcEE12_M_constructIPcEEvT_S7_St20forward_iterator_tag.constprop.0>
main():
/home/aliha951/ipdps-artifact/gapbs-master/src/converter.cc:22 (discriminator 1)
  40404c:	44 89 fa             	mov    %r15d,%edx
  40404f:	4c 89 ee             	mov    %r13,%rsi
  404052:	4c 89 e7             	mov    %r12,%rdi
  404055:	e8 b6 7d 00 00       	callq  40be10 <_ZN10WriterBaseIi10NodeWeightIiiEE10WriteGraphENSt7__cxx1112basic_stringIcSt11char_traitsIcESaIcEEEb>
_ZNKSt7__cxx1112basic_stringIcSt11char_traitsIcESaIcEE7_M_dataEv():
/usr/include/c++/10/bits/basic_string.h:195
      { return _M_dataplus._M_p; }
  40405a:	48 8b 7c 24 70       	mov    0x70(%rsp),%rdi
_ZNSt7__cxx1112basic_stringIcSt11char_traitsIcESaIcEE10_M_disposeEv():
/usr/include/c++/10/bits/basic_string.h:239
	if (!_M_is_local())
  40405f:	48 39 df             	cmp    %rbx,%rdi
  404062:	74 05                	je     404069 <main+0x429>
_ZN9__gnu_cxx13new_allocatorIcE10deallocateEPcm():
/usr/include/c++/10/ext/new_allocator.h:139
  404064:	e8 97 f7 ff ff       	callq  403800 <_ZdlPv@plt>
_ZNKSt7__cxx1112basic_stringIcSt11char_traitsIcESaIcEE7_M_dataEv():
/usr/include/c++/10/bits/basic_string.h:195
      { return _M_dataplus._M_p; }
  404069:	48 8b bc 24 98 00 00 	mov    0x98(%rsp),%rdi
  404070:	00 
_ZNSt7__cxx1112basic_stringIcSt11char_traitsIcESaIcEE10_M_disposeEv():
/usr/include/c++/10/bits/basic_string.h:239
	if (!_M_is_local())
  404071:	48 3b 3c 24          	cmp    (%rsp),%rdi
  404075:	74 05                	je     40407c <main+0x43c>
_ZN9__gnu_cxx13new_allocatorIcE10deallocateEPcm():
/usr/include/c++/10/ext/new_allocator.h:139
  404077:	e8 84 f7 ff ff       	callq  403800 <_ZdlPv@plt>
_ZN8CSRGraphIi10NodeWeightIiiELb1EED4Ev():
/home/aliha951/ipdps-artifact/gapbs-master/src/graph.h:166
  40407c:	48 89 ef             	mov    %rbp,%rdi
  40407f:	e8 ec 60 00 00       	callq  40a170 <_ZN8CSRGraphIi10NodeWeightIiiELb1EE16ReleaseResourcesEv>
main():
/home/aliha951/ipdps-artifact/gapbs-master/src/converter.cc:15
  CLConvert cli(argc, argv, "converter");
  404084:	4c 89 f7             	mov    %r14,%rdi
  404087:	e8 94 5d 00 00       	callq  409e20 <_ZN9CLConvertD1Ev>
/home/aliha951/ipdps-artifact/gapbs-master/src/converter.cc:31
    g.PrintStats();
    Writer w(g);
    w.WriteGraph(cli.out_filename(), cli.out_sg());
  }
  return 0;
}
  40408c:	48 8b 84 24 98 01 00 	mov    0x198(%rsp),%rax
  404093:	00 
  404094:	64 48 2b 04 25 28 00 	sub    %fs:0x28,%rax
  40409b:	00 00 
  40409d:	0f 85 56 04 00 00    	jne    4044f9 <main+0x8b9>
  4040a3:	48 81 c4 a8 01 00 00 	add    $0x1a8,%rsp
  4040aa:	31 c0                	xor    %eax,%eax
  4040ac:	5b                   	pop    %rbx
  4040ad:	5d                   	pop    %rbp
  4040ae:	41 5c                	pop    %r12
  4040b0:	41 5d                	pop    %r13
  4040b2:	41 5e                	pop    %r14
  4040b4:	41 5f                	pop    %r15
  4040b6:	c3                   	retq   
  4040b7:	66 0f 1f 84 00 00 00 	nopw   0x0(%rax,%rax,1)
  4040be:	00 00 
_ZNSt11char_traitsIcE4copyEPcPKcm():
/usr/include/c++/10/bits/char_traits.h:431
	if (__n == 0)
  4040c0:	48 85 c0             	test   %rax,%rax
  4040c3:	0f 85 28 04 00 00    	jne    4044f1 <main+0x8b1>
  4040c9:	48 89 da             	mov    %rbx,%rdx
  4040cc:	e9 b2 fc ff ff       	jmpq   403d83 <main+0x143>
  4040d1:	0f 1f 80 00 00 00 00 	nopl   0x0(%rax)
  4040d8:	48 85 c0             	test   %rax,%rax
  4040db:	0f 85 35 04 00 00    	jne    404516 <main+0x8d6>
  4040e1:	48 89 da             	mov    %rbx,%rdx
  4040e4:	e9 92 fd ff ff       	jmpq   403e7b <main+0x23b>
_ZNSt7__cxx1112basic_stringIcSt11char_traitsIcESaIcEE12_M_constructIPKcEEvT_S8_St20forward_iterator_tag():
/usr/include/c++/10/bits/basic_string.tcc:219
	  {
	    _M_data(_M_create(__dnew, size_type(0)));
  4040e9:	48 8d 74 24 30       	lea    0x30(%rsp),%rsi
  4040ee:	31 d2                	xor    %edx,%edx
  4040f0:	4c 89 e7             	mov    %r12,%rdi
  4040f3:	e8 e8 f9 ff ff       	callq  403ae0 <_ZNSt7__cxx1112basic_stringIcSt11char_traitsIcESaIcEE9_M_createERmm@plt>
_ZNSt7__cxx1112basic_stringIcSt11char_traitsIcESaIcEE7_M_dataEPc():
/usr/include/c++/10/bits/basic_string.h:187
      { _M_dataplus._M_p = __p; }
  4040f8:	48 89 84 24 90 00 00 	mov    %rax,0x90(%rsp)
  4040ff:	00 
_ZNSt7__cxx1112basic_stringIcSt11char_traitsIcESaIcEE12_M_constructIPKcEEvT_S8_St20forward_iterator_tag():
/usr/include/c++/10/bits/basic_string.tcc:219
  404100:	48 89 c7             	mov    %rax,%rdi
_ZNSt7__cxx1112basic_stringIcSt11char_traitsIcESaIcEE11_M_capacityEm():
/usr/include/c++/10/bits/basic_string.h:219
      { _M_allocated_capacity = __capacity; }
  404103:	48 8b 44 24 30       	mov    0x30(%rsp),%rax
  404108:	48 89 84 24 a0 00 00 	mov    %rax,0xa0(%rsp)
  40410f:	00 
_ZNSt11char_traitsIcE4copyEPcPKcm():
/usr/include/c++/10/bits/char_traits.h:437
	return static_cast<char_type*>(__builtin_memcpy(__s1, __s2, __n));
  404110:	4c 89 fa             	mov    %r15,%rdx
  404113:	48 89 ee             	mov    %rbp,%rsi
  404116:	e8 85 f6 ff ff       	callq  4037a0 <memcpy@plt>
_ZNSt7__cxx1112basic_stringIcSt11char_traitsIcESaIcEE12_M_constructIPKcEEvT_S8_St20forward_iterator_tag():
/usr/include/c++/10/bits/basic_string.tcc:232
	  {
	    _M_dispose();
	    __throw_exception_again;
	  }

	_M_set_length(__dnew);
  40411b:	48 8b 44 24 30       	mov    0x30(%rsp),%rax
_ZNKSt7__cxx1112basic_stringIcSt11char_traitsIcESaIcEE7_M_dataEv():
/usr/include/c++/10/bits/basic_string.h:195
      { return _M_dataplus._M_p; }
  404120:	48 8b 94 24 90 00 00 	mov    0x90(%rsp),%rdx
  404127:	00 
_ZNSt11char_traitsIcE4copyEPcPKcm():
/usr/include/c++/10/bits/char_traits.h:437
  404128:	e9 4e fd ff ff       	jmpq   403e7b <main+0x23b>
_ZNSt7__cxx1112basic_stringIcSt11char_traitsIcESaIcEE12_M_constructIPKcEEvT_S8_St20forward_iterator_tag():
/usr/include/c++/10/bits/basic_string.tcc:219
	    _M_data(_M_create(__dnew, size_type(0)));
  40412d:	48 8d 74 24 30       	lea    0x30(%rsp),%rsi
  404132:	31 d2                	xor    %edx,%edx
  404134:	4c 89 e7             	mov    %r12,%rdi
  404137:	e8 a4 f9 ff ff       	callq  403ae0 <_ZNSt7__cxx1112basic_stringIcSt11char_traitsIcESaIcEE9_M_createERmm@plt>
_ZNSt7__cxx1112basic_stringIcSt11char_traitsIcESaIcEE7_M_dataEPc():
/usr/include/c++/10/bits/basic_string.h:187
      { _M_dataplus._M_p = __p; }
  40413c:	48 89 84 24 90 00 00 	mov    %rax,0x90(%rsp)
  404143:	00 
_ZNSt7__cxx1112basic_stringIcSt11char_traitsIcESaIcEE12_M_constructIPKcEEvT_S8_St20forward_iterator_tag():
/usr/include/c++/10/bits/basic_string.tcc:219
  404144:	48 89 c7             	mov    %rax,%rdi
_ZNSt7__cxx1112basic_stringIcSt11char_traitsIcESaIcEE11_M_capacityEm():
/usr/include/c++/10/bits/basic_string.h:219
      { _M_allocated_capacity = __capacity; }
  404147:	48 8b 44 24 30       	mov    0x30(%rsp),%rax
  40414c:	48 89 84 24 a0 00 00 	mov    %rax,0xa0(%rsp)
  404153:	00 
_ZNSt11char_traitsIcE4copyEPcPKcm():
/usr/include/c++/10/bits/char_traits.h:437
  404154:	4c 89 fa             	mov    %r15,%rdx
  404157:	48 89 ee             	mov    %rbp,%rsi
  40415a:	e8 41 f6 ff ff       	callq  4037a0 <memcpy@plt>
_ZNSt7__cxx1112basic_stringIcSt11char_traitsIcESaIcEE12_M_constructIPKcEEvT_S8_St20forward_iterator_tag():
/usr/include/c++/10/bits/basic_string.tcc:232
	_M_set_length(__dnew);
  40415f:	48 8b 44 24 30       	mov    0x30(%rsp),%rax
_ZNKSt7__cxx1112basic_stringIcSt11char_traitsIcESaIcEE7_M_dataEv():
/usr/include/c++/10/bits/basic_string.h:195
      { return _M_dataplus._M_p; }
  404164:	48 8b 94 24 90 00 00 	mov    0x90(%rsp),%rdx
  40416b:	00 
_ZNSt11char_traitsIcE4copyEPcPKcm():
/usr/include/c++/10/bits/char_traits.h:437
  40416c:	e9 12 fc ff ff       	jmpq   403d83 <main+0x143>
_ZN6CLBase9ParseArgsEv():
/home/aliha951/ipdps-artifact/gapbs-master/src/command_line.h:90
    if ((filename_ == "") && (scale_ == -1)) {
  404171:	83 bc 24 30 01 00 00 	cmpl   $0xffffffff,0x130(%rsp)
  404178:	ff 
  404179:	0f 84 98 02 00 00    	je     404417 <main+0x7d7>
/home/aliha951/ipdps-artifact/gapbs-master/src/command_line.h:95
      symmetrize_ = true;
  40417f:	c6 84 24 58 01 00 00 	movb   $0x1,0x158(%rsp)
  404186:	01 
  404187:	e9 fe fd ff ff       	jmpq   403f8a <main+0x34a>
_ZNSt11char_traitsIcE6assignERcRKc():
/usr/include/c++/10/bits/char_traits.h:357
      { __c1 = __c2; }
  40418c:	0f b6 84 24 a0 00 00 	movzbl 0xa0(%rsp),%eax
  404193:	00 
  404194:	88 07                	mov    %al,(%rdi)
  404196:	48 8b bc 24 70 01 00 	mov    0x170(%rsp),%rdi
  40419d:	00 
  40419e:	48 8b 94 24 98 00 00 	mov    0x98(%rsp),%rdx
  4041a5:	00 
  4041a6:	e9 99 fd ff ff       	jmpq   403f44 <main+0x304>
_ZN6CLBase9HandleArgEaPc():
/home/aliha951/ipdps-artifact/gapbs-master/src/command_line.h:106
      case 'u': uniform_ = true; scale_ = atoi(opt_arg);                break;
  4041ab:	c6 84 24 59 01 00 00 	movb   $0x1,0x159(%rsp)
  4041b2:	01 
main():
/usr/include/stdlib.h:363

#ifdef __USE_EXTERN_INLINES
__extern_inline int
__NTH (atoi (const char *__nptr))
{
  return (int) strtol (__nptr, (char **) NULL, 10);
  4041b3:	ba 0a 00 00 00       	mov    $0xa,%edx
atoi():
/usr/include/stdlib.h:363
  4041b8:	31 f6                	xor    %esi,%esi
  4041ba:	48 89 ef             	mov    %rbp,%rdi
  4041bd:	e8 be f7 ff ff       	callq  403980 <strtol@plt>
  4041c2:	89 84 24 30 01 00 00 	mov    %eax,0x130(%rsp)
_ZN6CLBase9HandleArgEaPc():
/home/aliha951/ipdps-artifact/gapbs-master/src/command_line.h:106
  4041c9:	e9 12 fb ff ff       	jmpq   403ce0 <main+0xa0>
main():
/home/aliha951/ipdps-artifact/gapbs-master/src/converter.cc:25
    Graph g = b.MakeGraph();
  4041ce:	48 8d 6c 24 30       	lea    0x30(%rsp),%rbp
  4041d3:	48 8d 74 24 10       	lea    0x10(%rsp),%rsi
_ZN11BuilderBaseIiiiLb1EEC4ERK6CLBase():
/home/aliha951/ipdps-artifact/gapbs-master/src/builder.h:52
    needs_weights_ = !std::is_same<NodeID_, DestID_>::value;
  4041d8:	c6 44 24 19 00       	movb   $0x0,0x19(%rsp)
main():
/home/aliha951/ipdps-artifact/gapbs-master/src/converter.cc:25
  4041dd:	48 89 ef             	mov    %rbp,%rdi
_ZN11BuilderBaseIiiiLb1EEC4ERK6CLBase():
/home/aliha951/ipdps-artifact/gapbs-master/src/builder.h:53
    in_place_ = cli_.in_place();
  4041e0:	88 44 24 1a          	mov    %al,0x1a(%rsp)
main():
/home/aliha951/ipdps-artifact/gapbs-master/src/converter.cc:25
  4041e4:	e8 07 13 01 00       	callq  4154f0 <_ZN11BuilderBaseIiiiLb1EE9MakeGraphEv>
/home/aliha951/ipdps-artifact/gapbs-master/src/converter.cc:26
    g.PrintStats();
  4041e9:	48 89 ef             	mov    %rbp,%rdi
  4041ec:	e8 3f 5e 00 00       	callq  40a030 <_ZNK8CSRGraphIiiLb1EE10PrintStatsEv>
_ZN10WriterBaseIiiEC4ER8CSRGraphIiiLb1EE():
/home/aliha951/ipdps-artifact/gapbs-master/src/writer.h:30
  4041f1:	48 8d 84 24 a8 00 00 	lea    0xa8(%rsp),%rax
  4041f8:	00 
  4041f9:	66 48 0f 6e c5       	movq   %rbp,%xmm0
_ZNSt7__cxx1112basic_stringIcSt11char_traitsIcESaIcEE12_Alloc_hiderC4EPcOS3_():
/usr/include/c++/10/bits/basic_string.h:168
	: allocator_type(std::move(__a)), _M_p(__dat) { }
  4041fe:	4c 8d 6c 24 70       	lea    0x70(%rsp),%r13
_ZNKSt7__cxx1112basic_stringIcSt11char_traitsIcESaIcEE7_M_dataEv():
/usr/include/c++/10/bits/basic_string.h:195
      { return _M_dataplus._M_p; }
  404203:	48 8b b4 24 70 01 00 	mov    0x170(%rsp),%rsi
  40420a:	00 
_ZN10WriterBaseIiiEC4ER8CSRGraphIiiLb1EE():
/home/aliha951/ipdps-artifact/gapbs-master/src/writer.h:30
  40420b:	48 89 04 24          	mov    %rax,(%rsp)
_ZNSt7__cxx1112basic_stringIcSt11char_traitsIcESaIcEEC4ERKS4_():
/usr/include/c++/10/bits/basic_string.h:459
      { _M_construct(__str._M_data(), __str._M_data() + __str.length()); }
  40420f:	48 8b 94 24 78 01 00 	mov    0x178(%rsp),%rdx
  404216:	00 
_ZNSt7__cxx1112basic_stringIcSt11char_traitsIcESaIcEE12_Alloc_hiderC4EPcOS3_():
/usr/include/c++/10/bits/basic_string.h:168
	: allocator_type(std::move(__a)), _M_p(__dat) { }
  404217:	48 8d 9c 24 80 00 00 	lea    0x80(%rsp),%rbx
  40421e:	00 
_ZNSt7__cxx1112basic_stringIcSt11char_traitsIcESaIcEE16_M_construct_auxIPcEEvT_S7_St12__false_type():
/usr/include/c++/10/bits/basic_string.h:255
          _M_construct(__beg, __end, _Tag());
  40421f:	4c 89 ef             	mov    %r13,%rdi
main():
/home/aliha951/ipdps-artifact/gapbs-master/src/converter.cc:28
    w.WriteGraph(cli.out_filename(), cli.out_sg());
  404222:	44 0f b6 bc 24 92 01 	movzbl 0x192(%rsp),%r15d
  404229:	00 00 
_ZNSt7__cxx1112basic_stringIcSt11char_traitsIcESaIcEE12_Alloc_hiderC4EPcOS3_():
/usr/include/c++/10/bits/basic_string.h:168
	: allocator_type(std::move(__a)), _M_p(__dat) { }
  40422b:	48 89 5c 24 70       	mov    %rbx,0x70(%rsp)
_ZNSt7__cxx1112basic_stringIcSt11char_traitsIcESaIcEEC4ERKS4_():
/usr/include/c++/10/bits/basic_string.h:459
      { _M_construct(__str._M_data(), __str._M_data() + __str.length()); }
  404230:	48 01 f2             	add    %rsi,%rdx
_ZNSt11char_traitsIcE6assignERcRKc():
/usr/include/c++/10/bits/char_traits.h:357
  404233:	c6 84 24 a8 00 00 00 	movb   $0x0,0xa8(%rsp)
  40423a:	00 
_ZNSt7__cxx1112basic_stringIcSt11char_traitsIcESaIcEE9_M_lengthEm():
/usr/include/c++/10/bits/basic_string.h:191
      { _M_string_length = __length; }
  40423b:	48 c7 84 24 a0 00 00 	movq   $0x0,0xa0(%rsp)
  404242:	00 00 00 00 00 
_ZN10WriterBaseIiiEC4ER8CSRGraphIiiLb1EE():
/home/aliha951/ipdps-artifact/gapbs-master/src/writer.h:30
  404247:	0f 16 04 24          	movhps (%rsp),%xmm0
  40424b:	0f 29 84 24 90 00 00 	movaps %xmm0,0x90(%rsp)
  404252:	00 
_ZNSt7__cxx1112basic_stringIcSt11char_traitsIcESaIcEE16_M_construct_auxIPcEEvT_S7_St12__false_type():
/usr/include/c++/10/bits/basic_string.h:255
          _M_construct(__beg, __end, _Tag());
  404253:	e8 68 18 00 00       	callq  405ac0 <_ZNSt7__cxx1112basic_stringIcSt11char_traitsIcESaIcEE12_M_constructIPcEEvT_S7_St20forward_iterator_tag.constprop.0>
main():
/home/aliha951/ipdps-artifact/gapbs-master/src/converter.cc:28 (discriminator 1)
  404258:	44 89 fa             	mov    %r15d,%edx
  40425b:	4c 89 ee             	mov    %r13,%rsi
  40425e:	4c 89 e7             	mov    %r12,%rdi
  404261:	e8 fa 82 00 00       	callq  40c560 <_ZN10WriterBaseIiiE10WriteGraphENSt7__cxx1112basic_stringIcSt11char_traitsIcESaIcEEEb>
_ZNKSt7__cxx1112basic_stringIcSt11char_traitsIcESaIcEE7_M_dataEv():
/usr/include/c++/10/bits/basic_string.h:195
      { return _M_dataplus._M_p; }
  404266:	48 8b 7c 24 70       	mov    0x70(%rsp),%rdi
_ZNSt7__cxx1112basic_stringIcSt11char_traitsIcESaIcEE10_M_disposeEv():
/usr/include/c++/10/bits/basic_string.h:239
	if (!_M_is_local())
  40426b:	48 39 df             	cmp    %rbx,%rdi
  40426e:	74 05                	je     404275 <main+0x635>
_ZN9__gnu_cxx13new_allocatorIcE10deallocateEPcm():
/usr/include/c++/10/ext/new_allocator.h:139
  404270:	e8 8b f5 ff ff       	callq  403800 <_ZdlPv@plt>
_ZNKSt7__cxx1112basic_stringIcSt11char_traitsIcESaIcEE7_M_dataEv():
/usr/include/c++/10/bits/basic_string.h:195
      { return _M_dataplus._M_p; }
  404275:	48 8b bc 24 98 00 00 	mov    0x98(%rsp),%rdi
  40427c:	00 
_ZNSt7__cxx1112basic_stringIcSt11char_traitsIcESaIcEE10_M_disposeEv():
/usr/include/c++/10/bits/basic_string.h:239
	if (!_M_is_local())
  40427d:	48 3b 3c 24          	cmp    (%rsp),%rdi
  404281:	74 05                	je     404288 <main+0x648>
_ZN9__gnu_cxx13new_allocatorIcE10deallocateEPcm():
/usr/include/c++/10/ext/new_allocator.h:139
  404283:	e8 78 f5 ff ff       	callq  403800 <_ZdlPv@plt>
_ZN8CSRGraphIiiLb1EED4Ev():
/home/aliha951/ipdps-artifact/gapbs-master/src/graph.h:166
  404288:	48 89 ef             	mov    %rbp,%rdi
  40428b:	e8 40 5f 00 00       	callq  40a1d0 <_ZN8CSRGraphIiiLb1EE16ReleaseResourcesEv>
  404290:	e9 ef fd ff ff       	jmpq   404084 <main+0x444>
_ZNSt7__cxx1112basic_stringIcSt11char_traitsIcESaIcEE9_M_lengthEm():
/usr/include/c++/10/bits/basic_string.h:191
      { _M_string_length = __length; }
  404295:	66 48 0f 6e c2       	movq   %rdx,%xmm0
  40429a:	66 48 0f 6e de       	movq   %rsi,%xmm3
_ZNSt7__cxx1112basic_stringIcSt11char_traitsIcESaIcEE7_M_dataEPc():
/usr/include/c++/10/bits/basic_string.h:187
      { _M_dataplus._M_p = __p; }
  40429f:	48 89 8c 24 70 01 00 	mov    %rcx,0x170(%rsp)
  4042a6:	00 
_ZNSt7__cxx1112basic_stringIcSt11char_traitsIcESaIcEE9_M_lengthEm():
/usr/include/c++/10/bits/basic_string.h:191
      { _M_string_length = __length; }
  4042a7:	66 0f 6c c3          	punpcklqdq %xmm3,%xmm0
  4042ab:	0f 11 84 24 78 01 00 	movups %xmm0,0x178(%rsp)
  4042b2:	00 
  4042b3:	e9 38 fc ff ff       	jmpq   403ef0 <main+0x2b0>
  4042b8:	66 48 0f 6e c2       	movq   %rdx,%xmm0
  4042bd:	66 48 0f 6e e6       	movq   %rsi,%xmm4
_ZNSt7__cxx1112basic_stringIcSt11char_traitsIcESaIcEE7_M_dataEPc():
/usr/include/c++/10/bits/basic_string.h:187
      { _M_dataplus._M_p = __p; }
  4042c2:	48 89 8c 24 70 01 00 	mov    %rcx,0x170(%rsp)
  4042c9:	00 
_ZNSt7__cxx1112basic_stringIcSt11char_traitsIcESaIcEE9_M_lengthEm():
/usr/include/c++/10/bits/basic_string.h:191
      { _M_string_length = __length; }
  4042ca:	66 0f 6c c4          	punpcklqdq %xmm4,%xmm0
  4042ce:	0f 11 84 24 78 01 00 	movups %xmm0,0x178(%rsp)
  4042d5:	00 
  4042d6:	e9 15 fc ff ff       	jmpq   403ef0 <main+0x2b0>
_ZN6CLBase9HandleArgEaPc():
/home/aliha951/ipdps-artifact/gapbs-master/src/command_line.h:101
      case 'f': filename_ = std::string(opt_arg);                       break;
  4042db:	48 89 ee             	mov    %rbp,%rsi
  4042de:	4c 89 e7             	mov    %r12,%rdi
  4042e1:	e8 ea 1f 00 00       	callq  4062d0 <_ZNSt7__cxx1112basic_stringIcSt11char_traitsIcESaIcEEC2EPKcRKS3_.constprop.0>
_ZNKSt7__cxx1112basic_stringIcSt11char_traitsIcESaIcEE7_M_dataEv():
/usr/include/c++/10/bits/basic_string.h:195
      { return _M_dataplus._M_p; }
  4042e6:	48 8b 84 24 90 00 00 	mov    0x90(%rsp),%rax
  4042ed:	00 
  4042ee:	48 8b bc 24 38 01 00 	mov    0x138(%rsp),%rdi
  4042f5:	00 
_ZNKSt7__cxx1112basic_stringIcSt11char_traitsIcESaIcEE4sizeEv():
/usr/include/c++/10/bits/basic_string.h:915
      { return _M_string_length; }
  4042f6:	48 8b 94 24 98 00 00 	mov    0x98(%rsp),%rdx
  4042fd:	00 
_ZNSt7__cxx1112basic_stringIcSt11char_traitsIcESaIcEEaSEOS4_():
/usr/include/c++/10/bits/basic_string.h:731
	if (__str._M_is_local())
  4042fe:	48 39 d8             	cmp    %rbx,%rax
  404301:	0f 84 39 01 00 00    	je     404440 <main+0x800>
/usr/include/c++/10/bits/basic_string.h:745
	    if (!_M_is_local())
  404307:	48 8d 8c 24 48 01 00 	lea    0x148(%rsp),%rcx
  40430e:	00 
/usr/include/c++/10/bits/basic_string.h:759
	    _M_capacity(__str._M_allocated_capacity);
  40430f:	48 8b b4 24 a0 00 00 	mov    0xa0(%rsp),%rsi
  404316:	00 
/usr/include/c++/10/bits/basic_string.h:745
	    if (!_M_is_local())
  404317:	48 39 cf             	cmp    %rcx,%rdi
  40431a:	0f 84 5c 01 00 00    	je     40447c <main+0x83c>
_ZNSt7__cxx1112basic_stringIcSt11char_traitsIcESaIcEE9_M_lengthEm():
/usr/include/c++/10/bits/basic_string.h:191
      { _M_string_length = __length; }
  404320:	66 48 0f 6e c2       	movq   %rdx,%xmm0
  404325:	66 48 0f 6e ee       	movq   %rsi,%xmm5
_ZNSt7__cxx1112basic_stringIcSt11char_traitsIcESaIcEEaSEOS4_():
/usr/include/c++/10/bits/basic_string.h:751
		    __capacity = _M_allocated_capacity;
  40432a:	48 8b 8c 24 48 01 00 	mov    0x148(%rsp),%rcx
  404331:	00 
_ZNSt7__cxx1112basic_stringIcSt11char_traitsIcESaIcEE7_M_dataEPc():
/usr/include/c++/10/bits/basic_string.h:187
      { _M_dataplus._M_p = __p; }
  404332:	48 89 84 24 38 01 00 	mov    %rax,0x138(%rsp)
  404339:	00 
_ZNSt7__cxx1112basic_stringIcSt11char_traitsIcESaIcEE9_M_lengthEm():
/usr/include/c++/10/bits/basic_string.h:191
      { _M_string_length = __length; }
  40433a:	66 0f 6c c5          	punpcklqdq %xmm5,%xmm0
  40433e:	0f 29 84 24 40 01 00 	movaps %xmm0,0x140(%rsp)
  404345:	00 
_ZNSt7__cxx1112basic_stringIcSt11char_traitsIcESaIcEEaSEOS4_():
/usr/include/c++/10/bits/basic_string.h:760
	    if (__data)
  404346:	48 85 ff             	test   %rdi,%rdi
  404349:	0f 84 4b 01 00 00    	je     40449a <main+0x85a>
_ZNSt7__cxx1112basic_stringIcSt11char_traitsIcESaIcEE7_M_dataEPc():
/usr/include/c++/10/bits/basic_string.h:187
      { _M_dataplus._M_p = __p; }
  40434f:	48 89 bc 24 90 00 00 	mov    %rdi,0x90(%rsp)
  404356:	00 
_ZNSt7__cxx1112basic_stringIcSt11char_traitsIcESaIcEE11_M_capacityEm():
/usr/include/c++/10/bits/basic_string.h:219
      { _M_allocated_capacity = __capacity; }
  404357:	48 89 8c 24 a0 00 00 	mov    %rcx,0xa0(%rsp)
  40435e:	00 
_ZNKSt7__cxx1112basic_stringIcSt11char_traitsIcESaIcEE7_M_dataEv():
/usr/include/c++/10/bits/basic_string.h:195
      { return _M_dataplus._M_p; }
  40435f:	48 8b 84 24 90 00 00 	mov    0x90(%rsp),%rax
  404366:	00 
_ZNSt7__cxx1112basic_stringIcSt11char_traitsIcESaIcEE9_M_lengthEm():
/usr/include/c++/10/bits/basic_string.h:191
      { _M_string_length = __length; }
  404367:	48 c7 84 24 98 00 00 	movq   $0x0,0x98(%rsp)
  40436e:	00 00 00 00 00 
_ZNSt11char_traitsIcE6assignERcRKc():
/usr/include/c++/10/bits/char_traits.h:357
  404373:	c6 00 00             	movb   $0x0,(%rax)
_ZNKSt7__cxx1112basic_stringIcSt11char_traitsIcESaIcEE7_M_dataEv():
/usr/include/c++/10/bits/basic_string.h:195
      { return _M_dataplus._M_p; }
  404376:	48 8b bc 24 90 00 00 	mov    0x90(%rsp),%rdi
  40437d:	00 
_ZNSt7__cxx1112basic_stringIcSt11char_traitsIcESaIcEE10_M_disposeEv():
/usr/include/c++/10/bits/basic_string.h:239
	if (!_M_is_local())
  40437e:	48 39 df             	cmp    %rbx,%rdi
  404381:	0f 85 9d fa ff ff    	jne    403e24 <main+0x1e4>
  404387:	e9 54 f9 ff ff       	jmpq   403ce0 <main+0xa0>
_ZN6CLBase9HandleArgEaPc():
/home/aliha951/ipdps-artifact/gapbs-master/src/command_line.h:107
      case 'm': in_place_ = true;                                       break;
  40438c:	c6 84 24 5a 01 00 00 	movb   $0x1,0x15a(%rsp)
  404393:	01 
  404394:	e9 47 f9 ff ff       	jmpq   403ce0 <main+0xa0>
main():
/usr/include/stdlib.h:363
  404399:	ba 0a 00 00 00       	mov    $0xa,%edx
atoi():
/usr/include/stdlib.h:363
  40439e:	31 f6                	xor    %esi,%esi
  4043a0:	48 89 ef             	mov    %rbp,%rdi
  4043a3:	e8 d8 f5 ff ff       	callq  403980 <strtol@plt>
  4043a8:	89 84 24 68 01 00 00 	mov    %eax,0x168(%rsp)
_ZN6CLBase9HandleArgEaPc():
/home/aliha951/ipdps-artifact/gapbs-master/src/command_line.h:111
      case 'x': readahead_size_ = atoi(opt_arg);                        break;
  4043af:	e9 2c f9 ff ff       	jmpq   403ce0 <main+0xa0>
main():
/usr/include/stdlib.h:363
  4043b4:	ba 0a 00 00 00       	mov    $0xa,%edx
atoi():
/usr/include/stdlib.h:363
  4043b9:	31 f6                	xor    %esi,%esi
  4043bb:	48 89 ef             	mov    %rbp,%rdi
  4043be:	e8 bd f5 ff ff       	callq  403980 <strtol@plt>
_ZN6CLBase9HandleArgEaPc():
/home/aliha951/ipdps-artifact/gapbs-master/src/command_line.h:110
      case 'y': queue_size_ = (long unsigned int) atoi(opt_arg);        break;
  4043c3:	48 98                	cltq   
  4043c5:	48 89 84 24 60 01 00 	mov    %rax,0x160(%rsp)
  4043cc:	00 
  4043cd:	e9 0e f9 ff ff       	jmpq   403ce0 <main+0xa0>
main():
/usr/include/stdlib.h:363
  4043d2:	ba 0a 00 00 00       	mov    $0xa,%edx
atoi():
/usr/include/stdlib.h:363
  4043d7:	31 f6                	xor    %esi,%esi
  4043d9:	48 89 ef             	mov    %rbp,%rdi
  4043dc:	e8 9f f5 ff ff       	callq  403980 <strtol@plt>
  4043e1:	89 84 24 34 01 00 00 	mov    %eax,0x134(%rsp)
_ZN6CLBase9HandleArgEaPc():
/home/aliha951/ipdps-artifact/gapbs-master/src/command_line.h:104
      case 'k': degree_ = atoi(opt_arg);                                break;
  4043e8:	e9 f3 f8 ff ff       	jmpq   403ce0 <main+0xa0>
/home/aliha951/ipdps-artifact/gapbs-master/src/command_line.h:109
      case 'q': batching_ = true;                                       break;
  4043ed:	c6 84 24 5b 01 00 00 	movb   $0x1,0x15b(%rsp)
  4043f4:	01 
  4043f5:	e9 e6 f8 ff ff       	jmpq   403ce0 <main+0xa0>
/home/aliha951/ipdps-artifact/gapbs-master/src/command_line.h:105
      case 's': symmetrize_ = true;                                     break;
  4043fa:	c6 84 24 58 01 00 00 	movb   $0x1,0x158(%rsp)
  404401:	01 
  404402:	e9 d9 f8 ff ff       	jmpq   403ce0 <main+0xa0>
/home/aliha951/ipdps-artifact/gapbs-master/src/command_line.h:112
      case 'o': batching_mode_ = MADVISE;                               break;
  404407:	c7 84 24 6c 01 00 00 	movl   $0x2,0x16c(%rsp)
  40440e:	02 00 00 00 
  404412:	e9 c9 f8 ff ff       	jmpq   403ce0 <main+0xa0>
_ZStlsISt11char_traitsIcEERSt13basic_ostreamIcT_ES5_PKc():
/usr/include/c++/10/ostream:611
    operator<<(basic_ostream<char, _Traits>& __out, const char* __s)
    {
      if (!__s)
	__out.setstate(ios_base::badbit);
      else
	__ostream_insert(__out, __s,
  404417:	ba 2b 00 00 00       	mov    $0x2b,%edx
  40441c:	48 8d 35 b5 62 01 00 	lea    0x162b5(%rip),%rsi        # 41a6d8 <_IO_stdin_used+0x6d8>
  404423:	48 8d 3d 16 af 01 00 	lea    0x1af16(%rip),%rdi        # 41f340 <_ZSt4cout@@GLIBCXX_3.4>
  40442a:	e8 51 f4 ff ff       	callq  403880 <_ZSt16__ostream_insertIcSt11char_traitsIcEERSt13basic_ostreamIT_T0_ES6_PKS3_l@plt>
_ZNSolsEPFRSoS_E():
/usr/include/c++/10/ostream:113
	return __pf(*this);
  40442f:	48 8d 3d 0a af 01 00 	lea    0x1af0a(%rip),%rdi        # 41f340 <_ZSt4cout@@GLIBCXX_3.4>
  404436:	e8 45 17 00 00       	callq  405b80 <_ZSt4endlIcSt11char_traitsIcEERSt13basic_ostreamIT_T0_ES6_.isra.0>
  40443b:	e9 4a fb ff ff       	jmpq   403f8a <main+0x34a>
_ZNSt7__cxx1112basic_stringIcSt11char_traitsIcESaIcEEaSEOS4_():
/usr/include/c++/10/bits/basic_string.h:734
	    if (__str.size())
  404440:	48 85 d2             	test   %rdx,%rdx
  404443:	74 1e                	je     404463 <main+0x823>
_ZNSt7__cxx1112basic_stringIcSt11char_traitsIcESaIcEE7_S_copyEPcPKcm():
/usr/include/c++/10/bits/basic_string.h:356
	if (__n == 1)
  404445:	48 83 fa 01          	cmp    $0x1,%rdx
  404449:	74 5c                	je     4044a7 <main+0x867>
_ZNSt11char_traitsIcE4copyEPcPKcm():
/usr/include/c++/10/bits/char_traits.h:437
	return static_cast<char_type*>(__builtin_memcpy(__s1, __s2, __n));
  40444b:	48 89 de             	mov    %rbx,%rsi
  40444e:	e8 4d f3 ff ff       	callq  4037a0 <memcpy@plt>
  404453:	48 8b 94 24 98 00 00 	mov    0x98(%rsp),%rdx
  40445a:	00 
  40445b:	48 8b bc 24 38 01 00 	mov    0x138(%rsp),%rdi
  404462:	00 
_ZNSt7__cxx1112basic_stringIcSt11char_traitsIcESaIcEE9_M_lengthEm():
/usr/include/c++/10/bits/basic_string.h:191
      { _M_string_length = __length; }
  404463:	48 89 94 24 40 01 00 	mov    %rdx,0x140(%rsp)
  40446a:	00 
_ZNSt11char_traitsIcE6assignERcRKc():
/usr/include/c++/10/bits/char_traits.h:357
      { __c1 = __c2; }
  40446b:	c6 04 17 00          	movb   $0x0,(%rdi,%rdx,1)
_ZNSt7__cxx1112basic_stringIcSt11char_traitsIcESaIcEE13_M_set_lengthEm():
/usr/include/c++/10/bits/basic_string.h:226
      }
  40446f:	e9 eb fe ff ff       	jmpq   40435f <main+0x71f>
_ZN6CLBase9HandleArgEaPc():
/home/aliha951/ipdps-artifact/gapbs-master/src/command_line.h:103
      case 'h': PrintUsage();                                           break;
  404474:	4c 89 f7             	mov    %r14,%rdi
  404477:	e8 94 51 00 00       	callq  409610 <_ZN6CLBase10PrintUsageEv>
_ZNSt7__cxx1112basic_stringIcSt11char_traitsIcESaIcEE9_M_lengthEm():
/usr/include/c++/10/bits/basic_string.h:191
      { _M_string_length = __length; }
  40447c:	66 48 0f 6e c2       	movq   %rdx,%xmm0
  404481:	66 48 0f 6e f6       	movq   %rsi,%xmm6
_ZNSt7__cxx1112basic_stringIcSt11char_traitsIcESaIcEE7_M_dataEPc():
/usr/include/c++/10/bits/basic_string.h:187
      { _M_dataplus._M_p = __p; }
  404486:	48 89 84 24 38 01 00 	mov    %rax,0x138(%rsp)
  40448d:	00 
_ZNSt7__cxx1112basic_stringIcSt11char_traitsIcESaIcEE9_M_lengthEm():
/usr/include/c++/10/bits/basic_string.h:191
      { _M_string_length = __length; }
  40448e:	66 0f 6c c6          	punpcklqdq %xmm6,%xmm0
  404492:	0f 29 84 24 40 01 00 	movaps %xmm0,0x140(%rsp)
  404499:	00 
_ZNSt7__cxx1112basic_stringIcSt11char_traitsIcESaIcEE7_M_dataEPc():
/usr/include/c++/10/bits/basic_string.h:187
      { _M_dataplus._M_p = __p; }
  40449a:	48 89 9c 24 90 00 00 	mov    %rbx,0x90(%rsp)
  4044a1:	00 
  4044a2:	e9 b8 fe ff ff       	jmpq   40435f <main+0x71f>
_ZNSt11char_traitsIcE6assignERcRKc():
/usr/include/c++/10/bits/char_traits.h:357
  4044a7:	0f b6 84 24 a0 00 00 	movzbl 0xa0(%rsp),%eax
  4044ae:	00 
  4044af:	88 07                	mov    %al,(%rdi)
  4044b1:	48 8b 94 24 98 00 00 	mov    0x98(%rsp),%rdx
  4044b8:	00 
  4044b9:	48 8b bc 24 38 01 00 	mov    0x138(%rsp),%rdi
  4044c0:	00 
  4044c1:	eb a0                	jmp    404463 <main+0x823>
_ZStlsISt11char_traitsIcEERSt13basic_ostreamIcT_ES5_PKc():
/usr/include/c++/10/ostream:611
	__ostream_insert(__out, __s,
  4044c3:	ba 37 00 00 00       	mov    $0x37,%edx
  4044c8:	48 8d 35 39 62 01 00 	lea    0x16239(%rip),%rsi        # 41a708 <_IO_stdin_used+0x708>
  4044cf:	48 8d 3d 6a ae 01 00 	lea    0x1ae6a(%rip),%rdi        # 41f340 <_ZSt4cout@@GLIBCXX_3.4>
  4044d6:	e8 a5 f3 ff ff       	callq  403880 <_ZSt16__ostream_insertIcSt11char_traitsIcEERSt13basic_ostreamIT_T0_ES6_PKS3_l@plt>
_ZNSolsEPFRSoS_E():
/usr/include/c++/10/ostream:113
	return __pf(*this);
  4044db:	48 8d 3d 5e ae 01 00 	lea    0x1ae5e(%rip),%rdi        # 41f340 <_ZSt4cout@@GLIBCXX_3.4>
  4044e2:	e8 99 16 00 00       	callq  405b80 <_ZSt4endlIcSt11char_traitsIcEERSt13basic_ostreamIT_T0_ES6_.isra.0>
_ZN11BuilderBaseIi10NodeWeightIiiEiLb1EEC4ERK6CLBase():
/home/aliha951/ipdps-artifact/gapbs-master/src/builder.h:57
      std::cout << "In-place building (-m) does not support weighted graphs"
                << std::endl;
      exit(-30);
  4044e7:	bf e2 ff ff ff       	mov    $0xffffffe2,%edi
  4044ec:	e8 ef f3 ff ff       	callq  4038e0 <exit@plt>
_ZNKSt7__cxx1112basic_stringIcSt11char_traitsIcESaIcEE7_M_dataEv():
/usr/include/c++/10/bits/basic_string.h:195
      { return _M_dataplus._M_p; }
  4044f1:	48 89 df             	mov    %rbx,%rdi
  4044f4:	e9 5b fc ff ff       	jmpq   404154 <main+0x514>
main():
/home/aliha951/ipdps-artifact/gapbs-master/src/converter.cc:31
}
  4044f9:	e8 72 f3 ff ff       	callq  403870 <__stack_chk_fail@plt>
_ZNSt7__cxx1112basic_stringIcSt11char_traitsIcESaIcEE12_M_constructIPKcEEvT_S8_St20forward_iterator_tag():
/usr/include/c++/10/bits/basic_string.tcc:212
	  std::__throw_logic_error(__N("basic_string::"
  4044fe:	48 8d 3d cb 5d 01 00 	lea    0x15dcb(%rip),%rdi        # 41a2d0 <_IO_stdin_used+0x2d0>
  404505:	e8 86 f2 ff ff       	callq  403790 <_ZSt19__throw_logic_errorPKc@plt>
  40450a:	48 8d 3d bf 5d 01 00 	lea    0x15dbf(%rip),%rdi        # 41a2d0 <_IO_stdin_used+0x2d0>
  404511:	e8 7a f2 ff ff       	callq  403790 <_ZSt19__throw_logic_errorPKc@plt>
_ZNKSt7__cxx1112basic_stringIcSt11char_traitsIcESaIcEE7_M_dataEv():
/usr/include/c++/10/bits/basic_string.h:195
  404516:	48 89 df             	mov    %rbx,%rdi
  404519:	e9 f2 fb ff ff       	jmpq   404110 <main+0x4d0>
  40451e:	f3 0f 1e fa          	endbr64 
  404522:	49 89 c4             	mov    %rax,%r12
  404525:	e9 82 f6 ff ff       	jmpq   403bac <main.cold>
  40452a:	f3 0f 1e fa          	endbr64 
_ZN8CSRGraphIiiLb1EED4Ev():
/home/aliha951/ipdps-artifact/gapbs-master/src/graph.h:166
  40452e:	48 89 c3             	mov    %rax,%rbx
  404531:	e9 96 f6 ff ff       	jmpq   403bcc <main.cold+0x20>
  404536:	f3 0f 1e fa          	endbr64 
_ZNKSt7__cxx1112basic_stringIcSt11char_traitsIcESaIcEE7_M_dataEv():
/usr/include/c++/10/bits/basic_string.h:195
  40453a:	48 89 c3             	mov    %rax,%rbx
  40453d:	e9 7c f6 ff ff       	jmpq   403bbe <main.cold+0x12>
  404542:	f3 0f 1e fa          	endbr64 
  404546:	49 89 c4             	mov    %rax,%r12
  404549:	e9 9d f6 ff ff       	jmpq   403beb <main.cold+0x3f>
  40454e:	f3 0f 1e fa          	endbr64 
_ZN8CSRGraphIi10NodeWeightIiiELb1EED4Ev():
/home/aliha951/ipdps-artifact/gapbs-master/src/graph.h:166
  404552:	48 89 c3             	mov    %rax,%rbx
  404555:	e9 b6 f6 ff ff       	jmpq   403c10 <main.cold+0x64>
  40455a:	f3 0f 1e fa          	endbr64 
_ZNKSt7__cxx1112basic_stringIcSt11char_traitsIcESaIcEE7_M_dataEv():
/usr/include/c++/10/bits/basic_string.h:195
  40455e:	48 89 c5             	mov    %rax,%rbp
  404561:	e9 b4 f6 ff ff       	jmpq   403c1a <main.cold+0x6e>
  404566:	f3 0f 1e fa          	endbr64 
main():
/home/aliha951/ipdps-artifact/gapbs-master/src/converter.cc:15
  CLConvert cli(argc, argv, "converter");
  40456a:	48 89 c3             	mov    %rax,%rbx
  40456d:	e9 62 f6 ff ff       	jmpq   403bd4 <main.cold+0x28>
  404572:	f3 0f 1e fa          	endbr64 
_ZNKSt7__cxx1112basic_stringIcSt11char_traitsIcESaIcEE7_M_dataEv():
/usr/include/c++/10/bits/basic_string.h:195
  404576:	48 89 c3             	mov    %rax,%rbx
  404579:	e9 7f f6 ff ff       	jmpq   403bfd <main.cold+0x51>
main():
/usr/include/c++/10/bits/basic_string.h:195
  40457e:	66 90                	xchg   %ax,%ax

0000000000404580 <_GLOBAL__sub_I__Z10PrintLabelRKNSt7__cxx1112basic_stringIcSt11char_traitsIcESaIcEEES6_>:
_GLOBAL__sub_I__Z10PrintLabelRKNSt7__cxx1112basic_stringIcSt11char_traitsIcESaIcEEES6_():
/home/aliha951/ipdps-artifact/gapbs-master/src/converter.cc:31
}
  404580:	f3 0f 1e fa          	endbr64 
  404584:	48 83 ec 08          	sub    $0x8,%rsp
/usr/include/c++/10/iostream:74
  extern wostream wclog;	/// Linked to standard error (buffered)
#endif
  ///@}

  // For construction of filebuffers for cout, cin, cerr, clog et. al.
  static ios_base::Init __ioinit;
  404588:	48 8d 3d e1 b3 01 00 	lea    0x1b3e1(%rip),%rdi        # 41f970 <_ZStL8__ioinit>
__static_initialization_and_destruction_0():
/usr/include/c++/10/iostream:74
  40458f:	e8 6c f4 ff ff       	callq  403a00 <_ZNSt8ios_base4InitC1Ev@plt>
  404594:	48 8b 3d 55 aa 01 00 	mov    0x1aa55(%rip),%rdi        # 41eff0 <_ZNSt8ios_base4InitD1Ev@GLIBCXX_3.4>
_GLOBAL__sub_I__Z10PrintLabelRKNSt7__cxx1112basic_stringIcSt11char_traitsIcESaIcEEES6_():
/home/aliha951/ipdps-artifact/gapbs-master/src/converter.cc:31
  40459b:	48 83 c4 08          	add    $0x8,%rsp
__static_initialization_and_destruction_0():
/usr/include/c++/10/iostream:74
  40459f:	48 8d 15 42 ad 01 00 	lea    0x1ad42(%rip),%rdx        # 41f2e8 <__dso_handle>
  4045a6:	48 8d 35 c3 b3 01 00 	lea    0x1b3c3(%rip),%rsi        # 41f970 <_ZStL8__ioinit>
  4045ad:	e9 1e f2 ff ff       	jmpq   4037d0 <__cxa_atexit@plt>
_GLOBAL__sub_I__Z10PrintLabelRKNSt7__cxx1112basic_stringIcSt11char_traitsIcESaIcEEES6_():
  4045b2:	66 2e 0f 1f 84 00 00 	nopw   %cs:0x0(%rax,%rax,1)
  4045b9:	00 00 00 
  4045bc:	0f 1f 40 00          	nopl   0x0(%rax)

00000000004045c0 <_start>:
_start():
  4045c0:	f3 0f 1e fa          	endbr64 
  4045c4:	31 ed                	xor    %ebp,%ebp
  4045c6:	49 89 d1             	mov    %rdx,%r9
  4045c9:	5e                   	pop    %rsi
  4045ca:	48 89 e2             	mov    %rsp,%rdx
  4045cd:	48 83 e4 f0          	and    $0xfffffffffffffff0,%rsp
  4045d1:	50                   	push   %rax
  4045d2:	54                   	push   %rsp
  4045d3:	49 c7 c0 40 93 41 00 	mov    $0x419340,%r8
  4045da:	48 c7 c1 d0 92 41 00 	mov    $0x4192d0,%rcx
  4045e1:	48 c7 c7 40 3c 40 00 	mov    $0x403c40,%rdi
  4045e8:	ff 15 f2 a9 01 00    	callq  *0x1a9f2(%rip)        # 41efe0 <__libc_start_main@GLIBC_2.2.5>
  4045ee:	f4                   	hlt    
  4045ef:	90                   	nop

00000000004045f0 <_dl_relocate_static_pie>:
_dl_relocate_static_pie():
  4045f0:	f3 0f 1e fa          	endbr64 
  4045f4:	c3                   	retq   
  4045f5:	66 2e 0f 1f 84 00 00 	nopw   %cs:0x0(%rax,%rax,1)
  4045fc:	00 00 00 
  4045ff:	90                   	nop

0000000000404600 <deregister_tm_clones>:
deregister_tm_clones():
  404600:	b8 00 f3 41 00       	mov    $0x41f300,%eax
  404605:	48 3d 00 f3 41 00    	cmp    $0x41f300,%rax
  40460b:	74 13                	je     404620 <deregister_tm_clones+0x20>
  40460d:	b8 00 00 00 00       	mov    $0x0,%eax
  404612:	48 85 c0             	test   %rax,%rax
  404615:	74 09                	je     404620 <deregister_tm_clones+0x20>
  404617:	bf 00 f3 41 00       	mov    $0x41f300,%edi
  40461c:	ff e0                	jmpq   *%rax
  40461e:	66 90                	xchg   %ax,%ax
  404620:	c3                   	retq   
  404621:	66 66 2e 0f 1f 84 00 	data16 nopw %cs:0x0(%rax,%rax,1)
  404628:	00 00 00 00 
  40462c:	0f 1f 40 00          	nopl   0x0(%rax)

0000000000404630 <register_tm_clones>:
register_tm_clones():
  404630:	be 00 f3 41 00       	mov    $0x41f300,%esi
  404635:	48 81 ee 00 f3 41 00 	sub    $0x41f300,%rsi
  40463c:	48 89 f0             	mov    %rsi,%rax
  40463f:	48 c1 ee 3f          	shr    $0x3f,%rsi
  404643:	48 c1 f8 03          	sar    $0x3,%rax
  404647:	48 01 c6             	add    %rax,%rsi
  40464a:	48 d1 fe             	sar    %rsi
  40464d:	74 11                	je     404660 <register_tm_clones+0x30>
  40464f:	b8 00 00 00 00       	mov    $0x0,%eax
  404654:	48 85 c0             	test   %rax,%rax
  404657:	74 07                	je     404660 <register_tm_clones+0x30>
  404659:	bf 00 f3 41 00       	mov    $0x41f300,%edi
  40465e:	ff e0                	jmpq   *%rax
  404660:	c3                   	retq   
  404661:	66 66 2e 0f 1f 84 00 	data16 nopw %cs:0x0(%rax,%rax,1)
  404668:	00 00 00 00 
  40466c:	0f 1f 40 00          	nopl   0x0(%rax)

0000000000404670 <__do_global_dtors_aux>:
__do_global_dtors_aux():
  404670:	f3 0f 1e fa          	endbr64 
  404674:	80 3d ed ad 01 00 00 	cmpb   $0x0,0x1aded(%rip)        # 41f468 <completed.0>
  40467b:	75 13                	jne    404690 <__do_global_dtors_aux+0x20>
  40467d:	55                   	push   %rbp
  40467e:	48 89 e5             	mov    %rsp,%rbp
  404681:	e8 7a ff ff ff       	callq  404600 <deregister_tm_clones>
  404686:	c6 05 db ad 01 00 01 	movb   $0x1,0x1addb(%rip)        # 41f468 <completed.0>
  40468d:	5d                   	pop    %rbp
  40468e:	c3                   	retq   
  40468f:	90                   	nop
  404690:	c3                   	retq   
  404691:	66 66 2e 0f 1f 84 00 	data16 nopw %cs:0x0(%rax,%rax,1)
  404698:	00 00 00 00 
  40469c:	0f 1f 40 00          	nopl   0x0(%rax)

00000000004046a0 <frame_dummy>:
frame_dummy():
  4046a0:	f3 0f 1e fa          	endbr64 
  4046a4:	eb 8a                	jmp    404630 <register_tm_clones>
  4046a6:	66 2e 0f 1f 84 00 00 	nopw   %cs:0x0(%rax,%rax,1)
  4046ad:	00 00 00 

00000000004046b0 <_ZL13get_family_idi>:
_ZL13get_family_idi():
/home/aliha951/ipdps-artifact/gapbs-master/src/taskstats_helper.h:30
	struct genlmsghdr g;
	char buf[512];
};

/* Ask generic netlink for the family id of TASKSTATS */
static int get_family_id(int sd) {
  4046b0:	41 54                	push   %r12
/home/aliha951/ipdps-artifact/gapbs-master/src/taskstats_helper.h:32
	struct msgtemplate req = {0};
	struct msgtemplate ans = {0};
  4046b2:	b9 42 00 00 00       	mov    $0x42,%ecx
/home/aliha951/ipdps-artifact/gapbs-master/src/taskstats_helper.h:30
static int get_family_id(int sd) {
  4046b7:	55                   	push   %rbp
  4046b8:	89 fd                	mov    %edi,%ebp
  4046ba:	48 81 ec 48 04 00 00 	sub    $0x448,%rsp
  4046c1:	64 48 8b 04 25 28 00 	mov    %fs:0x28,%rax
  4046c8:	00 00 
  4046ca:	48 89 84 24 38 04 00 	mov    %rax,0x438(%rsp)
  4046d1:	00 
  4046d2:	31 c0                	xor    %eax,%eax
/home/aliha951/ipdps-artifact/gapbs-master/src/taskstats_helper.h:32
	struct msgtemplate ans = {0};
  4046d4:	4c 8d a4 24 20 02 00 	lea    0x220(%rsp),%r12
  4046db:	00 
  4046dc:	4c 89 e7             	mov    %r12,%rdi
  4046df:	f3 48 ab             	rep stos %rax,%es:(%rdi)
/home/aliha951/ipdps-artifact/gapbs-master/src/taskstats_helper.h:31
	struct msgtemplate req = {0};
  4046e2:	b9 42 00 00 00       	mov    $0x42,%ecx
/home/aliha951/ipdps-artifact/gapbs-master/src/taskstats_helper.h:32
	struct msgtemplate ans = {0};
  4046e7:	c7 07 00 00 00 00    	movl   $0x0,(%rdi)
/home/aliha951/ipdps-artifact/gapbs-master/src/taskstats_helper.h:31
	struct msgtemplate req = {0};
  4046ed:	48 89 e7             	mov    %rsp,%rdi
  4046f0:	f3 48 ab             	rep stos %rax,%es:(%rdi)
/home/aliha951/ipdps-artifact/gapbs-master/src/taskstats_helper.h:36
	struct nlattr *na;
	int rep_len;

	req.n.nlmsg_len = NLMSG_LENGTH(GENL_HDRLEN);
  4046f3:	48 b8 14 00 00 00 10 	movabs $0x1001000000014,%rax
  4046fa:	00 01 00 
  4046fd:	48 89 04 24          	mov    %rax,(%rsp)
/home/aliha951/ipdps-artifact/gapbs-master/src/taskstats_helper.h:31
	struct msgtemplate req = {0};
  404701:	c7 07 00 00 00 00    	movl   $0x0,(%rdi)
/home/aliha951/ipdps-artifact/gapbs-master/src/taskstats_helper.h:40
	req.n.nlmsg_type = GENL_ID_CTRL;
	req.n.nlmsg_flags = NLM_F_REQUEST;
	req.n.nlmsg_seq = 0;
	req.n.nlmsg_pid = getpid();
  404707:	e8 d4 f2 ff ff       	callq  4039e0 <getpid@plt>
/usr/include/x86_64-linux-gnu/bits/string_fortified.h:34

__fortify_function void *
__NTH (memcpy (void *__restrict __dest, const void *__restrict __src,
	       size_t __len))
{
  return __builtin___memcpy_chk (__dest, __src, __len, __bos0 (__dest));
  40470c:	ba 53 00 00 00       	mov    $0x53,%edx
/home/aliha951/ipdps-artifact/gapbs-master/src/taskstats_helper.h:50
	na->nla_type = CTRL_ATTR_FAMILY_NAME;
	na->nla_len = NLA_HDRLEN + strlen(TASKSTATS_GENL_NAME) + 1;
	memcpy(NLA_DATA(na), TASKSTATS_GENL_NAME, strlen(TASKSTATS_GENL_NAME) + 1);
	req.n.nlmsg_len += NLMSG_ALIGN(na->nla_len);

	if (send(sd, &req, req.n.nlmsg_len, 0) < 0)
  404711:	31 c9                	xor    %ecx,%ecx
memcpy():
/usr/include/x86_64-linux-gnu/bits/string_fortified.h:34
  404713:	48 89 e6             	mov    %rsp,%rsi
_ZL13get_family_idi():
/home/aliha951/ipdps-artifact/gapbs-master/src/taskstats_helper.h:40
	req.n.nlmsg_pid = getpid();
  404716:	89 44 24 0c          	mov    %eax,0xc(%rsp)
/home/aliha951/ipdps-artifact/gapbs-master/src/taskstats_helper.h:41
	req.g.cmd = CTRL_CMD_GETFAMILY;
  40471a:	b8 03 01 00 00       	mov    $0x103,%eax
/home/aliha951/ipdps-artifact/gapbs-master/src/taskstats_helper.h:50
	if (send(sd, &req, req.n.nlmsg_len, 0) < 0)
  40471f:	89 ef                	mov    %ebp,%edi
/home/aliha951/ipdps-artifact/gapbs-master/src/taskstats_helper.h:41
	req.g.cmd = CTRL_CMD_GETFAMILY;
  404721:	66 89 44 24 10       	mov    %ax,0x10(%rsp)
memcpy():
/usr/include/x86_64-linux-gnu/bits/string_fortified.h:34
  404726:	48 b8 54 41 53 4b 53 	movabs $0x544154534b534154,%rax
  40472d:	54 41 54 
  404730:	48 89 44 24 18       	mov    %rax,0x18(%rsp)
_ZL13get_family_idi():
/home/aliha951/ipdps-artifact/gapbs-master/src/taskstats_helper.h:48
	req.n.nlmsg_len += NLMSG_ALIGN(na->nla_len);
  404735:	8b 04 24             	mov    (%rsp),%eax
memcpy():
/usr/include/x86_64-linux-gnu/bits/string_fortified.h:34
  404738:	66 89 54 24 20       	mov    %dx,0x20(%rsp)
_ZL13get_family_idi():
/home/aliha951/ipdps-artifact/gapbs-master/src/taskstats_helper.h:48
  40473d:	8d 50 10             	lea    0x10(%rax),%edx
/home/aliha951/ipdps-artifact/gapbs-master/src/taskstats_helper.h:46
	na->nla_len = NLA_HDRLEN + strlen(TASKSTATS_GENL_NAME) + 1;
  404740:	c7 44 24 14 0e 00 02 	movl   $0x2000e,0x14(%rsp)
  404747:	00 
/home/aliha951/ipdps-artifact/gapbs-master/src/taskstats_helper.h:48
	req.n.nlmsg_len += NLMSG_ALIGN(na->nla_len);
  404748:	89 14 24             	mov    %edx,(%rsp)
/home/aliha951/ipdps-artifact/gapbs-master/src/taskstats_helper.h:50
	if (send(sd, &req, req.n.nlmsg_len, 0) < 0)
  40474b:	e8 d0 ef ff ff       	callq  403720 <send@plt>
  404750:	48 85 c0             	test   %rax,%rax
  404753:	78 6b                	js     4047c0 <_ZL13get_family_idi+0x110>
/usr/include/x86_64-linux-gnu/bits/socket2.h:44
	return __recv_chk (__fd, __buf, __n, __bos0 (__buf), __flags);

      if (__n > __bos0 (__buf))
	return __recv_chk_warn (__fd, __buf, __n, __bos0 (__buf), __flags);
    }
  return __recv_alias (__fd, __buf, __n, __flags);
  404755:	31 c9                	xor    %ecx,%ecx
recv():
/usr/include/x86_64-linux-gnu/bits/socket2.h:44
  404757:	ba 14 02 00 00       	mov    $0x214,%edx
  40475c:	4c 89 e6             	mov    %r12,%rsi
  40475f:	89 ef                	mov    %ebp,%edi
  404761:	e8 5a ef ff ff       	callq  4036c0 <recv@plt>
_ZL13get_family_idi():
/home/aliha951/ipdps-artifact/gapbs-master/src/taskstats_helper.h:54
		return -1;

	rep_len = recv(sd, &ans, sizeof(ans), 0);
	if (rep_len < 0 || ans.n.nlmsg_type == NLMSG_ERROR)
  404766:	85 c0                	test   %eax,%eax
  404768:	78 56                	js     4047c0 <_ZL13get_family_idi+0x110>
/home/aliha951/ipdps-artifact/gapbs-master/src/taskstats_helper.h:54 (discriminator 1)
  40476a:	66 83 bc 24 24 02 00 	cmpw   $0x2,0x224(%rsp)
  404771:	00 02 
  404773:	74 4b                	je     4047c0 <_ZL13get_family_idi+0x110>
/home/aliha951/ipdps-artifact/gapbs-master/src/taskstats_helper.h:59
		return -1;

	/* First attr is family name we sent, second should be ID */
	na = (struct nlattr *) GENLMSG_DATA(&ans.n);
	na = (struct nlattr *) ((char*)na + NLA_ALIGN(na->nla_len));
  404775:	0f b7 84 24 34 02 00 	movzwl 0x234(%rsp),%eax
  40477c:	00 
  40477d:	83 c0 03             	add    $0x3,%eax
  404780:	25 fc ff 01 00       	and    $0x1fffc,%eax
  404785:	48 8d 84 04 34 02 00 	lea    0x234(%rsp,%rax,1),%rax
  40478c:	00 
/home/aliha951/ipdps-artifact/gapbs-master/src/taskstats_helper.h:60
	if (na->nla_type == CTRL_ATTR_FAMILY_ID)
  40478d:	66 83 78 02 01       	cmpw   $0x1,0x2(%rax)
  404792:	75 2c                	jne    4047c0 <_ZL13get_family_idi+0x110>
/home/aliha951/ipdps-artifact/gapbs-master/src/taskstats_helper.h:61
		return *(__u16 *) NLA_DATA(na);
  404794:	0f b7 40 04          	movzwl 0x4(%rax),%eax
/home/aliha951/ipdps-artifact/gapbs-master/src/taskstats_helper.h:63
	return -1;
}
  404798:	48 8b b4 24 38 04 00 	mov    0x438(%rsp),%rsi
  40479f:	00 
  4047a0:	64 48 2b 34 25 28 00 	sub    %fs:0x28,%rsi
  4047a7:	00 00 
  4047a9:	75 1c                	jne    4047c7 <_ZL13get_family_idi+0x117>
  4047ab:	48 81 c4 48 04 00 00 	add    $0x448,%rsp
  4047b2:	5d                   	pop    %rbp
  4047b3:	41 5c                	pop    %r12
  4047b5:	c3                   	retq   
  4047b6:	66 2e 0f 1f 84 00 00 	nopw   %cs:0x0(%rax,%rax,1)
  4047bd:	00 00 00 
/home/aliha951/ipdps-artifact/gapbs-master/src/taskstats_helper.h:51
		return -1;
  4047c0:	b8 ff ff ff ff       	mov    $0xffffffff,%eax
  4047c5:	eb d1                	jmp    404798 <_ZL13get_family_idi+0xe8>
/home/aliha951/ipdps-artifact/gapbs-master/src/taskstats_helper.h:63
}
  4047c7:	e8 a4 f0 ff ff       	callq  403870 <__stack_chk_fail@plt>
  4047cc:	0f 1f 40 00          	nopl   0x0(%rax)

00000000004047d0 <_ZL21request_taskstats_pidiiiP9taskstatsPm>:
_ZL21request_taskstats_pidiiiP9taskstatsPm():
/home/aliha951/ipdps-artifact/gapbs-master/src/taskstats_helper.h:80
		return -1;
	}
	return sd;
}

static int request_taskstats_pid(int sd, int family_id, pid_t pid, struct taskstats *out_ts, size_t *out_len) {
  4047d0:	41 57                	push   %r15
  4047d2:	41 89 d7             	mov    %edx,%r15d
  4047d5:	41 56                	push   %r14
  4047d7:	41 55                	push   %r13
  4047d9:	41 89 fd             	mov    %edi,%r13d
  4047dc:	41 54                	push   %r12
  4047de:	49 89 cc             	mov    %rcx,%r12
/home/aliha951/ipdps-artifact/gapbs-master/src/taskstats_helper.h:81
	struct msgtemplate req = {0};
  4047e1:	b9 42 00 00 00       	mov    $0x42,%ecx
/home/aliha951/ipdps-artifact/gapbs-master/src/taskstats_helper.h:80
static int request_taskstats_pid(int sd, int family_id, pid_t pid, struct taskstats *out_ts, size_t *out_len) {
  4047e6:	55                   	push   %rbp
/usr/include/x86_64-linux-gnu/bits/string_fortified.h:71
    {
      __warn_memset_zero_len ();
      return __dest;
    }
#endif
  return __builtin___memset_chk (__dest, __ch, __len, __bos0 (__dest));
  4047e7:	49 8d 6c 24 08       	lea    0x8(%r12),%rbp
/home/aliha951/ipdps-artifact/gapbs-master/src/taskstats_helper.h:80
  4047ec:	53                   	push   %rbx
  4047ed:	4c 89 c3             	mov    %r8,%rbx
  4047f0:	48 81 ec 48 04 00 00 	sub    $0x448,%rsp
  4047f7:	64 48 8b 04 25 28 00 	mov    %fs:0x28,%rax
  4047fe:	00 00 
  404800:	48 89 84 24 38 04 00 	mov    %rax,0x438(%rsp)
  404807:	00 
  404808:	31 c0                	xor    %eax,%eax
/home/aliha951/ipdps-artifact/gapbs-master/src/taskstats_helper.h:81
	struct msgtemplate req = {0};
  40480a:	48 89 e7             	mov    %rsp,%rdi
/home/aliha951/ipdps-artifact/gapbs-master/src/taskstats_helper.h:85
	struct msgtemplate rep = {0};
	struct nlattr *na;

	*out_len = 0;
  40480d:	49 c7 00 00 00 00 00 	movq   $0x0,(%r8)
/home/aliha951/ipdps-artifact/gapbs-master/src/taskstats_helper.h:82
	struct msgtemplate rep = {0};
  404814:	4c 8d b4 24 20 02 00 	lea    0x220(%rsp),%r14
  40481b:	00 
/home/aliha951/ipdps-artifact/gapbs-master/src/taskstats_helper.h:81
	struct msgtemplate req = {0};
  40481c:	f3 48 ab             	rep stos %rax,%es:(%rdi)
/home/aliha951/ipdps-artifact/gapbs-master/src/taskstats_helper.h:82
	struct msgtemplate rep = {0};
  40481f:	b9 42 00 00 00       	mov    $0x42,%ecx
/home/aliha951/ipdps-artifact/gapbs-master/src/taskstats_helper.h:81
	struct msgtemplate req = {0};
  404824:	c7 07 00 00 00 00    	movl   $0x0,(%rdi)
/home/aliha951/ipdps-artifact/gapbs-master/src/taskstats_helper.h:82
	struct msgtemplate rep = {0};
  40482a:	4c 89 f7             	mov    %r14,%rdi
  40482d:	f3 48 ab             	rep stos %rax,%es:(%rdi)
memset():
/usr/include/x86_64-linux-gnu/bits/string_fortified.h:71
  404830:	4c 89 e1             	mov    %r12,%rcx
_ZL21request_taskstats_pidiiiP9taskstatsPm():
/home/aliha951/ipdps-artifact/gapbs-master/src/taskstats_helper.h:82
  404833:	c7 07 00 00 00 00    	movl   $0x0,(%rdi)
memset():
/usr/include/x86_64-linux-gnu/bits/string_fortified.h:71
  404839:	48 89 ef             	mov    %rbp,%rdi
  40483c:	48 83 e7 f8          	and    $0xfffffffffffffff8,%rdi
  404840:	49 c7 04 24 00 00 00 	movq   $0x0,(%r12)
  404847:	00 
  404848:	49 c7 84 24 a8 01 00 	movq   $0x0,0x1a8(%r12)
  40484f:	00 00 00 00 00 
  404854:	48 29 f9             	sub    %rdi,%rcx
  404857:	81 c1 b0 01 00 00    	add    $0x1b0,%ecx
  40485d:	c1 e9 03             	shr    $0x3,%ecx
  404860:	f3 48 ab             	rep stos %rax,%es:(%rdi)
_ZL21request_taskstats_pidiiiP9taskstatsPm():
/home/aliha951/ipdps-artifact/gapbs-master/src/taskstats_helper.h:90
	memset(out_ts, 0, sizeof(*out_ts));

	req.n.nlmsg_len = NLMSG_LENGTH(GENL_HDRLEN);
	req.n.nlmsg_type = family_id;
	req.n.nlmsg_flags = NLM_F_REQUEST;
  404863:	b8 01 00 00 00       	mov    $0x1,%eax
/home/aliha951/ipdps-artifact/gapbs-master/src/taskstats_helper.h:89
	req.n.nlmsg_type = family_id;
  404868:	66 89 74 24 04       	mov    %si,0x4(%rsp)
/home/aliha951/ipdps-artifact/gapbs-master/src/taskstats_helper.h:88
	req.n.nlmsg_len = NLMSG_LENGTH(GENL_HDRLEN);
  40486d:	c7 04 24 14 00 00 00 	movl   $0x14,(%rsp)
/home/aliha951/ipdps-artifact/gapbs-master/src/taskstats_helper.h:90
	req.n.nlmsg_flags = NLM_F_REQUEST;
  404874:	66 89 44 24 06       	mov    %ax,0x6(%rsp)
/home/aliha951/ipdps-artifact/gapbs-master/src/taskstats_helper.h:91
	req.n.nlmsg_seq = 1;
  404879:	c7 44 24 08 01 00 00 	movl   $0x1,0x8(%rsp)
  404880:	00 
/home/aliha951/ipdps-artifact/gapbs-master/src/taskstats_helper.h:92
	req.n.nlmsg_pid = getpid();
  404881:	e8 5a f1 ff ff       	callq  4039e0 <getpid@plt>
/home/aliha951/ipdps-artifact/gapbs-master/src/taskstats_helper.h:93
	req.g.cmd = TASKSTATS_CMD_GET;
  404886:	ba 01 0e 00 00       	mov    $0xe01,%edx
/home/aliha951/ipdps-artifact/gapbs-master/src/taskstats_helper.h:103
  na->nla_type = TASKSTATS_CMD_ATTR_TGID; // Use TGID to get stats for thread group (process) instead of single thread
	na->nla_len = NLA_HDRLEN + sizeof(pid);
	memcpy(NLA_DATA(na), &pid, sizeof(pid));
	req.n.nlmsg_len += NLMSG_ALIGN(na->nla_len);

	if (send(sd, &req, req.n.nlmsg_len, 0) < 0)
  40488b:	31 c9                	xor    %ecx,%ecx
  40488d:	48 89 e6             	mov    %rsp,%rsi
/home/aliha951/ipdps-artifact/gapbs-master/src/taskstats_helper.h:92
	req.n.nlmsg_pid = getpid();
  404890:	89 44 24 0c          	mov    %eax,0xc(%rsp)
/home/aliha951/ipdps-artifact/gapbs-master/src/taskstats_helper.h:101
	req.n.nlmsg_len += NLMSG_ALIGN(na->nla_len);
  404894:	8b 04 24             	mov    (%rsp),%eax
/home/aliha951/ipdps-artifact/gapbs-master/src/taskstats_helper.h:103
	if (send(sd, &req, req.n.nlmsg_len, 0) < 0)
  404897:	44 89 ef             	mov    %r13d,%edi
/home/aliha951/ipdps-artifact/gapbs-master/src/taskstats_helper.h:93
	req.g.cmd = TASKSTATS_CMD_GET;
  40489a:	66 89 54 24 10       	mov    %dx,0x10(%rsp)
/home/aliha951/ipdps-artifact/gapbs-master/src/taskstats_helper.h:101
	req.n.nlmsg_len += NLMSG_ALIGN(na->nla_len);
  40489f:	8d 50 08             	lea    0x8(%rax),%edx
/home/aliha951/ipdps-artifact/gapbs-master/src/taskstats_helper.h:99
	na->nla_len = NLA_HDRLEN + sizeof(pid);
  4048a2:	c7 44 24 14 08 00 02 	movl   $0x20008,0x14(%rsp)
  4048a9:	00 
/usr/include/x86_64-linux-gnu/bits/string_fortified.h:34
  return __builtin___memcpy_chk (__dest, __src, __len, __bos0 (__dest));
  4048aa:	44 89 7c 24 18       	mov    %r15d,0x18(%rsp)
/home/aliha951/ipdps-artifact/gapbs-master/src/taskstats_helper.h:101
	req.n.nlmsg_len += NLMSG_ALIGN(na->nla_len);
  4048af:	89 14 24             	mov    %edx,(%rsp)
/home/aliha951/ipdps-artifact/gapbs-master/src/taskstats_helper.h:103
	if (send(sd, &req, req.n.nlmsg_len, 0) < 0)
  4048b2:	e8 69 ee ff ff       	callq  403720 <send@plt>
  4048b7:	48 85 c0             	test   %rax,%rax
  4048ba:	0f 88 18 01 00 00    	js     4049d8 <_ZL21request_taskstats_pidiiiP9taskstatsPm+0x208>
/usr/include/x86_64-linux-gnu/bits/socket2.h:44
  4048c0:	31 c9                	xor    %ecx,%ecx
recv():
/usr/include/x86_64-linux-gnu/bits/socket2.h:44
  4048c2:	ba 14 02 00 00       	mov    $0x214,%edx
  4048c7:	4c 89 f6             	mov    %r14,%rsi
  4048ca:	44 89 ef             	mov    %r13d,%edi
  4048cd:	e8 ee ed ff ff       	callq  4036c0 <recv@plt>
_ZL21request_taskstats_pidiiiP9taskstatsPm():
/home/aliha951/ipdps-artifact/gapbs-master/src/taskstats_helper.h:105
		return -1;
	if (recv(sd, &rep, sizeof(rep), 0) < 0)
  4048d2:	48 85 c0             	test   %rax,%rax
  4048d5:	0f 88 fd 00 00 00    	js     4049d8 <_ZL21request_taskstats_pidiiiP9taskstatsPm+0x208>
/home/aliha951/ipdps-artifact/gapbs-master/src/taskstats_helper.h:109
		return -1;

	na = (struct nlattr *) GENLMSG_DATA(&rep.n);
	int rem = rep.n.nlmsg_len - NLMSG_LENGTH(GENL_HDRLEN);
  4048db:	8b 84 24 20 02 00 00 	mov    0x220(%rsp),%eax
  4048e2:	8d 70 ec             	lea    -0x14(%rax),%esi
/home/aliha951/ipdps-artifact/gapbs-master/src/taskstats_helper.h:110
	while (rem > 0 && na->nla_len >= NLA_HDRLEN && rem >= na->nla_len) {
  4048e5:	85 f6                	test   %esi,%esi
  4048e7:	0f 8e eb 00 00 00    	jle    4049d8 <_ZL21request_taskstats_pidiiiP9taskstatsPm+0x208>
/home/aliha951/ipdps-artifact/gapbs-master/src/taskstats_helper.h:108
	na = (struct nlattr *) GENLMSG_DATA(&rep.n);
  4048ed:	48 8d 8c 24 34 02 00 	lea    0x234(%rsp),%rcx
  4048f4:	00 
  4048f5:	eb 29                	jmp    404920 <_ZL21request_taskstats_pidiiiP9taskstatsPm+0x150>
  4048f7:	66 0f 1f 84 00 00 00 	nopw   0x0(%rax,%rax,1)
  4048fe:	00 00 
/home/aliha951/ipdps-artifact/gapbs-master/src/taskstats_helper.h:126
				}
				int step2 = NLA_ALIGN(n2->nla_len);
				aggr_len -= step2;
				n2 = (struct nlattr *) ((char*)n2 + step2);
			}
		} else if (na->nla_type == TASKSTATS_TYPE_STATS) {
  404900:	66 83 f8 03          	cmp    $0x3,%ax
  404904:	0f 84 26 01 00 00    	je     404a30 <_ZL21request_taskstats_pidiiiP9taskstatsPm+0x260>
/home/aliha951/ipdps-artifact/gapbs-master/src/taskstats_helper.h:133
			if (payload > sizeof(*out_ts)) payload = sizeof(*out_ts);
			memcpy(out_ts, NLA_DATA(na), payload);
			*out_len = payload;
			return 0;
		}
		int step = NLA_ALIGN(na->nla_len);
  40490a:	83 c2 03             	add    $0x3,%edx
  40490d:	83 e2 fc             	and    $0xfffffffc,%edx
/home/aliha951/ipdps-artifact/gapbs-master/src/taskstats_helper.h:134
		rem -= step;
  404910:	29 d6                	sub    %edx,%esi
/home/aliha951/ipdps-artifact/gapbs-master/src/taskstats_helper.h:135
		na = (struct nlattr *) ((char*)na + step);
  404912:	48 63 d2             	movslq %edx,%rdx
  404915:	48 01 d1             	add    %rdx,%rcx
/home/aliha951/ipdps-artifact/gapbs-master/src/taskstats_helper.h:110
	while (rem > 0 && na->nla_len >= NLA_HDRLEN && rem >= na->nla_len) {
  404918:	85 f6                	test   %esi,%esi
  40491a:	0f 8e b8 00 00 00    	jle    4049d8 <_ZL21request_taskstats_pidiiiP9taskstatsPm+0x208>
/home/aliha951/ipdps-artifact/gapbs-master/src/taskstats_helper.h:110 (discriminator 1)
  404920:	0f b7 11             	movzwl (%rcx),%edx
  404923:	66 83 fa 03          	cmp    $0x3,%dx
  404927:	0f 86 ab 00 00 00    	jbe    4049d8 <_ZL21request_taskstats_pidiiiP9taskstatsPm+0x208>
/home/aliha951/ipdps-artifact/gapbs-master/src/taskstats_helper.h:110 (discriminator 2)
  40492d:	39 f2                	cmp    %esi,%edx
  40492f:	0f 8f a3 00 00 00    	jg     4049d8 <_ZL21request_taskstats_pidiiiP9taskstatsPm+0x208>
/home/aliha951/ipdps-artifact/gapbs-master/src/taskstats_helper.h:111
		if (na->nla_type == TASKSTATS_TYPE_AGGR_PID || na->nla_type == TASKSTATS_TYPE_AGGR_TGID) {
  404935:	0f b7 41 02          	movzwl 0x2(%rcx),%eax
  404939:	8d 78 fc             	lea    -0x4(%rax),%edi
  40493c:	66 83 ff 01          	cmp    $0x1,%di
  404940:	77 be                	ja     404900 <_ZL21request_taskstats_pidiiiP9taskstatsPm+0x130>
/home/aliha951/ipdps-artifact/gapbs-master/src/taskstats_helper.h:114
			while (aggr_len > 0 && n2->nla_len >= NLA_HDRLEN && aggr_len >= n2->nla_len) {
  404942:	41 89 d0             	mov    %edx,%r8d
/home/aliha951/ipdps-artifact/gapbs-master/src/taskstats_helper.h:113
			struct nlattr *n2 = (struct nlattr *) NLA_DATA(na);
  404945:	48 8d 79 04          	lea    0x4(%rcx),%rdi
/home/aliha951/ipdps-artifact/gapbs-master/src/taskstats_helper.h:114
			while (aggr_len > 0 && n2->nla_len >= NLA_HDRLEN && aggr_len >= n2->nla_len) {
  404949:	41 83 e8 04          	sub    $0x4,%r8d
  40494d:	75 1c                	jne    40496b <_ZL21request_taskstats_pidiiiP9taskstatsPm+0x19b>
  40494f:	eb b9                	jmp    40490a <_ZL21request_taskstats_pidiiiP9taskstatsPm+0x13a>
  404951:	0f 1f 80 00 00 00 00 	nopl   0x0(%rax)
/home/aliha951/ipdps-artifact/gapbs-master/src/taskstats_helper.h:122
				int step2 = NLA_ALIGN(n2->nla_len);
  404958:	83 c0 03             	add    $0x3,%eax
  40495b:	83 e0 fc             	and    $0xfffffffc,%eax
/home/aliha951/ipdps-artifact/gapbs-master/src/taskstats_helper.h:123
				aggr_len -= step2;
  40495e:	41 29 c0             	sub    %eax,%r8d
/home/aliha951/ipdps-artifact/gapbs-master/src/taskstats_helper.h:124
				n2 = (struct nlattr *) ((char*)n2 + step2);
  404961:	48 98                	cltq   
  404963:	48 01 c7             	add    %rax,%rdi
/home/aliha951/ipdps-artifact/gapbs-master/src/taskstats_helper.h:114
			while (aggr_len > 0 && n2->nla_len >= NLA_HDRLEN && aggr_len >= n2->nla_len) {
  404966:	45 85 c0             	test   %r8d,%r8d
  404969:	7e 9f                	jle    40490a <_ZL21request_taskstats_pidiiiP9taskstatsPm+0x13a>
/home/aliha951/ipdps-artifact/gapbs-master/src/taskstats_helper.h:114 (discriminator 1)
  40496b:	0f b7 07             	movzwl (%rdi),%eax
  40496e:	66 83 f8 03          	cmp    $0x3,%ax
  404972:	76 96                	jbe    40490a <_ZL21request_taskstats_pidiiiP9taskstatsPm+0x13a>
/home/aliha951/ipdps-artifact/gapbs-master/src/taskstats_helper.h:114 (discriminator 2)
  404974:	44 39 c0             	cmp    %r8d,%eax
  404977:	7f 91                	jg     40490a <_ZL21request_taskstats_pidiiiP9taskstatsPm+0x13a>
/home/aliha951/ipdps-artifact/gapbs-master/src/taskstats_helper.h:115
				if (n2->nla_type == TASKSTATS_TYPE_STATS) {
  404979:	66 83 7f 02 03       	cmpw   $0x3,0x2(%rdi)
  40497e:	75 d8                	jne    404958 <_ZL21request_taskstats_pidiiiP9taskstatsPm+0x188>
/home/aliha951/ipdps-artifact/gapbs-master/src/taskstats_helper.h:116
					size_t payload = n2->nla_len - NLA_HDRLEN;
  404980:	83 e8 04             	sub    $0x4,%eax
  404983:	ba b0 01 00 00       	mov    $0x1b0,%edx
/home/aliha951/ipdps-artifact/gapbs-master/src/taskstats_helper.h:118
					memcpy(out_ts, NLA_DATA(n2), payload);
  404988:	48 8d 77 04          	lea    0x4(%rdi),%rsi
/home/aliha951/ipdps-artifact/gapbs-master/src/taskstats_helper.h:116
					size_t payload = n2->nla_len - NLA_HDRLEN;
  40498c:	48 98                	cltq   
/home/aliha951/ipdps-artifact/gapbs-master/src/taskstats_helper.h:117
					if (payload > sizeof(*out_ts)) payload = sizeof(*out_ts);
  40498e:	48 3d b0 01 00 00    	cmp    $0x1b0,%rax
  404994:	48 0f 47 c2          	cmova  %rdx,%rax
/usr/include/x86_64-linux-gnu/bits/string_fortified.h:34
  404998:	83 f8 08             	cmp    $0x8,%eax
memcpy():
/usr/include/x86_64-linux-gnu/bits/string_fortified.h:34
  40499b:	72 6b                	jb     404a08 <_ZL21request_taskstats_pidiiiP9taskstatsPm+0x238>
  40499d:	48 8b 57 04          	mov    0x4(%rdi),%rdx
_ZL21request_taskstats_pidiiiP9taskstatsPm():
/usr/include/x86_64-linux-gnu/bits/string_fortified.h:34
  4049a1:	49 89 14 24          	mov    %rdx,(%r12)
memcpy():
/usr/include/x86_64-linux-gnu/bits/string_fortified.h:34
  4049a5:	89 c2                	mov    %eax,%edx
  4049a7:	48 89 ef             	mov    %rbp,%rdi
  4049aa:	48 8b 4c 16 f8       	mov    -0x8(%rsi,%rdx,1),%rcx
  4049af:	48 83 e7 f8          	and    $0xfffffffffffffff8,%rdi
  4049b3:	49 89 4c 14 f8       	mov    %rcx,-0x8(%r12,%rdx,1)
  4049b8:	49 29 fc             	sub    %rdi,%r12
  4049bb:	4c 29 e6             	sub    %r12,%rsi
  4049be:	41 01 c4             	add    %eax,%r12d
  4049c1:	41 c1 ec 03          	shr    $0x3,%r12d
  4049c5:	44 89 e1             	mov    %r12d,%ecx
  4049c8:	f3 48 a5             	rep movsq %ds:(%rsi),%es:(%rdi)
_ZL21request_taskstats_pidiiiP9taskstatsPm():
/home/aliha951/ipdps-artifact/gapbs-master/src/taskstats_helper.h:130
			*out_len = payload;
  4049cb:	48 89 03             	mov    %rax,(%rbx)
/home/aliha951/ipdps-artifact/gapbs-master/src/taskstats_helper.h:131
			return 0;
  4049ce:	31 c0                	xor    %eax,%eax
  4049d0:	eb 0b                	jmp    4049dd <_ZL21request_taskstats_pidiiiP9taskstatsPm+0x20d>
  4049d2:	66 0f 1f 44 00 00    	nopw   0x0(%rax,%rax,1)
/home/aliha951/ipdps-artifact/gapbs-master/src/taskstats_helper.h:104
		return -1;
  4049d8:	b8 ff ff ff ff       	mov    $0xffffffff,%eax
/home/aliha951/ipdps-artifact/gapbs-master/src/taskstats_helper.h:138
	}
	return -1; /* Not found */
}
  4049dd:	48 8b 9c 24 38 04 00 	mov    0x438(%rsp),%rbx
  4049e4:	00 
  4049e5:	64 48 2b 1c 25 28 00 	sub    %fs:0x28,%rbx
  4049ec:	00 00 
  4049ee:	75 7c                	jne    404a6c <_ZL21request_taskstats_pidiiiP9taskstatsPm+0x29c>
  4049f0:	48 81 c4 48 04 00 00 	add    $0x448,%rsp
  4049f7:	5b                   	pop    %rbx
  4049f8:	5d                   	pop    %rbp
  4049f9:	41 5c                	pop    %r12
  4049fb:	41 5d                	pop    %r13
  4049fd:	41 5e                	pop    %r14
  4049ff:	41 5f                	pop    %r15
  404a01:	c3                   	retq   
  404a02:	66 0f 1f 44 00 00    	nopw   0x0(%rax,%rax,1)
memcpy():
/usr/include/x86_64-linux-gnu/bits/string_fortified.h:34
  404a08:	a8 04                	test   $0x4,%al
  404a0a:	75 4a                	jne    404a56 <_ZL21request_taskstats_pidiiiP9taskstatsPm+0x286>
  404a0c:	85 c0                	test   %eax,%eax
  404a0e:	74 bb                	je     4049cb <_ZL21request_taskstats_pidiiiP9taskstatsPm+0x1fb>
  404a10:	0f b6 16             	movzbl (%rsi),%edx
  404a13:	41 88 14 24          	mov    %dl,(%r12)
  404a17:	a8 02                	test   $0x2,%al
  404a19:	74 b0                	je     4049cb <_ZL21request_taskstats_pidiiiP9taskstatsPm+0x1fb>
  404a1b:	89 c2                	mov    %eax,%edx
  404a1d:	0f b7 4c 16 fe       	movzwl -0x2(%rsi,%rdx,1),%ecx
  404a22:	66 41 89 4c 14 fe    	mov    %cx,-0x2(%r12,%rdx,1)
  404a28:	eb a1                	jmp    4049cb <_ZL21request_taskstats_pidiiiP9taskstatsPm+0x1fb>
  404a2a:	66 0f 1f 44 00 00    	nopw   0x0(%rax,%rax,1)
_ZL21request_taskstats_pidiiiP9taskstatsPm():
/home/aliha951/ipdps-artifact/gapbs-master/src/taskstats_helper.h:127
			size_t payload = na->nla_len - NLA_HDRLEN;
  404a30:	8d 42 fc             	lea    -0x4(%rdx),%eax
  404a33:	ba b0 01 00 00       	mov    $0x1b0,%edx
/home/aliha951/ipdps-artifact/gapbs-master/src/taskstats_helper.h:129
			memcpy(out_ts, NLA_DATA(na), payload);
  404a38:	48 8d 71 04          	lea    0x4(%rcx),%rsi
/home/aliha951/ipdps-artifact/gapbs-master/src/taskstats_helper.h:127
			size_t payload = na->nla_len - NLA_HDRLEN;
  404a3c:	48 98                	cltq   
/home/aliha951/ipdps-artifact/gapbs-master/src/taskstats_helper.h:128
			if (payload > sizeof(*out_ts)) payload = sizeof(*out_ts);
  404a3e:	48 3d b0 01 00 00    	cmp    $0x1b0,%rax
  404a44:	48 0f 47 c2          	cmova  %rdx,%rax
memcpy():
/usr/include/x86_64-linux-gnu/bits/string_fortified.h:34
  404a48:	83 f8 08             	cmp    $0x8,%eax
  404a4b:	72 bb                	jb     404a08 <_ZL21request_taskstats_pidiiiP9taskstatsPm+0x238>
  404a4d:	48 8b 51 04          	mov    0x4(%rcx),%rdx
  404a51:	e9 4b ff ff ff       	jmpq   4049a1 <_ZL21request_taskstats_pidiiiP9taskstatsPm+0x1d1>
  404a56:	8b 16                	mov    (%rsi),%edx
  404a58:	41 89 14 24          	mov    %edx,(%r12)
  404a5c:	89 c2                	mov    %eax,%edx
  404a5e:	8b 4c 16 fc          	mov    -0x4(%rsi,%rdx,1),%ecx
  404a62:	41 89 4c 14 fc       	mov    %ecx,-0x4(%r12,%rdx,1)
  404a67:	e9 5f ff ff ff       	jmpq   4049cb <_ZL21request_taskstats_pidiiiP9taskstatsPm+0x1fb>
_ZL21request_taskstats_pidiiiP9taskstatsPm():
/home/aliha951/ipdps-artifact/gapbs-master/src/taskstats_helper.h:138
}
  404a6c:	e8 ff ed ff ff       	callq  403870 <__stack_chk_fail@plt>
  404a71:	66 66 2e 0f 1f 84 00 	data16 nopw %cs:0x0(%rax,%rax,1)
  404a78:	00 00 00 00 
  404a7c:	0f 1f 40 00          	nopl   0x0(%rax)

0000000000404a80 <_ZN8CSRGraphIi10NodeWeightIiiELb1EE8GenIndexERK7pvectorIlEPS1_._omp_fn.0>:
_ZN8CSRGraphIi10NodeWeightIiiELb1EE8GenIndexERK7pvectorIlEPS1_._omp_fn.0():
/home/aliha951/ipdps-artifact/gapbs-master/src/graph.h:245
  }

  static DestID_** GenIndex(const pvector<SGOffset> &offsets, DestID_* neighs) {
    NodeID_ length = offsets.size();
    DestID_** index = new DestID_*[length];
    #pragma omp parallel for
  404a80:	f3 0f 1e fa          	endbr64 
  404a84:	55                   	push   %rbp
  404a85:	53                   	push   %rbx
  404a86:	48 89 fb             	mov    %rdi,%rbx
  404a89:	48 83 ec 08          	sub    $0x8,%rsp
  404a8d:	e8 3e ef ff ff       	callq  4039d0 <omp_get_num_threads@plt>
  404a92:	89 c5                	mov    %eax,%ebp
  404a94:	e8 07 ee ff ff       	callq  4038a0 <omp_get_thread_num@plt>
  404a99:	89 c1                	mov    %eax,%ecx
  404a9b:	8b 43 18             	mov    0x18(%rbx),%eax
  404a9e:	99                   	cltd   
  404a9f:	f7 fd                	idiv   %ebp
  404aa1:	39 d1                	cmp    %edx,%ecx
  404aa3:	7c 43                	jl     404ae8 <_ZN8CSRGraphIi10NodeWeightIiiELb1EE8GenIndexERK7pvectorIlEPS1_._omp_fn.0+0x68>
  404aa5:	0f af c8             	imul   %eax,%ecx
  404aa8:	01 ca                	add    %ecx,%edx
  404aaa:	01 d0                	add    %edx,%eax
  404aac:	39 c2                	cmp    %eax,%edx
  404aae:	7d 2c                	jge    404adc <_ZN8CSRGraphIi10NodeWeightIiiELb1EE8GenIndexERK7pvectorIlEPS1_._omp_fn.0+0x5c>
_ZNK7pvectorIlEixEm():
/home/aliha951/ipdps-artifact/gapbs-master/src/pvector.h:120
  T_& operator[](size_t n) {
    return start_[n];
  }

  const T_& operator[](size_t n) const {
    return start_[n];
  404ab0:	48 8b 0b             	mov    (%rbx),%rcx
_ZN8CSRGraphIi10NodeWeightIiiELb1EE8GenIndexERK7pvectorIlEPS1_._omp_fn.0():
/home/aliha951/ipdps-artifact/gapbs-master/src/graph.h:245
  404ab3:	4c 8b 43 10          	mov    0x10(%rbx),%r8
  404ab7:	48 63 d2             	movslq %edx,%rdx
  404aba:	48 8b 7b 08          	mov    0x8(%rbx),%rdi
_ZNK7pvectorIlEixEm():
/home/aliha951/ipdps-artifact/gapbs-master/src/pvector.h:120
  404abe:	48 8b 31             	mov    (%rcx),%rsi
  404ac1:	0f 1f 80 00 00 00 00 	nopl   0x0(%rax)
_ZN8CSRGraphIi10NodeWeightIiiELb1EE8GenIndexERK7pvectorIlEPS1_._omp_fn.0():
/home/aliha951/ipdps-artifact/gapbs-master/src/graph.h:247 (discriminator 1)
    for (NodeID_ n=0; n < length; n++)
      index[n] = neighs + offsets[n];
  404ac8:	48 8b 0c d6          	mov    (%rsi,%rdx,8),%rcx
  404acc:	48 8d 0c cf          	lea    (%rdi,%rcx,8),%rcx
  404ad0:	49 89 0c d0          	mov    %rcx,(%r8,%rdx,8)
  404ad4:	48 83 c2 01          	add    $0x1,%rdx
  404ad8:	39 d0                	cmp    %edx,%eax
  404ada:	7f ec                	jg     404ac8 <_ZN8CSRGraphIi10NodeWeightIiiELb1EE8GenIndexERK7pvectorIlEPS1_._omp_fn.0+0x48>
/home/aliha951/ipdps-artifact/gapbs-master/src/graph.h:245
    #pragma omp parallel for
  404adc:	48 83 c4 08          	add    $0x8,%rsp
  404ae0:	5b                   	pop    %rbx
  404ae1:	5d                   	pop    %rbp
  404ae2:	c3                   	retq   
  404ae3:	0f 1f 44 00 00       	nopl   0x0(%rax,%rax,1)
  404ae8:	83 c0 01             	add    $0x1,%eax
  404aeb:	31 d2                	xor    %edx,%edx
  404aed:	eb b6                	jmp    404aa5 <_ZN8CSRGraphIi10NodeWeightIiiELb1EE8GenIndexERK7pvectorIlEPS1_._omp_fn.0+0x25>
  404aef:	90                   	nop

0000000000404af0 <_ZN7pvectorI8EdgePairIi10NodeWeightIiiEEE7reserveEm._omp_fn.0>:
_ZN7pvectorI8EdgePairIi10NodeWeightIiiEEE7reserveEm._omp_fn.0():
/home/aliha951/ipdps-artifact/gapbs-master/src/pvector.h:86
      #pragma omp parallel for
  404af0:	f3 0f 1e fa          	endbr64 
  404af4:	41 55                	push   %r13
  404af6:	41 54                	push   %r12
  404af8:	55                   	push   %rbp
  404af9:	53                   	push   %rbx
  404afa:	48 83 ec 08          	sub    $0x8,%rsp
  404afe:	48 8b 07             	mov    (%rdi),%rax
_ZNK7pvectorI8EdgePairIi10NodeWeightIiiEEE4sizeEv():
/home/aliha951/ipdps-artifact/gapbs-master/src/pvector.h:143
  size_t capacity() const {
    return end_capacity_ - start_;
  }

  size_t size() const {
    return end_size_ - start_;
  404b01:	48 8b 28             	mov    (%rax),%rbp
  404b04:	48 8b 58 08          	mov    0x8(%rax),%rbx
  404b08:	48 b8 ab aa aa aa aa 	movabs $0xaaaaaaaaaaaaaaab,%rax
  404b0f:	aa aa aa 
  404b12:	48 29 eb             	sub    %rbp,%rbx
  404b15:	48 c1 fb 02          	sar    $0x2,%rbx
  404b19:	48 0f af d8          	imul   %rax,%rbx
  404b1d:	48 85 db             	test   %rbx,%rbx
  404b20:	74 68                	je     404b8a <_ZN7pvectorI8EdgePairIi10NodeWeightIiiEEE7reserveEm._omp_fn.0+0x9a>
  404b22:	49 89 fc             	mov    %rdi,%r12
  404b25:	e8 a6 ee ff ff       	callq  4039d0 <omp_get_num_threads@plt>
  404b2a:	41 89 c5             	mov    %eax,%r13d
  404b2d:	e8 6e ed ff ff       	callq  4038a0 <omp_get_thread_num@plt>
  404b32:	49 63 f5             	movslq %r13d,%rsi
  404b35:	31 d2                	xor    %edx,%edx
  404b37:	48 63 c8             	movslq %eax,%rcx
  404b3a:	48 89 d8             	mov    %rbx,%rax
  404b3d:	48 f7 f6             	div    %rsi
  404b40:	48 39 d1             	cmp    %rdx,%rcx
  404b43:	72 53                	jb     404b98 <_ZN7pvectorI8EdgePairIi10NodeWeightIiiEEE7reserveEm._omp_fn.0+0xa8>
  404b45:	48 0f af c8          	imul   %rax,%rcx
  404b49:	48 01 ca             	add    %rcx,%rdx
  404b4c:	48 01 d0             	add    %rdx,%rax
  404b4f:	48 39 c2             	cmp    %rax,%rdx
  404b52:	73 36                	jae    404b8a <_ZN7pvectorI8EdgePairIi10NodeWeightIiiEEE7reserveEm._omp_fn.0+0x9a>
  404b54:	48 8d 14 52          	lea    (%rdx,%rdx,2),%rdx
  404b58:	48 8d 34 40          	lea    (%rax,%rax,2),%rsi
_ZN7pvectorI8EdgePairIi10NodeWeightIiiEEE7reserveEm._omp_fn.0():
/home/aliha951/ipdps-artifact/gapbs-master/src/pvector.h:86
      #pragma omp parallel for
  404b5c:	49 8b 4c 24 08       	mov    0x8(%r12),%rcx
  404b61:	48 c1 e2 02          	shl    $0x2,%rdx
  404b65:	48 c1 e6 02          	shl    $0x2,%rsi
  404b69:	0f 1f 80 00 00 00 00 	nopl   0x0(%rax)
/home/aliha951/ipdps-artifact/gapbs-master/src/pvector.h:88 (discriminator 1)
        new_range[i] = start_[i];
  404b70:	48 8b 44 15 00       	mov    0x0(%rbp,%rdx,1),%rax
  404b75:	48 89 04 11          	mov    %rax,(%rcx,%rdx,1)
  404b79:	8b 44 15 08          	mov    0x8(%rbp,%rdx,1),%eax
  404b7d:	89 44 11 08          	mov    %eax,0x8(%rcx,%rdx,1)
  404b81:	48 83 c2 0c          	add    $0xc,%rdx
  404b85:	48 39 d6             	cmp    %rdx,%rsi
  404b88:	75 e6                	jne    404b70 <_ZN7pvectorI8EdgePairIi10NodeWeightIiiEEE7reserveEm._omp_fn.0+0x80>
/home/aliha951/ipdps-artifact/gapbs-master/src/pvector.h:86
      #pragma omp parallel for
  404b8a:	48 83 c4 08          	add    $0x8,%rsp
  404b8e:	5b                   	pop    %rbx
  404b8f:	5d                   	pop    %rbp
  404b90:	41 5c                	pop    %r12
  404b92:	41 5d                	pop    %r13
  404b94:	c3                   	retq   
  404b95:	0f 1f 00             	nopl   (%rax)
  404b98:	48 83 c0 01          	add    $0x1,%rax
_ZNK7pvectorI8EdgePairIi10NodeWeightIiiEEE4sizeEv():
/home/aliha951/ipdps-artifact/gapbs-master/src/pvector.h:143
    return end_size_ - start_;
  404b9c:	31 d2                	xor    %edx,%edx
  404b9e:	eb a5                	jmp    404b45 <_ZN7pvectorI8EdgePairIi10NodeWeightIiiEEE7reserveEm._omp_fn.0+0x55>

0000000000404ba0 <_ZN11BuilderBaseIi10NodeWeightIiiEiLb1EE12CountDegreesERK7pvectorI8EdgePairIiS1_EEb._omp_fn.0>:
_ZN11BuilderBaseIi10NodeWeightIiiEiLb1EE12CountDegreesERK7pvectorI8EdgePairIiS1_EEb._omp_fn.0():
/home/aliha951/ipdps-artifact/gapbs-master/src/builder.h:82
    return max_seen;
  }

  pvector<NodeID_> CountDegrees(const EdgeList &el, bool transpose) {
    pvector<NodeID_> degrees(num_nodes_, 0);
    #pragma omp parallel for
  404ba0:	f3 0f 1e fa          	endbr64 
  404ba4:	41 55                	push   %r13
  404ba6:	41 54                	push   %r12
  404ba8:	55                   	push   %rbp
  404ba9:	53                   	push   %rbx
  404baa:	48 83 ec 08          	sub    $0x8,%rsp
/home/aliha951/ipdps-artifact/gapbs-master/src/builder.h:83
    for (auto it = el.begin(); it < el.end(); it++) {
  404bae:	48 8b 47 08          	mov    0x8(%rdi),%rax
_ZNK7pvectorI8EdgePairIi10NodeWeightIiiEEE5beginEv():
/home/aliha951/ipdps-artifact/gapbs-master/src/pvector.h:147
  }

  iterator begin() const {
    return start_;
  404bb2:	4c 8b 28             	mov    (%rax),%r13
_ZNK7pvectorI8EdgePairIi10NodeWeightIiiEEE3endEv():
/home/aliha951/ipdps-artifact/gapbs-master/src/pvector.h:151
  }

  iterator end() const {
    return end_size_;
  404bb5:	4c 8b 60 08          	mov    0x8(%rax),%r12
  404bb9:	4d 39 ec             	cmp    %r13,%r12
  404bbc:	0f 86 a2 00 00 00    	jbe    404c64 <_ZN11BuilderBaseIi10NodeWeightIiiEiLb1EE12CountDegreesERK7pvectorI8EdgePairIiS1_EEb._omp_fn.0+0xc4>
  404bc2:	48 89 fb             	mov    %rdi,%rbx
  404bc5:	e8 06 ee ff ff       	callq  4039d0 <omp_get_num_threads@plt>
  404bca:	48 63 e8             	movslq %eax,%rbp
  404bcd:	e8 ce ec ff ff       	callq  4038a0 <omp_get_thread_num@plt>
  404bd2:	49 8d 4c 24 0b       	lea    0xb(%r12),%rcx
  404bd7:	48 ba ab aa aa aa aa 	movabs $0x2aaaaaaaaaaaaaab,%rdx
  404bde:	aa aa 2a 
  404be1:	4c 29 e9             	sub    %r13,%rcx
  404be4:	48 63 f0             	movslq %eax,%rsi
  404be7:	48 89 c8             	mov    %rcx,%rax
  404bea:	48 c1 f9 3f          	sar    $0x3f,%rcx
  404bee:	48 f7 ea             	imul   %rdx
  404bf1:	48 89 d0             	mov    %rdx,%rax
  404bf4:	48 d1 f8             	sar    %rax
  404bf7:	48 29 c8             	sub    %rcx,%rax
  404bfa:	48 99                	cqto   
  404bfc:	48 f7 fd             	idiv   %rbp
  404bff:	48 39 d6             	cmp    %rdx,%rsi
  404c02:	7c 6c                	jl     404c70 <_ZN11BuilderBaseIi10NodeWeightIiiEiLb1EE12CountDegreesERK7pvectorI8EdgePairIiS1_EEb._omp_fn.0+0xd0>
  404c04:	48 0f af f0          	imul   %rax,%rsi
  404c08:	48 01 f2             	add    %rsi,%rdx
  404c0b:	48 01 d0             	add    %rdx,%rax
  404c0e:	48 39 c2             	cmp    %rax,%rdx
  404c11:	7d 51                	jge    404c64 <_ZN11BuilderBaseIi10NodeWeightIiiEiLb1EE12CountDegreesERK7pvectorI8EdgePairIiS1_EEb._omp_fn.0+0xc4>
  404c13:	48 8d 14 52          	lea    (%rdx,%rdx,2),%rdx
  404c17:	48 8d 04 40          	lea    (%rax,%rax,2),%rax
  404c1b:	80 7b 18 00          	cmpb   $0x0,0x18(%rbx)
_ZN11BuilderBaseIi10NodeWeightIiiEiLb1EE12CountDegreesERK7pvectorI8EdgePairIiS1_EEb._omp_fn.0():
/home/aliha951/ipdps-artifact/gapbs-master/src/builder.h:82
    #pragma omp parallel for
  404c1f:	48 8b 3b             	mov    (%rbx),%rdi
  404c22:	49 8d 54 95 00       	lea    0x0(%r13,%rdx,4),%rdx
  404c27:	4d 8d 44 85 00       	lea    0x0(%r13,%rax,4),%r8
  404c2c:	75 4a                	jne    404c78 <_ZN11BuilderBaseIi10NodeWeightIiiEiLb1EE12CountDegreesERK7pvectorI8EdgePairIiS1_EEb._omp_fn.0+0xd8>
  404c2e:	66 90                	xchg   %ax,%ax
_ZN7pvectorIiEixEm():
/home/aliha951/ipdps-artifact/gapbs-master/src/pvector.h:116
    return start_[n];
  404c30:	48 8b 4b 10          	mov    0x10(%rbx),%rcx
_ZN11BuilderBaseIi10NodeWeightIiiEiLb1EE12CountDegreesERK7pvectorI8EdgePairIiS1_EEb._omp_fn.0():
/home/aliha951/ipdps-artifact/gapbs-master/src/builder.h:84
      Edge e = *it;
  404c34:	48 63 42 04          	movslq 0x4(%rdx),%rax
/home/aliha951/ipdps-artifact/gapbs-master/src/builder.h:86
      if (symmetrize_ || (!symmetrize_ && !transpose))
        fetch_and_add(degrees[e.u], 1);
  404c38:	48 63 32             	movslq (%rdx),%rsi
_Z13fetch_and_addIiiET_RS0_T0_():
/home/aliha951/ipdps-artifact/gapbs-master/src/platform_atomics.h:26

    // gcc/clang/icc instrinsics

    template<typename T, typename U>
    T fetch_and_add(T &x, U inc) {
      return __sync_fetch_and_add(&x, inc);
  404c3b:	48 8b 09             	mov    (%rcx),%rcx
  404c3e:	f0 83 04 b1 01       	lock addl $0x1,(%rcx,%rsi,4)
_ZN11BuilderBaseIi10NodeWeightIiiEiLb1EE12CountDegreesERK7pvectorI8EdgePairIiS1_EEb._omp_fn.0():
/home/aliha951/ipdps-artifact/gapbs-master/src/builder.h:87
      if ((symmetrize_ && !in_place_) || (!symmetrize_ && transpose))
  404c43:	80 7f 08 00          	cmpb   $0x0,0x8(%rdi)
  404c47:	74 12                	je     404c5b <_ZN11BuilderBaseIi10NodeWeightIiiEiLb1EE12CountDegreesERK7pvectorI8EdgePairIiS1_EEb._omp_fn.0+0xbb>
  404c49:	80 7f 0a 00          	cmpb   $0x0,0xa(%rdi)
  404c4d:	75 0c                	jne    404c5b <_ZN11BuilderBaseIi10NodeWeightIiiEiLb1EE12CountDegreesERK7pvectorI8EdgePairIiS1_EEb._omp_fn.0+0xbb>
_ZN7pvectorIiEixEm():
/home/aliha951/ipdps-artifact/gapbs-master/src/pvector.h:116
  404c4f:	48 8b 4b 10          	mov    0x10(%rbx),%rcx
_Z13fetch_and_addIiiET_RS0_T0_():
/home/aliha951/ipdps-artifact/gapbs-master/src/platform_atomics.h:26
  404c53:	48 8b 09             	mov    (%rcx),%rcx
  404c56:	f0 83 04 81 01       	lock addl $0x1,(%rcx,%rax,4)
  404c5b:	48 83 c2 0c          	add    $0xc,%rdx
  404c5f:	49 39 d0             	cmp    %rdx,%r8
  404c62:	77 cc                	ja     404c30 <_ZN11BuilderBaseIi10NodeWeightIiiEiLb1EE12CountDegreesERK7pvectorI8EdgePairIiS1_EEb._omp_fn.0+0x90>
_ZN11BuilderBaseIi10NodeWeightIiiEiLb1EE12CountDegreesERK7pvectorI8EdgePairIiS1_EEb._omp_fn.0():
/home/aliha951/ipdps-artifact/gapbs-master/src/builder.h:82
    #pragma omp parallel for
  404c64:	48 83 c4 08          	add    $0x8,%rsp
  404c68:	5b                   	pop    %rbx
  404c69:	5d                   	pop    %rbp
  404c6a:	41 5c                	pop    %r12
  404c6c:	41 5d                	pop    %r13
  404c6e:	c3                   	retq   
  404c6f:	90                   	nop
  404c70:	48 83 c0 01          	add    $0x1,%rax
_ZNK7pvectorI8EdgePairIi10NodeWeightIiiEEE3endEv():
/home/aliha951/ipdps-artifact/gapbs-master/src/pvector.h:151
    return end_size_;
  404c74:	31 d2                	xor    %edx,%edx
  404c76:	eb 8c                	jmp    404c04 <_ZN11BuilderBaseIi10NodeWeightIiiEiLb1EE12CountDegreesERK7pvectorI8EdgePairIiS1_EEb._omp_fn.0+0x64>
_ZN11BuilderBaseIi10NodeWeightIiiEiLb1EE12CountDegreesERK7pvectorI8EdgePairIiS1_EEb._omp_fn.0():
/home/aliha951/ipdps-artifact/gapbs-master/src/builder.h:85
      if (symmetrize_ || (!symmetrize_ && !transpose))
  404c78:	80 7f 08 00          	cmpb   $0x0,0x8(%rdi)
/home/aliha951/ipdps-artifact/gapbs-master/src/builder.h:84
      Edge e = *it;
  404c7c:	48 63 42 04          	movslq 0x4(%rdx),%rax
/home/aliha951/ipdps-artifact/gapbs-master/src/builder.h:85
      if (symmetrize_ || (!symmetrize_ && !transpose))
  404c80:	74 1b                	je     404c9d <_ZN11BuilderBaseIi10NodeWeightIiiEiLb1EE12CountDegreesERK7pvectorI8EdgePairIiS1_EEb._omp_fn.0+0xfd>
_ZN7pvectorIiEixEm():
/home/aliha951/ipdps-artifact/gapbs-master/src/pvector.h:116
    return start_[n];
  404c82:	48 8b 4b 10          	mov    0x10(%rbx),%rcx
_ZN11BuilderBaseIi10NodeWeightIiiEiLb1EE12CountDegreesERK7pvectorI8EdgePairIiS1_EEb._omp_fn.0():
/home/aliha951/ipdps-artifact/gapbs-master/src/builder.h:86
        fetch_and_add(degrees[e.u], 1);
  404c86:	48 63 32             	movslq (%rdx),%rsi
_Z13fetch_and_addIiiET_RS0_T0_():
/home/aliha951/ipdps-artifact/gapbs-master/src/platform_atomics.h:26
  404c89:	48 8b 09             	mov    (%rcx),%rcx
  404c8c:	f0 83 04 b1 01       	lock addl $0x1,(%rcx,%rsi,4)
_ZN11BuilderBaseIi10NodeWeightIiiEiLb1EE12CountDegreesERK7pvectorI8EdgePairIiS1_EEb._omp_fn.0():
/home/aliha951/ipdps-artifact/gapbs-master/src/builder.h:87
      if ((symmetrize_ && !in_place_) || (!symmetrize_ && transpose))
  404c91:	80 7f 08 00          	cmpb   $0x0,0x8(%rdi)
  404c95:	74 06                	je     404c9d <_ZN11BuilderBaseIi10NodeWeightIiiEiLb1EE12CountDegreesERK7pvectorI8EdgePairIiS1_EEb._omp_fn.0+0xfd>
/home/aliha951/ipdps-artifact/gapbs-master/src/builder.h:87 (discriminator 1)
  404c97:	80 7f 0a 00          	cmpb   $0x0,0xa(%rdi)
  404c9b:	75 0c                	jne    404ca9 <_ZN11BuilderBaseIi10NodeWeightIiiEiLb1EE12CountDegreesERK7pvectorI8EdgePairIiS1_EEb._omp_fn.0+0x109>
_ZN7pvectorIiEixEm():
/home/aliha951/ipdps-artifact/gapbs-master/src/pvector.h:116
  404c9d:	48 8b 4b 10          	mov    0x10(%rbx),%rcx
_Z13fetch_and_addIiiET_RS0_T0_():
/home/aliha951/ipdps-artifact/gapbs-master/src/platform_atomics.h:26
  404ca1:	48 8b 09             	mov    (%rcx),%rcx
  404ca4:	f0 83 04 81 01       	lock addl $0x1,(%rcx,%rax,4)
  404ca9:	48 83 c2 0c          	add    $0xc,%rdx
  404cad:	49 39 d0             	cmp    %rdx,%r8
  404cb0:	77 c6                	ja     404c78 <_ZN11BuilderBaseIi10NodeWeightIiiEiLb1EE12CountDegreesERK7pvectorI8EdgePairIiS1_EEb._omp_fn.0+0xd8>
  404cb2:	eb b0                	jmp    404c64 <_ZN11BuilderBaseIi10NodeWeightIiiEiLb1EE12CountDegreesERK7pvectorI8EdgePairIiS1_EEb._omp_fn.0+0xc4>
_ZN11BuilderBaseIi10NodeWeightIiiEiLb1EE12CountDegreesERK7pvectorI8EdgePairIiS1_EEb._omp_fn.0():
/home/aliha951/ipdps-artifact/gapbs-master/src/platform_atomics.h:26
  404cb4:	66 66 2e 0f 1f 84 00 	data16 nopw %cs:0x0(%rax,%rax,1)
  404cbb:	00 00 00 00 
  404cbf:	90                   	nop

0000000000404cc0 <_ZN11BuilderBaseIi10NodeWeightIiiEiLb1EE17ParallelPrefixSumERK7pvectorIiE._omp_fn.0>:
_ZN11BuilderBaseIi10NodeWeightIiiEiLb1EE17ParallelPrefixSumERK7pvectorIiE._omp_fn.0():
/home/aliha951/ipdps-artifact/gapbs-master/src/builder.h:110
  static
  pvector<SGOffset> ParallelPrefixSum(const pvector<NodeID_> &degrees) {
    const size_t block_size = 1<<20;
    const size_t num_blocks = (degrees.size() + block_size - 1) / block_size;
    pvector<SGOffset> local_sums(num_blocks);
    #pragma omp parallel for
  404cc0:	f3 0f 1e fa          	endbr64 
  404cc4:	41 54                	push   %r12
  404cc6:	55                   	push   %rbp
  404cc7:	53                   	push   %rbx
  404cc8:	48 8b 5f 08          	mov    0x8(%rdi),%rbx
  404ccc:	48 85 db             	test   %rbx,%rbx
  404ccf:	0f 84 4d 01 00 00    	je     404e22 <_ZN11BuilderBaseIi10NodeWeightIiiEiLb1EE17ParallelPrefixSumERK7pvectorIiE._omp_fn.0+0x162>
  404cd5:	49 89 fc             	mov    %rdi,%r12
  404cd8:	e8 f3 ec ff ff       	callq  4039d0 <omp_get_num_threads@plt>
  404cdd:	89 c5                	mov    %eax,%ebp
  404cdf:	e8 bc eb ff ff       	callq  4038a0 <omp_get_thread_num@plt>
  404ce4:	48 63 cd             	movslq %ebp,%rcx
  404ce7:	31 d2                	xor    %edx,%edx
  404ce9:	48 63 f0             	movslq %eax,%rsi
  404cec:	48 89 d8             	mov    %rbx,%rax
  404cef:	48 f7 f1             	div    %rcx
  404cf2:	48 39 d6             	cmp    %rdx,%rsi
  404cf5:	0f 82 3d 01 00 00    	jb     404e38 <_ZN11BuilderBaseIi10NodeWeightIiiEiLb1EE17ParallelPrefixSumERK7pvectorIiE._omp_fn.0+0x178>
  404cfb:	48 0f af f0          	imul   %rax,%rsi
  404cff:	48 01 d6             	add    %rdx,%rsi
  404d02:	48 01 f0             	add    %rsi,%rax
  404d05:	48 39 c6             	cmp    %rax,%rsi
  404d08:	0f 83 14 01 00 00    	jae    404e22 <_ZN11BuilderBaseIi10NodeWeightIiiEiLb1EE17ParallelPrefixSumERK7pvectorIiE._omp_fn.0+0x162>
/home/aliha951/ipdps-artifact/gapbs-master/src/builder.h:113
    for (size_t block=0; block < num_blocks; block++) {
      SGOffset lsum = 0;
      size_t block_end = std::min((block + 1) * block_size, degrees.size());
  404d0e:	49 8b 14 24          	mov    (%r12),%rdx
  404d12:	49 89 f0             	mov    %rsi,%r8
/home/aliha951/ipdps-artifact/gapbs-master/src/builder.h:115
      for (size_t i=block * block_size; i < block_end; i++)
        lsum += degrees[i];
  404d15:	66 0f ef e4          	pxor   %xmm4,%xmm4
  404d19:	49 c1 e0 14          	shl    $0x14,%r8
_ZNK7pvectorIiE4sizeEv():
/home/aliha951/ipdps-artifact/gapbs-master/src/pvector.h:143
    return end_size_ - start_;
  404d1d:	4c 8b 1a             	mov    (%rdx),%r11
  404d20:	4c 8b 52 08          	mov    0x8(%rdx),%r10
_ZN7pvectorIlEixEm():
/home/aliha951/ipdps-artifact/gapbs-master/src/pvector.h:116
    return start_[n];
  404d24:	49 8b 54 24 10       	mov    0x10(%r12),%rdx
_ZNK7pvectorIiE4sizeEv():
/home/aliha951/ipdps-artifact/gapbs-master/src/pvector.h:143
    return end_size_ - start_;
  404d29:	4d 29 da             	sub    %r11,%r10
_ZN7pvectorIlEixEm():
/home/aliha951/ipdps-artifact/gapbs-master/src/pvector.h:116
    return start_[n];
  404d2c:	48 8b 12             	mov    (%rdx),%rdx
_ZNK7pvectorIiE4sizeEv():
/home/aliha951/ipdps-artifact/gapbs-master/src/pvector.h:143
    return end_size_ - start_;
  404d2f:	49 c1 fa 02          	sar    $0x2,%r10
  404d33:	4c 8d 0c f2          	lea    (%rdx,%rsi,8),%r9
  404d37:	48 c1 e6 16          	shl    $0x16,%rsi
  404d3b:	48 8d 2c c2          	lea    (%rdx,%rax,8),%rbp
  404d3f:	4c 01 de             	add    %r11,%rsi
  404d42:	66 0f 1f 44 00 00    	nopw   0x0(%rax,%rax,1)
/home/aliha951/ipdps-artifact/gapbs-master/src/pvector.h:142
  size_t size() const {
  404d48:	4c 89 c1             	mov    %r8,%rcx
_ZN11BuilderBaseIi10NodeWeightIiiEiLb1EE17ParallelPrefixSumERK7pvectorIiE._omp_fn.0():
/home/aliha951/ipdps-artifact/gapbs-master/src/builder.h:113
      size_t block_end = std::min((block + 1) * block_size, degrees.size());
  404d4b:	49 81 c0 00 00 10 00 	add    $0x100000,%r8
  404d52:	4c 89 d3             	mov    %r10,%rbx
  404d55:	4d 39 d0             	cmp    %r10,%r8
  404d58:	49 0f 46 d8          	cmovbe %r8,%rbx
/home/aliha951/ipdps-artifact/gapbs-master/src/builder.h:114
      for (size_t i=block * block_size; i < block_end; i++)
  404d5c:	48 39 cb             	cmp    %rcx,%rbx
  404d5f:	0f 86 cb 00 00 00    	jbe    404e30 <_ZN11BuilderBaseIi10NodeWeightIiiEiLb1EE17ParallelPrefixSumERK7pvectorIiE._omp_fn.0+0x170>
  404d65:	48 89 df             	mov    %rbx,%rdi
  404d68:	48 29 cf             	sub    %rcx,%rdi
  404d6b:	48 8d 47 ff          	lea    -0x1(%rdi),%rax
  404d6f:	48 83 f8 02          	cmp    $0x2,%rax
  404d73:	0f 86 bb 00 00 00    	jbe    404e34 <_ZN11BuilderBaseIi10NodeWeightIiiEiLb1EE17ParallelPrefixSumERK7pvectorIiE._omp_fn.0+0x174>
  404d79:	48 89 fa             	mov    %rdi,%rdx
  404d7c:	48 89 f0             	mov    %rsi,%rax
  404d7f:	66 0f ef c9          	pxor   %xmm1,%xmm1
  404d83:	48 c1 ea 02          	shr    $0x2,%rdx
  404d87:	48 c1 e2 04          	shl    $0x4,%rdx
  404d8b:	48 01 f2             	add    %rsi,%rdx
  404d8e:	66 90                	xchg   %ax,%ax
/home/aliha951/ipdps-artifact/gapbs-master/src/builder.h:115 (discriminator 2)
        lsum += degrees[i];
  404d90:	f3 0f 6f 00          	movdqu (%rax),%xmm0
  404d94:	66 0f 6f d4          	movdqa %xmm4,%xmm2
  404d98:	48 83 c0 10          	add    $0x10,%rax
  404d9c:	66 0f 66 d0          	pcmpgtd %xmm0,%xmm2
  404da0:	66 0f 6f d8          	movdqa %xmm0,%xmm3
  404da4:	66 0f 62 da          	punpckldq %xmm2,%xmm3
  404da8:	66 0f 6a c2          	punpckhdq %xmm2,%xmm0
  404dac:	66 0f d4 cb          	paddq  %xmm3,%xmm1
  404db0:	66 0f d4 c8          	paddq  %xmm0,%xmm1
/home/aliha951/ipdps-artifact/gapbs-master/src/builder.h:114 (discriminator 2)
      for (size_t i=block * block_size; i < block_end; i++)
  404db4:	48 39 d0             	cmp    %rdx,%rax
  404db7:	75 d7                	jne    404d90 <_ZN11BuilderBaseIi10NodeWeightIiiEiLb1EE17ParallelPrefixSumERK7pvectorIiE._omp_fn.0+0xd0>
  404db9:	66 0f 6f c1          	movdqa %xmm1,%xmm0
  404dbd:	48 89 fa             	mov    %rdi,%rdx
  404dc0:	66 0f 73 d8 08       	psrldq $0x8,%xmm0
  404dc5:	48 83 e2 fc          	and    $0xfffffffffffffffc,%rdx
  404dc9:	66 0f d4 c1          	paddq  %xmm1,%xmm0
  404dcd:	48 01 d1             	add    %rdx,%rcx
  404dd0:	66 48 0f 7e c0       	movq   %xmm0,%rax
  404dd5:	48 39 fa             	cmp    %rdi,%rdx
  404dd8:	74 31                	je     404e0b <_ZN11BuilderBaseIi10NodeWeightIiiEiLb1EE17ParallelPrefixSumERK7pvectorIiE._omp_fn.0+0x14b>
/home/aliha951/ipdps-artifact/gapbs-master/src/builder.h:115
        lsum += degrees[i];
  404dda:	49 63 3c 8b          	movslq (%r11,%rcx,4),%rdi
_ZNK7pvectorIiEixEm():
/home/aliha951/ipdps-artifact/gapbs-master/src/pvector.h:120
    return start_[n];
  404dde:	48 8d 14 8d 00 00 00 	lea    0x0(,%rcx,4),%rdx
  404de5:	00 
_ZN11BuilderBaseIi10NodeWeightIiiEiLb1EE17ParallelPrefixSumERK7pvectorIiE._omp_fn.0():
/home/aliha951/ipdps-artifact/gapbs-master/src/builder.h:115
  404de6:	48 01 f8             	add    %rdi,%rax
/home/aliha951/ipdps-artifact/gapbs-master/src/builder.h:114
      for (size_t i=block * block_size; i < block_end; i++)
  404de9:	48 8d 79 01          	lea    0x1(%rcx),%rdi
  404ded:	48 39 df             	cmp    %rbx,%rdi
  404df0:	73 19                	jae    404e0b <_ZN11BuilderBaseIi10NodeWeightIiiEiLb1EE17ParallelPrefixSumERK7pvectorIiE._omp_fn.0+0x14b>
/home/aliha951/ipdps-artifact/gapbs-master/src/builder.h:115
        lsum += degrees[i];
  404df2:	49 63 7c 13 04       	movslq 0x4(%r11,%rdx,1),%rdi
/home/aliha951/ipdps-artifact/gapbs-master/src/builder.h:114
      for (size_t i=block * block_size; i < block_end; i++)
  404df7:	48 83 c1 02          	add    $0x2,%rcx
/home/aliha951/ipdps-artifact/gapbs-master/src/builder.h:115
        lsum += degrees[i];
  404dfb:	48 01 f8             	add    %rdi,%rax
/home/aliha951/ipdps-artifact/gapbs-master/src/builder.h:114
      for (size_t i=block * block_size; i < block_end; i++)
  404dfe:	48 39 cb             	cmp    %rcx,%rbx
  404e01:	76 08                	jbe    404e0b <_ZN11BuilderBaseIi10NodeWeightIiiEiLb1EE17ParallelPrefixSumERK7pvectorIiE._omp_fn.0+0x14b>
/home/aliha951/ipdps-artifact/gapbs-master/src/builder.h:115
        lsum += degrees[i];
  404e03:	49 63 54 13 08       	movslq 0x8(%r11,%rdx,1),%rdx
  404e08:	48 01 d0             	add    %rdx,%rax
/home/aliha951/ipdps-artifact/gapbs-master/src/builder.h:116
      local_sums[block] = lsum;
  404e0b:	49 89 01             	mov    %rax,(%r9)
  404e0e:	49 83 c1 08          	add    $0x8,%r9
  404e12:	48 81 c6 00 00 40 00 	add    $0x400000,%rsi
  404e19:	49 39 e9             	cmp    %rbp,%r9
  404e1c:	0f 85 26 ff ff ff    	jne    404d48 <_ZN11BuilderBaseIi10NodeWeightIiiEiLb1EE17ParallelPrefixSumERK7pvectorIiE._omp_fn.0+0x88>
/home/aliha951/ipdps-artifact/gapbs-master/src/builder.h:110
    #pragma omp parallel for
  404e22:	5b                   	pop    %rbx
  404e23:	5d                   	pop    %rbp
  404e24:	41 5c                	pop    %r12
  404e26:	c3                   	retq   
  404e27:	66 0f 1f 84 00 00 00 	nopw   0x0(%rax,%rax,1)
  404e2e:	00 00 
/home/aliha951/ipdps-artifact/gapbs-master/src/builder.h:112
      SGOffset lsum = 0;
  404e30:	31 c0                	xor    %eax,%eax
  404e32:	eb d7                	jmp    404e0b <_ZN11BuilderBaseIi10NodeWeightIiiEiLb1EE17ParallelPrefixSumERK7pvectorIiE._omp_fn.0+0x14b>
  404e34:	31 c0                	xor    %eax,%eax
  404e36:	eb a2                	jmp    404dda <_ZN11BuilderBaseIi10NodeWeightIiiEiLb1EE17ParallelPrefixSumERK7pvectorIiE._omp_fn.0+0x11a>
  404e38:	48 83 c0 01          	add    $0x1,%rax
/home/aliha951/ipdps-artifact/gapbs-master/src/builder.h:110
    #pragma omp parallel for
  404e3c:	31 d2                	xor    %edx,%edx
  404e3e:	e9 b8 fe ff ff       	jmpq   404cfb <_ZN11BuilderBaseIi10NodeWeightIiiEiLb1EE17ParallelPrefixSumERK7pvectorIiE._omp_fn.0+0x3b>
  404e43:	66 66 2e 0f 1f 84 00 	data16 nopw %cs:0x0(%rax,%rax,1)
  404e4a:	00 00 00 00 
  404e4e:	66 90                	xchg   %ax,%ax

0000000000404e50 <_ZN11BuilderBaseIi10NodeWeightIiiEiLb1EE17ParallelPrefixSumERK7pvectorIiE._omp_fn.1>:
_ZN11BuilderBaseIi10NodeWeightIiiEiLb1EE17ParallelPrefixSumERK7pvectorIiE._omp_fn.1():
/home/aliha951/ipdps-artifact/gapbs-master/src/builder.h:126
      bulk_prefix[block] = total;
      total += local_sums[block];
    }
    bulk_prefix[num_blocks] = total;
    pvector<SGOffset> prefix(degrees.size() + 1);
    #pragma omp parallel for
  404e50:	f3 0f 1e fa          	endbr64 
  404e54:	41 54                	push   %r12
  404e56:	55                   	push   %rbp
  404e57:	53                   	push   %rbx
  404e58:	48 8b 5f 10          	mov    0x10(%rdi),%rbx
  404e5c:	48 85 db             	test   %rbx,%rbx
  404e5f:	0f 84 98 00 00 00    	je     404efd <_ZN11BuilderBaseIi10NodeWeightIiiEiLb1EE17ParallelPrefixSumERK7pvectorIiE._omp_fn.1+0xad>
  404e65:	48 89 fd             	mov    %rdi,%rbp
  404e68:	e8 63 eb ff ff       	callq  4039d0 <omp_get_num_threads@plt>
  404e6d:	41 89 c4             	mov    %eax,%r12d
  404e70:	e8 2b ea ff ff       	callq  4038a0 <omp_get_thread_num@plt>
  404e75:	49 63 cc             	movslq %r12d,%rcx
  404e78:	31 d2                	xor    %edx,%edx
  404e7a:	4c 63 c8             	movslq %eax,%r9
  404e7d:	48 89 d8             	mov    %rbx,%rax
  404e80:	48 f7 f1             	div    %rcx
  404e83:	49 39 d1             	cmp    %rdx,%r9
  404e86:	72 7a                	jb     404f02 <_ZN11BuilderBaseIi10NodeWeightIiiEiLb1EE17ParallelPrefixSumERK7pvectorIiE._omp_fn.1+0xb2>
  404e88:	4c 0f af c8          	imul   %rax,%r9
  404e8c:	49 01 d1             	add    %rdx,%r9
  404e8f:	4c 01 c8             	add    %r9,%rax
  404e92:	49 39 c1             	cmp    %rax,%r9
  404e95:	73 66                	jae    404efd <_ZN11BuilderBaseIi10NodeWeightIiiEiLb1EE17ParallelPrefixSumERK7pvectorIiE._omp_fn.1+0xad>
/home/aliha951/ipdps-artifact/gapbs-master/src/builder.h:129
    for (size_t block=0; block < num_blocks; block++) {
      SGOffset local_total = bulk_prefix[block];
      size_t block_end = std::min((block + 1) * block_size, degrees.size());
  404e97:	48 8b 4d 00          	mov    0x0(%rbp),%rcx
_ZN7pvectorIlEixEm():
/home/aliha951/ipdps-artifact/gapbs-master/src/pvector.h:116
    return start_[n];
  404e9b:	48 8b 55 18          	mov    0x18(%rbp),%rdx
_ZN11BuilderBaseIi10NodeWeightIiiEiLb1EE17ParallelPrefixSumERK7pvectorIiE._omp_fn.1():
/home/aliha951/ipdps-artifact/gapbs-master/src/builder.h:131
      for (size_t i=block * block_size; i < block_end; i++) {
        prefix[i] = local_total;
  404e9f:	48 8b 6d 08          	mov    0x8(%rbp),%rbp
_ZNK7pvectorIiE4sizeEv():
/home/aliha951/ipdps-artifact/gapbs-master/src/pvector.h:143
    return end_size_ - start_;
  404ea3:	4c 8b 01             	mov    (%rcx),%r8
  404ea6:	4c 8b 59 08          	mov    0x8(%rcx),%r11
_ZN7pvectorIlEixEm():
/home/aliha951/ipdps-artifact/gapbs-master/src/pvector.h:116
    return start_[n];
  404eaa:	48 8b 12             	mov    (%rdx),%rdx
_ZNK7pvectorIiE4sizeEv():
/home/aliha951/ipdps-artifact/gapbs-master/src/pvector.h:143
    return end_size_ - start_;
  404ead:	4d 29 c3             	sub    %r8,%r11
  404eb0:	4e 8d 14 ca          	lea    (%rdx,%r9,8),%r10
  404eb4:	49 c1 fb 02          	sar    $0x2,%r11
  404eb8:	49 c1 e1 14          	shl    $0x14,%r9
  404ebc:	48 8d 1c c2          	lea    (%rdx,%rax,8),%rbx
_ZN7pvectorIlEixEm():
/home/aliha951/ipdps-artifact/gapbs-master/src/pvector.h:115
  T_& operator[](size_t n) {
  404ec0:	4c 89 c8             	mov    %r9,%rax
_ZN11BuilderBaseIi10NodeWeightIiiEiLb1EE17ParallelPrefixSumERK7pvectorIiE._omp_fn.1():
/home/aliha951/ipdps-artifact/gapbs-master/src/builder.h:129
      size_t block_end = std::min((block + 1) * block_size, degrees.size());
  404ec3:	49 81 c1 00 00 10 00 	add    $0x100000,%r9
  404eca:	4c 89 de             	mov    %r11,%rsi
/home/aliha951/ipdps-artifact/gapbs-master/src/builder.h:128
      SGOffset local_total = bulk_prefix[block];
  404ecd:	49 8b 12             	mov    (%r10),%rdx
_ZNK7pvectorIiE4sizeEv():
/home/aliha951/ipdps-artifact/gapbs-master/src/pvector.h:142
  size_t size() const {
  404ed0:	4d 39 d9             	cmp    %r11,%r9
  404ed3:	49 0f 46 f1          	cmovbe %r9,%rsi
_ZN11BuilderBaseIi10NodeWeightIiiEiLb1EE17ParallelPrefixSumERK7pvectorIiE._omp_fn.1():
/home/aliha951/ipdps-artifact/gapbs-master/src/builder.h:130
      for (size_t i=block * block_size; i < block_end; i++) {
  404ed7:	48 39 c6             	cmp    %rax,%rsi
  404eda:	76 18                	jbe    404ef4 <_ZN11BuilderBaseIi10NodeWeightIiiEiLb1EE17ParallelPrefixSumERK7pvectorIiE._omp_fn.1+0xa4>
_ZN7pvectorIlEixEm():
/home/aliha951/ipdps-artifact/gapbs-master/src/pvector.h:116
    return start_[n];
  404edc:	48 8b 7d 00          	mov    0x0(%rbp),%rdi
_ZN11BuilderBaseIi10NodeWeightIiiEiLb1EE17ParallelPrefixSumERK7pvectorIiE._omp_fn.1():
/home/aliha951/ipdps-artifact/gapbs-master/src/builder.h:132 (discriminator 2)
        local_total += degrees[i];
  404ee0:	49 63 0c 80          	movslq (%r8,%rax,4),%rcx
/home/aliha951/ipdps-artifact/gapbs-master/src/builder.h:131 (discriminator 2)
        prefix[i] = local_total;
  404ee4:	48 89 14 c7          	mov    %rdx,(%rdi,%rax,8)
/home/aliha951/ipdps-artifact/gapbs-master/src/builder.h:130 (discriminator 2)
      for (size_t i=block * block_size; i < block_end; i++) {
  404ee8:	48 83 c0 01          	add    $0x1,%rax
/home/aliha951/ipdps-artifact/gapbs-master/src/builder.h:132 (discriminator 2)
        local_total += degrees[i];
  404eec:	48 01 ca             	add    %rcx,%rdx
/home/aliha951/ipdps-artifact/gapbs-master/src/builder.h:130 (discriminator 2)
      for (size_t i=block * block_size; i < block_end; i++) {
  404eef:	48 39 c6             	cmp    %rax,%rsi
  404ef2:	75 ec                	jne    404ee0 <_ZN11BuilderBaseIi10NodeWeightIiiEiLb1EE17ParallelPrefixSumERK7pvectorIiE._omp_fn.1+0x90>
  404ef4:	49 83 c2 08          	add    $0x8,%r10
  404ef8:	49 39 da             	cmp    %rbx,%r10
  404efb:	75 c3                	jne    404ec0 <_ZN11BuilderBaseIi10NodeWeightIiiEiLb1EE17ParallelPrefixSumERK7pvectorIiE._omp_fn.1+0x70>
/home/aliha951/ipdps-artifact/gapbs-master/src/builder.h:126
    #pragma omp parallel for
  404efd:	5b                   	pop    %rbx
  404efe:	5d                   	pop    %rbp
  404eff:	41 5c                	pop    %r12
  404f01:	c3                   	retq   
  404f02:	48 83 c0 01          	add    $0x1,%rax
  404f06:	31 d2                	xor    %edx,%edx
  404f08:	e9 7b ff ff ff       	jmpq   404e88 <_ZN11BuilderBaseIi10NodeWeightIiiEiLb1EE17ParallelPrefixSumERK7pvectorIiE._omp_fn.1+0x38>
  404f0d:	0f 1f 00             	nopl   (%rax)

0000000000404f10 <_ZN7pvectorIiE4fillEi._omp_fn.0>:
_ZN7pvectorIiE4fillEi._omp_fn.0():
/home/aliha951/ipdps-artifact/gapbs-master/src/pvector.h:133
    #pragma omp parallel for
  404f10:	f3 0f 1e fa          	endbr64 
  404f14:	41 55                	push   %r13
  404f16:	41 54                	push   %r12
  404f18:	55                   	push   %rbp
  404f19:	53                   	push   %rbx
  404f1a:	48 83 ec 08          	sub    $0x8,%rsp
  404f1e:	48 8b 07             	mov    (%rdi),%rax
/home/aliha951/ipdps-artifact/gapbs-master/src/pvector.h:134
    for (T_* ptr=start_; ptr < end_size_; ptr++)
  404f21:	48 8b 28             	mov    (%rax),%rbp
  404f24:	4c 8b 68 08          	mov    0x8(%rax),%r13
  404f28:	4c 39 ed             	cmp    %r13,%rbp
  404f2b:	0f 83 dd 00 00 00    	jae    40500e <_ZN7pvectorIiE4fillEi._omp_fn.0+0xfe>
  404f31:	49 89 fc             	mov    %rdi,%r12
  404f34:	e8 97 ea ff ff       	callq  4039d0 <omp_get_num_threads@plt>
  404f39:	48 63 d8             	movslq %eax,%rbx
  404f3c:	e8 5f e9 ff ff       	callq  4038a0 <omp_get_thread_num@plt>
  404f41:	48 63 c8             	movslq %eax,%rcx
  404f44:	49 8d 45 03          	lea    0x3(%r13),%rax
  404f48:	48 29 e8             	sub    %rbp,%rax
  404f4b:	48 89 c2             	mov    %rax,%rdx
  404f4e:	48 8d 40 03          	lea    0x3(%rax),%rax
  404f52:	48 0f 49 c2          	cmovns %rdx,%rax
  404f56:	48 c1 f8 02          	sar    $0x2,%rax
  404f5a:	48 99                	cqto   
  404f5c:	48 f7 fb             	idiv   %rbx
  404f5f:	48 39 d1             	cmp    %rdx,%rcx
  404f62:	0f 8c b8 00 00 00    	jl     405020 <_ZN7pvectorIiE4fillEi._omp_fn.0+0x110>
  404f68:	48 0f af c8          	imul   %rax,%rcx
  404f6c:	48 01 ca             	add    %rcx,%rdx
  404f6f:	48 01 d0             	add    %rdx,%rax
  404f72:	48 39 c2             	cmp    %rax,%rdx
  404f75:	0f 8d 93 00 00 00    	jge    40500e <_ZN7pvectorIiE4fillEi._omp_fn.0+0xfe>
  404f7b:	48 c1 e2 02          	shl    $0x2,%rdx
  404f7f:	48 c1 e0 02          	shl    $0x2,%rax
/home/aliha951/ipdps-artifact/gapbs-master/src/pvector.h:133
    #pragma omp parallel for
  404f83:	41 8b 7c 24 08       	mov    0x8(%r12),%edi
  404f88:	48 8d 74 15 00       	lea    0x0(%rbp,%rdx,1),%rsi
  404f8d:	48 01 c5             	add    %rax,%rbp
  404f90:	48 29 d0             	sub    %rdx,%rax
  404f93:	48 83 e8 01          	sub    $0x1,%rax
  404f97:	4c 8d 46 01          	lea    0x1(%rsi),%r8
  404f9b:	48 89 f1             	mov    %rsi,%rcx
  404f9e:	48 89 c2             	mov    %rax,%rdx
  404fa1:	48 c1 ea 02          	shr    $0x2,%rdx
  404fa5:	48 83 c2 01          	add    $0x1,%rdx
  404fa9:	4c 39 c5             	cmp    %r8,%rbp
  404fac:	41 b8 01 00 00 00    	mov    $0x1,%r8d
  404fb2:	49 0f 42 d0          	cmovb  %r8,%rdx
  404fb6:	72 3c                	jb     404ff4 <_ZN7pvectorIiE4fillEi._omp_fn.0+0xe4>
  404fb8:	48 83 f8 0b          	cmp    $0xb,%rax
  404fbc:	76 36                	jbe    404ff4 <_ZN7pvectorIiE4fillEi._omp_fn.0+0xe4>
  404fbe:	48 89 d0             	mov    %rdx,%rax
  404fc1:	66 0f 6e cf          	movd   %edi,%xmm1
  404fc5:	48 c1 e8 02          	shr    $0x2,%rax
  404fc9:	66 0f 70 c1 00       	pshufd $0x0,%xmm1,%xmm0
  404fce:	48 c1 e0 04          	shl    $0x4,%rax
  404fd2:	48 01 f0             	add    %rsi,%rax
  404fd5:	0f 1f 00             	nopl   (%rax)
/home/aliha951/ipdps-artifact/gapbs-master/src/pvector.h:135 (discriminator 1)
      *ptr = init_val;
  404fd8:	0f 11 01             	movups %xmm0,(%rcx)
  404fdb:	48 83 c1 10          	add    $0x10,%rcx
  404fdf:	48 39 c1             	cmp    %rax,%rcx
  404fe2:	75 f4                	jne    404fd8 <_ZN7pvectorIiE4fillEi._omp_fn.0+0xc8>
  404fe4:	48 89 d0             	mov    %rdx,%rax
  404fe7:	48 83 e0 fc          	and    $0xfffffffffffffffc,%rax
  404feb:	48 8d 34 86          	lea    (%rsi,%rax,4),%rsi
  404fef:	48 39 c2             	cmp    %rax,%rdx
  404ff2:	74 1a                	je     40500e <_ZN7pvectorIiE4fillEi._omp_fn.0+0xfe>
  404ff4:	48 8d 46 04          	lea    0x4(%rsi),%rax
/home/aliha951/ipdps-artifact/gapbs-master/src/pvector.h:135
  404ff8:	89 3e                	mov    %edi,(%rsi)
  404ffa:	48 39 c5             	cmp    %rax,%rbp
  404ffd:	76 0f                	jbe    40500e <_ZN7pvectorIiE4fillEi._omp_fn.0+0xfe>
  404fff:	48 8d 46 08          	lea    0x8(%rsi),%rax
  405003:	89 7e 04             	mov    %edi,0x4(%rsi)
  405006:	48 39 c5             	cmp    %rax,%rbp
  405009:	76 03                	jbe    40500e <_ZN7pvectorIiE4fillEi._omp_fn.0+0xfe>
  40500b:	89 7e 08             	mov    %edi,0x8(%rsi)
/home/aliha951/ipdps-artifact/gapbs-master/src/pvector.h:133
    #pragma omp parallel for
  40500e:	48 83 c4 08          	add    $0x8,%rsp
  405012:	5b                   	pop    %rbx
  405013:	5d                   	pop    %rbp
  405014:	41 5c                	pop    %r12
  405016:	41 5d                	pop    %r13
  405018:	c3                   	retq   
  405019:	0f 1f 80 00 00 00 00 	nopl   0x0(%rax)
  405020:	48 83 c0 01          	add    $0x1,%rax
/home/aliha951/ipdps-artifact/gapbs-master/src/pvector.h:134
    for (T_* ptr=start_; ptr < end_size_; ptr++)
  405024:	31 d2                	xor    %edx,%edx
  405026:	e9 3d ff ff ff       	jmpq   404f68 <_ZN7pvectorIiE4fillEi._omp_fn.0+0x58>
  40502b:	0f 1f 44 00 00       	nopl   0x0(%rax,%rax,1)

0000000000405030 <_ZN11BuilderBaseIi10NodeWeightIiiEiLb1EE7MakeCSRERK7pvectorI8EdgePairIiS1_EEbPPPS1_SA_._omp_fn.0>:
_ZN11BuilderBaseIi10NodeWeightIiiEiLb1EE7MakeCSRERK7pvectorI8EdgePairIiS1_EEbPPPS1_SA_._omp_fn.0():
/home/aliha951/ipdps-artifact/gapbs-master/src/builder.h:306
               DestID_** neighs) {
    pvector<NodeID_> degrees = CountDegrees(el, transpose);
    pvector<SGOffset> offsets = ParallelPrefixSum(degrees);
    *neighs = new DestID_[offsets[num_nodes_]];
    *index = CSRGraph<NodeID_, DestID_>::GenIndex(offsets, *neighs);
    #pragma omp parallel for
  405030:	f3 0f 1e fa          	endbr64 
  405034:	41 55                	push   %r13
  405036:	41 54                	push   %r12
  405038:	55                   	push   %rbp
  405039:	53                   	push   %rbx
  40503a:	48 83 ec 08          	sub    $0x8,%rsp
/home/aliha951/ipdps-artifact/gapbs-master/src/builder.h:307
    for (auto it = el.begin(); it < el.end(); it++) {
  40503e:	48 8b 47 08          	mov    0x8(%rdi),%rax
_ZNK7pvectorI8EdgePairIi10NodeWeightIiiEEE5beginEv():
/home/aliha951/ipdps-artifact/gapbs-master/src/pvector.h:147
    return start_;
  405042:	4c 8b 28             	mov    (%rax),%r13
_ZNK7pvectorI8EdgePairIi10NodeWeightIiiEEE3endEv():
/home/aliha951/ipdps-artifact/gapbs-master/src/pvector.h:151
    return end_size_;
  405045:	4c 8b 60 08          	mov    0x8(%rax),%r12
  405049:	4d 39 ec             	cmp    %r13,%r12
  40504c:	0f 86 ff 00 00 00    	jbe    405151 <_ZN11BuilderBaseIi10NodeWeightIiiEiLb1EE7MakeCSRERK7pvectorI8EdgePairIiS1_EEbPPPS1_SA_._omp_fn.0+0x121>
  405052:	48 89 fb             	mov    %rdi,%rbx
  405055:	e8 76 e9 ff ff       	callq  4039d0 <omp_get_num_threads@plt>
  40505a:	48 63 e8             	movslq %eax,%rbp
  40505d:	e8 3e e8 ff ff       	callq  4038a0 <omp_get_thread_num@plt>
  405062:	49 8d 4c 24 0b       	lea    0xb(%r12),%rcx
  405067:	48 ba ab aa aa aa aa 	movabs $0x2aaaaaaaaaaaaaab,%rdx
  40506e:	aa aa 2a 
  405071:	4c 29 e9             	sub    %r13,%rcx
  405074:	48 63 f0             	movslq %eax,%rsi
  405077:	48 89 c8             	mov    %rcx,%rax
  40507a:	48 c1 f9 3f          	sar    $0x3f,%rcx
  40507e:	48 f7 ea             	imul   %rdx
  405081:	48 89 d0             	mov    %rdx,%rax
  405084:	48 d1 f8             	sar    %rax
  405087:	48 29 c8             	sub    %rcx,%rax
  40508a:	48 99                	cqto   
  40508c:	48 f7 fd             	idiv   %rbp
  40508f:	48 39 d6             	cmp    %rdx,%rsi
  405092:	0f 8c c8 00 00 00    	jl     405160 <_ZN11BuilderBaseIi10NodeWeightIiiEiLb1EE7MakeCSRERK7pvectorI8EdgePairIiS1_EEbPPPS1_SA_._omp_fn.0+0x130>
  405098:	48 0f af f0          	imul   %rax,%rsi
  40509c:	48 01 f2             	add    %rsi,%rdx
  40509f:	48 01 d0             	add    %rdx,%rax
  4050a2:	48 39 c2             	cmp    %rax,%rdx
  4050a5:	0f 8d a6 00 00 00    	jge    405151 <_ZN11BuilderBaseIi10NodeWeightIiiEiLb1EE7MakeCSRERK7pvectorI8EdgePairIiS1_EEbPPPS1_SA_._omp_fn.0+0x121>
  4050ab:	48 8d 14 52          	lea    (%rdx,%rdx,2),%rdx
  4050af:	48 8d 04 40          	lea    (%rax,%rax,2),%rax
_ZN11BuilderBaseIi10NodeWeightIiiEiLb1EE7MakeCSRERK7pvectorI8EdgePairIiS1_EEbPPPS1_SA_._omp_fn.0():
/home/aliha951/ipdps-artifact/gapbs-master/src/builder.h:306
    #pragma omp parallel for
  4050b3:	4c 8b 4b 10          	mov    0x10(%rbx),%r9
  4050b7:	4c 8b 03             	mov    (%rbx),%r8
  4050ba:	44 0f b6 53 20       	movzbl 0x20(%rbx),%r10d
  4050bf:	49 8d 54 95 00       	lea    0x0(%r13,%rdx,4),%rdx
  4050c4:	49 8d 6c 85 00       	lea    0x0(%r13,%rax,4),%rbp
  4050c9:	eb 39                	jmp    405104 <_ZN11BuilderBaseIi10NodeWeightIiiEiLb1EE7MakeCSRERK7pvectorI8EdgePairIiS1_EEbPPPS1_SA_._omp_fn.0+0xd4>
  4050cb:	0f 1f 44 00 00       	nopl   0x0(%rax,%rax,1)
/home/aliha951/ipdps-artifact/gapbs-master/src/builder.h:309
      Edge e = *it;
      if (symmetrize_ || (!symmetrize_ && !transpose))
  4050d0:	45 84 d2             	test   %r10b,%r10b
  4050d3:	74 40                	je     405115 <_ZN11BuilderBaseIi10NodeWeightIiiEiLb1EE7MakeCSRERK7pvectorI8EdgePairIiS1_EEbPPPS1_SA_._omp_fn.0+0xe5>
_ZN7pvectorIlEixEm():
/home/aliha951/ipdps-artifact/gapbs-master/src/pvector.h:116
    return start_[n];
  4050d5:	48 8b 43 18          	mov    0x18(%rbx),%rax
_ZN11BuilderBaseIi10NodeWeightIiiEiLb1EE7MakeCSRERK7pvectorI8EdgePairIiS1_EEbPPPS1_SA_._omp_fn.0():
/home/aliha951/ipdps-artifact/gapbs-master/src/builder.h:312
        (*neighs)[fetch_and_add(offsets[e.u], 1)] = e.v;
      if (symmetrize_ || (!symmetrize_ && transpose))
        (*neighs)[fetch_and_add(offsets[static_cast<NodeID_>(e.v)], 1)] =
  4050d9:	4d 8b 19             	mov    (%r9),%r11
  4050dc:	48 63 ce             	movslq %esi,%rcx
_Z13fetch_and_addIliET_RS0_T0_():
/home/aliha951/ipdps-artifact/gapbs-master/src/platform_atomics.h:26
  4050df:	be 01 00 00 00       	mov    $0x1,%esi
  4050e4:	48 8b 00             	mov    (%rax),%rax
  4050e7:	f0 48 0f c1 34 c8    	lock xadd %rsi,(%rax,%rcx,8)
_ZN11BuilderBaseIi10NodeWeightIiiEiLb1EE7MakeCSRERK7pvectorI8EdgePairIiS1_EEbPPPS1_SA_._omp_fn.0():
/home/aliha951/ipdps-artifact/gapbs-master/src/builder.h:313
            GetSource(e);
  4050ed:	66 0f 6e cf          	movd   %edi,%xmm1
  4050f1:	48 83 c2 0c          	add    $0xc,%rdx
  4050f5:	66 0f 62 c8          	punpckldq %xmm0,%xmm1
  4050f9:	66 41 0f d6 0c f3    	movq   %xmm1,(%r11,%rsi,8)
  4050ff:	48 39 d5             	cmp    %rdx,%rbp
  405102:	76 4d                	jbe    405151 <_ZN11BuilderBaseIi10NodeWeightIiiEiLb1EE7MakeCSRERK7pvectorI8EdgePairIiS1_EEbPPPS1_SA_._omp_fn.0+0x121>
/home/aliha951/ipdps-artifact/gapbs-master/src/builder.h:309
      if (symmetrize_ || (!symmetrize_ && !transpose))
  405104:	41 80 78 08 01       	cmpb   $0x1,0x8(%r8)
/home/aliha951/ipdps-artifact/gapbs-master/src/builder.h:308
      Edge e = *it;
  405109:	8b 3a                	mov    (%rdx),%edi
  40510b:	8b 72 04             	mov    0x4(%rdx),%esi
  40510e:	66 0f 6e 42 08       	movd   0x8(%rdx),%xmm0
/home/aliha951/ipdps-artifact/gapbs-master/src/builder.h:309
      if (symmetrize_ || (!symmetrize_ && !transpose))
  405113:	75 bb                	jne    4050d0 <_ZN11BuilderBaseIi10NodeWeightIiiEiLb1EE7MakeCSRERK7pvectorI8EdgePairIiS1_EEbPPPS1_SA_._omp_fn.0+0xa0>
_ZN7pvectorIlEixEm():
/home/aliha951/ipdps-artifact/gapbs-master/src/pvector.h:116
  405115:	48 8b 4b 18          	mov    0x18(%rbx),%rcx
_ZN11BuilderBaseIi10NodeWeightIiiEiLb1EE7MakeCSRERK7pvectorI8EdgePairIiS1_EEbPPPS1_SA_._omp_fn.0():
/home/aliha951/ipdps-artifact/gapbs-master/src/builder.h:310
        (*neighs)[fetch_and_add(offsets[e.u], 1)] = e.v;
  405119:	4d 8b 19             	mov    (%r9),%r11
  40511c:	48 63 c7             	movslq %edi,%rax
_Z13fetch_and_addIliET_RS0_T0_():
/home/aliha951/ipdps-artifact/gapbs-master/src/platform_atomics.h:26
  40511f:	41 bc 01 00 00 00    	mov    $0x1,%r12d
  405125:	48 8b 09             	mov    (%rcx),%rcx
  405128:	f0 4c 0f c1 24 c1    	lock xadd %r12,(%rcx,%rax,8)
_ZN11BuilderBaseIi10NodeWeightIiiEiLb1EE7MakeCSRERK7pvectorI8EdgePairIiS1_EEbPPPS1_SA_._omp_fn.0():
/home/aliha951/ipdps-artifact/gapbs-master/src/builder.h:310
  40512e:	66 0f 6e ce          	movd   %esi,%xmm1
  405132:	66 0f 62 c8          	punpckldq %xmm0,%xmm1
  405136:	66 43 0f d6 0c e3    	movq   %xmm1,(%r11,%r12,8)
/home/aliha951/ipdps-artifact/gapbs-master/src/builder.h:311
      if (symmetrize_ || (!symmetrize_ && transpose))
  40513c:	41 80 78 08 00       	cmpb   $0x0,0x8(%r8)
  405141:	75 92                	jne    4050d5 <_ZN11BuilderBaseIi10NodeWeightIiiEiLb1EE7MakeCSRERK7pvectorI8EdgePairIiS1_EEbPPPS1_SA_._omp_fn.0+0xa5>
  405143:	45 84 d2             	test   %r10b,%r10b
  405146:	75 8d                	jne    4050d5 <_ZN11BuilderBaseIi10NodeWeightIiiEiLb1EE7MakeCSRERK7pvectorI8EdgePairIiS1_EEbPPPS1_SA_._omp_fn.0+0xa5>
  405148:	48 83 c2 0c          	add    $0xc,%rdx
  40514c:	48 39 d5             	cmp    %rdx,%rbp
  40514f:	77 b3                	ja     405104 <_ZN11BuilderBaseIi10NodeWeightIiiEiLb1EE7MakeCSRERK7pvectorI8EdgePairIiS1_EEbPPPS1_SA_._omp_fn.0+0xd4>
/home/aliha951/ipdps-artifact/gapbs-master/src/builder.h:306
    #pragma omp parallel for
  405151:	48 83 c4 08          	add    $0x8,%rsp
  405155:	5b                   	pop    %rbx
  405156:	5d                   	pop    %rbp
  405157:	41 5c                	pop    %r12
  405159:	41 5d                	pop    %r13
  40515b:	c3                   	retq   
  40515c:	0f 1f 40 00          	nopl   0x0(%rax)
  405160:	48 83 c0 01          	add    $0x1,%rax
_ZNK7pvectorI8EdgePairIi10NodeWeightIiiEEE3endEv():
/home/aliha951/ipdps-artifact/gapbs-master/src/pvector.h:151
    return end_size_;
  405164:	31 d2                	xor    %edx,%edx
  405166:	e9 2d ff ff ff       	jmpq   405098 <_ZN11BuilderBaseIi10NodeWeightIiiEiLb1EE7MakeCSRERK7pvectorI8EdgePairIiS1_EEbPPPS1_SA_._omp_fn.0+0x68>
_ZN11BuilderBaseIi10NodeWeightIiiEiLb1EE7MakeCSRERK7pvectorI8EdgePairIiS1_EEbPPPS1_SA_._omp_fn.0():
/home/aliha951/ipdps-artifact/gapbs-master/src/pvector.h:151
  40516b:	0f 1f 44 00 00       	nopl   0x0(%rax,%rax,1)

0000000000405170 <_ZN8CSRGraphIiiLb1EE8GenIndexERK7pvectorIlEPi._omp_fn.0>:
_ZN8CSRGraphIiiLb1EE8GenIndexERK7pvectorIlEPi._omp_fn.0():
/home/aliha951/ipdps-artifact/gapbs-master/src/graph.h:245
  405170:	f3 0f 1e fa          	endbr64 
  405174:	55                   	push   %rbp
  405175:	53                   	push   %rbx
  405176:	48 89 fb             	mov    %rdi,%rbx
  405179:	48 83 ec 08          	sub    $0x8,%rsp
  40517d:	e8 4e e8 ff ff       	callq  4039d0 <omp_get_num_threads@plt>
  405182:	89 c5                	mov    %eax,%ebp
  405184:	e8 17 e7 ff ff       	callq  4038a0 <omp_get_thread_num@plt>
  405189:	89 c1                	mov    %eax,%ecx
  40518b:	8b 43 18             	mov    0x18(%rbx),%eax
  40518e:	99                   	cltd   
  40518f:	f7 fd                	idiv   %ebp
  405191:	39 d1                	cmp    %edx,%ecx
  405193:	7c 43                	jl     4051d8 <_ZN8CSRGraphIiiLb1EE8GenIndexERK7pvectorIlEPi._omp_fn.0+0x68>
  405195:	0f af c8             	imul   %eax,%ecx
  405198:	01 ca                	add    %ecx,%edx
  40519a:	01 d0                	add    %edx,%eax
  40519c:	39 c2                	cmp    %eax,%edx
  40519e:	7d 2c                	jge    4051cc <_ZN8CSRGraphIiiLb1EE8GenIndexERK7pvectorIlEPi._omp_fn.0+0x5c>
_ZNK7pvectorIlEixEm():
/home/aliha951/ipdps-artifact/gapbs-master/src/pvector.h:120
    return start_[n];
  4051a0:	48 8b 0b             	mov    (%rbx),%rcx
_ZN8CSRGraphIiiLb1EE8GenIndexERK7pvectorIlEPi._omp_fn.0():
/home/aliha951/ipdps-artifact/gapbs-master/src/graph.h:245
  4051a3:	4c 8b 43 10          	mov    0x10(%rbx),%r8
  4051a7:	48 63 d2             	movslq %edx,%rdx
  4051aa:	48 8b 7b 08          	mov    0x8(%rbx),%rdi
_ZNK7pvectorIlEixEm():
/home/aliha951/ipdps-artifact/gapbs-master/src/pvector.h:120
  4051ae:	48 8b 31             	mov    (%rcx),%rsi
  4051b1:	0f 1f 80 00 00 00 00 	nopl   0x0(%rax)
_ZN8CSRGraphIiiLb1EE8GenIndexERK7pvectorIlEPi._omp_fn.0():
/home/aliha951/ipdps-artifact/gapbs-master/src/graph.h:247 (discriminator 1)
      index[n] = neighs + offsets[n];
  4051b8:	48 8b 0c d6          	mov    (%rsi,%rdx,8),%rcx
  4051bc:	48 8d 0c 8f          	lea    (%rdi,%rcx,4),%rcx
  4051c0:	49 89 0c d0          	mov    %rcx,(%r8,%rdx,8)
  4051c4:	48 83 c2 01          	add    $0x1,%rdx
  4051c8:	39 d0                	cmp    %edx,%eax
  4051ca:	7f ec                	jg     4051b8 <_ZN8CSRGraphIiiLb1EE8GenIndexERK7pvectorIlEPi._omp_fn.0+0x48>
/home/aliha951/ipdps-artifact/gapbs-master/src/graph.h:245
    #pragma omp parallel for
  4051cc:	48 83 c4 08          	add    $0x8,%rsp
  4051d0:	5b                   	pop    %rbx
  4051d1:	5d                   	pop    %rbp
  4051d2:	c3                   	retq   
  4051d3:	0f 1f 44 00 00       	nopl   0x0(%rax,%rax,1)
  4051d8:	83 c0 01             	add    $0x1,%eax
  4051db:	31 d2                	xor    %edx,%edx
  4051dd:	eb b6                	jmp    405195 <_ZN8CSRGraphIiiLb1EE8GenIndexERK7pvectorIlEPi._omp_fn.0+0x25>
  4051df:	90                   	nop

00000000004051e0 <_ZN7pvectorI8EdgePairIiiEE7reserveEm._omp_fn.0>:
_ZN7pvectorI8EdgePairIiiEE7reserveEm._omp_fn.0():
/home/aliha951/ipdps-artifact/gapbs-master/src/pvector.h:86
      #pragma omp parallel for
  4051e0:	f3 0f 1e fa          	endbr64 
  4051e4:	41 55                	push   %r13
  4051e6:	41 54                	push   %r12
  4051e8:	55                   	push   %rbp
  4051e9:	53                   	push   %rbx
  4051ea:	48 83 ec 08          	sub    $0x8,%rsp
  4051ee:	48 8b 07             	mov    (%rdi),%rax
_ZNK7pvectorI8EdgePairIiiEE4sizeEv():
/home/aliha951/ipdps-artifact/gapbs-master/src/pvector.h:143
    return end_size_ - start_;
  4051f1:	4c 8b 20             	mov    (%rax),%r12
  4051f4:	48 8b 40 08          	mov    0x8(%rax),%rax
  4051f8:	4c 29 e0             	sub    %r12,%rax
  4051fb:	48 c1 f8 03          	sar    $0x3,%rax
  4051ff:	74 50                	je     405251 <_ZN7pvectorI8EdgePairIiiEE7reserveEm._omp_fn.0+0x71>
  405201:	49 89 fd             	mov    %rdi,%r13
  405204:	48 89 c3             	mov    %rax,%rbx
  405207:	e8 c4 e7 ff ff       	callq  4039d0 <omp_get_num_threads@plt>
  40520c:	89 c5                	mov    %eax,%ebp
  40520e:	e8 8d e6 ff ff       	callq  4038a0 <omp_get_thread_num@plt>
  405213:	48 63 f5             	movslq %ebp,%rsi
  405216:	31 d2                	xor    %edx,%edx
  405218:	48 63 c8             	movslq %eax,%rcx
  40521b:	48 89 d8             	mov    %rbx,%rax
  40521e:	48 f7 f6             	div    %rsi
  405221:	48 39 d1             	cmp    %rdx,%rcx
  405224:	72 3a                	jb     405260 <_ZN7pvectorI8EdgePairIiiEE7reserveEm._omp_fn.0+0x80>
  405226:	48 0f af c8          	imul   %rax,%rcx
  40522a:	48 01 ca             	add    %rcx,%rdx
  40522d:	48 01 d0             	add    %rdx,%rax
  405230:	48 39 c2             	cmp    %rax,%rdx
  405233:	73 1c                	jae    405251 <_ZN7pvectorI8EdgePairIiiEE7reserveEm._omp_fn.0+0x71>
_ZN7pvectorI8EdgePairIiiEE7reserveEm._omp_fn.0():
/home/aliha951/ipdps-artifact/gapbs-master/src/pvector.h:86
      #pragma omp parallel for
  405235:	49 8b 75 08          	mov    0x8(%r13),%rsi
  405239:	0f 1f 80 00 00 00 00 	nopl   0x0(%rax)
/home/aliha951/ipdps-artifact/gapbs-master/src/pvector.h:88 (discriminator 1)
        new_range[i] = start_[i];
  405240:	49 8b 0c d4          	mov    (%r12,%rdx,8),%rcx
  405244:	48 89 0c d6          	mov    %rcx,(%rsi,%rdx,8)
  405248:	48 83 c2 01          	add    $0x1,%rdx
  40524c:	48 39 d0             	cmp    %rdx,%rax
  40524f:	75 ef                	jne    405240 <_ZN7pvectorI8EdgePairIiiEE7reserveEm._omp_fn.0+0x60>
/home/aliha951/ipdps-artifact/gapbs-master/src/pvector.h:86
      #pragma omp parallel for
  405251:	48 83 c4 08          	add    $0x8,%rsp
  405255:	5b                   	pop    %rbx
  405256:	5d                   	pop    %rbp
  405257:	41 5c                	pop    %r12
  405259:	41 5d                	pop    %r13
  40525b:	c3                   	retq   
  40525c:	0f 1f 40 00          	nopl   0x0(%rax)
  405260:	48 83 c0 01          	add    $0x1,%rax
_ZNK7pvectorI8EdgePairIiiEE4sizeEv():
/home/aliha951/ipdps-artifact/gapbs-master/src/pvector.h:143
    return end_size_ - start_;
  405264:	31 d2                	xor    %edx,%edx
  405266:	eb be                	jmp    405226 <_ZN7pvectorI8EdgePairIiiEE7reserveEm._omp_fn.0+0x46>
_ZN7pvectorI8EdgePairIiiEE7reserveEm._omp_fn.0():
/home/aliha951/ipdps-artifact/gapbs-master/src/pvector.h:143
  405268:	0f 1f 84 00 00 00 00 	nopl   0x0(%rax,%rax,1)
  40526f:	00 

0000000000405270 <_ZN11BuilderBaseIiiiLb1EE12CountDegreesERK7pvectorI8EdgePairIiiEEb._omp_fn.0>:
_ZN11BuilderBaseIiiiLb1EE12CountDegreesERK7pvectorI8EdgePairIiiEEb._omp_fn.0():
/home/aliha951/ipdps-artifact/gapbs-master/src/builder.h:82
    #pragma omp parallel for
  405270:	f3 0f 1e fa          	endbr64 
  405274:	41 55                	push   %r13
  405276:	41 54                	push   %r12
  405278:	55                   	push   %rbp
  405279:	53                   	push   %rbx
  40527a:	48 83 ec 08          	sub    $0x8,%rsp
/home/aliha951/ipdps-artifact/gapbs-master/src/builder.h:83
    for (auto it = el.begin(); it < el.end(); it++) {
  40527e:	48 8b 47 08          	mov    0x8(%rdi),%rax
_ZNK7pvectorI8EdgePairIiiEE5beginEv():
/home/aliha951/ipdps-artifact/gapbs-master/src/pvector.h:147
    return start_;
  405282:	4c 8b 20             	mov    (%rax),%r12
_ZNK7pvectorI8EdgePairIiiEE3endEv():
/home/aliha951/ipdps-artifact/gapbs-master/src/pvector.h:151
    return end_size_;
  405285:	4c 8b 68 08          	mov    0x8(%rax),%r13
  405289:	4d 39 e5             	cmp    %r12,%r13
  40528c:	0f 86 8a 00 00 00    	jbe    40531c <_ZN11BuilderBaseIiiiLb1EE12CountDegreesERK7pvectorI8EdgePairIiiEEb._omp_fn.0+0xac>
  405292:	48 89 fb             	mov    %rdi,%rbx
  405295:	e8 36 e7 ff ff       	callq  4039d0 <omp_get_num_threads@plt>
  40529a:	48 63 e8             	movslq %eax,%rbp
  40529d:	e8 fe e5 ff ff       	callq  4038a0 <omp_get_thread_num@plt>
  4052a2:	48 63 c8             	movslq %eax,%rcx
  4052a5:	49 8d 45 07          	lea    0x7(%r13),%rax
  4052a9:	4c 29 e0             	sub    %r12,%rax
  4052ac:	48 89 c2             	mov    %rax,%rdx
  4052af:	48 8d 40 07          	lea    0x7(%rax),%rax
  4052b3:	48 0f 49 c2          	cmovns %rdx,%rax
  4052b7:	48 c1 f8 03          	sar    $0x3,%rax
  4052bb:	48 99                	cqto   
  4052bd:	48 f7 fd             	idiv   %rbp
  4052c0:	48 39 d1             	cmp    %rdx,%rcx
  4052c3:	7c 6b                	jl     405330 <_ZN11BuilderBaseIiiiLb1EE12CountDegreesERK7pvectorI8EdgePairIiiEEb._omp_fn.0+0xc0>
  4052c5:	48 0f af c8          	imul   %rax,%rcx
  4052c9:	48 01 ca             	add    %rcx,%rdx
  4052cc:	48 01 d0             	add    %rdx,%rax
  4052cf:	48 39 c2             	cmp    %rax,%rdx
  4052d2:	7d 48                	jge    40531c <_ZN11BuilderBaseIiiiLb1EE12CountDegreesERK7pvectorI8EdgePairIiiEEb._omp_fn.0+0xac>
  4052d4:	80 7b 18 00          	cmpb   $0x0,0x18(%rbx)
_ZN11BuilderBaseIiiiLb1EE12CountDegreesERK7pvectorI8EdgePairIiiEEb._omp_fn.0():
/home/aliha951/ipdps-artifact/gapbs-master/src/builder.h:82
    #pragma omp parallel for
  4052d8:	48 8b 3b             	mov    (%rbx),%rdi
  4052db:	49 8d 14 d4          	lea    (%r12,%rdx,8),%rdx
  4052df:	4d 8d 04 c4          	lea    (%r12,%rax,8),%r8
  4052e3:	75 53                	jne    405338 <_ZN11BuilderBaseIiiiLb1EE12CountDegreesERK7pvectorI8EdgePairIiiEEb._omp_fn.0+0xc8>
  4052e5:	0f 1f 00             	nopl   (%rax)
_ZN7pvectorIiEixEm():
/home/aliha951/ipdps-artifact/gapbs-master/src/pvector.h:116
    return start_[n];
  4052e8:	48 8b 4b 10          	mov    0x10(%rbx),%rcx
_ZN11BuilderBaseIiiiLb1EE12CountDegreesERK7pvectorI8EdgePairIiiEEb._omp_fn.0():
/home/aliha951/ipdps-artifact/gapbs-master/src/builder.h:84
      Edge e = *it;
  4052ec:	48 63 42 04          	movslq 0x4(%rdx),%rax
/home/aliha951/ipdps-artifact/gapbs-master/src/builder.h:86
        fetch_and_add(degrees[e.u], 1);
  4052f0:	48 63 32             	movslq (%rdx),%rsi
_Z13fetch_and_addIiiET_RS0_T0_():
/home/aliha951/ipdps-artifact/gapbs-master/src/platform_atomics.h:26
  4052f3:	48 8b 09             	mov    (%rcx),%rcx
  4052f6:	f0 83 04 b1 01       	lock addl $0x1,(%rcx,%rsi,4)
_ZN11BuilderBaseIiiiLb1EE12CountDegreesERK7pvectorI8EdgePairIiiEEb._omp_fn.0():
/home/aliha951/ipdps-artifact/gapbs-master/src/builder.h:87
      if ((symmetrize_ && !in_place_) || (!symmetrize_ && transpose))
  4052fb:	80 7f 08 00          	cmpb   $0x0,0x8(%rdi)
  4052ff:	74 12                	je     405313 <_ZN11BuilderBaseIiiiLb1EE12CountDegreesERK7pvectorI8EdgePairIiiEEb._omp_fn.0+0xa3>
  405301:	80 7f 0a 00          	cmpb   $0x0,0xa(%rdi)
  405305:	75 0c                	jne    405313 <_ZN11BuilderBaseIiiiLb1EE12CountDegreesERK7pvectorI8EdgePairIiiEEb._omp_fn.0+0xa3>
_ZN7pvectorIiEixEm():
/home/aliha951/ipdps-artifact/gapbs-master/src/pvector.h:116
  405307:	48 8b 4b 10          	mov    0x10(%rbx),%rcx
_Z13fetch_and_addIiiET_RS0_T0_():
/home/aliha951/ipdps-artifact/gapbs-master/src/platform_atomics.h:26
  40530b:	48 8b 09             	mov    (%rcx),%rcx
  40530e:	f0 83 04 81 01       	lock addl $0x1,(%rcx,%rax,4)
  405313:	48 83 c2 08          	add    $0x8,%rdx
  405317:	49 39 d0             	cmp    %rdx,%r8
  40531a:	77 cc                	ja     4052e8 <_ZN11BuilderBaseIiiiLb1EE12CountDegreesERK7pvectorI8EdgePairIiiEEb._omp_fn.0+0x78>
_ZN11BuilderBaseIiiiLb1EE12CountDegreesERK7pvectorI8EdgePairIiiEEb._omp_fn.0():
/home/aliha951/ipdps-artifact/gapbs-master/src/builder.h:82
    #pragma omp parallel for
  40531c:	48 83 c4 08          	add    $0x8,%rsp
  405320:	5b                   	pop    %rbx
  405321:	5d                   	pop    %rbp
  405322:	41 5c                	pop    %r12
  405324:	41 5d                	pop    %r13
  405326:	c3                   	retq   
  405327:	66 0f 1f 84 00 00 00 	nopw   0x0(%rax,%rax,1)
  40532e:	00 00 
  405330:	48 83 c0 01          	add    $0x1,%rax
_ZNK7pvectorI8EdgePairIiiEE3endEv():
/home/aliha951/ipdps-artifact/gapbs-master/src/pvector.h:151
    return end_size_;
  405334:	31 d2                	xor    %edx,%edx
  405336:	eb 8d                	jmp    4052c5 <_ZN11BuilderBaseIiiiLb1EE12CountDegreesERK7pvectorI8EdgePairIiiEEb._omp_fn.0+0x55>
_ZN11BuilderBaseIiiiLb1EE12CountDegreesERK7pvectorI8EdgePairIiiEEb._omp_fn.0():
/home/aliha951/ipdps-artifact/gapbs-master/src/builder.h:85
      if (symmetrize_ || (!symmetrize_ && !transpose))
  405338:	80 7f 08 00          	cmpb   $0x0,0x8(%rdi)
/home/aliha951/ipdps-artifact/gapbs-master/src/builder.h:84
      Edge e = *it;
  40533c:	48 63 42 04          	movslq 0x4(%rdx),%rax
/home/aliha951/ipdps-artifact/gapbs-master/src/builder.h:85
      if (symmetrize_ || (!symmetrize_ && !transpose))
  405340:	74 1b                	je     40535d <_ZN11BuilderBaseIiiiLb1EE12CountDegreesERK7pvectorI8EdgePairIiiEEb._omp_fn.0+0xed>
_ZN7pvectorIiEixEm():
/home/aliha951/ipdps-artifact/gapbs-master/src/pvector.h:116
    return start_[n];
  405342:	48 8b 4b 10          	mov    0x10(%rbx),%rcx
_ZN11BuilderBaseIiiiLb1EE12CountDegreesERK7pvectorI8EdgePairIiiEEb._omp_fn.0():
/home/aliha951/ipdps-artifact/gapbs-master/src/builder.h:86
        fetch_and_add(degrees[e.u], 1);
  405346:	48 63 32             	movslq (%rdx),%rsi
_Z13fetch_and_addIiiET_RS0_T0_():
/home/aliha951/ipdps-artifact/gapbs-master/src/platform_atomics.h:26
  405349:	48 8b 09             	mov    (%rcx),%rcx
  40534c:	f0 83 04 b1 01       	lock addl $0x1,(%rcx,%rsi,4)
_ZN11BuilderBaseIiiiLb1EE12CountDegreesERK7pvectorI8EdgePairIiiEEb._omp_fn.0():
/home/aliha951/ipdps-artifact/gapbs-master/src/builder.h:87
      if ((symmetrize_ && !in_place_) || (!symmetrize_ && transpose))
  405351:	80 7f 08 00          	cmpb   $0x0,0x8(%rdi)
  405355:	74 06                	je     40535d <_ZN11BuilderBaseIiiiLb1EE12CountDegreesERK7pvectorI8EdgePairIiiEEb._omp_fn.0+0xed>
/home/aliha951/ipdps-artifact/gapbs-master/src/builder.h:87 (discriminator 1)
  405357:	80 7f 0a 00          	cmpb   $0x0,0xa(%rdi)
  40535b:	75 0c                	jne    405369 <_ZN11BuilderBaseIiiiLb1EE12CountDegreesERK7pvectorI8EdgePairIiiEEb._omp_fn.0+0xf9>
_ZN7pvectorIiEixEm():
/home/aliha951/ipdps-artifact/gapbs-master/src/pvector.h:116
  40535d:	48 8b 4b 10          	mov    0x10(%rbx),%rcx
_Z13fetch_and_addIiiET_RS0_T0_():
/home/aliha951/ipdps-artifact/gapbs-master/src/platform_atomics.h:26
  405361:	48 8b 09             	mov    (%rcx),%rcx
  405364:	f0 83 04 81 01       	lock addl $0x1,(%rcx,%rax,4)
  405369:	48 83 c2 08          	add    $0x8,%rdx
  40536d:	49 39 d0             	cmp    %rdx,%r8
  405370:	77 c6                	ja     405338 <_ZN11BuilderBaseIiiiLb1EE12CountDegreesERK7pvectorI8EdgePairIiiEEb._omp_fn.0+0xc8>
  405372:	eb a8                	jmp    40531c <_ZN11BuilderBaseIiiiLb1EE12CountDegreesERK7pvectorI8EdgePairIiiEEb._omp_fn.0+0xac>
_ZN11BuilderBaseIiiiLb1EE12CountDegreesERK7pvectorI8EdgePairIiiEEb._omp_fn.0():
/home/aliha951/ipdps-artifact/gapbs-master/src/platform_atomics.h:26
  405374:	66 66 2e 0f 1f 84 00 	data16 nopw %cs:0x0(%rax,%rax,1)
  40537b:	00 00 00 00 
  40537f:	90                   	nop

0000000000405380 <_ZN11BuilderBaseIiiiLb1EE17ParallelPrefixSumERK7pvectorIiE._omp_fn.0>:
_ZN11BuilderBaseIiiiLb1EE17ParallelPrefixSumERK7pvectorIiE._omp_fn.0():
/home/aliha951/ipdps-artifact/gapbs-master/src/builder.h:110
    #pragma omp parallel for
  405380:	f3 0f 1e fa          	endbr64 
  405384:	41 54                	push   %r12
  405386:	55                   	push   %rbp
  405387:	53                   	push   %rbx
  405388:	48 8b 5f 08          	mov    0x8(%rdi),%rbx
  40538c:	48 85 db             	test   %rbx,%rbx
  40538f:	0f 84 4d 01 00 00    	je     4054e2 <_ZN11BuilderBaseIiiiLb1EE17ParallelPrefixSumERK7pvectorIiE._omp_fn.0+0x162>
  405395:	49 89 fc             	mov    %rdi,%r12
  405398:	e8 33 e6 ff ff       	callq  4039d0 <omp_get_num_threads@plt>
  40539d:	89 c5                	mov    %eax,%ebp
  40539f:	e8 fc e4 ff ff       	callq  4038a0 <omp_get_thread_num@plt>
  4053a4:	48 63 cd             	movslq %ebp,%rcx
  4053a7:	31 d2                	xor    %edx,%edx
  4053a9:	48 63 f0             	movslq %eax,%rsi
  4053ac:	48 89 d8             	mov    %rbx,%rax
  4053af:	48 f7 f1             	div    %rcx
  4053b2:	48 39 d6             	cmp    %rdx,%rsi
  4053b5:	0f 82 3d 01 00 00    	jb     4054f8 <_ZN11BuilderBaseIiiiLb1EE17ParallelPrefixSumERK7pvectorIiE._omp_fn.0+0x178>
  4053bb:	48 0f af f0          	imul   %rax,%rsi
  4053bf:	48 01 d6             	add    %rdx,%rsi
  4053c2:	48 01 f0             	add    %rsi,%rax
  4053c5:	48 39 c6             	cmp    %rax,%rsi
  4053c8:	0f 83 14 01 00 00    	jae    4054e2 <_ZN11BuilderBaseIiiiLb1EE17ParallelPrefixSumERK7pvectorIiE._omp_fn.0+0x162>
/home/aliha951/ipdps-artifact/gapbs-master/src/builder.h:113
      size_t block_end = std::min((block + 1) * block_size, degrees.size());
  4053ce:	49 8b 14 24          	mov    (%r12),%rdx
  4053d2:	49 89 f0             	mov    %rsi,%r8
/home/aliha951/ipdps-artifact/gapbs-master/src/builder.h:115
        lsum += degrees[i];
  4053d5:	66 0f ef e4          	pxor   %xmm4,%xmm4
  4053d9:	49 c1 e0 14          	shl    $0x14,%r8
_ZNK7pvectorIiE4sizeEv():
/home/aliha951/ipdps-artifact/gapbs-master/src/pvector.h:143
    return end_size_ - start_;
  4053dd:	4c 8b 1a             	mov    (%rdx),%r11
  4053e0:	4c 8b 52 08          	mov    0x8(%rdx),%r10
_ZN7pvectorIlEixEm():
/home/aliha951/ipdps-artifact/gapbs-master/src/pvector.h:116
    return start_[n];
  4053e4:	49 8b 54 24 10       	mov    0x10(%r12),%rdx
_ZNK7pvectorIiE4sizeEv():
/home/aliha951/ipdps-artifact/gapbs-master/src/pvector.h:143
    return end_size_ - start_;
  4053e9:	4d 29 da             	sub    %r11,%r10
_ZN7pvectorIlEixEm():
/home/aliha951/ipdps-artifact/gapbs-master/src/pvector.h:116
    return start_[n];
  4053ec:	48 8b 12             	mov    (%rdx),%rdx
_ZNK7pvectorIiE4sizeEv():
/home/aliha951/ipdps-artifact/gapbs-master/src/pvector.h:143
    return end_size_ - start_;
  4053ef:	49 c1 fa 02          	sar    $0x2,%r10
  4053f3:	4c 8d 0c f2          	lea    (%rdx,%rsi,8),%r9
  4053f7:	48 c1 e6 16          	shl    $0x16,%rsi
  4053fb:	48 8d 2c c2          	lea    (%rdx,%rax,8),%rbp
  4053ff:	4c 01 de             	add    %r11,%rsi
  405402:	66 0f 1f 44 00 00    	nopw   0x0(%rax,%rax,1)
/home/aliha951/ipdps-artifact/gapbs-master/src/pvector.h:142
  size_t size() const {
  405408:	4c 89 c1             	mov    %r8,%rcx
_ZN11BuilderBaseIiiiLb1EE17ParallelPrefixSumERK7pvectorIiE._omp_fn.0():
/home/aliha951/ipdps-artifact/gapbs-master/src/builder.h:113
      size_t block_end = std::min((block + 1) * block_size, degrees.size());
  40540b:	49 81 c0 00 00 10 00 	add    $0x100000,%r8
  405412:	4c 89 d3             	mov    %r10,%rbx
  405415:	4d 39 d0             	cmp    %r10,%r8
  405418:	49 0f 46 d8          	cmovbe %r8,%rbx
/home/aliha951/ipdps-artifact/gapbs-master/src/builder.h:114
      for (size_t i=block * block_size; i < block_end; i++)
  40541c:	48 39 cb             	cmp    %rcx,%rbx
  40541f:	0f 86 cb 00 00 00    	jbe    4054f0 <_ZN11BuilderBaseIiiiLb1EE17ParallelPrefixSumERK7pvectorIiE._omp_fn.0+0x170>
  405425:	48 89 df             	mov    %rbx,%rdi
  405428:	48 29 cf             	sub    %rcx,%rdi
  40542b:	48 8d 47 ff          	lea    -0x1(%rdi),%rax
  40542f:	48 83 f8 02          	cmp    $0x2,%rax
  405433:	0f 86 bb 00 00 00    	jbe    4054f4 <_ZN11BuilderBaseIiiiLb1EE17ParallelPrefixSumERK7pvectorIiE._omp_fn.0+0x174>
  405439:	48 89 fa             	mov    %rdi,%rdx
  40543c:	48 89 f0             	mov    %rsi,%rax
  40543f:	66 0f ef c9          	pxor   %xmm1,%xmm1
  405443:	48 c1 ea 02          	shr    $0x2,%rdx
  405447:	48 c1 e2 04          	shl    $0x4,%rdx
  40544b:	48 01 f2             	add    %rsi,%rdx
  40544e:	66 90                	xchg   %ax,%ax
/home/aliha951/ipdps-artifact/gapbs-master/src/builder.h:115 (discriminator 2)
        lsum += degrees[i];
  405450:	f3 0f 6f 00          	movdqu (%rax),%xmm0
  405454:	66 0f 6f d4          	movdqa %xmm4,%xmm2
  405458:	48 83 c0 10          	add    $0x10,%rax
  40545c:	66 0f 66 d0          	pcmpgtd %xmm0,%xmm2
  405460:	66 0f 6f d8          	movdqa %xmm0,%xmm3
  405464:	66 0f 62 da          	punpckldq %xmm2,%xmm3
  405468:	66 0f 6a c2          	punpckhdq %xmm2,%xmm0
  40546c:	66 0f d4 cb          	paddq  %xmm3,%xmm1
  405470:	66 0f d4 c8          	paddq  %xmm0,%xmm1
/home/aliha951/ipdps-artifact/gapbs-master/src/builder.h:114 (discriminator 2)
      for (size_t i=block * block_size; i < block_end; i++)
  405474:	48 39 d0             	cmp    %rdx,%rax
  405477:	75 d7                	jne    405450 <_ZN11BuilderBaseIiiiLb1EE17ParallelPrefixSumERK7pvectorIiE._omp_fn.0+0xd0>
  405479:	66 0f 6f c1          	movdqa %xmm1,%xmm0
  40547d:	48 89 fa             	mov    %rdi,%rdx
  405480:	66 0f 73 d8 08       	psrldq $0x8,%xmm0
  405485:	48 83 e2 fc          	and    $0xfffffffffffffffc,%rdx
  405489:	66 0f d4 c1          	paddq  %xmm1,%xmm0
  40548d:	48 01 d1             	add    %rdx,%rcx
  405490:	66 48 0f 7e c0       	movq   %xmm0,%rax
  405495:	48 39 fa             	cmp    %rdi,%rdx
  405498:	74 31                	je     4054cb <_ZN11BuilderBaseIiiiLb1EE17ParallelPrefixSumERK7pvectorIiE._omp_fn.0+0x14b>
/home/aliha951/ipdps-artifact/gapbs-master/src/builder.h:115
        lsum += degrees[i];
  40549a:	49 63 3c 8b          	movslq (%r11,%rcx,4),%rdi
_ZNK7pvectorIiEixEm():
/home/aliha951/ipdps-artifact/gapbs-master/src/pvector.h:120
    return start_[n];
  40549e:	48 8d 14 8d 00 00 00 	lea    0x0(,%rcx,4),%rdx
  4054a5:	00 
_ZN11BuilderBaseIiiiLb1EE17ParallelPrefixSumERK7pvectorIiE._omp_fn.0():
/home/aliha951/ipdps-artifact/gapbs-master/src/builder.h:115
  4054a6:	48 01 f8             	add    %rdi,%rax
/home/aliha951/ipdps-artifact/gapbs-master/src/builder.h:114
      for (size_t i=block * block_size; i < block_end; i++)
  4054a9:	48 8d 79 01          	lea    0x1(%rcx),%rdi
  4054ad:	48 39 df             	cmp    %rbx,%rdi
  4054b0:	73 19                	jae    4054cb <_ZN11BuilderBaseIiiiLb1EE17ParallelPrefixSumERK7pvectorIiE._omp_fn.0+0x14b>
/home/aliha951/ipdps-artifact/gapbs-master/src/builder.h:115
        lsum += degrees[i];
  4054b2:	49 63 7c 13 04       	movslq 0x4(%r11,%rdx,1),%rdi
/home/aliha951/ipdps-artifact/gapbs-master/src/builder.h:114
      for (size_t i=block * block_size; i < block_end; i++)
  4054b7:	48 83 c1 02          	add    $0x2,%rcx
/home/aliha951/ipdps-artifact/gapbs-master/src/builder.h:115
        lsum += degrees[i];
  4054bb:	48 01 f8             	add    %rdi,%rax
/home/aliha951/ipdps-artifact/gapbs-master/src/builder.h:114
      for (size_t i=block * block_size; i < block_end; i++)
  4054be:	48 39 cb             	cmp    %rcx,%rbx
  4054c1:	76 08                	jbe    4054cb <_ZN11BuilderBaseIiiiLb1EE17ParallelPrefixSumERK7pvectorIiE._omp_fn.0+0x14b>
/home/aliha951/ipdps-artifact/gapbs-master/src/builder.h:115
        lsum += degrees[i];
  4054c3:	49 63 54 13 08       	movslq 0x8(%r11,%rdx,1),%rdx
  4054c8:	48 01 d0             	add    %rdx,%rax
/home/aliha951/ipdps-artifact/gapbs-master/src/builder.h:116
      local_sums[block] = lsum;
  4054cb:	49 89 01             	mov    %rax,(%r9)
  4054ce:	49 83 c1 08          	add    $0x8,%r9
  4054d2:	48 81 c6 00 00 40 00 	add    $0x400000,%rsi
  4054d9:	49 39 e9             	cmp    %rbp,%r9
  4054dc:	0f 85 26 ff ff ff    	jne    405408 <_ZN11BuilderBaseIiiiLb1EE17ParallelPrefixSumERK7pvectorIiE._omp_fn.0+0x88>
/home/aliha951/ipdps-artifact/gapbs-master/src/builder.h:110
    #pragma omp parallel for
  4054e2:	5b                   	pop    %rbx
  4054e3:	5d                   	pop    %rbp
  4054e4:	41 5c                	pop    %r12
  4054e6:	c3                   	retq   
  4054e7:	66 0f 1f 84 00 00 00 	nopw   0x0(%rax,%rax,1)
  4054ee:	00 00 
/home/aliha951/ipdps-artifact/gapbs-master/src/builder.h:112
      SGOffset lsum = 0;
  4054f0:	31 c0                	xor    %eax,%eax
  4054f2:	eb d7                	jmp    4054cb <_ZN11BuilderBaseIiiiLb1EE17ParallelPrefixSumERK7pvectorIiE._omp_fn.0+0x14b>
  4054f4:	31 c0                	xor    %eax,%eax
  4054f6:	eb a2                	jmp    40549a <_ZN11BuilderBaseIiiiLb1EE17ParallelPrefixSumERK7pvectorIiE._omp_fn.0+0x11a>
  4054f8:	48 83 c0 01          	add    $0x1,%rax
/home/aliha951/ipdps-artifact/gapbs-master/src/builder.h:110
    #pragma omp parallel for
  4054fc:	31 d2                	xor    %edx,%edx
  4054fe:	e9 b8 fe ff ff       	jmpq   4053bb <_ZN11BuilderBaseIiiiLb1EE17ParallelPrefixSumERK7pvectorIiE._omp_fn.0+0x3b>
  405503:	66 66 2e 0f 1f 84 00 	data16 nopw %cs:0x0(%rax,%rax,1)
  40550a:	00 00 00 00 
  40550e:	66 90                	xchg   %ax,%ax

0000000000405510 <_ZN11BuilderBaseIiiiLb1EE17ParallelPrefixSumERK7pvectorIiE._omp_fn.1>:
_ZN11BuilderBaseIiiiLb1EE17ParallelPrefixSumERK7pvectorIiE._omp_fn.1():
/home/aliha951/ipdps-artifact/gapbs-master/src/builder.h:126
    #pragma omp parallel for
  405510:	f3 0f 1e fa          	endbr64 
  405514:	41 54                	push   %r12
  405516:	55                   	push   %rbp
  405517:	53                   	push   %rbx
  405518:	48 8b 5f 10          	mov    0x10(%rdi),%rbx
  40551c:	48 85 db             	test   %rbx,%rbx
  40551f:	0f 84 98 00 00 00    	je     4055bd <_ZN11BuilderBaseIiiiLb1EE17ParallelPrefixSumERK7pvectorIiE._omp_fn.1+0xad>
  405525:	48 89 fd             	mov    %rdi,%rbp
  405528:	e8 a3 e4 ff ff       	callq  4039d0 <omp_get_num_threads@plt>
  40552d:	41 89 c4             	mov    %eax,%r12d
  405530:	e8 6b e3 ff ff       	callq  4038a0 <omp_get_thread_num@plt>
  405535:	49 63 cc             	movslq %r12d,%rcx
  405538:	31 d2                	xor    %edx,%edx
  40553a:	4c 63 c8             	movslq %eax,%r9
  40553d:	48 89 d8             	mov    %rbx,%rax
  405540:	48 f7 f1             	div    %rcx
  405543:	49 39 d1             	cmp    %rdx,%r9
  405546:	72 7a                	jb     4055c2 <_ZN11BuilderBaseIiiiLb1EE17ParallelPrefixSumERK7pvectorIiE._omp_fn.1+0xb2>
  405548:	4c 0f af c8          	imul   %rax,%r9
  40554c:	49 01 d1             	add    %rdx,%r9
  40554f:	4c 01 c8             	add    %r9,%rax
  405552:	49 39 c1             	cmp    %rax,%r9
  405555:	73 66                	jae    4055bd <_ZN11BuilderBaseIiiiLb1EE17ParallelPrefixSumERK7pvectorIiE._omp_fn.1+0xad>
/home/aliha951/ipdps-artifact/gapbs-master/src/builder.h:129
      size_t block_end = std::min((block + 1) * block_size, degrees.size());
  405557:	48 8b 4d 00          	mov    0x0(%rbp),%rcx
_ZN7pvectorIlEixEm():
/home/aliha951/ipdps-artifact/gapbs-master/src/pvector.h:116
    return start_[n];
  40555b:	48 8b 55 18          	mov    0x18(%rbp),%rdx
_ZN11BuilderBaseIiiiLb1EE17ParallelPrefixSumERK7pvectorIiE._omp_fn.1():
/home/aliha951/ipdps-artifact/gapbs-master/src/builder.h:131
        prefix[i] = local_total;
  40555f:	48 8b 6d 08          	mov    0x8(%rbp),%rbp
_ZNK7pvectorIiE4sizeEv():
/home/aliha951/ipdps-artifact/gapbs-master/src/pvector.h:143
    return end_size_ - start_;
  405563:	4c 8b 01             	mov    (%rcx),%r8
  405566:	4c 8b 59 08          	mov    0x8(%rcx),%r11
_ZN7pvectorIlEixEm():
/home/aliha951/ipdps-artifact/gapbs-master/src/pvector.h:116
    return start_[n];
  40556a:	48 8b 12             	mov    (%rdx),%rdx
_ZNK7pvectorIiE4sizeEv():
/home/aliha951/ipdps-artifact/gapbs-master/src/pvector.h:143
    return end_size_ - start_;
  40556d:	4d 29 c3             	sub    %r8,%r11
  405570:	4e 8d 14 ca          	lea    (%rdx,%r9,8),%r10
  405574:	49 c1 fb 02          	sar    $0x2,%r11
  405578:	49 c1 e1 14          	shl    $0x14,%r9
  40557c:	48 8d 1c c2          	lea    (%rdx,%rax,8),%rbx
_ZN7pvectorIlEixEm():
/home/aliha951/ipdps-artifact/gapbs-master/src/pvector.h:115
  T_& operator[](size_t n) {
  405580:	4c 89 c8             	mov    %r9,%rax
_ZN11BuilderBaseIiiiLb1EE17ParallelPrefixSumERK7pvectorIiE._omp_fn.1():
/home/aliha951/ipdps-artifact/gapbs-master/src/builder.h:129
      size_t block_end = std::min((block + 1) * block_size, degrees.size());
  405583:	49 81 c1 00 00 10 00 	add    $0x100000,%r9
  40558a:	4c 89 de             	mov    %r11,%rsi
/home/aliha951/ipdps-artifact/gapbs-master/src/builder.h:128
      SGOffset local_total = bulk_prefix[block];
  40558d:	49 8b 12             	mov    (%r10),%rdx
_ZNK7pvectorIiE4sizeEv():
/home/aliha951/ipdps-artifact/gapbs-master/src/pvector.h:142
  size_t size() const {
  405590:	4d 39 d9             	cmp    %r11,%r9
  405593:	49 0f 46 f1          	cmovbe %r9,%rsi
_ZN11BuilderBaseIiiiLb1EE17ParallelPrefixSumERK7pvectorIiE._omp_fn.1():
/home/aliha951/ipdps-artifact/gapbs-master/src/builder.h:130
      for (size_t i=block * block_size; i < block_end; i++) {
  405597:	48 39 c6             	cmp    %rax,%rsi
  40559a:	76 18                	jbe    4055b4 <_ZN11BuilderBaseIiiiLb1EE17ParallelPrefixSumERK7pvectorIiE._omp_fn.1+0xa4>
_ZN7pvectorIlEixEm():
/home/aliha951/ipdps-artifact/gapbs-master/src/pvector.h:116
    return start_[n];
  40559c:	48 8b 7d 00          	mov    0x0(%rbp),%rdi
_ZN11BuilderBaseIiiiLb1EE17ParallelPrefixSumERK7pvectorIiE._omp_fn.1():
/home/aliha951/ipdps-artifact/gapbs-master/src/builder.h:132 (discriminator 2)
        local_total += degrees[i];
  4055a0:	49 63 0c 80          	movslq (%r8,%rax,4),%rcx
/home/aliha951/ipdps-artifact/gapbs-master/src/builder.h:131 (discriminator 2)
        prefix[i] = local_total;
  4055a4:	48 89 14 c7          	mov    %rdx,(%rdi,%rax,8)
/home/aliha951/ipdps-artifact/gapbs-master/src/builder.h:130 (discriminator 2)
      for (size_t i=block * block_size; i < block_end; i++) {
  4055a8:	48 83 c0 01          	add    $0x1,%rax
/home/aliha951/ipdps-artifact/gapbs-master/src/builder.h:132 (discriminator 2)
        local_total += degrees[i];
  4055ac:	48 01 ca             	add    %rcx,%rdx
/home/aliha951/ipdps-artifact/gapbs-master/src/builder.h:130 (discriminator 2)
      for (size_t i=block * block_size; i < block_end; i++) {
  4055af:	48 39 c6             	cmp    %rax,%rsi
  4055b2:	75 ec                	jne    4055a0 <_ZN11BuilderBaseIiiiLb1EE17ParallelPrefixSumERK7pvectorIiE._omp_fn.1+0x90>
  4055b4:	49 83 c2 08          	add    $0x8,%r10
  4055b8:	49 39 da             	cmp    %rbx,%r10
  4055bb:	75 c3                	jne    405580 <_ZN11BuilderBaseIiiiLb1EE17ParallelPrefixSumERK7pvectorIiE._omp_fn.1+0x70>
/home/aliha951/ipdps-artifact/gapbs-master/src/builder.h:126
    #pragma omp parallel for
  4055bd:	5b                   	pop    %rbx
  4055be:	5d                   	pop    %rbp
  4055bf:	41 5c                	pop    %r12
  4055c1:	c3                   	retq   
  4055c2:	48 83 c0 01          	add    $0x1,%rax
  4055c6:	31 d2                	xor    %edx,%edx
  4055c8:	e9 7b ff ff ff       	jmpq   405548 <_ZN11BuilderBaseIiiiLb1EE17ParallelPrefixSumERK7pvectorIiE._omp_fn.1+0x38>
  4055cd:	0f 1f 00             	nopl   (%rax)

00000000004055d0 <_ZN11BuilderBaseIiiiLb1EE7MakeCSRERK7pvectorI8EdgePairIiiEEbPPPiS8_._omp_fn.0>:
_ZN11BuilderBaseIiiiLb1EE7MakeCSRERK7pvectorI8EdgePairIiiEEbPPPiS8_._omp_fn.0():
/home/aliha951/ipdps-artifact/gapbs-master/src/builder.h:306
    #pragma omp parallel for
  4055d0:	f3 0f 1e fa          	endbr64 
  4055d4:	41 55                	push   %r13
  4055d6:	41 54                	push   %r12
  4055d8:	55                   	push   %rbp
  4055d9:	53                   	push   %rbx
  4055da:	48 83 ec 08          	sub    $0x8,%rsp
/home/aliha951/ipdps-artifact/gapbs-master/src/builder.h:307
    for (auto it = el.begin(); it < el.end(); it++) {
  4055de:	48 8b 47 08          	mov    0x8(%rdi),%rax
_ZNK7pvectorI8EdgePairIiiEE5beginEv():
/home/aliha951/ipdps-artifact/gapbs-master/src/pvector.h:147
    return start_;
  4055e2:	4c 8b 20             	mov    (%rax),%r12
_ZNK7pvectorI8EdgePairIiiEE3endEv():
/home/aliha951/ipdps-artifact/gapbs-master/src/pvector.h:151
    return end_size_;
  4055e5:	4c 8b 68 08          	mov    0x8(%rax),%r13
  4055e9:	4d 39 e5             	cmp    %r12,%r13
  4055ec:	0f 86 c5 00 00 00    	jbe    4056b7 <_ZN11BuilderBaseIiiiLb1EE7MakeCSRERK7pvectorI8EdgePairIiiEEbPPPiS8_._omp_fn.0+0xe7>
  4055f2:	48 89 fb             	mov    %rdi,%rbx
  4055f5:	e8 d6 e3 ff ff       	callq  4039d0 <omp_get_num_threads@plt>
  4055fa:	48 63 e8             	movslq %eax,%rbp
  4055fd:	e8 9e e2 ff ff       	callq  4038a0 <omp_get_thread_num@plt>
  405602:	48 63 c8             	movslq %eax,%rcx
  405605:	49 8d 45 07          	lea    0x7(%r13),%rax
  405609:	4c 29 e0             	sub    %r12,%rax
  40560c:	48 89 c2             	mov    %rax,%rdx
  40560f:	48 8d 40 07          	lea    0x7(%rax),%rax
  405613:	48 0f 49 c2          	cmovns %rdx,%rax
  405617:	48 c1 f8 03          	sar    $0x3,%rax
  40561b:	48 99                	cqto   
  40561d:	48 f7 fd             	idiv   %rbp
  405620:	48 39 d1             	cmp    %rdx,%rcx
  405623:	0f 8c 9f 00 00 00    	jl     4056c8 <_ZN11BuilderBaseIiiiLb1EE7MakeCSRERK7pvectorI8EdgePairIiiEEbPPPiS8_._omp_fn.0+0xf8>
  405629:	48 0f af c8          	imul   %rax,%rcx
  40562d:	48 01 ca             	add    %rcx,%rdx
  405630:	48 01 d0             	add    %rdx,%rax
  405633:	48 39 c2             	cmp    %rax,%rdx
  405636:	7d 7f                	jge    4056b7 <_ZN11BuilderBaseIiiiLb1EE7MakeCSRERK7pvectorI8EdgePairIiiEEbPPPiS8_._omp_fn.0+0xe7>
  405638:	49 8d 14 d4          	lea    (%r12,%rdx,8),%rdx
_ZN11BuilderBaseIiiiLb1EE7MakeCSRERK7pvectorI8EdgePairIiiEEbPPPiS8_._omp_fn.0():
/home/aliha951/ipdps-artifact/gapbs-master/src/builder.h:306
    #pragma omp parallel for
  40563c:	4c 8b 4b 10          	mov    0x10(%rbx),%r9
  405640:	44 0f b6 53 20       	movzbl 0x20(%rbx),%r10d
  405645:	4d 8d 24 c4          	lea    (%r12,%rax,8),%r12
  405649:	4c 8b 03             	mov    (%rbx),%r8
  40564c:	eb 2c                	jmp    40567a <_ZN11BuilderBaseIiiiLb1EE7MakeCSRERK7pvectorI8EdgePairIiiEEbPPPiS8_._omp_fn.0+0xaa>
  40564e:	66 90                	xchg   %ax,%ax
/home/aliha951/ipdps-artifact/gapbs-master/src/builder.h:309
      if (symmetrize_ || (!symmetrize_ && !transpose))
  405650:	45 84 d2             	test   %r10b,%r10b
  405653:	74 31                	je     405686 <_ZN11BuilderBaseIiiiLb1EE7MakeCSRERK7pvectorI8EdgePairIiiEEbPPPiS8_._omp_fn.0+0xb6>
_ZN7pvectorIlEixEm():
/home/aliha951/ipdps-artifact/gapbs-master/src/pvector.h:116
    return start_[n];
  405655:	48 8b 43 18          	mov    0x18(%rbx),%rax
_ZN11BuilderBaseIiiiLb1EE7MakeCSRERK7pvectorI8EdgePairIiiEEbPPPiS8_._omp_fn.0():
/home/aliha951/ipdps-artifact/gapbs-master/src/builder.h:312
        (*neighs)[fetch_and_add(offsets[static_cast<NodeID_>(e.v)], 1)] =
  405659:	4d 8b 19             	mov    (%r9),%r11
  40565c:	48 63 ce             	movslq %esi,%rcx
_Z13fetch_and_addIliET_RS0_T0_():
/home/aliha951/ipdps-artifact/gapbs-master/src/platform_atomics.h:26
  40565f:	be 01 00 00 00       	mov    $0x1,%esi
  405664:	48 8b 00             	mov    (%rax),%rax
  405667:	f0 48 0f c1 34 c8    	lock xadd %rsi,(%rax,%rcx,8)
  40566d:	48 83 c2 08          	add    $0x8,%rdx
_ZN11BuilderBaseIiiiLb1EE7MakeCSRERK7pvectorI8EdgePairIiiEEbPPPiS8_._omp_fn.0():
/home/aliha951/ipdps-artifact/gapbs-master/src/builder.h:312
  405671:	41 89 3c b3          	mov    %edi,(%r11,%rsi,4)
  405675:	49 39 d4             	cmp    %rdx,%r12
  405678:	76 3d                	jbe    4056b7 <_ZN11BuilderBaseIiiiLb1EE7MakeCSRERK7pvectorI8EdgePairIiiEEbPPPiS8_._omp_fn.0+0xe7>
/home/aliha951/ipdps-artifact/gapbs-master/src/builder.h:309
      if (symmetrize_ || (!symmetrize_ && !transpose))
  40567a:	41 80 78 08 01       	cmpb   $0x1,0x8(%r8)
/home/aliha951/ipdps-artifact/gapbs-master/src/builder.h:308
      Edge e = *it;
  40567f:	8b 3a                	mov    (%rdx),%edi
  405681:	8b 72 04             	mov    0x4(%rdx),%esi
/home/aliha951/ipdps-artifact/gapbs-master/src/builder.h:309
      if (symmetrize_ || (!symmetrize_ && !transpose))
  405684:	75 ca                	jne    405650 <_ZN11BuilderBaseIiiiLb1EE7MakeCSRERK7pvectorI8EdgePairIiiEEbPPPiS8_._omp_fn.0+0x80>
_ZN7pvectorIlEixEm():
/home/aliha951/ipdps-artifact/gapbs-master/src/pvector.h:116
  405686:	48 8b 4b 18          	mov    0x18(%rbx),%rcx
_ZN11BuilderBaseIiiiLb1EE7MakeCSRERK7pvectorI8EdgePairIiiEEbPPPiS8_._omp_fn.0():
/home/aliha951/ipdps-artifact/gapbs-master/src/builder.h:310
        (*neighs)[fetch_and_add(offsets[e.u], 1)] = e.v;
  40568a:	4d 8b 19             	mov    (%r9),%r11
  40568d:	48 63 c7             	movslq %edi,%rax
_Z13fetch_and_addIliET_RS0_T0_():
/home/aliha951/ipdps-artifact/gapbs-master/src/platform_atomics.h:26
  405690:	bd 01 00 00 00       	mov    $0x1,%ebp
  405695:	48 8b 09             	mov    (%rcx),%rcx
  405698:	f0 48 0f c1 2c c1    	lock xadd %rbp,(%rcx,%rax,8)
_ZN11BuilderBaseIiiiLb1EE7MakeCSRERK7pvectorI8EdgePairIiiEEbPPPiS8_._omp_fn.0():
/home/aliha951/ipdps-artifact/gapbs-master/src/builder.h:311
      if (symmetrize_ || (!symmetrize_ && transpose))
  40569e:	41 80 78 08 00       	cmpb   $0x0,0x8(%r8)
/home/aliha951/ipdps-artifact/gapbs-master/src/builder.h:310
        (*neighs)[fetch_and_add(offsets[e.u], 1)] = e.v;
  4056a3:	41 89 34 ab          	mov    %esi,(%r11,%rbp,4)
/home/aliha951/ipdps-artifact/gapbs-master/src/builder.h:311
      if (symmetrize_ || (!symmetrize_ && transpose))
  4056a7:	75 ac                	jne    405655 <_ZN11BuilderBaseIiiiLb1EE7MakeCSRERK7pvectorI8EdgePairIiiEEbPPPiS8_._omp_fn.0+0x85>
  4056a9:	45 84 d2             	test   %r10b,%r10b
  4056ac:	75 a7                	jne    405655 <_ZN11BuilderBaseIiiiLb1EE7MakeCSRERK7pvectorI8EdgePairIiiEEbPPPiS8_._omp_fn.0+0x85>
  4056ae:	48 83 c2 08          	add    $0x8,%rdx
  4056b2:	49 39 d4             	cmp    %rdx,%r12
  4056b5:	77 c3                	ja     40567a <_ZN11BuilderBaseIiiiLb1EE7MakeCSRERK7pvectorI8EdgePairIiiEEbPPPiS8_._omp_fn.0+0xaa>
/home/aliha951/ipdps-artifact/gapbs-master/src/builder.h:306
    #pragma omp parallel for
  4056b7:	48 83 c4 08          	add    $0x8,%rsp
  4056bb:	5b                   	pop    %rbx
  4056bc:	5d                   	pop    %rbp
  4056bd:	41 5c                	pop    %r12
  4056bf:	41 5d                	pop    %r13
  4056c1:	c3                   	retq   
  4056c2:	66 0f 1f 44 00 00    	nopw   0x0(%rax,%rax,1)
  4056c8:	48 83 c0 01          	add    $0x1,%rax
_ZNK7pvectorI8EdgePairIiiEE3endEv():
/home/aliha951/ipdps-artifact/gapbs-master/src/pvector.h:151
    return end_size_;
  4056cc:	31 d2                	xor    %edx,%edx
  4056ce:	e9 56 ff ff ff       	jmpq   405629 <_ZN11BuilderBaseIiiiLb1EE7MakeCSRERK7pvectorI8EdgePairIiiEEbPPPiS8_._omp_fn.0+0x59>
_ZN11BuilderBaseIiiiLb1EE7MakeCSRERK7pvectorI8EdgePairIiiEEbPPPiS8_._omp_fn.0():
/home/aliha951/ipdps-artifact/gapbs-master/src/pvector.h:151
  4056d3:	66 66 2e 0f 1f 84 00 	data16 nopw %cs:0x0(%rax,%rax,1)
  4056da:	00 00 00 00 
  4056de:	66 90                	xchg   %ax,%ax

00000000004056e0 <_ZL12open_counterjmiii.part.0>:
_ZL12open_counterjmiii.part.0():
/home/aliha951/ipdps-artifact/gapbs-master/src/profiling_utils.h:120
                            pid_t pid, int cpu,
                            int group_fd, unsigned long flags) {
  return syscall(__NR_perf_event_open, hw_event, pid, cpu, group_fd, flags);
}

static int open_counter(uint32_t type, uint64_t config,
  4056e0:	50                   	push   %rax
  4056e1:	58                   	pop    %rax
/home/aliha951/ipdps-artifact/gapbs-master/src/profiling_utils.h:138
  pe.exclude_idle = 1; // don't count when idle
  

  int fd = perf_event_open(&pe, 0, -1, group_fd, 0);
  if (fd == -1) {
    perror("perf_event_open");
  4056e2:	48 8d 3d 1b 49 01 00 	lea    0x1491b(%rip),%rdi        # 41a004 <_IO_stdin_used+0x4>
/home/aliha951/ipdps-artifact/gapbs-master/src/profiling_utils.h:120
static int open_counter(uint32_t type, uint64_t config,
  4056e9:	48 83 ec 08          	sub    $0x8,%rsp
/home/aliha951/ipdps-artifact/gapbs-master/src/profiling_utils.h:138
    perror("perf_event_open");
  4056ed:	e8 be e0 ff ff       	callq  4037b0 <perror@plt>
/home/aliha951/ipdps-artifact/gapbs-master/src/profiling_utils.h:139
    exit(1);
  4056f2:	bf 01 00 00 00       	mov    $0x1,%edi
  4056f7:	e8 e4 e1 ff ff       	callq  4038e0 <exit@plt>
  4056fc:	0f 1f 40 00          	nopl   0x0(%rax)

0000000000405700 <_ZSt13__adjust_heapIPiliN9__gnu_cxx5__ops15_Iter_less_iterEEvT_T0_S5_T1_T2_.isra.0>:
_ZSt13__adjust_heapIPiliN9__gnu_cxx5__ops15_Iter_less_iterEEvT_T0_S5_T1_T2_():
/usr/include/c++/10/bits/stl_heap.h:228
    __adjust_heap(_RandomAccessIterator __first, _Distance __holeIndex,
		  _Distance __len, _Tp __value, _Compare __comp)
    {
      const _Distance __topIndex = __holeIndex;
      _Distance __secondChild = __holeIndex;
      while (__secondChild < (__len - 1) / 2)
  405700:	48 8d 42 ff          	lea    -0x1(%rdx),%rax
/usr/include/c++/10/bits/stl_heap.h:223
    __adjust_heap(_RandomAccessIterator __first, _Distance __holeIndex,
  405704:	55                   	push   %rbp
/usr/include/c++/10/bits/stl_heap.h:237
		     __first + (__secondChild - 1)))
	    __secondChild--;
	  *(__first + __holeIndex) = _GLIBCXX_MOVE(*(__first + __secondChild));
	  __holeIndex = __secondChild;
	}
      if ((__len & 1) == 0 && __secondChild == (__len - 2) / 2)
  405705:	48 89 d5             	mov    %rdx,%rbp
/usr/include/c++/10/bits/stl_heap.h:223
    __adjust_heap(_RandomAccessIterator __first, _Distance __holeIndex,
  405708:	49 89 f0             	mov    %rsi,%r8
/usr/include/c++/10/bits/stl_heap.h:228
      while (__secondChild < (__len - 1) / 2)
  40570b:	49 89 c3             	mov    %rax,%r11
/usr/include/c++/10/bits/stl_heap.h:223
    __adjust_heap(_RandomAccessIterator __first, _Distance __holeIndex,
  40570e:	53                   	push   %rbx
  40570f:	41 89 c9             	mov    %ecx,%r9d
  405712:	48 89 d3             	mov    %rdx,%rbx
/usr/include/c++/10/bits/stl_heap.h:228
      while (__secondChild < (__len - 1) / 2)
  405715:	49 c1 eb 3f          	shr    $0x3f,%r11
/usr/include/c++/10/bits/stl_heap.h:237
      if ((__len & 1) == 0 && __secondChild == (__len - 2) / 2)
  405719:	83 e5 01             	and    $0x1,%ebp
/usr/include/c++/10/bits/stl_heap.h:228
      while (__secondChild < (__len - 1) / 2)
  40571c:	49 01 c3             	add    %rax,%r11
  40571f:	49 d1 fb             	sar    %r11
  405722:	4c 39 de             	cmp    %r11,%rsi
  405725:	7c 1e                	jl     405745 <_ZSt13__adjust_heapIPiliN9__gnu_cxx5__ops15_Iter_less_iterEEvT_T0_S5_T1_T2_.isra.0+0x45>
  405727:	e9 94 00 00 00       	jmpq   4057c0 <_ZSt13__adjust_heapIPiliN9__gnu_cxx5__ops15_Iter_less_iterEEvT_T0_S5_T1_T2_.isra.0+0xc0>
  40572c:	0f 1f 40 00          	nopl   0x0(%rax)
/usr/include/c++/10/bits/stl_heap.h:233
	    __secondChild--;
  405730:	48 83 e8 01          	sub    $0x1,%rax
/usr/include/c++/10/bits/stl_heap.h:234
	  *(__first + __holeIndex) = _GLIBCXX_MOVE(*(__first + __secondChild));
  405734:	48 8d 0c 87          	lea    (%rdi,%rax,4),%rcx
  405738:	8b 11                	mov    (%rcx),%edx
  40573a:	89 14 b7             	mov    %edx,(%rdi,%rsi,4)
/usr/include/c++/10/bits/stl_heap.h:228
      while (__secondChild < (__len - 1) / 2)
  40573d:	4c 39 d8             	cmp    %r11,%rax
  405740:	7d 26                	jge    405768 <_ZSt13__adjust_heapIPiliN9__gnu_cxx5__ops15_Iter_less_iterEEvT_T0_S5_T1_T2_.isra.0+0x68>
/usr/include/c++/10/bits/stl_heap.h:223
    __adjust_heap(_RandomAccessIterator __first, _Distance __holeIndex,
  405742:	48 89 c6             	mov    %rax,%rsi
/usr/include/c++/10/bits/stl_heap.h:230
	  __secondChild = 2 * (__secondChild + 1);
  405745:	48 8d 56 01          	lea    0x1(%rsi),%rdx
  405749:	48 8d 04 12          	lea    (%rdx,%rdx,1),%rax
/usr/include/c++/10/bits/stl_heap.h:232
		     __first + (__secondChild - 1)))
  40574d:	48 c1 e2 03          	shl    $0x3,%rdx
/usr/include/c++/10/bits/stl_heap.h:231
	  if (__comp(__first + __secondChild,
  405751:	48 8d 0c 17          	lea    (%rdi,%rdx,1),%rcx
_ZNK9__gnu_cxx5__ops15_Iter_less_iterclIPiS3_EEbT_T0_():
/usr/include/c++/10/bits/predefined_ops.h:43
  {
    template<typename _Iterator1, typename _Iterator2>
      _GLIBCXX14_CONSTEXPR
      bool
      operator()(_Iterator1 __it1, _Iterator2 __it2) const
      { return *__it1 < *__it2; }
  405755:	44 8b 11             	mov    (%rcx),%r10d
_ZSt13__adjust_heapIPiliN9__gnu_cxx5__ops15_Iter_less_iterEEvT_T0_S5_T1_T2_():
/usr/include/c++/10/bits/stl_heap.h:231
  405758:	44 3b 54 17 fc       	cmp    -0x4(%rdi,%rdx,1),%r10d
  40575d:	7c d1                	jl     405730 <_ZSt13__adjust_heapIPiliN9__gnu_cxx5__ops15_Iter_less_iterEEvT_T0_S5_T1_T2_.isra.0+0x30>
/usr/include/c++/10/bits/stl_heap.h:234
	  *(__first + __holeIndex) = _GLIBCXX_MOVE(*(__first + __secondChild));
  40575f:	44 89 14 b7          	mov    %r10d,(%rdi,%rsi,4)
/usr/include/c++/10/bits/stl_heap.h:228
      while (__secondChild < (__len - 1) / 2)
  405763:	4c 39 d8             	cmp    %r11,%rax
  405766:	7c da                	jl     405742 <_ZSt13__adjust_heapIPiliN9__gnu_cxx5__ops15_Iter_less_iterEEvT_T0_S5_T1_T2_.isra.0+0x42>
/usr/include/c++/10/bits/stl_heap.h:237
      if ((__len & 1) == 0 && __secondChild == (__len - 2) / 2)
  405768:	48 85 ed             	test   %rbp,%rbp
  40576b:	74 63                	je     4057d0 <_ZSt13__adjust_heapIPiliN9__gnu_cxx5__ops15_Iter_less_iterEEvT_T0_S5_T1_T2_.isra.0+0xd0>
_ZSt11__push_heapIPiliN9__gnu_cxx5__ops14_Iter_less_valEEvT_T0_S5_T1_RT2_():
/usr/include/c++/10/bits/stl_heap.h:138
      _Distance __parent = (__holeIndex - 1) / 2;
  40576d:	48 8d 50 ff          	lea    -0x1(%rax),%rdx
  405771:	48 89 d6             	mov    %rdx,%rsi
  405774:	48 c1 ee 3f          	shr    $0x3f,%rsi
  405778:	48 01 d6             	add    %rdx,%rsi
  40577b:	48 d1 fe             	sar    %rsi
/usr/include/c++/10/bits/stl_heap.h:139
      while (__holeIndex > __topIndex && __comp(__first + __parent, __value))
  40577e:	4c 39 c0             	cmp    %r8,%rax
  405781:	7f 26                	jg     4057a9 <_ZSt13__adjust_heapIPiliN9__gnu_cxx5__ops15_Iter_less_iterEEvT_T0_S5_T1_T2_.isra.0+0xa9>
  405783:	eb 34                	jmp    4057b9 <_ZSt13__adjust_heapIPiliN9__gnu_cxx5__ops15_Iter_less_iterEEvT_T0_S5_T1_T2_.isra.0+0xb9>
  405785:	0f 1f 00             	nopl   (%rax)
/usr/include/c++/10/bits/stl_heap.h:141
	  *(__first + __holeIndex) = _GLIBCXX_MOVE(*(__first + __parent));
  405788:	89 11                	mov    %edx,(%rcx)
/usr/include/c++/10/bits/stl_heap.h:143
	  __parent = (__holeIndex - 1) / 2;
  40578a:	48 8d 56 ff          	lea    -0x1(%rsi),%rdx
  40578e:	48 89 d0             	mov    %rdx,%rax
  405791:	48 c1 e8 3f          	shr    $0x3f,%rax
  405795:	48 01 d0             	add    %rdx,%rax
  405798:	48 d1 f8             	sar    %rax
  40579b:	48 89 c2             	mov    %rax,%rdx
/usr/include/c++/10/bits/stl_heap.h:139
      while (__holeIndex > __topIndex && __comp(__first + __parent, __value))
  40579e:	48 89 f0             	mov    %rsi,%rax
  4057a1:	49 39 f0             	cmp    %rsi,%r8
  4057a4:	7d 5a                	jge    405800 <_ZSt13__adjust_heapIPiliN9__gnu_cxx5__ops15_Iter_less_iterEEvT_T0_S5_T1_T2_.isra.0+0x100>
/usr/include/c++/10/bits/stl_heap.h:143
	  __parent = (__holeIndex - 1) / 2;
  4057a6:	48 89 d6             	mov    %rdx,%rsi
/usr/include/c++/10/bits/stl_heap.h:139
      while (__holeIndex > __topIndex && __comp(__first + __parent, __value))
  4057a9:	4c 8d 14 b7          	lea    (%rdi,%rsi,4),%r10
/usr/include/c++/10/bits/stl_heap.h:141
	  *(__first + __holeIndex) = _GLIBCXX_MOVE(*(__first + __parent));
  4057ad:	48 8d 0c 87          	lea    (%rdi,%rax,4),%rcx
_ZNK9__gnu_cxx5__ops14_Iter_less_valclIPiiEEbT_RT0_():
/usr/include/c++/10/bits/predefined_ops.h:67

    template<typename _Iterator, typename _Value>
      _GLIBCXX20_CONSTEXPR
      bool
      operator()(_Iterator __it, _Value& __val) const
      { return *__it < __val; }
  4057b1:	41 8b 12             	mov    (%r10),%edx
_ZSt11__push_heapIPiliN9__gnu_cxx5__ops14_Iter_less_valEEvT_T0_S5_T1_RT2_():
/usr/include/c++/10/bits/stl_heap.h:139
      while (__holeIndex > __topIndex && __comp(__first + __parent, __value))
  4057b4:	44 39 ca             	cmp    %r9d,%edx
  4057b7:	7c cf                	jl     405788 <_ZSt13__adjust_heapIPiliN9__gnu_cxx5__ops15_Iter_less_iterEEvT_T0_S5_T1_T2_.isra.0+0x88>
/usr/include/c++/10/bits/stl_heap.h:145
      *(__first + __holeIndex) = _GLIBCXX_MOVE(__value);
  4057b9:	44 89 09             	mov    %r9d,(%rcx)
_ZSt13__adjust_heapIPiliN9__gnu_cxx5__ops15_Iter_less_iterEEvT_T0_S5_T1_T2_():
/usr/include/c++/10/bits/stl_heap.h:248
	}
      __decltype(__gnu_cxx::__ops::__iter_comp_val(_GLIBCXX_MOVE(__comp)))
	__cmp(_GLIBCXX_MOVE(__comp));
      std::__push_heap(__first, __holeIndex, __topIndex,
		       _GLIBCXX_MOVE(__value), __cmp);
    }
  4057bc:	5b                   	pop    %rbx
  4057bd:	5d                   	pop    %rbp
  4057be:	c3                   	retq   
  4057bf:	90                   	nop
_ZSt11__push_heapIPiliN9__gnu_cxx5__ops14_Iter_less_valEEvT_T0_S5_T1_RT2_():
/usr/include/c++/10/bits/stl_heap.h:145
      *(__first + __holeIndex) = _GLIBCXX_MOVE(__value);
  4057c0:	48 8d 0c b7          	lea    (%rdi,%rsi,4),%rcx
_ZSt13__adjust_heapIPiliN9__gnu_cxx5__ops15_Iter_less_iterEEvT_T0_S5_T1_T2_():
/usr/include/c++/10/bits/stl_heap.h:237
      if ((__len & 1) == 0 && __secondChild == (__len - 2) / 2)
  4057c4:	48 85 ed             	test   %rbp,%rbp
  4057c7:	75 f0                	jne    4057b9 <_ZSt13__adjust_heapIPiliN9__gnu_cxx5__ops15_Iter_less_iterEEvT_T0_S5_T1_T2_.isra.0+0xb9>
  4057c9:	4c 89 c0             	mov    %r8,%rax
  4057cc:	0f 1f 40 00          	nopl   0x0(%rax)
  4057d0:	48 8d 53 fe          	lea    -0x2(%rbx),%rdx
  4057d4:	48 89 d3             	mov    %rdx,%rbx
  4057d7:	48 c1 eb 3f          	shr    $0x3f,%rbx
  4057db:	48 01 d3             	add    %rdx,%rbx
  4057de:	48 d1 fb             	sar    %rbx
  4057e1:	48 39 d8             	cmp    %rbx,%rax
  4057e4:	75 87                	jne    40576d <_ZSt13__adjust_heapIPiliN9__gnu_cxx5__ops15_Iter_less_iterEEvT_T0_S5_T1_T2_.isra.0+0x6d>
/usr/include/c++/10/bits/stl_heap.h:239
	  __secondChild = 2 * (__secondChild + 1);
  4057e6:	48 8d 44 00 02       	lea    0x2(%rax,%rax,1),%rax
/usr/include/c++/10/bits/stl_heap.h:240
	  *(__first + __holeIndex) = _GLIBCXX_MOVE(*(__first
  4057eb:	8b 54 87 fc          	mov    -0x4(%rdi,%rax,4),%edx
/usr/include/c++/10/bits/stl_heap.h:242
	  __holeIndex = __secondChild - 1;
  4057ef:	48 83 e8 01          	sub    $0x1,%rax
/usr/include/c++/10/bits/stl_heap.h:240
	  *(__first + __holeIndex) = _GLIBCXX_MOVE(*(__first
  4057f3:	89 11                	mov    %edx,(%rcx)
_ZSt11__push_heapIPiliN9__gnu_cxx5__ops14_Iter_less_valEEvT_T0_S5_T1_RT2_():
/usr/include/c++/10/bits/stl_heap.h:145
      *(__first + __holeIndex) = _GLIBCXX_MOVE(__value);
  4057f5:	48 8d 0c 87          	lea    (%rdi,%rax,4),%rcx
_ZSt13__adjust_heapIPiliN9__gnu_cxx5__ops15_Iter_less_iterEEvT_T0_S5_T1_T2_():
/usr/include/c++/10/bits/stl_heap.h:145
  4057f9:	e9 6f ff ff ff       	jmpq   40576d <_ZSt13__adjust_heapIPiliN9__gnu_cxx5__ops15_Iter_less_iterEEvT_T0_S5_T1_T2_.isra.0+0x6d>
  4057fe:	66 90                	xchg   %ax,%ax
_ZSt11__push_heapIPiliN9__gnu_cxx5__ops14_Iter_less_valEEvT_T0_S5_T1_RT2_():
/usr/include/c++/10/bits/stl_heap.h:145
  405800:	4c 89 d1             	mov    %r10,%rcx
  405803:	44 89 09             	mov    %r9d,(%rcx)
_ZSt13__adjust_heapIPiliN9__gnu_cxx5__ops15_Iter_less_iterEEvT_T0_S5_T1_T2_():
/usr/include/c++/10/bits/stl_heap.h:248
    }
  405806:	5b                   	pop    %rbx
  405807:	5d                   	pop    %rbp
  405808:	c3                   	retq   
_ZSt13__adjust_heapIPiliN9__gnu_cxx5__ops15_Iter_less_iterEEvT_T0_S5_T1_T2_.isra.0():
/usr/include/c++/10/bits/stl_heap.h:248
  405809:	0f 1f 80 00 00 00 00 	nopl   0x0(%rax)

0000000000405810 <_ZSt16__insertion_sortIP10NodeWeightIiiEN9__gnu_cxx5__ops15_Iter_less_iterEEvT_S6_T0_.isra.0>:
_ZSt16__insertion_sortIP10NodeWeightIiiEN9__gnu_cxx5__ops15_Iter_less_iterEEvT_S6_T0_():
/usr/include/c++/10/bits/stl_algo.h:1847
    _GLIBCXX20_CONSTEXPR
    void
    __insertion_sort(_RandomAccessIterator __first,
		     _RandomAccessIterator __last, _Compare __comp)
    {
      if (__first == __last) return;
  405810:	48 39 f7             	cmp    %rsi,%rdi
  405813:	0f 84 d7 00 00 00    	je     4058f0 <_ZSt16__insertion_sortIP10NodeWeightIiiEN9__gnu_cxx5__ops15_Iter_less_iterEEvT_S6_T0_.isra.0+0xe0>
/usr/include/c++/10/bits/stl_algo.h:1844
    __insertion_sort(_RandomAccessIterator __first,
  405819:	41 57                	push   %r15
  40581b:	49 89 f7             	mov    %rsi,%r15
  40581e:	41 56                	push   %r14
  405820:	41 55                	push   %r13
  405822:	49 89 fd             	mov    %rdi,%r13
  405825:	41 54                	push   %r12
  405827:	55                   	push   %rbp
/usr/include/c++/10/bits/stl_algo.h:1849

      for (_RandomAccessIterator __i = __first + 1; __i != __last; ++__i)
  405828:	48 8d 6f 08          	lea    0x8(%rdi),%rbp
/usr/include/c++/10/bits/stl_algo.h:1844
    __insertion_sort(_RandomAccessIterator __first,
  40582c:	53                   	push   %rbx
  40582d:	48 83 ec 08          	sub    $0x8,%rsp
/usr/include/c++/10/bits/stl_algo.h:1849
      for (_RandomAccessIterator __i = __first + 1; __i != __last; ++__i)
  405831:	48 39 ee             	cmp    %rbp,%rsi
  405834:	0f 84 9f 00 00 00    	je     4058d9 <_ZSt16__insertion_sortIP10NodeWeightIiiEN9__gnu_cxx5__ops15_Iter_less_iterEEvT_S6_T0_.isra.0+0xc9>
_ZNSt20__copy_move_backwardILb1ELb1ESt26random_access_iterator_tagE13__copy_move_bI10NodeWeightIiiEEEPT_PKS5_S8_S6_():
/usr/include/c++/10/bits/stl_algobase.h:691
	  // trivial types can have deleted assignment
	  static_assert( __assignable::type::value, "type is not assignable" );
#endif
	  const ptrdiff_t _Num = __last - __first;
	  if (_Num)
	    __builtin_memmove(__result - _Num, __first, sizeof(_Tp) * _Num);
  40583a:	41 bc 08 00 00 00    	mov    $0x8,%r12d
  405840:	eb 3c                	jmp    40587e <_ZSt16__insertion_sortIP10NodeWeightIiiEN9__gnu_cxx5__ops15_Iter_less_iterEEvT_S6_T0_.isra.0+0x6e>
  405842:	66 0f 1f 44 00 00    	nopw   0x0(%rax,%rax,1)
_ZSt16__insertion_sortIP10NodeWeightIiiEN9__gnu_cxx5__ops15_Iter_less_iterEEvT_S6_T0_():
/usr/include/c++/10/bits/stl_algo.h:1851
	{
	  if (__comp(__i, __first))
  405848:	7d 47                	jge    405891 <_ZSt16__insertion_sortIP10NodeWeightIiiEN9__gnu_cxx5__ops15_Iter_less_iterEEvT_S6_T0_.isra.0+0x81>
_ZNSt20__copy_move_backwardILb1ELb1ESt26random_access_iterator_tagE13__copy_move_bI10NodeWeightIiiEEEPT_PKS5_S8_S6_():
/usr/include/c++/10/bits/stl_algobase.h:690
	  if (_Num)
  40584a:	49 39 ed             	cmp    %rbp,%r13
  40584d:	74 13                	je     405862 <_ZSt16__insertion_sortIP10NodeWeightIiiEN9__gnu_cxx5__ops15_Iter_less_iterEEvT_S6_T0_.isra.0+0x52>
/usr/include/c++/10/bits/stl_algobase.h:691
	    __builtin_memmove(__result - _Num, __first, sizeof(_Tp) * _Num);
  40584f:	48 89 ea             	mov    %rbp,%rdx
  405852:	4b 8d 7c 25 00       	lea    0x0(%r13,%r12,1),%rdi
  405857:	4c 89 ee             	mov    %r13,%rsi
  40585a:	4c 29 ea             	sub    %r13,%rdx
  40585d:	e8 ee e1 ff ff       	callq  403a50 <memmove@plt>
_ZSt16__insertion_sortIP10NodeWeightIiiEN9__gnu_cxx5__ops15_Iter_less_iterEEvT_S6_T0_():
/usr/include/c++/10/bits/stl_algo.h:1856
	    {
	      typename iterator_traits<_RandomAccessIterator>::value_type
		__val = _GLIBCXX_MOVE(*__i);
	      _GLIBCXX_MOVE_BACKWARD3(__first, __i, __i + 1);
	      *__first = _GLIBCXX_MOVE(__val);
  405862:	66 0f 6e c3          	movd   %ebx,%xmm0
  405866:	66 41 0f 6e ce       	movd   %r14d,%xmm1
/usr/include/c++/10/bits/stl_algo.h:1849
      for (_RandomAccessIterator __i = __first + 1; __i != __last; ++__i)
  40586b:	48 83 c5 08          	add    $0x8,%rbp
/usr/include/c++/10/bits/stl_algo.h:1856
	      *__first = _GLIBCXX_MOVE(__val);
  40586f:	66 0f 62 c1          	punpckldq %xmm1,%xmm0
  405873:	66 41 0f d6 45 00    	movq   %xmm0,0x0(%r13)
/usr/include/c++/10/bits/stl_algo.h:1849
      for (_RandomAccessIterator __i = __first + 1; __i != __last; ++__i)
  405879:	49 39 ef             	cmp    %rbp,%r15
  40587c:	74 5b                	je     4058d9 <_ZSt16__insertion_sortIP10NodeWeightIiiEN9__gnu_cxx5__ops15_Iter_less_iterEEvT_S6_T0_.isra.0+0xc9>
_ZNK10NodeWeightIiiEltERKS0_():
/home/aliha951/ipdps-artifact/gapbs-master/src/graph.h:39
    return v == rhs.v ? w < rhs.w : v < rhs.v;
  40587e:	8b 5d 00             	mov    0x0(%rbp),%ebx
  405881:	44 8b 75 04          	mov    0x4(%rbp),%r14d
  405885:	41 3b 5d 00          	cmp    0x0(%r13),%ebx
  405889:	75 bd                	jne    405848 <_ZSt16__insertion_sortIP10NodeWeightIiiEN9__gnu_cxx5__ops15_Iter_less_iterEEvT_S6_T0_.isra.0+0x38>
_ZSt16__insertion_sortIP10NodeWeightIiiEN9__gnu_cxx5__ops15_Iter_less_iterEEvT_S6_T0_():
/usr/include/c++/10/bits/stl_algo.h:1851
	  if (__comp(__i, __first))
  40588b:	45 39 75 04          	cmp    %r14d,0x4(%r13)
  40588f:	7f b9                	jg     40584a <_ZSt16__insertion_sortIP10NodeWeightIiiEN9__gnu_cxx5__ops15_Iter_less_iterEEvT_S6_T0_.isra.0+0x3a>
_ZSt25__unguarded_linear_insertIP10NodeWeightIiiEN9__gnu_cxx5__ops14_Val_less_iterEEvT_T0_():
/usr/include/c++/10/bits/stl_algo.h:1824
    __unguarded_linear_insert(_RandomAccessIterator __last,
  405891:	48 89 e8             	mov    %rbp,%rax
  405894:	eb 15                	jmp    4058ab <_ZSt16__insertion_sortIP10NodeWeightIiiEN9__gnu_cxx5__ops15_Iter_less_iterEEvT_S6_T0_.isra.0+0x9b>
  405896:	66 2e 0f 1f 84 00 00 	nopw   %cs:0x0(%rax,%rax,1)
  40589d:	00 00 00 
/usr/include/c++/10/bits/stl_algo.h:1831
      while (__comp(__val, __next))
  4058a0:	39 d3                	cmp    %edx,%ebx
