
../pr:     file format elf64-x86-64


Disassembly of section .init:

0000000000403000 <_init>:
_init():
  403000:	f3 0f 1e fa          	endbr64 
  403004:	48 83 ec 08          	sub    $0x8,%rsp
  403008:	48 8b 05 e1 5f 01 00 	mov    0x15fe1(%rip),%rax        # 418ff0 <__gmon_start__>
  40300f:	48 85 c0             	test   %rax,%rax
  403012:	74 02                	je     403016 <_init+0x16>
  403014:	ff d0                	callq  *%rax
  403016:	48 83 c4 08          	add    $0x8,%rsp
  40301a:	c3                   	retq   

Disassembly of section .plt:

0000000000403020 <.plt>:
  403020:	ff 35 e2 5f 01 00    	pushq  0x15fe2(%rip)        # 419008 <_GLOBAL_OFFSET_TABLE_+0x8>
  403026:	f2 ff 25 e3 5f 01 00 	bnd jmpq *0x15fe3(%rip)        # 419010 <_GLOBAL_OFFSET_TABLE_+0x10>
  40302d:	0f 1f 00             	nopl   (%rax)
  403030:	f3 0f 1e fa          	endbr64 
  403034:	68 00 00 00 00       	pushq  $0x0
  403039:	f2 e9 e1 ff ff ff    	bnd jmpq 403020 <.plt>
  40303f:	90                   	nop
  403040:	f3 0f 1e fa          	endbr64 
  403044:	68 01 00 00 00       	pushq  $0x1
  403049:	f2 e9 d1 ff ff ff    	bnd jmpq 403020 <.plt>
  40304f:	90                   	nop
  403050:	f3 0f 1e fa          	endbr64 
  403054:	68 02 00 00 00       	pushq  $0x2
  403059:	f2 e9 c1 ff ff ff    	bnd jmpq 403020 <.plt>
  40305f:	90                   	nop
  403060:	f3 0f 1e fa          	endbr64 
  403064:	68 03 00 00 00       	pushq  $0x3
  403069:	f2 e9 b1 ff ff ff    	bnd jmpq 403020 <.plt>
  40306f:	90                   	nop
  403070:	f3 0f 1e fa          	endbr64 
  403074:	68 04 00 00 00       	pushq  $0x4
  403079:	f2 e9 a1 ff ff ff    	bnd jmpq 403020 <.plt>
  40307f:	90                   	nop
  403080:	f3 0f 1e fa          	endbr64 
  403084:	68 05 00 00 00       	pushq  $0x5
  403089:	f2 e9 91 ff ff ff    	bnd jmpq 403020 <.plt>
  40308f:	90                   	nop
  403090:	f3 0f 1e fa          	endbr64 
  403094:	68 06 00 00 00       	pushq  $0x6
  403099:	f2 e9 81 ff ff ff    	bnd jmpq 403020 <.plt>
  40309f:	90                   	nop
  4030a0:	f3 0f 1e fa          	endbr64 
  4030a4:	68 07 00 00 00       	pushq  $0x7
  4030a9:	f2 e9 71 ff ff ff    	bnd jmpq 403020 <.plt>
  4030af:	90                   	nop
  4030b0:	f3 0f 1e fa          	endbr64 
  4030b4:	68 08 00 00 00       	pushq  $0x8
  4030b9:	f2 e9 61 ff ff ff    	bnd jmpq 403020 <.plt>
  4030bf:	90                   	nop
  4030c0:	f3 0f 1e fa          	endbr64 
  4030c4:	68 09 00 00 00       	pushq  $0x9
  4030c9:	f2 e9 51 ff ff ff    	bnd jmpq 403020 <.plt>
  4030cf:	90                   	nop
  4030d0:	f3 0f 1e fa          	endbr64 
  4030d4:	68 0a 00 00 00       	pushq  $0xa
  4030d9:	f2 e9 41 ff ff ff    	bnd jmpq 403020 <.plt>
  4030df:	90                   	nop
  4030e0:	f3 0f 1e fa          	endbr64 
  4030e4:	68 0b 00 00 00       	pushq  $0xb
  4030e9:	f2 e9 31 ff ff ff    	bnd jmpq 403020 <.plt>
  4030ef:	90                   	nop
  4030f0:	f3 0f 1e fa          	endbr64 
  4030f4:	68 0c 00 00 00       	pushq  $0xc
  4030f9:	f2 e9 21 ff ff ff    	bnd jmpq 403020 <.plt>
  4030ff:	90                   	nop
  403100:	f3 0f 1e fa          	endbr64 
  403104:	68 0d 00 00 00       	pushq  $0xd
  403109:	f2 e9 11 ff ff ff    	bnd jmpq 403020 <.plt>
  40310f:	90                   	nop
  403110:	f3 0f 1e fa          	endbr64 
  403114:	68 0e 00 00 00       	pushq  $0xe
  403119:	f2 e9 01 ff ff ff    	bnd jmpq 403020 <.plt>
  40311f:	90                   	nop
  403120:	f3 0f 1e fa          	endbr64 
  403124:	68 0f 00 00 00       	pushq  $0xf
  403129:	f2 e9 f1 fe ff ff    	bnd jmpq 403020 <.plt>
  40312f:	90                   	nop
  403130:	f3 0f 1e fa          	endbr64 
  403134:	68 10 00 00 00       	pushq  $0x10
  403139:	f2 e9 e1 fe ff ff    	bnd jmpq 403020 <.plt>
  40313f:	90                   	nop
  403140:	f3 0f 1e fa          	endbr64 
  403144:	68 11 00 00 00       	pushq  $0x11
  403149:	f2 e9 d1 fe ff ff    	bnd jmpq 403020 <.plt>
  40314f:	90                   	nop
  403150:	f3 0f 1e fa          	endbr64 
  403154:	68 12 00 00 00       	pushq  $0x12
  403159:	f2 e9 c1 fe ff ff    	bnd jmpq 403020 <.plt>
  40315f:	90                   	nop
  403160:	f3 0f 1e fa          	endbr64 
  403164:	68 13 00 00 00       	pushq  $0x13
  403169:	f2 e9 b1 fe ff ff    	bnd jmpq 403020 <.plt>
  40316f:	90                   	nop
  403170:	f3 0f 1e fa          	endbr64 
  403174:	68 14 00 00 00       	pushq  $0x14
  403179:	f2 e9 a1 fe ff ff    	bnd jmpq 403020 <.plt>
  40317f:	90                   	nop
  403180:	f3 0f 1e fa          	endbr64 
  403184:	68 15 00 00 00       	pushq  $0x15
  403189:	f2 e9 91 fe ff ff    	bnd jmpq 403020 <.plt>
  40318f:	90                   	nop
  403190:	f3 0f 1e fa          	endbr64 
  403194:	68 16 00 00 00       	pushq  $0x16
  403199:	f2 e9 81 fe ff ff    	bnd jmpq 403020 <.plt>
  40319f:	90                   	nop
  4031a0:	f3 0f 1e fa          	endbr64 
  4031a4:	68 17 00 00 00       	pushq  $0x17
  4031a9:	f2 e9 71 fe ff ff    	bnd jmpq 403020 <.plt>
  4031af:	90                   	nop
  4031b0:	f3 0f 1e fa          	endbr64 
  4031b4:	68 18 00 00 00       	pushq  $0x18
  4031b9:	f2 e9 61 fe ff ff    	bnd jmpq 403020 <.plt>
  4031bf:	90                   	nop
  4031c0:	f3 0f 1e fa          	endbr64 
  4031c4:	68 19 00 00 00       	pushq  $0x19
  4031c9:	f2 e9 51 fe ff ff    	bnd jmpq 403020 <.plt>
  4031cf:	90                   	nop
  4031d0:	f3 0f 1e fa          	endbr64 
  4031d4:	68 1a 00 00 00       	pushq  $0x1a
  4031d9:	f2 e9 41 fe ff ff    	bnd jmpq 403020 <.plt>
  4031df:	90                   	nop
  4031e0:	f3 0f 1e fa          	endbr64 
  4031e4:	68 1b 00 00 00       	pushq  $0x1b
  4031e9:	f2 e9 31 fe ff ff    	bnd jmpq 403020 <.plt>
  4031ef:	90                   	nop
  4031f0:	f3 0f 1e fa          	endbr64 
  4031f4:	68 1c 00 00 00       	pushq  $0x1c
  4031f9:	f2 e9 21 fe ff ff    	bnd jmpq 403020 <.plt>
  4031ff:	90                   	nop
  403200:	f3 0f 1e fa          	endbr64 
  403204:	68 1d 00 00 00       	pushq  $0x1d
  403209:	f2 e9 11 fe ff ff    	bnd jmpq 403020 <.plt>
  40320f:	90                   	nop
  403210:	f3 0f 1e fa          	endbr64 
  403214:	68 1e 00 00 00       	pushq  $0x1e
  403219:	f2 e9 01 fe ff ff    	bnd jmpq 403020 <.plt>
  40321f:	90                   	nop
  403220:	f3 0f 1e fa          	endbr64 
  403224:	68 1f 00 00 00       	pushq  $0x1f
  403229:	f2 e9 f1 fd ff ff    	bnd jmpq 403020 <.plt>
  40322f:	90                   	nop
  403230:	f3 0f 1e fa          	endbr64 
  403234:	68 20 00 00 00       	pushq  $0x20
  403239:	f2 e9 e1 fd ff ff    	bnd jmpq 403020 <.plt>
  40323f:	90                   	nop
  403240:	f3 0f 1e fa          	endbr64 
  403244:	68 21 00 00 00       	pushq  $0x21
  403249:	f2 e9 d1 fd ff ff    	bnd jmpq 403020 <.plt>
  40324f:	90                   	nop
  403250:	f3 0f 1e fa          	endbr64 
  403254:	68 22 00 00 00       	pushq  $0x22
  403259:	f2 e9 c1 fd ff ff    	bnd jmpq 403020 <.plt>
  40325f:	90                   	nop
  403260:	f3 0f 1e fa          	endbr64 
  403264:	68 23 00 00 00       	pushq  $0x23
  403269:	f2 e9 b1 fd ff ff    	bnd jmpq 403020 <.plt>
  40326f:	90                   	nop
  403270:	f3 0f 1e fa          	endbr64 
  403274:	68 24 00 00 00       	pushq  $0x24
  403279:	f2 e9 a1 fd ff ff    	bnd jmpq 403020 <.plt>
  40327f:	90                   	nop
  403280:	f3 0f 1e fa          	endbr64 
  403284:	68 25 00 00 00       	pushq  $0x25
  403289:	f2 e9 91 fd ff ff    	bnd jmpq 403020 <.plt>
  40328f:	90                   	nop
  403290:	f3 0f 1e fa          	endbr64 
  403294:	68 26 00 00 00       	pushq  $0x26
  403299:	f2 e9 81 fd ff ff    	bnd jmpq 403020 <.plt>
  40329f:	90                   	nop
  4032a0:	f3 0f 1e fa          	endbr64 
  4032a4:	68 27 00 00 00       	pushq  $0x27
  4032a9:	f2 e9 71 fd ff ff    	bnd jmpq 403020 <.plt>
  4032af:	90                   	nop
  4032b0:	f3 0f 1e fa          	endbr64 
  4032b4:	68 28 00 00 00       	pushq  $0x28
  4032b9:	f2 e9 61 fd ff ff    	bnd jmpq 403020 <.plt>
  4032bf:	90                   	nop
  4032c0:	f3 0f 1e fa          	endbr64 
  4032c4:	68 29 00 00 00       	pushq  $0x29
  4032c9:	f2 e9 51 fd ff ff    	bnd jmpq 403020 <.plt>
  4032cf:	90                   	nop
  4032d0:	f3 0f 1e fa          	endbr64 
  4032d4:	68 2a 00 00 00       	pushq  $0x2a
  4032d9:	f2 e9 41 fd ff ff    	bnd jmpq 403020 <.plt>
  4032df:	90                   	nop
  4032e0:	f3 0f 1e fa          	endbr64 
  4032e4:	68 2b 00 00 00       	pushq  $0x2b
  4032e9:	f2 e9 31 fd ff ff    	bnd jmpq 403020 <.plt>
  4032ef:	90                   	nop
  4032f0:	f3 0f 1e fa          	endbr64 
  4032f4:	68 2c 00 00 00       	pushq  $0x2c
  4032f9:	f2 e9 21 fd ff ff    	bnd jmpq 403020 <.plt>
  4032ff:	90                   	nop
  403300:	f3 0f 1e fa          	endbr64 
  403304:	68 2d 00 00 00       	pushq  $0x2d
  403309:	f2 e9 11 fd ff ff    	bnd jmpq 403020 <.plt>
  40330f:	90                   	nop
  403310:	f3 0f 1e fa          	endbr64 
  403314:	68 2e 00 00 00       	pushq  $0x2e
  403319:	f2 e9 01 fd ff ff    	bnd jmpq 403020 <.plt>
  40331f:	90                   	nop
  403320:	f3 0f 1e fa          	endbr64 
  403324:	68 2f 00 00 00       	pushq  $0x2f
  403329:	f2 e9 f1 fc ff ff    	bnd jmpq 403020 <.plt>
  40332f:	90                   	nop
  403330:	f3 0f 1e fa          	endbr64 
  403334:	68 30 00 00 00       	pushq  $0x30
  403339:	f2 e9 e1 fc ff ff    	bnd jmpq 403020 <.plt>
  40333f:	90                   	nop
  403340:	f3 0f 1e fa          	endbr64 
  403344:	68 31 00 00 00       	pushq  $0x31
  403349:	f2 e9 d1 fc ff ff    	bnd jmpq 403020 <.plt>
  40334f:	90                   	nop
  403350:	f3 0f 1e fa          	endbr64 
  403354:	68 32 00 00 00       	pushq  $0x32
  403359:	f2 e9 c1 fc ff ff    	bnd jmpq 403020 <.plt>
  40335f:	90                   	nop
  403360:	f3 0f 1e fa          	endbr64 
  403364:	68 33 00 00 00       	pushq  $0x33
  403369:	f2 e9 b1 fc ff ff    	bnd jmpq 403020 <.plt>
  40336f:	90                   	nop
  403370:	f3 0f 1e fa          	endbr64 
  403374:	68 34 00 00 00       	pushq  $0x34
  403379:	f2 e9 a1 fc ff ff    	bnd jmpq 403020 <.plt>
  40337f:	90                   	nop
  403380:	f3 0f 1e fa          	endbr64 
  403384:	68 35 00 00 00       	pushq  $0x35
  403389:	f2 e9 91 fc ff ff    	bnd jmpq 403020 <.plt>
  40338f:	90                   	nop
  403390:	f3 0f 1e fa          	endbr64 
  403394:	68 36 00 00 00       	pushq  $0x36
  403399:	f2 e9 81 fc ff ff    	bnd jmpq 403020 <.plt>
  40339f:	90                   	nop
  4033a0:	f3 0f 1e fa          	endbr64 
  4033a4:	68 37 00 00 00       	pushq  $0x37
  4033a9:	f2 e9 71 fc ff ff    	bnd jmpq 403020 <.plt>
  4033af:	90                   	nop
  4033b0:	f3 0f 1e fa          	endbr64 
  4033b4:	68 38 00 00 00       	pushq  $0x38
  4033b9:	f2 e9 61 fc ff ff    	bnd jmpq 403020 <.plt>
  4033bf:	90                   	nop
  4033c0:	f3 0f 1e fa          	endbr64 
  4033c4:	68 39 00 00 00       	pushq  $0x39
  4033c9:	f2 e9 51 fc ff ff    	bnd jmpq 403020 <.plt>
  4033cf:	90                   	nop
  4033d0:	f3 0f 1e fa          	endbr64 
  4033d4:	68 3a 00 00 00       	pushq  $0x3a
  4033d9:	f2 e9 41 fc ff ff    	bnd jmpq 403020 <.plt>
  4033df:	90                   	nop
  4033e0:	f3 0f 1e fa          	endbr64 
  4033e4:	68 3b 00 00 00       	pushq  $0x3b
  4033e9:	f2 e9 31 fc ff ff    	bnd jmpq 403020 <.plt>
  4033ef:	90                   	nop
  4033f0:	f3 0f 1e fa          	endbr64 
  4033f4:	68 3c 00 00 00       	pushq  $0x3c
  4033f9:	f2 e9 21 fc ff ff    	bnd jmpq 403020 <.plt>
  4033ff:	90                   	nop
  403400:	f3 0f 1e fa          	endbr64 
  403404:	68 3d 00 00 00       	pushq  $0x3d
  403409:	f2 e9 11 fc ff ff    	bnd jmpq 403020 <.plt>
  40340f:	90                   	nop
  403410:	f3 0f 1e fa          	endbr64 
  403414:	68 3e 00 00 00       	pushq  $0x3e
  403419:	f2 e9 01 fc ff ff    	bnd jmpq 403020 <.plt>
  40341f:	90                   	nop
  403420:	f3 0f 1e fa          	endbr64 
  403424:	68 3f 00 00 00       	pushq  $0x3f
  403429:	f2 e9 f1 fb ff ff    	bnd jmpq 403020 <.plt>
  40342f:	90                   	nop
  403430:	f3 0f 1e fa          	endbr64 
  403434:	68 40 00 00 00       	pushq  $0x40
  403439:	f2 e9 e1 fb ff ff    	bnd jmpq 403020 <.plt>
  40343f:	90                   	nop
  403440:	f3 0f 1e fa          	endbr64 
  403444:	68 41 00 00 00       	pushq  $0x41
  403449:	f2 e9 d1 fb ff ff    	bnd jmpq 403020 <.plt>
  40344f:	90                   	nop
  403450:	f3 0f 1e fa          	endbr64 
  403454:	68 42 00 00 00       	pushq  $0x42
  403459:	f2 e9 c1 fb ff ff    	bnd jmpq 403020 <.plt>
  40345f:	90                   	nop
  403460:	f3 0f 1e fa          	endbr64 
  403464:	68 43 00 00 00       	pushq  $0x43
  403469:	f2 e9 b1 fb ff ff    	bnd jmpq 403020 <.plt>
  40346f:	90                   	nop
  403470:	f3 0f 1e fa          	endbr64 
  403474:	68 44 00 00 00       	pushq  $0x44
  403479:	f2 e9 a1 fb ff ff    	bnd jmpq 403020 <.plt>
  40347f:	90                   	nop
  403480:	f3 0f 1e fa          	endbr64 
  403484:	68 45 00 00 00       	pushq  $0x45
  403489:	f2 e9 91 fb ff ff    	bnd jmpq 403020 <.plt>
  40348f:	90                   	nop
  403490:	f3 0f 1e fa          	endbr64 
  403494:	68 46 00 00 00       	pushq  $0x46
  403499:	f2 e9 81 fb ff ff    	bnd jmpq 403020 <.plt>
  40349f:	90                   	nop
  4034a0:	f3 0f 1e fa          	endbr64 
  4034a4:	68 47 00 00 00       	pushq  $0x47
  4034a9:	f2 e9 71 fb ff ff    	bnd jmpq 403020 <.plt>
  4034af:	90                   	nop
  4034b0:	f3 0f 1e fa          	endbr64 
  4034b4:	68 48 00 00 00       	pushq  $0x48
  4034b9:	f2 e9 61 fb ff ff    	bnd jmpq 403020 <.plt>
  4034bf:	90                   	nop
  4034c0:	f3 0f 1e fa          	endbr64 
  4034c4:	68 49 00 00 00       	pushq  $0x49
  4034c9:	f2 e9 51 fb ff ff    	bnd jmpq 403020 <.plt>
  4034cf:	90                   	nop
  4034d0:	f3 0f 1e fa          	endbr64 
  4034d4:	68 4a 00 00 00       	pushq  $0x4a
  4034d9:	f2 e9 41 fb ff ff    	bnd jmpq 403020 <.plt>
  4034df:	90                   	nop
  4034e0:	f3 0f 1e fa          	endbr64 
  4034e4:	68 4b 00 00 00       	pushq  $0x4b
  4034e9:	f2 e9 31 fb ff ff    	bnd jmpq 403020 <.plt>
  4034ef:	90                   	nop
  4034f0:	f3 0f 1e fa          	endbr64 
  4034f4:	68 4c 00 00 00       	pushq  $0x4c
  4034f9:	f2 e9 21 fb ff ff    	bnd jmpq 403020 <.plt>
  4034ff:	90                   	nop
  403500:	f3 0f 1e fa          	endbr64 
  403504:	68 4d 00 00 00       	pushq  $0x4d
  403509:	f2 e9 11 fb ff ff    	bnd jmpq 403020 <.plt>
  40350f:	90                   	nop
  403510:	f3 0f 1e fa          	endbr64 
  403514:	68 4e 00 00 00       	pushq  $0x4e
  403519:	f2 e9 01 fb ff ff    	bnd jmpq 403020 <.plt>
  40351f:	90                   	nop
  403520:	f3 0f 1e fa          	endbr64 
  403524:	68 4f 00 00 00       	pushq  $0x4f
  403529:	f2 e9 f1 fa ff ff    	bnd jmpq 403020 <.plt>
  40352f:	90                   	nop
  403530:	f3 0f 1e fa          	endbr64 
  403534:	68 50 00 00 00       	pushq  $0x50
  403539:	f2 e9 e1 fa ff ff    	bnd jmpq 403020 <.plt>
  40353f:	90                   	nop
  403540:	f3 0f 1e fa          	endbr64 
  403544:	68 51 00 00 00       	pushq  $0x51
  403549:	f2 e9 d1 fa ff ff    	bnd jmpq 403020 <.plt>
  40354f:	90                   	nop
  403550:	f3 0f 1e fa          	endbr64 
  403554:	68 52 00 00 00       	pushq  $0x52
  403559:	f2 e9 c1 fa ff ff    	bnd jmpq 403020 <.plt>
  40355f:	90                   	nop
  403560:	f3 0f 1e fa          	endbr64 
  403564:	68 53 00 00 00       	pushq  $0x53
  403569:	f2 e9 b1 fa ff ff    	bnd jmpq 403020 <.plt>
  40356f:	90                   	nop
  403570:	f3 0f 1e fa          	endbr64 
  403574:	68 54 00 00 00       	pushq  $0x54
  403579:	f2 e9 a1 fa ff ff    	bnd jmpq 403020 <.plt>
  40357f:	90                   	nop
  403580:	f3 0f 1e fa          	endbr64 
  403584:	68 55 00 00 00       	pushq  $0x55
  403589:	f2 e9 91 fa ff ff    	bnd jmpq 403020 <.plt>
  40358f:	90                   	nop
  403590:	f3 0f 1e fa          	endbr64 
  403594:	68 56 00 00 00       	pushq  $0x56
  403599:	f2 e9 81 fa ff ff    	bnd jmpq 403020 <.plt>
  40359f:	90                   	nop
  4035a0:	f3 0f 1e fa          	endbr64 
  4035a4:	68 57 00 00 00       	pushq  $0x57
  4035a9:	f2 e9 71 fa ff ff    	bnd jmpq 403020 <.plt>
  4035af:	90                   	nop
  4035b0:	f3 0f 1e fa          	endbr64 
  4035b4:	68 58 00 00 00       	pushq  $0x58
  4035b9:	f2 e9 61 fa ff ff    	bnd jmpq 403020 <.plt>
  4035bf:	90                   	nop
  4035c0:	f3 0f 1e fa          	endbr64 
  4035c4:	68 59 00 00 00       	pushq  $0x59
  4035c9:	f2 e9 51 fa ff ff    	bnd jmpq 403020 <.plt>
  4035cf:	90                   	nop
  4035d0:	f3 0f 1e fa          	endbr64 
  4035d4:	68 5a 00 00 00       	pushq  $0x5a
  4035d9:	f2 e9 41 fa ff ff    	bnd jmpq 403020 <.plt>
  4035df:	90                   	nop
  4035e0:	f3 0f 1e fa          	endbr64 
  4035e4:	68 5b 00 00 00       	pushq  $0x5b
  4035e9:	f2 e9 31 fa ff ff    	bnd jmpq 403020 <.plt>
  4035ef:	90                   	nop
  4035f0:	f3 0f 1e fa          	endbr64 
  4035f4:	68 5c 00 00 00       	pushq  $0x5c
  4035f9:	f2 e9 21 fa ff ff    	bnd jmpq 403020 <.plt>
  4035ff:	90                   	nop
  403600:	f3 0f 1e fa          	endbr64 
  403604:	68 5d 00 00 00       	pushq  $0x5d
  403609:	f2 e9 11 fa ff ff    	bnd jmpq 403020 <.plt>
  40360f:	90                   	nop
  403610:	f3 0f 1e fa          	endbr64 
  403614:	68 5e 00 00 00       	pushq  $0x5e
  403619:	f2 e9 01 fa ff ff    	bnd jmpq 403020 <.plt>
  40361f:	90                   	nop
  403620:	f3 0f 1e fa          	endbr64 
  403624:	68 5f 00 00 00       	pushq  $0x5f
  403629:	f2 e9 f1 f9 ff ff    	bnd jmpq 403020 <.plt>
  40362f:	90                   	nop
  403630:	f3 0f 1e fa          	endbr64 
  403634:	68 60 00 00 00       	pushq  $0x60
  403639:	f2 e9 e1 f9 ff ff    	bnd jmpq 403020 <.plt>
  40363f:	90                   	nop
  403640:	f3 0f 1e fa          	endbr64 
  403644:	68 61 00 00 00       	pushq  $0x61
  403649:	f2 e9 d1 f9 ff ff    	bnd jmpq 403020 <.plt>
  40364f:	90                   	nop
  403650:	f3 0f 1e fa          	endbr64 
  403654:	68 62 00 00 00       	pushq  $0x62
  403659:	f2 e9 c1 f9 ff ff    	bnd jmpq 403020 <.plt>
  40365f:	90                   	nop
  403660:	f3 0f 1e fa          	endbr64 
  403664:	68 63 00 00 00       	pushq  $0x63
  403669:	f2 e9 b1 f9 ff ff    	bnd jmpq 403020 <.plt>
  40366f:	90                   	nop
  403670:	f3 0f 1e fa          	endbr64 
  403674:	68 64 00 00 00       	pushq  $0x64
  403679:	f2 e9 a1 f9 ff ff    	bnd jmpq 403020 <.plt>
  40367f:	90                   	nop

Disassembly of section .plt.sec:

0000000000403680 <__printf_chk@plt>:
  403680:	f3 0f 1e fa          	endbr64 
  403684:	f2 ff 25 8d 59 01 00 	bnd jmpq *0x1598d(%rip)        # 419018 <__printf_chk@GLIBC_2.3.4>
  40368b:	0f 1f 44 00 00       	nopl   0x0(%rax,%rax,1)

0000000000403690 <_Znam@plt>:
  403690:	f3 0f 1e fa          	endbr64 
  403694:	f2 ff 25 85 59 01 00 	bnd jmpq *0x15985(%rip)        # 419020 <_Znam@GLIBCXX_3.4>
  40369b:	0f 1f 44 00 00       	nopl   0x0(%rax,%rax,1)

00000000004036a0 <GOMP_loop_end_nowait@plt>:
  4036a0:	f3 0f 1e fa          	endbr64 
  4036a4:	f2 ff 25 7d 59 01 00 	bnd jmpq *0x1597d(%rip)        # 419028 <GOMP_loop_end_nowait@VERSION>
  4036ab:	0f 1f 44 00 00       	nopl   0x0(%rax,%rax,1)

00000000004036b0 <_ZNSo3putEc@plt>:
  4036b0:	f3 0f 1e fa          	endbr64 
  4036b4:	f2 ff 25 75 59 01 00 	bnd jmpq *0x15975(%rip)        # 419030 <_ZNSo3putEc@GLIBCXX_3.4>
  4036bb:	0f 1f 44 00 00       	nopl   0x0(%rax,%rax,1)

00000000004036c0 <__errno_location@plt>:
  4036c0:	f3 0f 1e fa          	endbr64 
  4036c4:	f2 ff 25 6d 59 01 00 	bnd jmpq *0x1596d(%rip)        # 419038 <__errno_location@GLIBC_2.2.5>
  4036cb:	0f 1f 44 00 00       	nopl   0x0(%rax,%rax,1)

00000000004036d0 <_ZNSt6chrono3_V212system_clock3nowEv@plt>:
  4036d0:	f3 0f 1e fa          	endbr64 
  4036d4:	f2 ff 25 65 59 01 00 	bnd jmpq *0x15965(%rip)        # 419040 <_ZNSt6chrono3_V212system_clock3nowEv@GLIBCXX_3.4.19>
  4036db:	0f 1f 44 00 00       	nopl   0x0(%rax,%rax,1)

00000000004036e0 <syscall@plt>:
  4036e0:	f3 0f 1e fa          	endbr64 
  4036e4:	f2 ff 25 5d 59 01 00 	bnd jmpq *0x1595d(%rip)        # 419048 <syscall@GLIBC_2.2.5>
  4036eb:	0f 1f 44 00 00       	nopl   0x0(%rax,%rax,1)

00000000004036f0 <bind@plt>:
  4036f0:	f3 0f 1e fa          	endbr64 
  4036f4:	f2 ff 25 55 59 01 00 	bnd jmpq *0x15955(%rip)        # 419050 <bind@GLIBC_2.2.5>
  4036fb:	0f 1f 44 00 00       	nopl   0x0(%rax,%rax,1)

0000000000403700 <strstr@plt>:
  403700:	f3 0f 1e fa          	endbr64 
  403704:	f2 ff 25 4d 59 01 00 	bnd jmpq *0x1594d(%rip)        # 419058 <strstr@GLIBC_2.2.5>
  40370b:	0f 1f 44 00 00       	nopl   0x0(%rax,%rax,1)

0000000000403710 <_ZNSt13basic_filebufIcSt11char_traitsIcEE5closeEv@plt>:
  403710:	f3 0f 1e fa          	endbr64 
  403714:	f2 ff 25 45 59 01 00 	bnd jmpq *0x15945(%rip)        # 419060 <_ZNSt13basic_filebufIcSt11char_traitsIcEE5closeEv@GLIBCXX_3.4>
  40371b:	0f 1f 44 00 00       	nopl   0x0(%rax,%rax,1)

0000000000403720 <getopt@plt>:
  403720:	f3 0f 1e fa          	endbr64 
  403724:	f2 ff 25 3d 59 01 00 	bnd jmpq *0x1593d(%rip)        # 419068 <getopt@GLIBC_2.2.5>
  40372b:	0f 1f 44 00 00       	nopl   0x0(%rax,%rax,1)

0000000000403730 <_ZNKSt12__basic_fileIcE7is_openEv@plt>:
  403730:	f3 0f 1e fa          	endbr64 
  403734:	f2 ff 25 35 59 01 00 	bnd jmpq *0x15935(%rip)        # 419070 <_ZNKSt12__basic_fileIcE7is_openEv@GLIBCXX_3.4>
  40373b:	0f 1f 44 00 00       	nopl   0x0(%rax,%rax,1)

0000000000403740 <socket@plt>:
  403740:	f3 0f 1e fa          	endbr64 
  403744:	f2 ff 25 2d 59 01 00 	bnd jmpq *0x1592d(%rip)        # 419078 <socket@GLIBC_2.2.5>
  40374b:	0f 1f 44 00 00       	nopl   0x0(%rax,%rax,1)

0000000000403750 <_ZNSt14basic_ifstreamIcSt11char_traitsIcEED1Ev@plt>:
  403750:	f3 0f 1e fa          	endbr64 
  403754:	f2 ff 25 25 59 01 00 	bnd jmpq *0x15925(%rip)        # 419080 <_ZNSt14basic_ifstreamIcSt11char_traitsIcEED1Ev@GLIBCXX_3.4>
  40375b:	0f 1f 44 00 00       	nopl   0x0(%rax,%rax,1)

0000000000403760 <fork@plt>:
  403760:	f3 0f 1e fa          	endbr64 
  403764:	f2 ff 25 1d 59 01 00 	bnd jmpq *0x1591d(%rip)        # 419088 <fork@GLIBC_2.2.5>
  40376b:	0f 1f 44 00 00       	nopl   0x0(%rax,%rax,1)

0000000000403770 <_ZNKSt7__cxx1112basic_stringIcSt11char_traitsIcESaIcEE7compareEPKc@plt>:
  403770:	f3 0f 1e fa          	endbr64 
  403774:	f2 ff 25 15 59 01 00 	bnd jmpq *0x15915(%rip)        # 419090 <_ZNKSt7__cxx1112basic_stringIcSt11char_traitsIcESaIcEE7compareEPKc@GLIBCXX_3.4.21>
  40377b:	0f 1f 44 00 00       	nopl   0x0(%rax,%rax,1)

0000000000403780 <execlp@plt>:
  403780:	f3 0f 1e fa          	endbr64 
  403784:	f2 ff 25 0d 59 01 00 	bnd jmpq *0x1590d(%rip)        # 419098 <execlp@GLIBC_2.2.5>
  40378b:	0f 1f 44 00 00       	nopl   0x0(%rax,%rax,1)

0000000000403790 <_ZNSt8ios_baseC2Ev@plt>:
  403790:	f3 0f 1e fa          	endbr64 
  403794:	f2 ff 25 05 59 01 00 	bnd jmpq *0x15905(%rip)        # 4190a0 <_ZNSt8ios_baseC2Ev@GLIBCXX_3.4>
  40379b:	0f 1f 44 00 00       	nopl   0x0(%rax,%rax,1)

00000000004037a0 <_ZNSt7__cxx1112basic_stringIcSt11char_traitsIcESaIcEE9_M_appendEPKcm@plt>:
  4037a0:	f3 0f 1e fa          	endbr64 
  4037a4:	f2 ff 25 fd 58 01 00 	bnd jmpq *0x158fd(%rip)        # 4190a8 <_ZNSt7__cxx1112basic_stringIcSt11char_traitsIcESaIcEE9_M_appendEPKcm@GLIBCXX_3.4.21>
  4037ab:	0f 1f 44 00 00       	nopl   0x0(%rax,%rax,1)

00000000004037b0 <recv@plt>:
  4037b0:	f3 0f 1e fa          	endbr64 
  4037b4:	f2 ff 25 f5 58 01 00 	bnd jmpq *0x158f5(%rip)        # 4190b0 <recv@GLIBC_2.2.5>
  4037bb:	0f 1f 44 00 00       	nopl   0x0(%rax,%rax,1)

00000000004037c0 <_ZNSt8ios_baseD2Ev@plt>:
  4037c0:	f3 0f 1e fa          	endbr64 
  4037c4:	f2 ff 25 ed 58 01 00 	bnd jmpq *0x158ed(%rip)        # 4190b8 <_ZNSt8ios_baseD2Ev@GLIBCXX_3.4>
  4037cb:	0f 1f 44 00 00       	nopl   0x0(%rax,%rax,1)

00000000004037d0 <_ZNSi4peekEv@plt>:
  4037d0:	f3 0f 1e fa          	endbr64 
  4037d4:	f2 ff 25 e5 58 01 00 	bnd jmpq *0x158e5(%rip)        # 4190c0 <_ZNSi4peekEv@GLIBCXX_3.4>
  4037db:	0f 1f 44 00 00       	nopl   0x0(%rax,%rax,1)

00000000004037e0 <__cxa_begin_catch@plt>:
  4037e0:	f3 0f 1e fa          	endbr64 
  4037e4:	f2 ff 25 dd 58 01 00 	bnd jmpq *0x158dd(%rip)        # 4190c8 <__cxa_begin_catch@CXXABI_1.3>
  4037eb:	0f 1f 44 00 00       	nopl   0x0(%rax,%rax,1)

00000000004037f0 <strlen@plt>:
  4037f0:	f3 0f 1e fa          	endbr64 
  4037f4:	f2 ff 25 d5 58 01 00 	bnd jmpq *0x158d5(%rip)        # 4190d0 <strlen@GLIBC_2.2.5>
  4037fb:	0f 1f 44 00 00       	nopl   0x0(%rax,%rax,1)

0000000000403800 <_ZNSt7__cxx1119basic_istringstreamIcSt11char_traitsIcESaIcEED1Ev@plt>:
  403800:	f3 0f 1e fa          	endbr64 
  403804:	f2 ff 25 cd 58 01 00 	bnd jmpq *0x158cd(%rip)        # 4190d8 <_ZNSt7__cxx1119basic_istringstreamIcSt11char_traitsIcESaIcEED1Ev@GLIBCXX_3.4.21>
  40380b:	0f 1f 44 00 00       	nopl   0x0(%rax,%rax,1)

0000000000403810 <send@plt>:
  403810:	f3 0f 1e fa          	endbr64 
  403814:	f2 ff 25 c5 58 01 00 	bnd jmpq *0x158c5(%rip)        # 4190e0 <send@GLIBC_2.2.5>
  40381b:	0f 1f 44 00 00       	nopl   0x0(%rax,%rax,1)

0000000000403820 <_ZSt20__throw_length_errorPKc@plt>:
  403820:	f3 0f 1e fa          	endbr64 
  403824:	f2 ff 25 bd 58 01 00 	bnd jmpq *0x158bd(%rip)        # 4190e8 <_ZSt20__throw_length_errorPKc@GLIBCXX_3.4>
  40382b:	0f 1f 44 00 00       	nopl   0x0(%rax,%rax,1)

0000000000403830 <getrusage@plt>:
  403830:	f3 0f 1e fa          	endbr64 
  403834:	f2 ff 25 b5 58 01 00 	bnd jmpq *0x158b5(%rip)        # 4190f0 <getrusage@GLIBC_2.2.5>
  40383b:	0f 1f 44 00 00       	nopl   0x0(%rax,%rax,1)

0000000000403840 <GOMP_loop_nonmonotonic_dynamic_start@plt>:
  403840:	f3 0f 1e fa          	endbr64 
  403844:	f2 ff 25 ad 58 01 00 	bnd jmpq *0x158ad(%rip)        # 4190f8 <GOMP_loop_nonmonotonic_dynamic_start@VERSION>
  40384b:	0f 1f 44 00 00       	nopl   0x0(%rax,%rax,1)

0000000000403850 <_ZSt24__throw_invalid_argumentPKc@plt>:
  403850:	f3 0f 1e fa          	endbr64 
  403854:	f2 ff 25 a5 58 01 00 	bnd jmpq *0x158a5(%rip)        # 419100 <_ZSt24__throw_invalid_argumentPKc@GLIBCXX_3.4>
  40385b:	0f 1f 44 00 00       	nopl   0x0(%rax,%rax,1)

0000000000403860 <__snprintf_chk@plt>:
  403860:	f3 0f 1e fa          	endbr64 
  403864:	f2 ff 25 9d 58 01 00 	bnd jmpq *0x1589d(%rip)        # 419108 <__snprintf_chk@GLIBC_2.3.4>
  40386b:	0f 1f 44 00 00       	nopl   0x0(%rax,%rax,1)

0000000000403870 <_ZNSirsERi@plt>:
  403870:	f3 0f 1e fa          	endbr64 
  403874:	f2 ff 25 95 58 01 00 	bnd jmpq *0x15895(%rip)        # 419110 <_ZNSirsERi@GLIBCXX_3.4>
  40387b:	0f 1f 44 00 00       	nopl   0x0(%rax,%rax,1)

0000000000403880 <_ZNSi6ignoreEli@plt>:
  403880:	f3 0f 1e fa          	endbr64 
  403884:	f2 ff 25 8d 58 01 00 	bnd jmpq *0x1588d(%rip)        # 419118 <_ZNSi6ignoreEli@GLIBCXX_3.4>
  40388b:	0f 1f 44 00 00       	nopl   0x0(%rax,%rax,1)

0000000000403890 <_ZNSo5flushEv@plt>:
  403890:	f3 0f 1e fa          	endbr64 
  403894:	f2 ff 25 85 58 01 00 	bnd jmpq *0x15885(%rip)        # 419120 <_ZNSo5flushEv@GLIBCXX_3.4>
  40389b:	0f 1f 44 00 00       	nopl   0x0(%rax,%rax,1)

00000000004038a0 <_ZSt19__throw_logic_errorPKc@plt>:
  4038a0:	f3 0f 1e fa          	endbr64 
  4038a4:	f2 ff 25 7d 58 01 00 	bnd jmpq *0x1587d(%rip)        # 419128 <_ZSt19__throw_logic_errorPKc@GLIBCXX_3.4>
  4038ab:	0f 1f 44 00 00       	nopl   0x0(%rax,%rax,1)

00000000004038b0 <strtod@plt>:
  4038b0:	f3 0f 1e fa          	endbr64 
  4038b4:	f2 ff 25 75 58 01 00 	bnd jmpq *0x15875(%rip)        # 419130 <strtod@GLIBC_2.2.5>
  4038bb:	0f 1f 44 00 00       	nopl   0x0(%rax,%rax,1)

00000000004038c0 <__vsnprintf_chk@plt>:
  4038c0:	f3 0f 1e fa          	endbr64 
  4038c4:	f2 ff 25 6d 58 01 00 	bnd jmpq *0x1586d(%rip)        # 419138 <__vsnprintf_chk@GLIBC_2.3.4>
  4038cb:	0f 1f 44 00 00       	nopl   0x0(%rax,%rax,1)

00000000004038d0 <memcpy@plt>:
  4038d0:	f3 0f 1e fa          	endbr64 
  4038d4:	f2 ff 25 65 58 01 00 	bnd jmpq *0x15865(%rip)        # 419140 <memcpy@GLIBC_2.14>
  4038db:	0f 1f 44 00 00       	nopl   0x0(%rax,%rax,1)

00000000004038e0 <perror@plt>:
  4038e0:	f3 0f 1e fa          	endbr64 
  4038e4:	f2 ff 25 5d 58 01 00 	bnd jmpq *0x1585d(%rip)        # 419148 <perror@GLIBC_2.2.5>
  4038eb:	0f 1f 44 00 00       	nopl   0x0(%rax,%rax,1)

00000000004038f0 <_ZSt2wsIcSt11char_traitsIcEERSt13basic_istreamIT_T0_ES6_@plt>:
  4038f0:	f3 0f 1e fa          	endbr64 
  4038f4:	f2 ff 25 55 58 01 00 	bnd jmpq *0x15855(%rip)        # 419150 <_ZSt2wsIcSt11char_traitsIcEERSt13basic_istreamIT_T0_ES6_@GLIBCXX_3.4>
  4038fb:	0f 1f 44 00 00       	nopl   0x0(%rax,%rax,1)

0000000000403900 <system@plt>:
  403900:	f3 0f 1e fa          	endbr64 
  403904:	f2 ff 25 4d 58 01 00 	bnd jmpq *0x1584d(%rip)        # 419158 <system@GLIBC_2.2.5>
  40390b:	0f 1f 44 00 00       	nopl   0x0(%rax,%rax,1)

0000000000403910 <__cxa_atexit@plt>:
  403910:	f3 0f 1e fa          	endbr64 
  403914:	f2 ff 25 45 58 01 00 	bnd jmpq *0x15845(%rip)        # 419160 <__cxa_atexit@GLIBC_2.2.5>
  40391b:	0f 1f 44 00 00       	nopl   0x0(%rax,%rax,1)

0000000000403920 <_ZNSt13basic_filebufIcSt11char_traitsIcEE4openEPKcSt13_Ios_Openmode@plt>:
  403920:	f3 0f 1e fa          	endbr64 
  403924:	f2 ff 25 3d 58 01 00 	bnd jmpq *0x1583d(%rip)        # 419168 <_ZNSt13basic_filebufIcSt11char_traitsIcEE4openEPKcSt13_Ios_Openmode@GLIBCXX_3.4>
  40392b:	0f 1f 44 00 00       	nopl   0x0(%rax,%rax,1)

0000000000403930 <clock_gettime@plt>:
  403930:	f3 0f 1e fa          	endbr64 
  403934:	f2 ff 25 35 58 01 00 	bnd jmpq *0x15835(%rip)        # 419170 <clock_gettime@GLIBC_2.17>
  40393b:	0f 1f 44 00 00       	nopl   0x0(%rax,%rax,1)

0000000000403940 <_ZdlPv@plt>:
  403940:	f3 0f 1e fa          	endbr64 
  403944:	f2 ff 25 2d 58 01 00 	bnd jmpq *0x1582d(%rip)        # 419178 <_ZdlPv@GLIBCXX_3.4>
  40394b:	0f 1f 44 00 00       	nopl   0x0(%rax,%rax,1)

0000000000403950 <_ZNSo9_M_insertIlEERSoT_@plt>:
  403950:	f3 0f 1e fa          	endbr64 
  403954:	f2 ff 25 25 58 01 00 	bnd jmpq *0x15825(%rip)        # 419180 <_ZNSo9_M_insertIlEERSoT_@GLIBCXX_3.4.9>
  40395b:	0f 1f 44 00 00       	nopl   0x0(%rax,%rax,1)

0000000000403960 <__isoc99_sscanf@plt>:
  403960:	f3 0f 1e fa          	endbr64 
  403964:	f2 ff 25 1d 58 01 00 	bnd jmpq *0x1581d(%rip)        # 419188 <__isoc99_sscanf@GLIBC_2.7>
  40396b:	0f 1f 44 00 00       	nopl   0x0(%rax,%rax,1)

0000000000403970 <fclose@plt>:
  403970:	f3 0f 1e fa          	endbr64 
  403974:	f2 ff 25 15 58 01 00 	bnd jmpq *0x15815(%rip)        # 419190 <fclose@GLIBC_2.2.5>
  40397b:	0f 1f 44 00 00       	nopl   0x0(%rax,%rax,1)

0000000000403980 <_Znwm@plt>:
  403980:	f3 0f 1e fa          	endbr64 
  403984:	f2 ff 25 0d 58 01 00 	bnd jmpq *0x1580d(%rip)        # 419198 <_Znwm@GLIBCXX_3.4>
  40398b:	0f 1f 44 00 00       	nopl   0x0(%rax,%rax,1)

0000000000403990 <_ZNSi10_M_extractIlEERSiRT_@plt>:
  403990:	f3 0f 1e fa          	endbr64 
  403994:	f2 ff 25 05 58 01 00 	bnd jmpq *0x15805(%rip)        # 4191a0 <_ZNSi10_M_extractIlEERSiRT_@GLIBCXX_3.4.9>
  40399b:	0f 1f 44 00 00       	nopl   0x0(%rax,%rax,1)

00000000004039a0 <_ZNSt13basic_filebufIcSt11char_traitsIcEEC1Ev@plt>:
  4039a0:	f3 0f 1e fa          	endbr64 
  4039a4:	f2 ff 25 fd 57 01 00 	bnd jmpq *0x157fd(%rip)        # 4191a8 <_ZNSt13basic_filebufIcSt11char_traitsIcEEC1Ev@GLIBCXX_3.4>
  4039ab:	0f 1f 44 00 00       	nopl   0x0(%rax,%rax,1)

00000000004039b0 <GOMP_loop_nonmonotonic_dynamic_next@plt>:
  4039b0:	f3 0f 1e fa          	endbr64 
  4039b4:	f2 ff 25 f5 57 01 00 	bnd jmpq *0x157f5(%rip)        # 4191b0 <GOMP_loop_nonmonotonic_dynamic_next@VERSION>
  4039bb:	0f 1f 44 00 00       	nopl   0x0(%rax,%rax,1)

00000000004039c0 <__stack_chk_fail@plt>:
  4039c0:	f3 0f 1e fa          	endbr64 
  4039c4:	f2 ff 25 ed 57 01 00 	bnd jmpq *0x157ed(%rip)        # 4191b8 <__stack_chk_fail@GLIBC_2.4>
  4039cb:	0f 1f 44 00 00       	nopl   0x0(%rax,%rax,1)

00000000004039d0 <_ZSt16__ostream_insertIcSt11char_traitsIcEERSt13basic_ostreamIT_T0_ES6_PKS3_l@plt>:
  4039d0:	f3 0f 1e fa          	endbr64 
  4039d4:	f2 ff 25 e5 57 01 00 	bnd jmpq *0x157e5(%rip)        # 4191c0 <_ZSt16__ostream_insertIcSt11char_traitsIcEERSt13basic_ostreamIT_T0_ES6_PKS3_l@GLIBCXX_3.4.9>
  4039db:	0f 1f 44 00 00       	nopl   0x0(%rax,%rax,1)

00000000004039e0 <_ZNKSt5ctypeIcE13_M_widen_initEv@plt>:
  4039e0:	f3 0f 1e fa          	endbr64 
  4039e4:	f2 ff 25 dd 57 01 00 	bnd jmpq *0x157dd(%rip)        # 4191c8 <_ZNKSt5ctypeIcE13_M_widen_initEv@GLIBCXX_3.4.11>
  4039eb:	0f 1f 44 00 00       	nopl   0x0(%rax,%rax,1)

00000000004039f0 <omp_get_thread_num@plt>:
  4039f0:	f3 0f 1e fa          	endbr64 
  4039f4:	f2 ff 25 d5 57 01 00 	bnd jmpq *0x157d5(%rip)        # 4191d0 <omp_get_thread_num@VERSION>
  4039fb:	0f 1f 44 00 00       	nopl   0x0(%rax,%rax,1)

0000000000403a00 <_ZNSt7__cxx1112basic_stringIcSt11char_traitsIcESaIcEE12_M_constructEmc@plt>:
  403a00:	f3 0f 1e fa          	endbr64 
  403a04:	f2 ff 25 cd 57 01 00 	bnd jmpq *0x157cd(%rip)        # 4191d8 <_ZNSt7__cxx1112basic_stringIcSt11char_traitsIcESaIcEE12_M_constructEmc@GLIBCXX_3.4.21>
  403a0b:	0f 1f 44 00 00       	nopl   0x0(%rax,%rax,1)

0000000000403a10 <fopen@plt>:
  403a10:	f3 0f 1e fa          	endbr64 
  403a14:	f2 ff 25 c5 57 01 00 	bnd jmpq *0x157c5(%rip)        # 4191e0 <fopen@GLIBC_2.2.5>
  403a1b:	0f 1f 44 00 00       	nopl   0x0(%rax,%rax,1)

0000000000403a20 <GOMP_barrier@plt>:
  403a20:	f3 0f 1e fa          	endbr64 
  403a24:	f2 ff 25 bd 57 01 00 	bnd jmpq *0x157bd(%rip)        # 4191e8 <GOMP_barrier@VERSION>
  403a2b:	0f 1f 44 00 00       	nopl   0x0(%rax,%rax,1)

0000000000403a30 <exit@plt>:
  403a30:	f3 0f 1e fa          	endbr64 
  403a34:	f2 ff 25 b5 57 01 00 	bnd jmpq *0x157b5(%rip)        # 4191f0 <exit@GLIBC_2.2.5>
  403a3b:	0f 1f 44 00 00       	nopl   0x0(%rax,%rax,1)

0000000000403a40 <getenv@plt>:
  403a40:	f3 0f 1e fa          	endbr64 
  403a44:	f2 ff 25 ad 57 01 00 	bnd jmpq *0x157ad(%rip)        # 4191f8 <getenv@GLIBC_2.2.5>
  403a4b:	0f 1f 44 00 00       	nopl   0x0(%rax,%rax,1)

0000000000403a50 <_ZNSi4readEPcl@plt>:
  403a50:	f3 0f 1e fa          	endbr64 
  403a54:	f2 ff 25 a5 57 01 00 	bnd jmpq *0x157a5(%rip)        # 419200 <_ZNSi4readEPcl@GLIBCXX_3.4>
  403a5b:	0f 1f 44 00 00       	nopl   0x0(%rax,%rax,1)

0000000000403a60 <_ZSt16__throw_bad_castv@plt>:
  403a60:	f3 0f 1e fa          	endbr64 
  403a64:	f2 ff 25 9d 57 01 00 	bnd jmpq *0x1579d(%rip)        # 419208 <_ZSt16__throw_bad_castv@GLIBCXX_3.4>
  403a6b:	0f 1f 44 00 00       	nopl   0x0(%rax,%rax,1)

0000000000403a70 <_ZStrsIcSt11char_traitsIcESaIcEERSt13basic_istreamIT_T0_ES7_RNSt7__cxx1112basic_stringIS4_S5_T1_EE@plt>:
  403a70:	f3 0f 1e fa          	endbr64 
  403a74:	f2 ff 25 95 57 01 00 	bnd jmpq *0x15795(%rip)        # 419210 <_ZStrsIcSt11char_traitsIcESaIcEERSt13basic_istreamIT_T0_ES7_RNSt7__cxx1112basic_stringIS4_S5_T1_EE@GLIBCXX_3.4.21>
  403a7b:	0f 1f 44 00 00       	nopl   0x0(%rax,%rax,1)

0000000000403a80 <_ZdaPv@plt>:
  403a80:	f3 0f 1e fa          	endbr64 
  403a84:	f2 ff 25 8d 57 01 00 	bnd jmpq *0x1578d(%rip)        # 419218 <_ZdaPv@GLIBCXX_3.4>
  403a8b:	0f 1f 44 00 00       	nopl   0x0(%rax,%rax,1)

0000000000403a90 <_ZNSt7__cxx1115basic_stringbufIcSt11char_traitsIcESaIcEE7_M_syncEPcmm@plt>:
  403a90:	f3 0f 1e fa          	endbr64 
  403a94:	f2 ff 25 85 57 01 00 	bnd jmpq *0x15785(%rip)        # 419220 <_ZNSt7__cxx1115basic_stringbufIcSt11char_traitsIcESaIcEE7_M_syncEPcmm@GLIBCXX_3.4.21>
  403a9b:	0f 1f 44 00 00       	nopl   0x0(%rax,%rax,1)

0000000000403aa0 <_ZStrsIcSt11char_traitsIcEERSt13basic_istreamIT_T0_ES6_RS3_@plt>:
  403aa0:	f3 0f 1e fa          	endbr64 
  403aa4:	f2 ff 25 7d 57 01 00 	bnd jmpq *0x1577d(%rip)        # 419228 <_ZStrsIcSt11char_traitsIcEERSt13basic_istreamIT_T0_ES6_RS3_@GLIBCXX_3.4>
  403aab:	0f 1f 44 00 00       	nopl   0x0(%rax,%rax,1)

0000000000403ab0 <_ZNSt9basic_iosIcSt11char_traitsIcEE4initEPSt15basic_streambufIcS1_E@plt>:
  403ab0:	f3 0f 1e fa          	endbr64 
  403ab4:	f2 ff 25 75 57 01 00 	bnd jmpq *0x15775(%rip)        # 419230 <_ZNSt9basic_iosIcSt11char_traitsIcEE4initEPSt15basic_streambufIcS1_E@GLIBCXX_3.4>
  403abb:	0f 1f 44 00 00       	nopl   0x0(%rax,%rax,1)

0000000000403ac0 <strtol@plt>:
  403ac0:	f3 0f 1e fa          	endbr64 
  403ac4:	f2 ff 25 6d 57 01 00 	bnd jmpq *0x1576d(%rip)        # 419238 <strtol@GLIBC_2.2.5>
  403acb:	0f 1f 44 00 00       	nopl   0x0(%rax,%rax,1)

0000000000403ad0 <ioctl@plt>:
  403ad0:	f3 0f 1e fa          	endbr64 
  403ad4:	f2 ff 25 65 57 01 00 	bnd jmpq *0x15765(%rip)        # 419240 <ioctl@GLIBC_2.2.5>
  403adb:	0f 1f 44 00 00       	nopl   0x0(%rax,%rax,1)

0000000000403ae0 <_ZNSt6localeD1Ev@plt>:
  403ae0:	f3 0f 1e fa          	endbr64 
  403ae4:	f2 ff 25 5d 57 01 00 	bnd jmpq *0x1575d(%rip)        # 419248 <_ZNSt6localeD1Ev@GLIBCXX_3.4>
  403aeb:	0f 1f 44 00 00       	nopl   0x0(%rax,%rax,1)

0000000000403af0 <__cxa_throw_bad_array_new_length@plt>:
  403af0:	f3 0f 1e fa          	endbr64 
  403af4:	f2 ff 25 55 57 01 00 	bnd jmpq *0x15755(%rip)        # 419250 <__cxa_throw_bad_array_new_length@CXXABI_1.3.8>
  403afb:	0f 1f 44 00 00       	nopl   0x0(%rax,%rax,1)

0000000000403b00 <read@plt>:
  403b00:	f3 0f 1e fa          	endbr64 
  403b04:	f2 ff 25 4d 57 01 00 	bnd jmpq *0x1574d(%rip)        # 419258 <read@GLIBC_2.2.5>
  403b0b:	0f 1f 44 00 00       	nopl   0x0(%rax,%rax,1)

0000000000403b10 <omp_get_num_threads@plt>:
  403b10:	f3 0f 1e fa          	endbr64 
  403b14:	f2 ff 25 45 57 01 00 	bnd jmpq *0x15745(%rip)        # 419260 <omp_get_num_threads@VERSION>
  403b1b:	0f 1f 44 00 00       	nopl   0x0(%rax,%rax,1)

0000000000403b20 <_ZSt20__throw_out_of_rangePKc@plt>:
  403b20:	f3 0f 1e fa          	endbr64 
  403b24:	f2 ff 25 3d 57 01 00 	bnd jmpq *0x1573d(%rip)        # 419268 <_ZSt20__throw_out_of_rangePKc@GLIBCXX_3.4>
  403b2b:	0f 1f 44 00 00       	nopl   0x0(%rax,%rax,1)

0000000000403b30 <getpid@plt>:
  403b30:	f3 0f 1e fa          	endbr64 
  403b34:	f2 ff 25 35 57 01 00 	bnd jmpq *0x15735(%rip)        # 419270 <getpid@GLIBC_2.2.5>
  403b3b:	0f 1f 44 00 00       	nopl   0x0(%rax,%rax,1)

0000000000403b40 <fread@plt>:
  403b40:	f3 0f 1e fa          	endbr64 
  403b44:	f2 ff 25 2d 57 01 00 	bnd jmpq *0x1572d(%rip)        # 419278 <fread@GLIBC_2.2.5>
  403b4b:	0f 1f 44 00 00       	nopl   0x0(%rax,%rax,1)

0000000000403b50 <_ZSt24__throw_out_of_range_fmtPKcz@plt>:
  403b50:	f3 0f 1e fa          	endbr64 
  403b54:	f2 ff 25 25 57 01 00 	bnd jmpq *0x15725(%rip)        # 419280 <_ZSt24__throw_out_of_range_fmtPKcz@GLIBCXX_3.4.20>
  403b5b:	0f 1f 44 00 00       	nopl   0x0(%rax,%rax,1)

0000000000403b60 <_ZNSt8ios_base4InitC1Ev@plt>:
  403b60:	f3 0f 1e fa          	endbr64 
  403b64:	f2 ff 25 1d 57 01 00 	bnd jmpq *0x1571d(%rip)        # 419288 <_ZNSt8ios_base4InitC1Ev@GLIBCXX_3.4>
  403b6b:	0f 1f 44 00 00       	nopl   0x0(%rax,%rax,1)

0000000000403b70 <_ZNSt13basic_filebufIcSt11char_traitsIcEED1Ev@plt>:
  403b70:	f3 0f 1e fa          	endbr64 
  403b74:	f2 ff 25 15 57 01 00 	bnd jmpq *0x15715(%rip)        # 419290 <_ZNSt13basic_filebufIcSt11char_traitsIcEED1Ev@GLIBCXX_3.4>
  403b7b:	0f 1f 44 00 00       	nopl   0x0(%rax,%rax,1)

0000000000403b80 <_ZNSt7__cxx1112basic_stringIcSt11char_traitsIcESaIcEE7reserveEm@plt>:
  403b80:	f3 0f 1e fa          	endbr64 
  403b84:	f2 ff 25 0d 57 01 00 	bnd jmpq *0x1570d(%rip)        # 419298 <_ZNSt7__cxx1112basic_stringIcSt11char_traitsIcESaIcEE7reserveEm@GLIBCXX_3.4.21>
  403b8b:	0f 1f 44 00 00       	nopl   0x0(%rax,%rax,1)

0000000000403b90 <fgets@plt>:
  403b90:	f3 0f 1e fa          	endbr64 
  403b94:	f2 ff 25 05 57 01 00 	bnd jmpq *0x15705(%rip)        # 4192a0 <fgets@GLIBC_2.2.5>
  403b9b:	0f 1f 44 00 00       	nopl   0x0(%rax,%rax,1)

0000000000403ba0 <_ZNSo9_M_insertIdEERSoT_@plt>:
  403ba0:	f3 0f 1e fa          	endbr64 
  403ba4:	f2 ff 25 fd 56 01 00 	bnd jmpq *0x156fd(%rip)        # 4192a8 <_ZNSo9_M_insertIdEERSoT_@GLIBCXX_3.4.9>
  403bab:	0f 1f 44 00 00       	nopl   0x0(%rax,%rax,1)

0000000000403bb0 <gettimeofday@plt>:
  403bb0:	f3 0f 1e fa          	endbr64 
  403bb4:	f2 ff 25 f5 56 01 00 	bnd jmpq *0x156f5(%rip)        # 4192b0 <gettimeofday@GLIBC_2.2.5>
  403bbb:	0f 1f 44 00 00       	nopl   0x0(%rax,%rax,1)

0000000000403bc0 <memmove@plt>:
  403bc0:	f3 0f 1e fa          	endbr64 
  403bc4:	f2 ff 25 ed 56 01 00 	bnd jmpq *0x156ed(%rip)        # 4192b8 <memmove@GLIBC_2.2.5>
  403bcb:	0f 1f 44 00 00       	nopl   0x0(%rax,%rax,1)

0000000000403bd0 <__cxa_end_catch@plt>:
  403bd0:	f3 0f 1e fa          	endbr64 
  403bd4:	f2 ff 25 e5 56 01 00 	bnd jmpq *0x156e5(%rip)        # 4192c0 <__cxa_end_catch@CXXABI_1.3>
  403bdb:	0f 1f 44 00 00       	nopl   0x0(%rax,%rax,1)

0000000000403be0 <realloc@plt>:
  403be0:	f3 0f 1e fa          	endbr64 
  403be4:	f2 ff 25 dd 56 01 00 	bnd jmpq *0x156dd(%rip)        # 4192c8 <realloc@GLIBC_2.2.5>
  403beb:	0f 1f 44 00 00       	nopl   0x0(%rax,%rax,1)

0000000000403bf0 <__fprintf_chk@plt>:
  403bf0:	f3 0f 1e fa          	endbr64 
  403bf4:	f2 ff 25 d5 56 01 00 	bnd jmpq *0x156d5(%rip)        # 4192d0 <__fprintf_chk@GLIBC_2.3.4>
  403bfb:	0f 1f 44 00 00       	nopl   0x0(%rax,%rax,1)

0000000000403c00 <_ZNSt7__cxx1119basic_istringstreamIcSt11char_traitsIcESaIcEEC1ERKNS_12basic_stringIcS2_S3_EESt13_Ios_Openmode@plt>:
  403c00:	f3 0f 1e fa          	endbr64 
  403c04:	f2 ff 25 cd 56 01 00 	bnd jmpq *0x156cd(%rip)        # 4192d8 <_ZNSt7__cxx1119basic_istringstreamIcSt11char_traitsIcESaIcEEC1ERKNS_12basic_stringIcS2_S3_EESt13_Ios_Openmode@GLIBCXX_3.4.21>
  403c0b:	0f 1f 44 00 00       	nopl   0x0(%rax,%rax,1)

0000000000403c10 <_ZNSt9basic_iosIcSt11char_traitsIcEE5clearESt12_Ios_Iostate@plt>:
  403c10:	f3 0f 1e fa          	endbr64 
  403c14:	f2 ff 25 c5 56 01 00 	bnd jmpq *0x156c5(%rip)        # 4192e0 <_ZNSt9basic_iosIcSt11char_traitsIcEE5clearESt12_Ios_Iostate@GLIBCXX_3.4>
  403c1b:	0f 1f 44 00 00       	nopl   0x0(%rax,%rax,1)

0000000000403c20 <_ZNSolsEi@plt>:
  403c20:	f3 0f 1e fa          	endbr64 
  403c24:	f2 ff 25 bd 56 01 00 	bnd jmpq *0x156bd(%rip)        # 4192e8 <_ZNSolsEi@GLIBCXX_3.4>
  403c2b:	0f 1f 44 00 00       	nopl   0x0(%rax,%rax,1)

0000000000403c30 <GOMP_parallel@plt>:
  403c30:	f3 0f 1e fa          	endbr64 
  403c34:	f2 ff 25 b5 56 01 00 	bnd jmpq *0x156b5(%rip)        # 4192f0 <GOMP_parallel@VERSION>
  403c3b:	0f 1f 44 00 00       	nopl   0x0(%rax,%rax,1)

0000000000403c40 <_Unwind_Resume@plt>:
  403c40:	f3 0f 1e fa          	endbr64 
  403c44:	f2 ff 25 ad 56 01 00 	bnd jmpq *0x156ad(%rip)        # 4192f8 <_Unwind_Resume@GCC_3.0>
  403c4b:	0f 1f 44 00 00       	nopl   0x0(%rax,%rax,1)

0000000000403c50 <_ZNSt7__cxx1112basic_stringIcSt11char_traitsIcESaIcEE9_M_createERmm@plt>:
  403c50:	f3 0f 1e fa          	endbr64 
  403c54:	f2 ff 25 a5 56 01 00 	bnd jmpq *0x156a5(%rip)        # 419300 <_ZNSt7__cxx1112basic_stringIcSt11char_traitsIcESaIcEE9_M_createERmm@GLIBCXX_3.4.21>
  403c5b:	0f 1f 44 00 00       	nopl   0x0(%rax,%rax,1)

0000000000403c60 <__isoc99_fscanf@plt>:
  403c60:	f3 0f 1e fa          	endbr64 
  403c64:	f2 ff 25 9d 56 01 00 	bnd jmpq *0x1569d(%rip)        # 419308 <__isoc99_fscanf@GLIBC_2.7>
  403c6b:	0f 1f 44 00 00       	nopl   0x0(%rax,%rax,1)

0000000000403c70 <_ZSt7getlineIcSt11char_traitsIcESaIcEERSt13basic_istreamIT_T0_ES7_RNSt7__cxx1112basic_stringIS4_S5_T1_EES4_@plt>:
  403c70:	f3 0f 1e fa          	endbr64 
  403c74:	f2 ff 25 95 56 01 00 	bnd jmpq *0x15695(%rip)        # 419310 <_ZSt7getlineIcSt11char_traitsIcESaIcEERSt13basic_istreamIT_T0_ES7_RNSt7__cxx1112basic_stringIS4_S5_T1_EES4_@GLIBCXX_3.4.21>
  403c7b:	0f 1f 44 00 00       	nopl   0x0(%rax,%rax,1)

0000000000403c80 <_ZNSt12__basic_fileIcED1Ev@plt>:
  403c80:	f3 0f 1e fa          	endbr64 
  403c84:	f2 ff 25 8d 56 01 00 	bnd jmpq *0x1568d(%rip)        # 419318 <_ZNSt12__basic_fileIcED1Ev@GLIBCXX_3.4>
  403c8b:	0f 1f 44 00 00       	nopl   0x0(%rax,%rax,1)

0000000000403c90 <fwrite@plt>:
  403c90:	f3 0f 1e fa          	endbr64 
  403c94:	f2 ff 25 85 56 01 00 	bnd jmpq *0x15685(%rip)        # 419320 <fwrite@GLIBC_2.2.5>
  403c9b:	0f 1f 44 00 00       	nopl   0x0(%rax,%rax,1)

0000000000403ca0 <close@plt>:
  403ca0:	f3 0f 1e fa          	endbr64 
  403ca4:	f2 ff 25 7d 56 01 00 	bnd jmpq *0x1567d(%rip)        # 419328 <close@GLIBC_2.2.5>
  403cab:	0f 1f 44 00 00       	nopl   0x0(%rax,%rax,1)

0000000000403cb0 <_ZNKSt7__cxx1112basic_stringIcSt11char_traitsIcESaIcEE5rfindEcm@plt>:
  403cb0:	f3 0f 1e fa          	endbr64 
  403cb4:	f2 ff 25 75 56 01 00 	bnd jmpq *0x15675(%rip)        # 419330 <_ZNKSt7__cxx1112basic_stringIcSt11char_traitsIcESaIcEE5rfindEcm@GLIBCXX_3.4.21>
  403cbb:	0f 1f 44 00 00       	nopl   0x0(%rax,%rax,1)

0000000000403cc0 <_ZNSt6localeC1Ev@plt>:
  403cc0:	f3 0f 1e fa          	endbr64 
  403cc4:	f2 ff 25 6d 56 01 00 	bnd jmpq *0x1566d(%rip)        # 419338 <_ZNSt6localeC1Ev@GLIBCXX_3.4>
  403ccb:	0f 1f 44 00 00       	nopl   0x0(%rax,%rax,1)

Disassembly of section .text:

0000000000403cd0 <_Z10PrintLabelRKNSt7__cxx1112basic_stringIcSt11char_traitsIcESaIcEEES6_.cold>:
_ZNKSt7__cxx1112basic_stringIcSt11char_traitsIcESaIcEE7_M_dataEv():
/usr/include/c++/10/bits/basic_string.h:195 (discriminator 1)
      _M_length(size_type __length)
      { _M_string_length = __length; }

      pointer
      _M_data() const
      { return _M_dataplus._M_p; }
  403cd0:	48 8b 7c 24 10       	mov    0x10(%rsp),%rdi
_ZNSt7__cxx1112basic_stringIcSt11char_traitsIcESaIcEE10_M_disposeEv():
/usr/include/c++/10/bits/basic_string.h:239 (discriminator 1)
      _M_create(size_type&, size_type);

      void
      _M_dispose()
      {
	if (!_M_is_local())
  403cd5:	48 39 df             	cmp    %rbx,%rdi
  403cd8:	74 05                	je     403cdf <_Z10PrintLabelRKNSt7__cxx1112basic_stringIcSt11char_traitsIcESaIcEEES6_.cold+0xf>
_ZN9__gnu_cxx13new_allocatorIcE10deallocateEPcm():
/usr/include/c++/10/ext/new_allocator.h:139
# endif
			      std::align_val_t(alignof(_Tp)));
	    return;
	  }
#endif
	::operator delete(__p
  403cda:	e8 61 fc ff ff       	callq  403940 <_ZdlPv@plt>
_ZN9__gnu_cxx13new_allocatorIcED4Ev():
/usr/include/c++/10/ext/new_allocator.h:89
      ~new_allocator() _GLIBCXX_USE_NOEXCEPT { }
  403cdf:	48 89 ef             	mov    %rbp,%rdi
  403ce2:	e8 59 ff ff ff       	callq  403c40 <_Unwind_Resume@plt>

0000000000403ce7 <_Z9PrintTimeRKNSt7__cxx1112basic_stringIcSt11char_traitsIcESaIcEEEd.cold>:
_ZNKSt7__cxx1112basic_stringIcSt11char_traitsIcESaIcEE7_M_dataEv():
/usr/include/c++/10/bits/basic_string.h:195 (discriminator 1)
      { return _M_dataplus._M_p; }
  403ce7:	48 8b 7c 24 10       	mov    0x10(%rsp),%rdi
_ZNSt7__cxx1112basic_stringIcSt11char_traitsIcESaIcEE10_M_disposeEv():
/usr/include/c++/10/bits/basic_string.h:239 (discriminator 1)
	if (!_M_is_local())
  403cec:	48 39 df             	cmp    %rbx,%rdi
  403cef:	74 05                	je     403cf6 <_Z9PrintTimeRKNSt7__cxx1112basic_stringIcSt11char_traitsIcESaIcEEEd.cold+0xf>
_ZN9__gnu_cxx13new_allocatorIcE10deallocateEPcm():
/usr/include/c++/10/ext/new_allocator.h:139
	::operator delete(__p
  403cf1:	e8 4a fc ff ff       	callq  403940 <_ZdlPv@plt>
_ZN9__gnu_cxx13new_allocatorIcED4Ev():
/usr/include/c++/10/ext/new_allocator.h:89
      ~new_allocator() _GLIBCXX_USE_NOEXCEPT { }
  403cf6:	48 89 ef             	mov    %rbp,%rdi
  403cf9:	e8 42 ff ff ff       	callq  403c40 <_Unwind_Resume@plt>

0000000000403cfe <_Z9PrintStepRKNSt7__cxx1112basic_stringIcSt11char_traitsIcESaIcEEEl.cold>:
_ZNKSt7__cxx1112basic_stringIcSt11char_traitsIcESaIcEE7_M_dataEv():
/usr/include/c++/10/bits/basic_string.h:195 (discriminator 1)
      { return _M_dataplus._M_p; }
  403cfe:	48 8b 7c 24 10       	mov    0x10(%rsp),%rdi
_ZNSt7__cxx1112basic_stringIcSt11char_traitsIcESaIcEE10_M_disposeEv():
/usr/include/c++/10/bits/basic_string.h:239 (discriminator 1)
	if (!_M_is_local())
  403d03:	48 39 df             	cmp    %rbx,%rdi
  403d06:	74 05                	je     403d0d <_Z9PrintStepRKNSt7__cxx1112basic_stringIcSt11char_traitsIcESaIcEEEl.cold+0xf>
_ZN9__gnu_cxx13new_allocatorIcE10deallocateEPcm():
/usr/include/c++/10/ext/new_allocator.h:139
	::operator delete(__p
  403d08:	e8 33 fc ff ff       	callq  403940 <_ZdlPv@plt>
_ZN9__gnu_cxx13new_allocatorIcED4Ev():
/usr/include/c++/10/ext/new_allocator.h:89
      ~new_allocator() _GLIBCXX_USE_NOEXCEPT { }
  403d0d:	48 89 ef             	mov    %rbp,%rdi
  403d10:	e8 2b ff ff ff       	callq  403c40 <_Unwind_Resume@plt>

0000000000403d15 <_Z9PrintStepidl.cold>:
_ZNKSt7__cxx1112basic_stringIcSt11char_traitsIcESaIcEE7_M_dataEv():
/usr/include/c++/10/bits/basic_string.h:195 (discriminator 1)
      { return _M_dataplus._M_p; }
  403d15:	48 8b 7c 24 10       	mov    0x10(%rsp),%rdi
_ZNSt7__cxx1112basic_stringIcSt11char_traitsIcESaIcEE10_M_disposeEv():
/usr/include/c++/10/bits/basic_string.h:239 (discriminator 1)
	if (!_M_is_local())
  403d1a:	48 39 ef             	cmp    %rbp,%rdi
  403d1d:	74 05                	je     403d24 <_Z9PrintStepidl.cold+0xf>
_ZN9__gnu_cxx13new_allocatorIcE10deallocateEPcm():
/usr/include/c++/10/ext/new_allocator.h:139
	::operator delete(__p
  403d1f:	e8 1c fc ff ff       	callq  403940 <_ZdlPv@plt>
_ZN9__gnu_cxx13new_allocatorIcED4Ev():
/usr/include/c++/10/ext/new_allocator.h:89
      ~new_allocator() _GLIBCXX_USE_NOEXCEPT { }
  403d24:	4c 89 e7             	mov    %r12,%rdi
  403d27:	e8 14 ff ff ff       	callq  403c40 <_Unwind_Resume@plt>

0000000000403d2c <_Z14PageRankPullGSRK8CSRGraphIiiLb1EEidb.cold>:
_ZN7pvectorIfEC4Em():
/home/aliha951/ipdps-artifact/gapbs-master/src/pvector.h:30
  typedef T_* iterator;

  pvector() : start_(nullptr), end_size_(nullptr), end_capacity_(nullptr) {}

  explicit pvector(size_t num_elements) {
    start_ = new T_[num_elements];
  403d2c:	e8 bf fd ff ff       	callq  403af0 <__cxa_throw_bad_array_new_length@plt>
_ZNKSt7__cxx1112basic_stringIcSt11char_traitsIcESaIcEE7_M_dataEv():
/usr/include/c++/10/bits/basic_string.h:195
      { return _M_dataplus._M_p; }
  403d31:	48 8b bc 24 a0 00 00 	mov    0xa0(%rsp),%rdi
  403d38:	00 
_ZNSt7__cxx1112basic_stringIcSt11char_traitsIcESaIcEE10_M_disposeEv():
/usr/include/c++/10/bits/basic_string.h:239
	if (!_M_is_local())
  403d39:	48 3b 7c 24 38       	cmp    0x38(%rsp),%rdi
  403d3e:	74 05                	je     403d45 <_Z14PageRankPullGSRK8CSRGraphIiiLb1EEidb.cold+0x19>
_ZN9__gnu_cxx13new_allocatorIcE10deallocateEPcm():
/usr/include/c++/10/ext/new_allocator.h:139
	::operator delete(__p
  403d40:	e8 fb fb ff ff       	callq  403940 <_ZdlPv@plt>
_ZN7pvectorIfE16ReleaseResourcesEv():
/home/aliha951/ipdps-artifact/gapbs-master/src/pvector.h:73
    }
    return *this;
  }

  void ReleaseResources(){
    if (start_ != nullptr) {
  403d45:	48 8b 7c 24 50       	mov    0x50(%rsp),%rdi
  403d4a:	48 85 ff             	test   %rdi,%rdi
  403d4d:	74 05                	je     403d54 <_Z14PageRankPullGSRK8CSRGraphIiiLb1EEidb.cold+0x28>
/home/aliha951/ipdps-artifact/gapbs-master/src/pvector.h:74
      delete[] start_;
  403d4f:	e8 2c fd ff ff       	callq  403a80 <_ZdaPv@plt>
/home/aliha951/ipdps-artifact/gapbs-master/src/pvector.h:73
    if (start_ != nullptr) {
  403d54:	48 8b 44 24 48       	mov    0x48(%rsp),%rax
  403d59:	48 8b 38             	mov    (%rax),%rdi
  403d5c:	48 85 ff             	test   %rdi,%rdi
  403d5f:	74 05                	je     403d66 <_Z14PageRankPullGSRK8CSRGraphIiiLb1EEidb.cold+0x3a>
/home/aliha951/ipdps-artifact/gapbs-master/src/pvector.h:74
      delete[] start_;
  403d61:	e8 1a fd ff ff       	callq  403a80 <_ZdaPv@plt>
  403d66:	48 89 ef             	mov    %rbp,%rdi
  403d69:	e8 d2 fe ff ff       	callq  403c40 <_Unwind_Resume@plt>
_ZN7pvectorIfEC4Em():
/home/aliha951/ipdps-artifact/gapbs-master/src/pvector.h:30
    start_ = new T_[num_elements];
  403d6e:	e8 7d fd ff ff       	callq  403af0 <__cxa_throw_bad_array_new_length@plt>
  403d73:	f3 0f 1e fa          	endbr64 
_ZN7pvectorIfE16ReleaseResourcesEv():
/home/aliha951/ipdps-artifact/gapbs-master/src/pvector.h:73
    if (start_ != nullptr) {
  403d77:	48 89 c5             	mov    %rax,%rbp
  403d7a:	eb d8                	jmp    403d54 <_Z14PageRankPullGSRK8CSRGraphIiiLb1EEidb.cold+0x28>

0000000000403d7c <_Z10PRVerifierRK8CSRGraphIiiLb1EERK7pvectorIfEd.cold>:
_ZN7pvectorIfEC4Em():
/home/aliha951/ipdps-artifact/gapbs-master/src/pvector.h:30
    start_ = new T_[num_elements];
  403d7c:	e8 6f fd ff ff       	callq  403af0 <__cxa_throw_bad_array_new_length@plt>
_ZNKSt7__cxx1112basic_stringIcSt11char_traitsIcESaIcEE7_M_dataEv():
/usr/include/c++/10/bits/basic_string.h:195 (discriminator 3)
      { return _M_dataplus._M_p; }
  403d81:	48 8b 7c 24 40       	mov    0x40(%rsp),%rdi
_ZNSt7__cxx1112basic_stringIcSt11char_traitsIcESaIcEE10_M_disposeEv():
/usr/include/c++/10/bits/basic_string.h:239 (discriminator 3)
	if (!_M_is_local())
  403d86:	48 39 df             	cmp    %rbx,%rdi
  403d89:	74 05                	je     403d90 <_Z10PRVerifierRK8CSRGraphIiiLb1EERK7pvectorIfEd.cold+0x14>
_ZN9__gnu_cxx13new_allocatorIcE10deallocateEPcm():
/usr/include/c++/10/ext/new_allocator.h:139
  403d8b:	e8 b0 fb ff ff       	callq  403940 <_ZdlPv@plt>
_ZN7pvectorIfE16ReleaseResourcesEv():
/home/aliha951/ipdps-artifact/gapbs-master/src/pvector.h:73
    if (start_ != nullptr) {
  403d90:	48 8b 7c 24 20       	mov    0x20(%rsp),%rdi
  403d95:	48 85 ff             	test   %rdi,%rdi
  403d98:	74 05                	je     403d9f <_Z10PRVerifierRK8CSRGraphIiiLb1EERK7pvectorIfEd.cold+0x23>
/home/aliha951/ipdps-artifact/gapbs-master/src/pvector.h:74
      delete[] start_;
  403d9a:	e8 e1 fc ff ff       	callq  403a80 <_ZdaPv@plt>
  403d9f:	48 89 ef             	mov    %rbp,%rdi
  403da2:	e8 99 fe ff ff       	callq  403c40 <_Unwind_Resume@plt>

0000000000403da7 <_Z14PrintTopScoresRK8CSRGraphIiiLb1EERK7pvectorIfE.cold>:
_ZNSt6vectorISt4pairIfiESaIS1_EED4Ev():
/usr/include/c++/10/bits/stl_vector.h:680
       *  not touched in any way.  Managing the pointer is the user's
       *  responsibility.
       */
      ~vector() _GLIBCXX_NOEXCEPT
      {
	std::_Destroy(this->_M_impl._M_start, this->_M_impl._M_finish,
  403da7:	48 8b 7c 24 20       	mov    0x20(%rsp),%rdi
_ZNSt12_Vector_baseISt4pairIfiESaIS1_EE13_M_deallocateEPS1_m():
/usr/include/c++/10/bits/stl_vector.h:353
	if (__p)
  403dac:	48 85 ff             	test   %rdi,%rdi
  403daf:	74 05                	je     403db6 <_Z14PrintTopScoresRK8CSRGraphIiiLb1EERK7pvectorIfE.cold+0xf>
_ZN9__gnu_cxx13new_allocatorISt4pairIfiEE10deallocateEPS2_m():
/usr/include/c++/10/ext/new_allocator.h:139
  403db1:	e8 8a fb ff ff       	callq  403940 <_ZdlPv@plt>
_ZNSt6vectorISt4pairIifESaIS1_EED4Ev():
/usr/include/c++/10/bits/stl_vector.h:680
	std::_Destroy(this->_M_impl._M_start, this->_M_impl._M_finish,
  403db6:	48 8b 3c 24          	mov    (%rsp),%rdi
_ZNSt12_Vector_baseISt4pairIifESaIS1_EE13_M_deallocateEPS1_m():
/usr/include/c++/10/bits/stl_vector.h:353
	if (__p)
  403dba:	48 85 ff             	test   %rdi,%rdi
  403dbd:	74 05                	je     403dc4 <_Z14PrintTopScoresRK8CSRGraphIiiLb1EERK7pvectorIfE.cold+0x1d>
_ZN9__gnu_cxx13new_allocatorISt4pairIifEE10deallocateEPS2_m():
/usr/include/c++/10/ext/new_allocator.h:139
  403dbf:	e8 7c fb ff ff       	callq  403940 <_ZdlPv@plt>
_ZN9__gnu_cxx13new_allocatorISt4pairIifEED4Ev():
/usr/include/c++/10/ext/new_allocator.h:89
      ~new_allocator() _GLIBCXX_USE_NOEXCEPT { }
  403dc4:	48 89 ef             	mov    %rbp,%rdi
  403dc7:	e8 74 fe ff ff       	callq  403c40 <_Unwind_Resume@plt>

0000000000403dcc <main.cold>:
_ZZN9__gnu_cxx6__stoaIddcJEEET0_PFT_PKT1_PPS3_DpT2_EPKcS5_PmS9_EN11_Save_errnoD4Ev():
/usr/include/c++/10/ext/string_conversions.h:64

      _CharT* __endptr;

      struct _Save_errno {
	_Save_errno() : _M_errno(errno) { errno = 0; }
	~_Save_errno() { if (errno == 0) errno = _M_errno; }
  403dcc:	83 7d 00 00          	cmpl   $0x0,0x0(%rbp)
  403dd0:	75 06                	jne    403dd8 <main.cold+0xc>
  403dd2:	8b 04 24             	mov    (%rsp),%eax
  403dd5:	89 45 00             	mov    %eax,0x0(%rbp)
_ZNKSt7__cxx1112basic_stringIcSt11char_traitsIcESaIcEE7_M_dataEv():
/usr/include/c++/10/bits/basic_string.h:195
      { return _M_dataplus._M_p; }
  403dd8:	48 8b bc 24 e0 00 00 	mov    0xe0(%rsp),%rdi
  403ddf:	00 
_ZNSt7__cxx1112basic_stringIcSt11char_traitsIcESaIcEE10_M_disposeEv():
/usr/include/c++/10/bits/basic_string.h:239
	if (!_M_is_local())
  403de0:	48 39 df             	cmp    %rbx,%rdi
  403de3:	74 05                	je     403dea <main.cold+0x1e>
_ZN9__gnu_cxx13new_allocatorIcE10deallocateEPcm():
/usr/include/c++/10/ext/new_allocator.h:139
	::operator delete(__p
  403de5:	e8 56 fb ff ff       	callq  403940 <_ZdlPv@plt>
_ZN5CLAppD4Ev():
/home/aliha951/ipdps-artifact/gapbs-master/src/command_line.h:140
  int batching_mode() const { return batching_mode_; }
};



class CLApp : public CLBase {
  403dea:	48 8b 7c 24 18       	mov    0x18(%rsp),%rdi
  403def:	48 8d 05 fa 4c 01 00 	lea    0x14cfa(%rip),%rax        # 418af0 <_ZTV5CLApp+0x10>
  403df6:	48 89 84 24 00 01 00 	mov    %rax,0x100(%rsp)
  403dfd:	00 
  403dfe:	e8 6d 5e 00 00       	callq  409c70 <_ZN6CLBaseD1Ev>
  403e03:	4c 89 e7             	mov    %r12,%rdi
  403e06:	e8 35 fe ff ff       	callq  403c40 <_Unwind_Resume@plt>
_ZNKSt7__cxx1112basic_stringIcSt11char_traitsIcESaIcEE7_M_dataEv():
/usr/include/c++/10/bits/basic_string.h:195
      { return _M_dataplus._M_p; }
  403e0b:	48 8b bc 24 e0 00 00 	mov    0xe0(%rsp),%rdi
  403e12:	00 
_ZNSt7__cxx1112basic_stringIcSt11char_traitsIcESaIcEE10_M_disposeEv():
/usr/include/c++/10/bits/basic_string.h:239
	if (!_M_is_local())
  403e13:	48 39 df             	cmp    %rbx,%rdi
  403e16:	74 05                	je     403e1d <main.cold+0x51>
_ZN9__gnu_cxx13new_allocatorIcE10deallocateEPcm():
/usr/include/c++/10/ext/new_allocator.h:139
  403e18:	e8 23 fb ff ff       	callq  403940 <_ZdlPv@plt>
_ZN7pvectorIfE16ReleaseResourcesEv():
/home/aliha951/ipdps-artifact/gapbs-master/src/pvector.h:73
    if (start_ != nullptr) {
  403e1d:	48 8b 7c 24 60       	mov    0x60(%rsp),%rdi
  403e22:	48 85 ff             	test   %rdi,%rdi
  403e25:	74 05                	je     403e2c <main.cold+0x60>
/home/aliha951/ipdps-artifact/gapbs-master/src/pvector.h:74
      delete[] start_;
  403e27:	e8 54 fc ff ff       	callq  403a80 <_ZdaPv@plt>
  403e2c:	48 89 eb             	mov    %rbp,%rbx
_ZN8CSRGraphIiiLb1EED4Ev():
/home/aliha951/ipdps-artifact/gapbs-master/src/graph.h:166
      other.in_index_ = nullptr;
      other.in_neighbors_ = nullptr;
  }

  ~CSRGraph() {
    ReleaseResources();
  403e2f:	4c 89 f7             	mov    %r14,%rdi
  403e32:	49 89 dc             	mov    %rbx,%r12
  403e35:	e8 c6 63 00 00       	callq  40a200 <_ZN8CSRGraphIiiLb1EE16ReleaseResourcesEv>
  403e3a:	eb ae                	jmp    403dea <main.cold+0x1e>
_ZNKSt7__cxx1112basic_stringIcSt11char_traitsIcESaIcEE7_M_dataEv():
/usr/include/c++/10/bits/basic_string.h:195
      { return _M_dataplus._M_p; }
  403e3c:	48 8b bc 24 e0 00 00 	mov    0xe0(%rsp),%rdi
  403e43:	00 
_ZNSt7__cxx1112basic_stringIcSt11char_traitsIcESaIcEE10_M_disposeEv():
/usr/include/c++/10/bits/basic_string.h:239
	if (!_M_is_local())
  403e44:	48 39 df             	cmp    %rbx,%rdi
  403e47:	74 05                	je     403e4e <main.cold+0x82>
_ZN9__gnu_cxx13new_allocatorIcE10deallocateEPcm():
/usr/include/c++/10/ext/new_allocator.h:139
  403e49:	e8 f2 fa ff ff       	callq  403940 <_ZdlPv@plt>
_ZNKSt7__cxx1112basic_stringIcSt11char_traitsIcESaIcEE7_M_dataEv():
/usr/include/c++/10/bits/basic_string.h:195
      { return _M_dataplus._M_p; }
  403e4e:	48 8b bc 24 c0 00 00 	mov    0xc0(%rsp),%rdi
  403e55:	00 
_ZNSt7__cxx1112basic_stringIcSt11char_traitsIcESaIcEE10_M_disposeEv():
/usr/include/c++/10/bits/basic_string.h:239
	if (!_M_is_local())
  403e56:	48 39 ef             	cmp    %rbp,%rdi
  403e59:	74 05                	je     403e60 <main.cold+0x94>
_ZN9__gnu_cxx13new_allocatorIcE10deallocateEPcm():
/usr/include/c++/10/ext/new_allocator.h:139
  403e5b:	e8 e0 fa ff ff       	callq  403940 <_ZdlPv@plt>
_ZN9__gnu_cxx13new_allocatorIcED4Ev():
/usr/include/c++/10/ext/new_allocator.h:89
      ~new_allocator() _GLIBCXX_USE_NOEXCEPT { }
  403e60:	4c 89 e5             	mov    %r12,%rbp
  403e63:	eb b8                	jmp    403e1d <main.cold+0x51>
_ZNKSt7__cxx1112basic_stringIcSt11char_traitsIcESaIcEE7_M_dataEv():
/usr/include/c++/10/bits/basic_string.h:195
      { return _M_dataplus._M_p; }
  403e65:	48 8b bc 24 e0 00 00 	mov    0xe0(%rsp),%rdi
  403e6c:	00 
_ZNSt7__cxx1112basic_stringIcSt11char_traitsIcESaIcEE10_M_disposeEv():
/usr/include/c++/10/bits/basic_string.h:239
	if (!_M_is_local())
  403e6d:	48 8d 84 24 f0 00 00 	lea    0xf0(%rsp),%rax
  403e74:	00 
  403e75:	48 39 c7             	cmp    %rax,%rdi
  403e78:	74 05                	je     403e7f <main.cold+0xb3>
_ZN9__gnu_cxx13new_allocatorIcE10deallocateEPcm():
/usr/include/c++/10/ext/new_allocator.h:139
	::operator delete(__p
  403e7a:	e8 c1 fa ff ff       	callq  403940 <_ZdlPv@plt>
_ZN9__gnu_cxx13new_allocatorIcED4Ev():
/usr/include/c++/10/ext/new_allocator.h:89
      ~new_allocator() _GLIBCXX_USE_NOEXCEPT { }
  403e7f:	48 89 ef             	mov    %rbp,%rdi
  403e82:	e8 b9 fd ff ff       	callq  403c40 <_Unwind_Resume@plt>
_ZNKSt7__cxx1112basic_stringIcSt11char_traitsIcESaIcEE7_M_dataEv():
/usr/include/c++/10/bits/basic_string.h:195
      { return _M_dataplus._M_p; }
  403e87:	48 8b bc 24 e0 00 00 	mov    0xe0(%rsp),%rdi
  403e8e:	00 
_ZNSt7__cxx1112basic_stringIcSt11char_traitsIcESaIcEE10_M_disposeEv():
/usr/include/c++/10/bits/basic_string.h:239
	if (!_M_is_local())
  403e8f:	48 39 df             	cmp    %rbx,%rdi
  403e92:	74 05                	je     403e99 <main.cold+0xcd>
_ZN9__gnu_cxx13new_allocatorIcE10deallocateEPcm():
/usr/include/c++/10/ext/new_allocator.h:139
	::operator delete(__p
  403e94:	e8 a7 fa ff ff       	callq  403940 <_ZdlPv@plt>
_ZN9__gnu_cxx13new_allocatorIcED4Ev():
/usr/include/c++/10/ext/new_allocator.h:89
      ~new_allocator() _GLIBCXX_USE_NOEXCEPT { }
  403e99:	48 89 eb             	mov    %rbp,%rbx
  403e9c:	eb 91                	jmp    403e2f <main.cold+0x63>
_ZNKSt7__cxx1112basic_stringIcSt11char_traitsIcESaIcEE7_M_dataEv():
/usr/include/c++/10/bits/basic_string.h:195
      { return _M_dataplus._M_p; }
  403e9e:	48 8b bc 24 e0 00 00 	mov    0xe0(%rsp),%rdi
  403ea5:	00 
_ZNSt7__cxx1112basic_stringIcSt11char_traitsIcESaIcEE10_M_disposeEv():
/usr/include/c++/10/bits/basic_string.h:239
	if (!_M_is_local())
  403ea6:	48 39 df             	cmp    %rbx,%rdi
  403ea9:	0f 84 6e ff ff ff    	je     403e1d <main.cold+0x51>
_ZN9__gnu_cxx13new_allocatorIcE10deallocateEPcm():
/usr/include/c++/10/ext/new_allocator.h:139
	::operator delete(__p
  403eaf:	e8 8c fa ff ff       	callq  403940 <_ZdlPv@plt>
_ZNSt7__cxx1112basic_stringIcSt11char_traitsIcESaIcEE10_M_destroyEm():
/usr/include/c++/10/bits/basic_string.h:245
	  _M_destroy(_M_allocated_capacity);
      }

      void
      _M_destroy(size_type __size) throw()
      { _Alloc_traits::deallocate(_M_get_allocator(), _M_data(), __size + 1); }
  403eb4:	e9 64 ff ff ff       	jmpq   403e1d <main.cold+0x51>
main.cold():
  403eb9:	0f 1f 80 00 00 00 00 	nopl   0x0(%rax)

0000000000403ec0 <main>:
main():
/home/aliha951/ipdps-artifact/gapbs-master/src/pr.cc:97
  PrintTime("Total Error", error);
  return error < target_error;
}


int main(int argc, char* argv[]) {
  403ec0:	f3 0f 1e fa          	endbr64 
  403ec4:	41 57                	push   %r15
  403ec6:	41 56                	push   %r14
  403ec8:	41 55                	push   %r13
  403eca:	41 54                	push   %r12
  403ecc:	49 89 f4             	mov    %rsi,%r12
  403ecf:	55                   	push   %rbp
  403ed0:	89 fd                	mov    %edi,%ebp
  403ed2:	53                   	push   %rbx
  403ed3:	48 81 ec e8 02 00 00 	sub    $0x2e8,%rsp
  403eda:	64 48 8b 04 25 28 00 	mov    %fs:0x28,%rax
  403ee1:	00 00 
  403ee3:	48 89 84 24 d8 02 00 	mov    %rax,0x2d8(%rsp)
  403eea:	00 
  403eeb:	31 c0                	xor    %eax,%eax
/home/aliha951/ipdps-artifact/gapbs-master/src/pr.cc:99
  initialize_perf_measurements();
  CLPageRank cli(argc, argv, "pagerank", 1e-4, 20);
  403eed:	4c 8d ac 24 e0 00 00 	lea    0xe0(%rsp),%r13
  403ef4:	00 
_Z28initialize_perf_measurementsv():
/home/aliha951/ipdps-artifact/gapbs-master/src/profiling_utils.h:169

/* Setup counters before any threads are created by omp
 * Must be called at the begining of the program.
*/
void initialize_perf_measurements(){
  perf_ctrs = setup_counters();
  403ef5:	e8 a6 2a 00 00       	callq  4069a0 <_Z14setup_countersv>
main():
/home/aliha951/ipdps-artifact/gapbs-master/src/pr.cc:99
  403efa:	48 8d 35 bf 03 01 00 	lea    0x103bf(%rip),%rsi        # 4142c0 <_IO_stdin_used+0x2c0>
  403f01:	4c 89 ef             	mov    %r13,%rdi
_Z28initialize_perf_measurementsv():
/home/aliha951/ipdps-artifact/gapbs-master/src/profiling_utils.h:169
  403f04:	48 89 05 85 59 01 00 	mov    %rax,0x15985(%rip)        # 419890 <perf_ctrs>
  403f0b:	48 89 15 86 59 01 00 	mov    %rdx,0x15986(%rip)        # 419898 <perf_ctrs+0x8>
main():
/home/aliha951/ipdps-artifact/gapbs-master/src/pr.cc:99
  403f12:	e8 c9 1d 00 00       	callq  405ce0 <_ZNSt7__cxx1112basic_stringIcSt11char_traitsIcESaIcEEC2EPKcRKS3_.constprop.0>
  403f17:	41 b8 14 00 00 00    	mov    $0x14,%r8d
  403f1d:	4c 89 e9             	mov    %r13,%rcx
  403f20:	89 ee                	mov    %ebp,%esi
  403f22:	48 8d 84 24 00 01 00 	lea    0x100(%rsp),%rax
  403f29:	00 
  403f2a:	f2 0f 10 05 ce 12 01 	movsd  0x112ce(%rip),%xmm0        # 415200 <_ZZNSt8__detail18__to_chars_10_implIjEEvPcjT_E8__digits+0x320>
  403f31:	00 
  403f32:	4c 89 e2             	mov    %r12,%rdx
  403f35:	48 89 c7             	mov    %rax,%rdi
  403f38:	48 89 44 24 18       	mov    %rax,0x18(%rsp)
  403f3d:	e8 3e 86 00 00       	callq  40c580 <_ZN10CLPageRankC1EiPPcNSt7__cxx1112basic_stringIcSt11char_traitsIcESaIcEEEdi>
_ZNKSt7__cxx1112basic_stringIcSt11char_traitsIcESaIcEE7_M_dataEv():
/usr/include/c++/10/bits/basic_string.h:195
      { return _M_dataplus._M_p; }
  403f42:	48 8b bc 24 e0 00 00 	mov    0xe0(%rsp),%rdi
  403f49:	00 
_ZNSt7__cxx1112basic_stringIcSt11char_traitsIcESaIcEE10_M_disposeEv():
/usr/include/c++/10/bits/basic_string.h:239
	if (!_M_is_local())
  403f4a:	48 8d 9c 24 f0 00 00 	lea    0xf0(%rsp),%rbx
  403f51:	00 
  403f52:	48 39 df             	cmp    %rbx,%rdi
  403f55:	74 05                	je     403f5c <main+0x9c>
_ZN9__gnu_cxx13new_allocatorIcE10deallocateEPcm():
/usr/include/c++/10/ext/new_allocator.h:139
  403f57:	e8 e4 f9 ff ff       	callq  403940 <_ZdlPv@plt>
_ZNSt7__cxx1112basic_stringIcSt11char_traitsIcESaIcEEaSEOS4_():
/usr/include/c++/10/bits/basic_string.h:745
	    || _M_get_allocator() == __str._M_get_allocator())
	  {
	    // Just move the allocated pointer, our allocator can free it.
	    pointer __data = nullptr;
	    size_type __capacity;
	    if (!_M_is_local())
  403f5c:	48 8d 84 24 88 01 00 	lea    0x188(%rsp),%rax
  403f63:	00 
_ZN5CLApp9HandleArgEaPc():
/home/aliha951/ipdps-artifact/gapbs-master/src/command_line.h:165
    AddHelpLine('p', "", "partial execution", "false");
    AddHelpLine('z', "", "pin vertex array in memory", "false");
  }

  void HandleArg(signed char opt, char* opt_arg) override {
    switch (opt) {
  403f64:	4c 8d 3d 91 0e 01 00 	lea    0x10e91(%rip),%r15        # 414dfc <_IO_stdin_used+0xdfc>
_ZNSt7__cxx1112basic_stringIcSt11char_traitsIcESaIcEEaSEOS4_():
/usr/include/c++/10/bits/basic_string.h:745
  403f6b:	48 89 44 24 08       	mov    %rax,0x8(%rsp)
  403f70:	4c 8d a4 24 80 00 00 	lea    0x80(%rsp),%r12
  403f77:	00 
  403f78:	0f 1f 84 00 00 00 00 	nopl   0x0(%rax,%rax,1)
  403f7f:	00 
_ZN6CLBase9ParseArgsEv():
/home/aliha951/ipdps-artifact/gapbs-master/src/command_line.h:87
    while ((c_opt = getopt(argc_, argv_, get_args_.c_str())) != -1) {
  403f80:	48 8b 94 24 38 01 00 	mov    0x138(%rsp),%rdx
  403f87:	00 
  403f88:	48 8b b4 24 10 01 00 	mov    0x110(%rsp),%rsi
  403f8f:	00 
  403f90:	8b bc 24 08 01 00 00 	mov    0x108(%rsp),%edi
  403f97:	e8 84 f7 ff ff       	callq  403720 <getopt@plt>
  403f9c:	3c ff                	cmp    $0xff,%al
  403f9e:	0f 84 14 01 00 00    	je     4040b8 <main+0x1f8>
/home/aliha951/ipdps-artifact/gapbs-master/src/command_line.h:88
      HandleArg(c_opt, optarg);
  403fa4:	48 8b 2d d5 53 01 00 	mov    0x153d5(%rip),%rbp        # 419380 <optarg@@GLIBC_2.2.5>
_ZN10CLPageRank9HandleArgEaPc():
/home/aliha951/ipdps-artifact/gapbs-master/src/command_line.h:229
                std::to_string(max_iters_));
    AddHelpLine('t', "t", "use tolerance t", std::to_string(tolerance_));
  }

  void HandleArg(signed char opt, char* opt_arg) override {
    switch (opt) {
  403fab:	3c 69                	cmp    $0x69,%al
  403fad:	74 21                	je     403fd0 <main+0x110>
  403faf:	3c 74                	cmp    $0x74,%al
  403fb1:	74 3d                	je     403ff0 <main+0x130>
_ZN5CLApp9HandleArgEaPc():
/home/aliha951/ipdps-artifact/gapbs-master/src/command_line.h:165
    switch (opt) {
  403fb3:	8d 50 9f             	lea    -0x61(%rax),%edx
  403fb6:	80 fa 19             	cmp    $0x19,%dl
  403fb9:	0f 87 c1 05 00 00    	ja     404580 <main+0x6c0>
  403fbf:	0f b6 d2             	movzbl %dl,%edx
  403fc2:	49 63 14 97          	movslq (%r15,%rdx,4),%rdx
  403fc6:	4c 01 fa             	add    %r15,%rdx
  403fc9:	3e ff e2             	notrack jmpq *%rdx
  403fcc:	0f 1f 40 00          	nopl   0x0(%rax)
main():
/usr/include/stdlib.h:363

#ifdef __USE_EXTERN_INLINES
__extern_inline int
__NTH (atoi (const char *__nptr))
{
  return (int) strtol (__nptr, (char **) NULL, 10);
  403fd0:	ba 0a 00 00 00       	mov    $0xa,%edx
atoi():
/usr/include/stdlib.h:363
  403fd5:	31 f6                	xor    %esi,%esi
  403fd7:	48 89 ef             	mov    %rbp,%rdi
  403fda:	e8 e1 fa ff ff       	callq  403ac0 <strtol@plt>
  403fdf:	89 84 24 c4 01 00 00 	mov    %eax,0x1c4(%rsp)
_ZN10CLPageRank9HandleArgEaPc():
/home/aliha951/ipdps-artifact/gapbs-master/src/command_line.h:230
      case 'i': max_iters_ = atoi(opt_arg);            break;
  403fe6:	eb 98                	jmp    403f80 <main+0xc0>
  403fe8:	0f 1f 84 00 00 00 00 	nopl   0x0(%rax,%rax,1)
  403fef:	00 
_ZNSt7__cxx1112basic_stringIcSt11char_traitsIcESaIcEE12_Alloc_hiderC4EPcRKS3_():
/usr/include/c++/10/bits/basic_string.h:165
	: allocator_type(__a), _M_p(__dat) { }
  403ff0:	48 89 9c 24 e0 00 00 	mov    %rbx,0xe0(%rsp)
  403ff7:	00 
_ZNSt7__cxx1112basic_stringIcSt11char_traitsIcESaIcEEC4EPKcRKS3_():
/usr/include/c++/10/bits/basic_string.h:536
	const _CharT* __end = __s ? __s + traits_type::length(__s)
  403ff8:	48 85 ed             	test   %rbp,%rbp
  403ffb:	0f 84 39 09 00 00    	je     40493a <main+0xa7a>
_ZNSt11char_traitsIcE6lengthEPKc():
/usr/include/c++/10/bits/char_traits.h:399
      {
#if __cplusplus >= 201703L
	if (__constant_string_p(__s))
	  return __gnu_cxx::char_traits<char_type>::length(__s);
#endif
	return __builtin_strlen(__s);
  404001:	48 89 ef             	mov    %rbp,%rdi
  404004:	e8 e7 f7 ff ff       	callq  4037f0 <strlen@plt>
_ZNSt7__cxx1112basic_stringIcSt11char_traitsIcESaIcEE12_M_constructIPKcEEvT_S8_St20forward_iterator_tag():
/usr/include/c++/10/bits/basic_string.tcc:215
	// NB: Not required, but considered best practice.
	if (__gnu_cxx::__is_null_pointer(__beg) && __beg != __end)
	  std::__throw_logic_error(__N("basic_string::"
				       "_M_construct null not valid"));

	size_type __dnew = static_cast<size_type>(std::distance(__beg, __end));
  404009:	48 89 84 24 80 00 00 	mov    %rax,0x80(%rsp)
  404010:	00 
_ZNSt11char_traitsIcE6lengthEPKc():
/usr/include/c++/10/bits/char_traits.h:399
  404011:	49 89 c6             	mov    %rax,%r14
_ZNSt7__cxx1112basic_stringIcSt11char_traitsIcESaIcEE12_M_constructIPKcEEvT_S8_St20forward_iterator_tag():
/usr/include/c++/10/bits/basic_string.tcc:217

	if (__dnew > size_type(_S_local_capacity))
  404014:	48 83 f8 0f          	cmp    $0xf,%rax
  404018:	0f 87 1a 05 00 00    	ja     404538 <main+0x678>
_ZNSt7__cxx1112basic_stringIcSt11char_traitsIcESaIcEE7_S_copyEPcPKcm():
/usr/include/c++/10/bits/basic_string.h:356
	if (__n == 1)
  40401e:	48 83 f8 01          	cmp    $0x1,%rax
  404022:	0f 85 f8 04 00 00    	jne    404520 <main+0x660>
_ZNSt11char_traitsIcE6assignERcRKc():
/usr/include/c++/10/bits/char_traits.h:357
      { __c1 = __c2; }
  404028:	0f b6 55 00          	movzbl 0x0(%rbp),%edx
  40402c:	88 94 24 f0 00 00 00 	mov    %dl,0xf0(%rsp)
  404033:	48 89 da             	mov    %rbx,%rdx
_ZNSt7__cxx1112basic_stringIcSt11char_traitsIcESaIcEE9_M_lengthEm():
/usr/include/c++/10/bits/basic_string.h:191
      { _M_string_length = __length; }
  404036:	48 89 84 24 e8 00 00 	mov    %rax,0xe8(%rsp)
  40403d:	00 
_ZNSt11char_traitsIcE6assignERcRKc():
/usr/include/c++/10/bits/char_traits.h:357
  40403e:	c6 04 02 00          	movb   $0x0,(%rdx,%rax,1)
_ZNKSt7__cxx1112basic_stringIcSt11char_traitsIcESaIcEE7_M_dataEv():
/usr/include/c++/10/bits/basic_string.h:195
      { return _M_dataplus._M_p; }
  404042:	4c 8b b4 24 e0 00 00 	mov    0xe0(%rsp),%r14
  404049:	00 
_ZZN9__gnu_cxx6__stoaIddcJEEET0_PFT_PKT1_PPS3_DpT2_EPKcS5_PmS9_EN11_Save_errnoC4Ev():
/usr/include/c++/10/ext/string_conversions.h:63
	_Save_errno() : _M_errno(errno) { errno = 0; }
  40404a:	e8 71 f6 ff ff       	callq  4036c0 <__errno_location@plt>
_ZN9__gnu_cxx6__stoaIddcJEEET0_PFT_PKT1_PPS3_DpT2_EPKcS5_PmS9_():
/usr/include/c++/10/ext/string_conversions.h:80
	    return __val < _TRet(__numeric_traits<int>::__min)
	      || __val > _TRet(__numeric_traits<int>::__max);
	  }
      };

      const _TRet __tmp = __convf(__str, &__endptr, __base...);
  40404f:	4c 89 e6             	mov    %r12,%rsi
  404052:	4c 89 f7             	mov    %r14,%rdi
_ZZN9__gnu_cxx6__stoaIddcJEEET0_PFT_PKT1_PPS3_DpT2_EPKcS5_PmS9_EN11_Save_errnoC4Ev():
/usr/include/c++/10/ext/string_conversions.h:63
	_Save_errno() : _M_errno(errno) { errno = 0; }
  404055:	48 89 c5             	mov    %rax,%rbp
  404058:	8b 00                	mov    (%rax),%eax
  40405a:	c7 45 00 00 00 00 00 	movl   $0x0,0x0(%rbp)
  404061:	89 04 24             	mov    %eax,(%rsp)
_ZN9__gnu_cxx6__stoaIddcJEEET0_PFT_PKT1_PPS3_DpT2_EPKcS5_PmS9_():
/usr/include/c++/10/ext/string_conversions.h:80
      const _TRet __tmp = __convf(__str, &__endptr, __base...);
  404064:	e8 47 f8 ff ff       	callq  4038b0 <strtod@plt>
/usr/include/c++/10/ext/string_conversions.h:82

      if (__endptr == __str)
  404069:	4c 3b b4 24 80 00 00 	cmp    0x80(%rsp),%r14
  404070:	00 
  404071:	0f 84 55 08 00 00    	je     4048cc <main+0xa0c>
/usr/include/c++/10/ext/string_conversions.h:84
	std::__throw_invalid_argument(__name);
      else if (errno == ERANGE
  404077:	8b 45 00             	mov    0x0(%rbp),%eax
/usr/include/c++/10/ext/string_conversions.h:85
	  || _Range_chk::_S_chk(__tmp, std::is_same<_Ret, int>{}))
  40407a:	83 f8 22             	cmp    $0x22,%eax
  40407d:	0f 84 55 08 00 00    	je     4048d8 <main+0xa18>
_ZZN9__gnu_cxx6__stoaIddcJEEET0_PFT_PKT1_PPS3_DpT2_EPKcS5_PmS9_EN11_Save_errnoD4Ev():
/usr/include/c++/10/ext/string_conversions.h:64
	~_Save_errno() { if (errno == 0) errno = _M_errno; }
  404083:	85 c0                	test   %eax,%eax
  404085:	75 06                	jne    40408d <main+0x1cd>
  404087:	8b 04 24             	mov    (%rsp),%eax
  40408a:	89 45 00             	mov    %eax,0x0(%rbp)
_ZNKSt7__cxx1112basic_stringIcSt11char_traitsIcESaIcEE7_M_dataEv():
/usr/include/c++/10/bits/basic_string.h:195
  40408d:	48 8b bc 24 e0 00 00 	mov    0xe0(%rsp),%rdi
  404094:	00 
_ZN10CLPageRank9HandleArgEaPc():
/home/aliha951/ipdps-artifact/gapbs-master/src/command_line.h:231
      case 't': tolerance_ = std::stod(opt_arg);            break;
  404095:	f2 0f 11 84 24 c8 01 	movsd  %xmm0,0x1c8(%rsp)
  40409c:	00 00 
_ZNSt7__cxx1112basic_stringIcSt11char_traitsIcESaIcEE10_M_disposeEv():
/usr/include/c++/10/bits/basic_string.h:239
	if (!_M_is_local())
  40409e:	48 39 df             	cmp    %rbx,%rdi
  4040a1:	0f 84 d9 fe ff ff    	je     403f80 <main+0xc0>
_ZN9__gnu_cxx13new_allocatorIcE10deallocateEPcm():
/usr/include/c++/10/ext/new_allocator.h:139
  4040a7:	e8 94 f8 ff ff       	callq  403940 <_ZdlPv@plt>
_ZN6CLBase9HandleArgEaPc():
/home/aliha951/ipdps-artifact/gapbs-master/src/command_line.h:114
  }
  4040ac:	e9 cf fe ff ff       	jmpq   403f80 <main+0xc0>
  4040b1:	0f 1f 80 00 00 00 00 	nopl   0x0(%rax)
_ZSteqIcSt11char_traitsIcESaIcEEbRKNSt7__cxx1112basic_stringIT_T0_T1_EEPKS5_():
/usr/include/c++/10/bits/basic_string.h:6199
   */
  template<typename _CharT, typename _Traits, typename _Alloc>
    inline bool
    operator==(const basic_string<_CharT, _Traits, _Alloc>& __lhs,
	       const _CharT* __rhs)
    { return __lhs.compare(__rhs) == 0; }
  4040b8:	48 8d bc 24 78 01 00 	lea    0x178(%rsp),%rdi
  4040bf:	00 
  4040c0:	48 8d 35 84 01 01 00 	lea    0x10184(%rip),%rsi        # 41424b <_IO_stdin_used+0x24b>
  4040c7:	e8 a4 f6 ff ff       	callq  403770 <_ZNKSt7__cxx1112basic_stringIcSt11char_traitsIcESaIcEE7compareEPKc@plt>
_ZN6CLBase9ParseArgsEv():
/home/aliha951/ipdps-artifact/gapbs-master/src/command_line.h:90
    if ((filename_ == "") && (scale_ == -1)) {
  4040cc:	85 c0                	test   %eax,%eax
  4040ce:	0f 84 cb 04 00 00    	je     40459f <main+0x6df>
/home/aliha951/ipdps-artifact/gapbs-master/src/command_line.h:94
    if (scale_ != -1)
  4040d4:	83 bc 24 70 01 00 00 	cmpl   $0xffffffff,0x170(%rsp)
  4040db:	ff 
  4040dc:	0f 85 cf 04 00 00    	jne    4045b1 <main+0x6f1>
_ZN11BuilderBaseIiiiLb1EEC4ERK6CLBase():
/home/aliha951/ipdps-artifact/gapbs-master/src/builder.h:50
  bool needs_weights_;
  bool in_place_ = false;
  int64_t num_nodes_ = -1;

 public:
  explicit BuilderBase(const CLBase &cli) : cli_(cli) {
  4040e2:	48 8b 44 24 18       	mov    0x18(%rsp),%rax
main():
/home/aliha951/ipdps-artifact/gapbs-master/src/pr.cc:103
  if (!cli.ParseArgs())
    return -1;
  Builder b(cli);
  Graph g = b.MakeGraph();
  4040e7:	48 8d 74 24 40       	lea    0x40(%rsp),%rsi
  4040ec:	4c 8d b4 24 80 00 00 	lea    0x80(%rsp),%r14
  4040f3:	00 
_ZN11BuilderBaseIiiiLb1EEC4ERK6CLBase():
/home/aliha951/ipdps-artifact/gapbs-master/src/builder.h:50
  4040f4:	48 c7 44 24 50 ff ff 	movq   $0xffffffffffffffff,0x50(%rsp)
  4040fb:	ff ff 
main():
/home/aliha951/ipdps-artifact/gapbs-master/src/pr.cc:103
  4040fd:	4c 89 f7             	mov    %r14,%rdi
_ZN11BuilderBaseIiiiLb1EEC4ERK6CLBase():
/home/aliha951/ipdps-artifact/gapbs-master/src/builder.h:52
    symmetrize_ = cli_.symmetrize();
    needs_weights_ = !std::is_same<NodeID_, DestID_>::value;
  404100:	c6 44 24 49 00       	movb   $0x0,0x49(%rsp)
/home/aliha951/ipdps-artifact/gapbs-master/src/builder.h:50
  explicit BuilderBase(const CLBase &cli) : cli_(cli) {
  404105:	48 89 44 24 40       	mov    %rax,0x40(%rsp)
/home/aliha951/ipdps-artifact/gapbs-master/src/builder.h:51
    symmetrize_ = cli_.symmetrize();
  40410a:	0f b6 84 24 98 01 00 	movzbl 0x198(%rsp),%eax
  404111:	00 
  404112:	88 44 24 48          	mov    %al,0x48(%rsp)
/home/aliha951/ipdps-artifact/gapbs-master/src/builder.h:53
    in_place_ = cli_.in_place();
  404116:	0f b6 84 24 9a 01 00 	movzbl 0x19a(%rsp),%eax
  40411d:	00 
  40411e:	88 44 24 4a          	mov    %al,0x4a(%rsp)
main():
/home/aliha951/ipdps-artifact/gapbs-master/src/pr.cc:103
  404122:	e8 69 e4 00 00       	callq  412590 <_ZN11BuilderBaseIiiiLb1EE9MakeGraphEv>
/home/aliha951/ipdps-artifact/gapbs-master/src/benchmark.h:107
template<typename GraphT_, typename GraphFunc, typename AnalysisFunc,
         typename VerifierFunc>
void BenchmarkKernel(const CLApp &cli, const GraphT_ &g,
                     GraphFunc kernel, AnalysisFunc stats,
                     VerifierFunc verify) {
  g.PrintStats();
  404127:	4c 89 f7             	mov    %r14,%rdi
BenchmarkKernel<CSRGraph<int>, main(int, char**)::<lambda(const Graph&)>, void (*)(const CSRGraph<int>&, const pvector<float>&), main(int, char**)::<lambda(const Graph&, const pvector<float>&)> >():
/home/aliha951/ipdps-artifact/gapbs-master/src/benchmark.h:107
  40412a:	e8 31 61 00 00       	callq  40a260 <_ZNK8CSRGraphIiiLb1EE10PrintStatsEv>
_Z16start_disk_statsPKc():
/home/aliha951/ipdps-artifact/gapbs-master/src/profiling_utils.h:300
	fprintf(f, "%d", pid);
	fclose(f);
}

inline void start_disk_stats(const char* result_file_name){
  pid_t pid = fork();
  40412f:	e8 2c f6 ff ff       	callq  403760 <fork@plt>
/home/aliha951/ipdps-artifact/gapbs-master/src/profiling_utils.h:301
  if (pid < 0) {
  404134:	85 c0                	test   %eax,%eax
  404136:	0f 88 ad 07 00 00    	js     4048e9 <main+0xa29>
/home/aliha951/ipdps-artifact/gapbs-master/src/profiling_utils.h:304
    perror("fork failed");
    exit(EXIT_FAILURE);
  } else if (pid == 0) { // Child process
  40413c:	0f 84 bd 07 00 00    	je     4048ff <main+0xa3f>
/home/aliha951/ipdps-artifact/gapbs-master/src/profiling_utils.h:312
    execlp("/home/aliha951/ipdps-gapbs/gather_diskstats.sh", "/home/aliha951/ipdps-gapbs/gather_diskstats.sh", result_file_name, NULL);
    perror("execlp failed");
    exit(EXIT_FAILURE);
  }
  // Parent process continues
  diskstat_pid = pid;
  404142:	89 05 0c 52 01 00    	mov    %eax,0x1520c(%rip)        # 419354 <diskstat_pid>
BenchmarkKernel<CSRGraph<int>, main(int, char**)::<lambda(const Graph&)>, void (*)(const CSRGraph<int>&, const pvector<float>&), main(int, char**)::<lambda(const Graph&, const pvector<float>&)> >():
/home/aliha951/ipdps-artifact/gapbs-master/src/benchmark.h:114
  
  // adding profiling markers and rusage counters for performance analysis
  long long user_instructions, kernel_instructions,
              user_time, kernel_time;
  start_disk_stats("disk.stats");
  start_taskstats();                    
  404148:	e8 73 31 00 00       	callq  4072c0 <_Z15start_taskstatsv>
/home/aliha951/ipdps-artifact/gapbs-master/src/benchmark.h:115
  snapshot_proc_pid(BEGIN);
  40414d:	31 ff                	xor    %edi,%edi
  40414f:	e8 cc 5b 00 00       	callq  409d20 <_Z17snapshot_proc_pid13SnapshotPoint>
/home/aliha951/ipdps-artifact/gapbs-master/src/benchmark.h:116
  snapshot_proc_stat(BEGIN);
  404154:	31 ff                	xor    %edi,%edi
  404156:	e8 f5 5e 00 00       	callq  40a050 <_Z18snapshot_proc_stat13SnapshotPoint>
/home/aliha951/ipdps-artifact/gapbs-master/src/benchmark.h:117
  start_counters(&perf_ctrs);
  40415b:	48 8d 3d 2e 57 01 00 	lea    0x1572e(%rip),%rdi        # 419890 <perf_ctrs>
  404162:	e8 39 2a 00 00       	callq  406ba0 <_Z14start_countersP13perf_counters>
/home/aliha951/ipdps-artifact/gapbs-master/src/benchmark.h:118
  trace_marker("BenchmarkKernel_Start");
  404167:	48 8d 3d 96 01 01 00 	lea    0x10196(%rip),%rdi        # 414304 <_IO_stdin_used+0x304>
  40416e:	e8 5d 27 00 00       	callq  4068d0 <_Z12trace_markerPKc>
/home/aliha951/ipdps-artifact/gapbs-master/src/benchmark.h:119
  start_time_stats();
  404173:	e8 08 25 00 00       	callq  406680 <_Z16start_time_statsv>
_Z19ompt_mark_roi_startv():
/home/aliha951/ipdps-artifact/gapbs-master/src/../omp_runtime_visualizer/include/runtime_visualizer_utils.h:52
  printf("[OMPT_annotation] Thread %d Annotation at %.3f ms: %s\n", 
         thread_id, timestamp / 1000.0, annotation);
}

inline void ompt_mark_roi_start() {
  ompt_annotate("ROI_START");
  404178:	48 8d 3d 9b 01 01 00 	lea    0x1019b(%rip),%rdi        # 41431a <_IO_stdin_used+0x31a>
  40417f:	e8 dc 33 00 00       	callq  407560 <_Z13ompt_annotatePKc>
BenchmarkKernel<CSRGraph<int>, main(int, char**)::<lambda(const Graph&)>, void (*)(const CSRGraph<int>&, const pvector<float>&), main(int, char**)::<lambda(const Graph&, const pvector<float>&)> >():
/home/aliha951/ipdps-artifact/gapbs-master/src/benchmark.h:123
  ompt_mark_roi_start();

  Timer trial_timer;
  for (int iter=0; iter < cli.num_trials(); iter++) {
  404184:	8b 8c 24 b4 01 00 00 	mov    0x1b4(%rsp),%ecx
  40418b:	85 c9                	test   %ecx,%ecx
  40418d:	0f 8e 47 05 00 00    	jle    4046da <main+0x81a>
_ZNSt7__cxx1112basic_stringIcSt11char_traitsIcESaIcEE12_Alloc_hiderC4EPcRKS3_():
/usr/include/c++/10/bits/basic_string.h:165
	: allocator_type(__a), _M_p(__dat) { }
  404193:	48 8d 84 24 c0 00 00 	lea    0xc0(%rsp),%rax
  40419a:	00 
BenchmarkKernel<CSRGraph<int>, main(int, char**)::<lambda(const Graph&)>, void (*)(const CSRGraph<int>&, const pvector<float>&), main(int, char**)::<lambda(const Graph&, const pvector<float>&)> >():
/home/aliha951/ipdps-artifact/gapbs-master/src/benchmark.h:108
  double total_seconds = 0;
  40419b:	66 0f ef e4          	pxor   %xmm4,%xmm4
/home/aliha951/ipdps-artifact/gapbs-master/src/benchmark.h:123
  for (int iter=0; iter < cli.num_trials(); iter++) {
  40419f:	45 31 e4             	xor    %r12d,%r12d
_ZNSt7__cxx1112basic_stringIcSt11char_traitsIcESaIcEE12_Alloc_hiderC4EPcRKS3_():
/usr/include/c++/10/bits/basic_string.h:165
  4041a2:	48 89 44 24 10       	mov    %rax,0x10(%rsp)
  4041a7:	4c 8d 7c 24 60       	lea    0x60(%rsp),%r15
BenchmarkKernel<CSRGraph<int>, main(int, char**)::<lambda(const Graph&)>, void (*)(const CSRGraph<int>&, const pvector<float>&), main(int, char**)::<lambda(const Graph&, const pvector<float>&)> >():
/home/aliha951/ipdps-artifact/gapbs-master/src/benchmark.h:108
  double total_seconds = 0;
  4041ac:	f2 0f 11 24 24       	movsd  %xmm4,(%rsp)
  4041b1:	0f 1f 80 00 00 00 00 	nopl   0x0(%rax)
_ZN5Timer5StartEv():
/home/aliha951/ipdps-artifact/gapbs-master/src/timer.h:23
class Timer {
 public:
  Timer() {}

  void Start() {
    elapsed_time_ = start_time_ = std::chrono::high_resolution_clock::now();
  4041b8:	e8 13 f5 ff ff       	callq  4036d0 <_ZNSt6chrono3_V212system_clock3nowEv@plt>
main():
/home/aliha951/ipdps-artifact/gapbs-master/src/pr.cc:105
  auto PRBound = [&cli] (const Graph &g) {
    return PageRankPullGS(g, cli.max_iters(), cli.tolerance(), cli.logging_en());
  4041bd:	0f b6 8c 24 c1 01 00 	movzbl 0x1c1(%rsp),%ecx
  4041c4:	00 
operator()():
/home/aliha951/ipdps-artifact/gapbs-master/src/pr.cc:105
  4041c5:	4c 89 f6             	mov    %r14,%rsi
  4041c8:	4c 89 ff             	mov    %r15,%rdi
  4041cb:	f2 0f 10 84 24 c8 01 	movsd  0x1c8(%rsp),%xmm0
  4041d2:	00 00 
  4041d4:	8b 94 24 c4 01 00 00 	mov    0x1c4(%rsp),%edx
_ZN5Timer5StartEv():
/home/aliha951/ipdps-artifact/gapbs-master/src/timer.h:23
  4041db:	48 89 c5             	mov    %rax,%rbp
operator()():
/home/aliha951/ipdps-artifact/gapbs-master/src/pr.cc:105
  4041de:	e8 1d 35 00 00       	callq  407700 <_Z14PageRankPullGSRK8CSRGraphIiiLb1EEidb>
_ZN5Timer4StopEv():
/home/aliha951/ipdps-artifact/gapbs-master/src/timer.h:27
  }

  void Stop() {
    elapsed_time_ = std::chrono::high_resolution_clock::now();
  4041e3:	e8 e8 f4 ff ff       	callq  4036d0 <_ZNSt6chrono3_V212system_clock3nowEv@plt>
_ZNSt6chrono20__duration_cast_implINS_8durationIdSt5ratioILl1ELl1EEEES2_ILl1ELl1000000000EEdLb1ELb0EE6__castIlS5_EES4_RKNS1_IT_T0_EE():
/usr/include/c++/10/chrono:214
	  static constexpr _ToDur
	  __cast(const duration<_Rep, _Period>& __d)
	  {
	    typedef typename _ToDur::rep			__to_rep;
	    return _ToDur(static_cast<__to_rep>(
	      static_cast<_CR>(__d.count()) / static_cast<_CR>(_CF::den)));
  4041e8:	66 0f ef c0          	pxor   %xmm0,%xmm0
_ZNSt11char_traitsIcE4copyEPcPKcm():
/usr/include/c++/10/bits/char_traits.h:437
	  return __s1;
#ifdef __cpp_lib_is_constant_evaluated
	if (std::is_constant_evaluated())
	  return __gnu_cxx::char_traits<char_type>::copy(__s1, __s2, __n);
#endif
	return static_cast<char_type*>(__builtin_memcpy(__s1, __s2, __n));
  4041ec:	ba 6d 65 00 00       	mov    $0x656d,%edx
BenchmarkKernel<CSRGraph<int>, main(int, char**)::<lambda(const Graph&)>, void (*)(const CSRGraph<int>&, const pvector<float>&), main(int, char**)::<lambda(const Graph&, const pvector<float>&)> >():
/home/aliha951/ipdps-artifact/gapbs-master/src/benchmark.h:127
    trial_timer.Start();
    auto result = kernel(g);
    trial_timer.Stop();
    PrintTime("Trial Time", trial_timer.Seconds());
  4041f1:	4c 89 ef             	mov    %r13,%rdi
_ZNSt6chronomiIlSt5ratioILl1ELl1000000000EElS2_EENSt11common_typeIJNS_8durationIT_T0_EENS4_IT1_T2_EEEE4typeERKS7_RKSA_():
/usr/include/c++/10/chrono:614
		const duration<_Rep2, _Period2>& __rhs)
      {
	typedef duration<_Rep1, _Period1>			__dur1;
	typedef duration<_Rep2, _Period2>			__dur2;
	typedef typename common_type<__dur1,__dur2>::type	__cd;
	return __cd(__cd(__lhs).count() - __cd(__rhs).count());
  4041f4:	48 29 e8             	sub    %rbp,%rax
_ZNSt7__cxx1112basic_stringIcSt11char_traitsIcESaIcEE12_Alloc_hiderC4EPcRKS3_():
/usr/include/c++/10/bits/basic_string.h:165
  4041f7:	48 89 9c 24 e0 00 00 	mov    %rbx,0xe0(%rsp)
  4041fe:	00 
_ZNSt6chrono20__duration_cast_implINS_8durationIdSt5ratioILl1ELl1EEEES2_ILl1ELl1000000000EEdLb1ELb0EE6__castIlS5_EES4_RKNS1_IT_T0_EE():
/usr/include/c++/10/chrono:214
	      static_cast<_CR>(__d.count()) / static_cast<_CR>(_CF::den)));
  4041ff:	f2 48 0f 2a c0       	cvtsi2sd %rax,%xmm0
_ZNSt11char_traitsIcE4copyEPcPKcm():
/usr/include/c++/10/bits/char_traits.h:437
  404204:	66 89 53 08          	mov    %dx,0x8(%rbx)
  404208:	48 b8 54 72 69 61 6c 	movabs $0x6954206c61697254,%rax
  40420f:	20 54 69 
_ZNSt6chrono20__duration_cast_implINS_8durationIdSt5ratioILl1ELl1EEEES2_ILl1ELl1000000000EEdLb1ELb0EE6__castIlS5_EES4_RKNS1_IT_T0_EE():
/usr/include/c++/10/chrono:214
  404212:	f2 0f 5e 05 de 0f 01 	divsd  0x10fde(%rip),%xmm0        # 4151f8 <_ZZNSt8__detail18__to_chars_10_implIjEEvPcjT_E8__digits+0x318>
  404219:	00 
_ZNSt11char_traitsIcE4copyEPcPKcm():
/usr/include/c++/10/bits/char_traits.h:437
  40421a:	48 89 03             	mov    %rax,(%rbx)
_ZNSt6chrono20__duration_cast_implINS_8durationIdSt5ratioILl1ELl1EEEES2_ILl1ELl1000000000EEdLb1ELb0EE6__castIlS5_EES4_RKNS1_IT_T0_EE():
/usr/include/c++/10/chrono:214
  40421d:	f2 0f 11 44 24 08    	movsd  %xmm0,0x8(%rsp)
_ZNSt7__cxx1112basic_stringIcSt11char_traitsIcESaIcEE9_M_lengthEm():
/usr/include/c++/10/bits/basic_string.h:191
      { _M_string_length = __length; }
  404223:	48 c7 84 24 e8 00 00 	movq   $0xa,0xe8(%rsp)
  40422a:	00 0a 00 00 00 
_ZNSt11char_traitsIcE6assignERcRKc():
/usr/include/c++/10/bits/char_traits.h:357
      { __c1 = __c2; }
  40422f:	c6 84 24 fa 00 00 00 	movb   $0x0,0xfa(%rsp)
  404236:	00 
BenchmarkKernel<CSRGraph<int>, main(int, char**)::<lambda(const Graph&)>, void (*)(const CSRGraph<int>&, const pvector<float>&), main(int, char**)::<lambda(const Graph&, const pvector<float>&)> >():
/home/aliha951/ipdps-artifact/gapbs-master/src/benchmark.h:127
  404237:	e8 a4 1d 00 00       	callq  405fe0 <_Z9PrintTimeRKNSt7__cxx1112basic_stringIcSt11char_traitsIcESaIcEEEd>
_ZNKSt7__cxx1112basic_stringIcSt11char_traitsIcESaIcEE7_M_dataEv():
/usr/include/c++/10/bits/basic_string.h:195
      { return _M_dataplus._M_p; }
  40423c:	48 8b bc 24 e0 00 00 	mov    0xe0(%rsp),%rdi
  404243:	00 
_ZNSt7__cxx1112basic_stringIcSt11char_traitsIcESaIcEE10_M_disposeEv():
/usr/include/c++/10/bits/basic_string.h:239
	if (!_M_is_local())
  404244:	48 39 df             	cmp    %rbx,%rdi
  404247:	74 05                	je     40424e <main+0x38e>
_ZN9__gnu_cxx13new_allocatorIcE10deallocateEPcm():
/usr/include/c++/10/ext/new_allocator.h:139
  404249:	e8 f2 f6 ff ff       	callq  403940 <_ZdlPv@plt>
BenchmarkKernel<CSRGraph<int>, main(int, char**)::<lambda(const Graph&)>, void (*)(const CSRGraph<int>&, const pvector<float>&), main(int, char**)::<lambda(const Graph&, const pvector<float>&)> >():
/home/aliha951/ipdps-artifact/gapbs-master/src/benchmark.h:128
    total_seconds += trial_timer.Seconds();
  40424e:	f2 0f 10 0c 24       	movsd  (%rsp),%xmm1
  404253:	f2 0f 58 4c 24 08    	addsd  0x8(%rsp),%xmm1
/home/aliha951/ipdps-artifact/gapbs-master/src/benchmark.h:129
    if (cli.do_analysis() && (iter == (cli.num_trials()-1)))
  404259:	80 bc 24 b0 01 00 00 	cmpb   $0x0,0x1b0(%rsp)
  404260:	00 
/home/aliha951/ipdps-artifact/gapbs-master/src/benchmark.h:128
    total_seconds += trial_timer.Seconds();
  404261:	f2 0f 11 0c 24       	movsd  %xmm1,(%rsp)
/home/aliha951/ipdps-artifact/gapbs-master/src/benchmark.h:129
    if (cli.do_analysis() && (iter == (cli.num_trials()-1)))
  404266:	74 13                	je     40427b <main+0x3bb>
  404268:	8b 84 24 b4 01 00 00 	mov    0x1b4(%rsp),%eax
  40426f:	83 e8 01             	sub    $0x1,%eax
  404272:	44 39 e0             	cmp    %r12d,%eax
  404275:	0f 84 e5 03 00 00    	je     404660 <main+0x7a0>
/home/aliha951/ipdps-artifact/gapbs-master/src/benchmark.h:131
      stats(g, result);
    if (cli.do_verify()) {
  40427b:	80 bc 24 c0 01 00 00 	cmpb   $0x0,0x1c0(%rsp)
  404282:	00 
  404283:	0f 84 54 01 00 00    	je     4043dd <main+0x51d>
_ZN5Timer5StartEv():
/home/aliha951/ipdps-artifact/gapbs-master/src/timer.h:23
    elapsed_time_ = start_time_ = std::chrono::high_resolution_clock::now();
  404289:	e8 42 f4 ff ff       	callq  4036d0 <_ZNSt6chrono3_V212system_clock3nowEv@plt>
main():
/home/aliha951/ipdps-artifact/gapbs-master/src/pr.cc:108
  };
  auto VerifierBound = [&cli] (const Graph &g, const pvector<ScoreT> &scores) {
    return PRVerifier(g, scores, cli.tolerance());
  40428e:	4c 89 fe             	mov    %r15,%rsi
operator()():
/home/aliha951/ipdps-artifact/gapbs-master/src/pr.cc:108
  404291:	4c 89 f7             	mov    %r14,%rdi
  404294:	f2 0f 10 84 24 c8 01 	movsd  0x1c8(%rsp),%xmm0
  40429b:	00 00 
_ZN5Timer5StartEv():
/home/aliha951/ipdps-artifact/gapbs-master/src/timer.h:23
  40429d:	48 89 44 24 08       	mov    %rax,0x8(%rsp)
operator()():
/home/aliha951/ipdps-artifact/gapbs-master/src/pr.cc:108
  4042a2:	e8 89 38 00 00       	callq  407b30 <_Z10PRVerifierRK8CSRGraphIiiLb1EERK7pvectorIfEd>
BenchmarkKernel<CSRGraph<int>, main(int, char**)::<lambda(const Graph&)>, void (*)(const CSRGraph<int>&, const pvector<float>&), main(int, char**)::<lambda(const Graph&, const pvector<float>&)> >():
/home/aliha951/ipdps-artifact/gapbs-master/src/benchmark.h:133
      trial_timer.Start();
      PrintLabel("Verification",
  4042a7:	3c 01                	cmp    $0x1,%al
  4042a9:	48 8b 74 24 10       	mov    0x10(%rsp),%rsi
  4042ae:	4c 89 ef             	mov    %r13,%rdi
_ZNSt7__cxx1112basic_stringIcSt11char_traitsIcESaIcEE12_Alloc_hiderC4EPcRKS3_():
/usr/include/c++/10/bits/basic_string.h:165
	: allocator_type(__a), _M_p(__dat) { }
  4042b1:	48 89 9c 24 e0 00 00 	mov    %rbx,0xe0(%rsp)
  4042b8:	00 
BenchmarkKernel<CSRGraph<int>, main(int, char**)::<lambda(const Graph&)>, void (*)(const CSRGraph<int>&, const pvector<float>&), main(int, char**)::<lambda(const Graph&, const pvector<float>&)> >():
/home/aliha951/ipdps-artifact/gapbs-master/src/benchmark.h:133
  4042b9:	19 c0                	sbb    %eax,%eax
_ZNSt11char_traitsIcE4copyEPcPKcm():
/usr/include/c++/10/bits/char_traits.h:437
	return static_cast<char_type*>(__builtin_memcpy(__s1, __s2, __n));
  4042bb:	c7 43 08 74 69 6f 6e 	movl   $0x6e6f6974,0x8(%rbx)
_ZNSt7__cxx1112basic_stringIcSt11char_traitsIcESaIcEE12_Alloc_hiderC4EPcRKS3_():
/usr/include/c++/10/bits/basic_string.h:165
  4042c2:	48 8d ac 24 d0 00 00 	lea    0xd0(%rsp),%rbp
  4042c9:	00 
BenchmarkKernel<CSRGraph<int>, main(int, char**)::<lambda(const Graph&)>, void (*)(const CSRGraph<int>&, const pvector<float>&), main(int, char**)::<lambda(const Graph&, const pvector<float>&)> >():
/home/aliha951/ipdps-artifact/gapbs-master/src/benchmark.h:133
  4042ca:	25 f6 ff f5 f8       	and    $0xf8f5fff6,%eax
_ZNSt7__cxx1112basic_stringIcSt11char_traitsIcESaIcEE12_Alloc_hiderC4EPcRKS3_():
/usr/include/c++/10/bits/basic_string.h:165
  4042cf:	48 89 ac 24 c0 00 00 	mov    %rbp,0xc0(%rsp)
  4042d6:	00 
BenchmarkKernel<CSRGraph<int>, main(int, char**)::<lambda(const Graph&)>, void (*)(const CSRGraph<int>&, const pvector<float>&), main(int, char**)::<lambda(const Graph&, const pvector<float>&)> >():
/home/aliha951/ipdps-artifact/gapbs-master/src/benchmark.h:133
  4042d7:	05 50 41 53 53       	add    $0x53534150,%eax
_ZNSt11char_traitsIcE6assignERcRKc():
/usr/include/c++/10/bits/char_traits.h:357
      { __c1 = __c2; }
  4042dc:	c6 84 24 d4 00 00 00 	movb   $0x0,0xd4(%rsp)
  4042e3:	00 
_ZNSt11char_traitsIcE4copyEPcPKcm():
/usr/include/c++/10/bits/char_traits.h:437
	return static_cast<char_type*>(__builtin_memcpy(__s1, __s2, __n));
  4042e4:	89 84 24 d0 00 00 00 	mov    %eax,0xd0(%rsp)
  4042eb:	48 b8 56 65 72 69 66 	movabs $0x6163696669726556,%rax
  4042f2:	69 63 61 
  4042f5:	48 89 03             	mov    %rax,(%rbx)
_ZNSt7__cxx1112basic_stringIcSt11char_traitsIcESaIcEE9_M_lengthEm():
/usr/include/c++/10/bits/basic_string.h:191
      { _M_string_length = __length; }
  4042f8:	48 c7 84 24 c8 00 00 	movq   $0x4,0xc8(%rsp)
  4042ff:	00 04 00 00 00 
  404304:	48 c7 84 24 e8 00 00 	movq   $0xc,0xe8(%rsp)
  40430b:	00 0c 00 00 00 
_ZNSt11char_traitsIcE6assignERcRKc():
/usr/include/c++/10/bits/char_traits.h:357
      { __c1 = __c2; }
  404310:	c6 84 24 fc 00 00 00 	movb   $0x0,0xfc(%rsp)
  404317:	00 
BenchmarkKernel<CSRGraph<int>, main(int, char**)::<lambda(const Graph&)>, void (*)(const CSRGraph<int>&, const pvector<float>&), main(int, char**)::<lambda(const Graph&, const pvector<float>&)> >():
/home/aliha951/ipdps-artifact/gapbs-master/src/benchmark.h:133
  404318:	e8 53 1b 00 00       	callq  405e70 <_Z10PrintLabelRKNSt7__cxx1112basic_stringIcSt11char_traitsIcESaIcEEES6_>
_ZNKSt7__cxx1112basic_stringIcSt11char_traitsIcESaIcEE7_M_dataEv():
/usr/include/c++/10/bits/basic_string.h:195
      { return _M_dataplus._M_p; }
  40431d:	48 8b bc 24 e0 00 00 	mov    0xe0(%rsp),%rdi
  404324:	00 
_ZNSt7__cxx1112basic_stringIcSt11char_traitsIcESaIcEE10_M_disposeEv():
/usr/include/c++/10/bits/basic_string.h:239
	if (!_M_is_local())
  404325:	48 39 df             	cmp    %rbx,%rdi
  404328:	74 05                	je     40432f <main+0x46f>
_ZN9__gnu_cxx13new_allocatorIcE10deallocateEPcm():
/usr/include/c++/10/ext/new_allocator.h:139
  40432a:	e8 11 f6 ff ff       	callq  403940 <_ZdlPv@plt>
_ZNKSt7__cxx1112basic_stringIcSt11char_traitsIcESaIcEE7_M_dataEv():
/usr/include/c++/10/bits/basic_string.h:195
      { return _M_dataplus._M_p; }
  40432f:	48 8b bc 24 c0 00 00 	mov    0xc0(%rsp),%rdi
  404336:	00 
_ZNSt7__cxx1112basic_stringIcSt11char_traitsIcESaIcEE10_M_disposeEv():
/usr/include/c++/10/bits/basic_string.h:239
	if (!_M_is_local())
  404337:	48 39 ef             	cmp    %rbp,%rdi
  40433a:	74 05                	je     404341 <main+0x481>
_ZN9__gnu_cxx13new_allocatorIcE10deallocateEPcm():
/usr/include/c++/10/ext/new_allocator.h:139
  40433c:	e8 ff f5 ff ff       	callq  403940 <_ZdlPv@plt>
_ZN5Timer4StopEv():
/home/aliha951/ipdps-artifact/gapbs-master/src/timer.h:27
    elapsed_time_ = std::chrono::high_resolution_clock::now();
  404341:	e8 8a f3 ff ff       	callq  4036d0 <_ZNSt6chrono3_V212system_clock3nowEv@plt>
_ZNSt6chrono20__duration_cast_implINS_8durationIdSt5ratioILl1ELl1EEEES2_ILl1ELl1000000000EEdLb1ELb0EE6__castIlS5_EES4_RKNS1_IT_T0_EE():
/usr/include/c++/10/chrono:214
  404346:	66 0f ef c0          	pxor   %xmm0,%xmm0
_ZNSt6chronomiIlSt5ratioILl1ELl1000000000EElS2_EENSt11common_typeIJNS_8durationIT_T0_EENS4_IT1_T2_EEEE4typeERKS7_RKSA_():
/usr/include/c++/10/chrono:614
	return __cd(__cd(__lhs).count() - __cd(__rhs).count());
  40434a:	48 2b 44 24 08       	sub    0x8(%rsp),%rax
_ZNSt7__cxx1112basic_stringIcSt11char_traitsIcESaIcEE12_M_constructIPKcEEvT_S8_St20forward_iterator_tag():
/usr/include/c++/10/bits/basic_string.tcc:219
	  {
	    _M_data(_M_create(__dnew, size_type(0)));
  40434f:	31 d2                	xor    %edx,%edx
  404351:	48 8d 74 24 38       	lea    0x38(%rsp),%rsi
  404356:	4c 89 ef             	mov    %r13,%rdi
_ZNSt7__cxx1112basic_stringIcSt11char_traitsIcESaIcEE12_Alloc_hiderC4EPcRKS3_():
/usr/include/c++/10/bits/basic_string.h:165
	: allocator_type(__a), _M_p(__dat) { }
  404359:	48 89 9c 24 e0 00 00 	mov    %rbx,0xe0(%rsp)
  404360:	00 
_ZNSt7__cxx1112basic_stringIcSt11char_traitsIcESaIcEE12_M_constructIPKcEEvT_S8_St20forward_iterator_tag():
/usr/include/c++/10/bits/basic_string.tcc:215
	size_type __dnew = static_cast<size_type>(std::distance(__beg, __end));
  404361:	48 c7 44 24 38 11 00 	movq   $0x11,0x38(%rsp)
  404368:	00 00 
_ZNSt6chrono20__duration_cast_implINS_8durationIdSt5ratioILl1ELl1EEEES2_ILl1ELl1000000000EEdLb1ELb0EE6__castIlS5_EES4_RKNS1_IT_T0_EE():
/usr/include/c++/10/chrono:214
	      static_cast<_CR>(__d.count()) / static_cast<_CR>(_CF::den)));
  40436a:	f2 48 0f 2a c0       	cvtsi2sd %rax,%xmm0
  40436f:	f2 0f 5e 05 81 0e 01 	divsd  0x10e81(%rip),%xmm0        # 4151f8 <_ZZNSt8__detail18__to_chars_10_implIjEEvPcjT_E8__digits+0x318>
  404376:	00 
  404377:	66 48 0f 7e c5       	movq   %xmm0,%rbp
_ZNSt7__cxx1112basic_stringIcSt11char_traitsIcESaIcEE12_M_constructIPKcEEvT_S8_St20forward_iterator_tag():
/usr/include/c++/10/bits/basic_string.tcc:219
	    _M_data(_M_create(__dnew, size_type(0)));
  40437c:	e8 cf f8 ff ff       	callq  403c50 <_ZNSt7__cxx1112basic_stringIcSt11char_traitsIcESaIcEE9_M_createERmm@plt>
_ZNSt7__cxx1112basic_stringIcSt11char_traitsIcESaIcEE11_M_capacityEm():
/usr/include/c++/10/bits/basic_string.h:219
      { _M_allocated_capacity = __capacity; }
  404381:	48 8b 54 24 38       	mov    0x38(%rsp),%rdx
_ZNSt11char_traitsIcE4copyEPcPKcm():
/usr/include/c++/10/bits/char_traits.h:437
	return static_cast<char_type*>(__builtin_memcpy(__s1, __s2, __n));
  404386:	66 0f 6f 05 12 0e 01 	movdqa 0x10e12(%rip),%xmm0        # 4151a0 <_ZZNSt8__detail18__to_chars_10_implIjEEvPcjT_E8__digits+0x2c0>
  40438d:	00 
_ZNSt7__cxx1112basic_stringIcSt11char_traitsIcESaIcEE7_M_dataEPc():
/usr/include/c++/10/bits/basic_string.h:187
      { _M_dataplus._M_p = __p; }
  40438e:	48 89 84 24 e0 00 00 	mov    %rax,0xe0(%rsp)
  404395:	00 
BenchmarkKernel<CSRGraph<int>, main(int, char**)::<lambda(const Graph&)>, void (*)(const CSRGraph<int>&, const pvector<float>&), main(int, char**)::<lambda(const Graph&, const pvector<float>&)> >():
/home/aliha951/ipdps-artifact/gapbs-master/src/benchmark.h:136
                 verify(std::ref(g), std::ref(result)) ? "PASS" : "FAIL");
      trial_timer.Stop();
      PrintTime("Verification Time", trial_timer.Seconds());
  404396:	4c 89 ef             	mov    %r13,%rdi
_ZNSt7__cxx1112basic_stringIcSt11char_traitsIcESaIcEE11_M_capacityEm():
/usr/include/c++/10/bits/basic_string.h:219
      { _M_allocated_capacity = __capacity; }
  404399:	48 89 94 24 f0 00 00 	mov    %rdx,0xf0(%rsp)
  4043a0:	00 
_ZNSt11char_traitsIcE4copyEPcPKcm():
/usr/include/c++/10/bits/char_traits.h:437
  4043a1:	0f 11 00             	movups %xmm0,(%rax)
BenchmarkKernel<CSRGraph<int>, main(int, char**)::<lambda(const Graph&)>, void (*)(const CSRGraph<int>&, const pvector<float>&), main(int, char**)::<lambda(const Graph&, const pvector<float>&)> >():
/home/aliha951/ipdps-artifact/gapbs-master/src/benchmark.h:136
  4043a4:	66 48 0f 6e c5       	movq   %rbp,%xmm0
_ZNSt11char_traitsIcE4copyEPcPKcm():
/usr/include/c++/10/bits/char_traits.h:437
  4043a9:	c6 40 10 65          	movb   $0x65,0x10(%rax)
_ZNSt7__cxx1112basic_stringIcSt11char_traitsIcESaIcEE12_M_constructIPKcEEvT_S8_St20forward_iterator_tag():
/usr/include/c++/10/bits/basic_string.tcc:232
	  {
	    _M_dispose();
	    __throw_exception_again;
	  }

	_M_set_length(__dnew);
  4043ad:	48 8b 44 24 38       	mov    0x38(%rsp),%rax
_ZNSt11char_traitsIcE6assignERcRKc():
/usr/include/c++/10/bits/char_traits.h:357
      { __c1 = __c2; }
  4043b2:	48 8b 94 24 e0 00 00 	mov    0xe0(%rsp),%rdx
  4043b9:	00 
_ZNSt7__cxx1112basic_stringIcSt11char_traitsIcESaIcEE9_M_lengthEm():
/usr/include/c++/10/bits/basic_string.h:191
      { _M_string_length = __length; }
  4043ba:	48 89 84 24 e8 00 00 	mov    %rax,0xe8(%rsp)
  4043c1:	00 
_ZNSt11char_traitsIcE6assignERcRKc():
/usr/include/c++/10/bits/char_traits.h:357
  4043c2:	c6 04 02 00          	movb   $0x0,(%rdx,%rax,1)
BenchmarkKernel<CSRGraph<int>, main(int, char**)::<lambda(const Graph&)>, void (*)(const CSRGraph<int>&, const pvector<float>&), main(int, char**)::<lambda(const Graph&, const pvector<float>&)> >():
/home/aliha951/ipdps-artifact/gapbs-master/src/benchmark.h:136
  4043c6:	e8 15 1c 00 00       	callq  405fe0 <_Z9PrintTimeRKNSt7__cxx1112basic_stringIcSt11char_traitsIcESaIcEEEd>
_ZNKSt7__cxx1112basic_stringIcSt11char_traitsIcESaIcEE7_M_dataEv():
/usr/include/c++/10/bits/basic_string.h:195
      { return _M_dataplus._M_p; }
  4043cb:	48 8b bc 24 e0 00 00 	mov    0xe0(%rsp),%rdi
  4043d2:	00 
_ZNSt7__cxx1112basic_stringIcSt11char_traitsIcESaIcEE10_M_disposeEv():
/usr/include/c++/10/bits/basic_string.h:239
	if (!_M_is_local())
  4043d3:	48 39 df             	cmp    %rbx,%rdi
  4043d6:	74 05                	je     4043dd <main+0x51d>
_ZN9__gnu_cxx13new_allocatorIcE10deallocateEPcm():
/usr/include/c++/10/ext/new_allocator.h:139
  4043d8:	e8 63 f5 ff ff       	callq  403940 <_ZdlPv@plt>
BenchmarkKernel<CSRGraph<int>, main(int, char**)::<lambda(const Graph&)>, void (*)(const CSRGraph<int>&, const pvector<float>&), main(int, char**)::<lambda(const Graph&, const pvector<float>&)> >():
/home/aliha951/ipdps-artifact/gapbs-master/src/benchmark.h:138
    }
    ompt_annotate("Trial End");
  4043dd:	48 8d 3d 40 ff 00 00 	lea    0xff40(%rip),%rdi        # 414324 <_IO_stdin_used+0x324>
  4043e4:	e8 77 31 00 00       	callq  407560 <_Z13ompt_annotatePKc>
_ZN7pvectorIfE16ReleaseResourcesEv():
/home/aliha951/ipdps-artifact/gapbs-master/src/pvector.h:73
    if (start_ != nullptr) {
  4043e9:	48 8b 7c 24 60       	mov    0x60(%rsp),%rdi
  4043ee:	48 85 ff             	test   %rdi,%rdi
  4043f1:	0f 84 49 02 00 00    	je     404640 <main+0x780>
/home/aliha951/ipdps-artifact/gapbs-master/src/pvector.h:74
      delete[] start_;
  4043f7:	e8 84 f6 ff ff       	callq  403a80 <_ZdaPv@plt>
BenchmarkKernel<CSRGraph<int>, main(int, char**)::<lambda(const Graph&)>, void (*)(const CSRGraph<int>&, const pvector<float>&), main(int, char**)::<lambda(const Graph&, const pvector<float>&)> >():
/home/aliha951/ipdps-artifact/gapbs-master/src/benchmark.h:123
  for (int iter=0; iter < cli.num_trials(); iter++) {
  4043fc:	41 83 c4 01          	add    $0x1,%r12d
  404400:	44 39 a4 24 b4 01 00 	cmp    %r12d,0x1b4(%rsp)
  404407:	00 
  404408:	0f 8f aa fd ff ff    	jg     4041b8 <main+0x2f8>
_Z17ompt_mark_roi_endv():
/home/aliha951/ipdps-artifact/gapbs-master/src/../omp_runtime_visualizer/include/runtime_visualizer_utils.h:56
}

inline void ompt_mark_roi_end() {
  ompt_annotate("ROI_END");
  40440e:	48 8d 3d 19 ff 00 00 	lea    0xff19(%rip),%rdi        # 41432e <_IO_stdin_used+0x32e>
  404415:	e8 46 31 00 00       	callq  407560 <_Z13ompt_annotatePKc>
BenchmarkKernel<CSRGraph<int>, main(int, char**)::<lambda(const Graph&)>, void (*)(const CSRGraph<int>&, const pvector<float>&), main(int, char**)::<lambda(const Graph&, const pvector<float>&)> >():
/home/aliha951/ipdps-artifact/gapbs-master/src/benchmark.h:143
  }
  
  // adding profiling markers and rusage counters for performance analysis
  ompt_mark_roi_end();
  stop_time_stats();
  40441a:	e8 91 22 00 00       	callq  4066b0 <_Z15stop_time_statsv>
/home/aliha951/ipdps-artifact/gapbs-master/src/benchmark.h:144
  trace_marker("BenchmarkKernel_End");
  40441f:	48 8d 3d 10 ff 00 00 	lea    0xff10(%rip),%rdi        # 414336 <_IO_stdin_used+0x336>
  404426:	e8 a5 24 00 00       	callq  4068d0 <_Z12trace_markerPKc>
/home/aliha951/ipdps-artifact/gapbs-master/src/benchmark.h:145
  stop_counters(&perf_ctrs, &user_time, &kernel_time ,&user_instructions, &kernel_instructions);
  40442b:	48 8d 4c 24 28       	lea    0x28(%rsp),%rcx
  404430:	48 8d 54 24 60       	lea    0x60(%rsp),%rdx
  404435:	48 8d 74 24 38       	lea    0x38(%rsp),%rsi
  40443a:	4c 8d 44 24 30       	lea    0x30(%rsp),%r8
  40443f:	48 8d 3d 4a 54 01 00 	lea    0x1544a(%rip),%rdi        # 419890 <perf_ctrs>
  404446:	e8 e5 28 00 00       	callq  406d30 <_Z13stop_countersP13perf_countersPxS1_S1_S1_>
/home/aliha951/ipdps-artifact/gapbs-master/src/benchmark.h:146
  snapshot_proc_stat(END);
  40444b:	bf 01 00 00 00       	mov    $0x1,%edi
  404450:	e8 fb 5b 00 00       	callq  40a050 <_Z18snapshot_proc_stat13SnapshotPoint>
/home/aliha951/ipdps-artifact/gapbs-master/src/benchmark.h:147
  snapshot_proc_pid(END);
  404455:	bf 01 00 00 00       	mov    $0x1,%edi
  40445a:	e8 c1 58 00 00       	callq  409d20 <_Z17snapshot_proc_pid13SnapshotPoint>
/home/aliha951/ipdps-artifact/gapbs-master/src/benchmark.h:148
  stop_taskstats();
  40445f:	e8 9c 2e 00 00       	callq  407300 <_Z14stop_taskstatsv>
_Z15stop_disk_statsv():
/home/aliha951/ipdps-artifact/gapbs-master/src/profiling_utils.h:316
}

inline void stop_disk_stats() {
  if (diskstat_pid > 0) {
  404464:	8b 05 ea 4e 01 00    	mov    0x14eea(%rip),%eax        # 419354 <diskstat_pid>
  40446a:	85 c0                	test   %eax,%eax
  40446c:	0f 8f fe 01 00 00    	jg     404670 <main+0x7b0>
BenchmarkKernel<CSRGraph<int>, main(int, char**)::<lambda(const Graph&)>, void (*)(const CSRGraph<int>&, const pvector<float>&), main(int, char**)::<lambda(const Graph&, const pvector<float>&)> >():
/home/aliha951/ipdps-artifact/gapbs-master/src/benchmark.h:150
  stop_disk_stats();
  cleanup_counters(&perf_ctrs);
  404472:	48 8d 3d 17 54 01 00 	lea    0x15417(%rip),%rdi        # 419890 <perf_ctrs>
  404479:	e8 f2 2a 00 00       	callq  406f70 <_Z16cleanup_countersP13perf_counters>
/home/aliha951/ipdps-artifact/gapbs-master/src/benchmark.h:151
  measure_time_stats();
  40447e:	e8 5d 22 00 00       	callq  4066e0 <_Z18measure_time_statsv>
/home/aliha951/ipdps-artifact/gapbs-master/src/benchmark.h:153

  PrintTime("Average Time", total_seconds / cli.num_trials());
  404483:	66 0f ef c0          	pxor   %xmm0,%xmm0
  404487:	f2 0f 10 1c 24       	movsd  (%rsp),%xmm3
  40448c:	48 8d 35 b7 fe 00 00 	lea    0xfeb7(%rip),%rsi        # 41434a <_IO_stdin_used+0x34a>
  404493:	4c 89 ef             	mov    %r13,%rdi
  404496:	f2 0f 2a 84 24 b4 01 	cvtsi2sdl 0x1b4(%rsp),%xmm0
  40449d:	00 00 
  40449f:	f2 0f 5e d8          	divsd  %xmm0,%xmm3
  4044a3:	66 48 0f 7e dd       	movq   %xmm3,%rbp
  4044a8:	e8 33 18 00 00       	callq  405ce0 <_ZNSt7__cxx1112basic_stringIcSt11char_traitsIcESaIcEEC2EPKcRKS3_.constprop.0>
  4044ad:	66 48 0f 6e c5       	movq   %rbp,%xmm0
  4044b2:	4c 89 ef             	mov    %r13,%rdi
  4044b5:	e8 26 1b 00 00       	callq  405fe0 <_Z9PrintTimeRKNSt7__cxx1112basic_stringIcSt11char_traitsIcESaIcEEEd>
_ZNKSt7__cxx1112basic_stringIcSt11char_traitsIcESaIcEE7_M_dataEv():
/usr/include/c++/10/bits/basic_string.h:195
      { return _M_dataplus._M_p; }
  4044ba:	48 8b bc 24 e0 00 00 	mov    0xe0(%rsp),%rdi
  4044c1:	00 
_ZNSt7__cxx1112basic_stringIcSt11char_traitsIcESaIcEE10_M_disposeEv():
/usr/include/c++/10/bits/basic_string.h:239
	if (!_M_is_local())
  4044c2:	48 39 df             	cmp    %rbx,%rdi
  4044c5:	74 05                	je     4044cc <main+0x60c>
_ZN9__gnu_cxx13new_allocatorIcE10deallocateEPcm():
/usr/include/c++/10/ext/new_allocator.h:139
  4044c7:	e8 74 f4 ff ff       	callq  403940 <_ZdlPv@plt>
_ZN8CSRGraphIiiLb1EED4Ev():
/home/aliha951/ipdps-artifact/gapbs-master/src/graph.h:166
  4044cc:	4c 89 f7             	mov    %r14,%rdi
main():
/home/aliha951/ipdps-artifact/gapbs-master/src/pr.cc:111
  };
  BenchmarkKernel(cli, g, PRBound, PrintTopScores, VerifierBound);
  return 0;
  4044cf:	45 31 e4             	xor    %r12d,%r12d
_ZN8CSRGraphIiiLb1EED4Ev():
/home/aliha951/ipdps-artifact/gapbs-master/src/graph.h:166
  4044d2:	e8 29 5d 00 00       	callq  40a200 <_ZN8CSRGraphIiiLb1EE16ReleaseResourcesEv>
_ZN5CLAppD4Ev():
/home/aliha951/ipdps-artifact/gapbs-master/src/command_line.h:140
class CLApp : public CLBase {
  4044d7:	48 8b 7c 24 18       	mov    0x18(%rsp),%rdi
  4044dc:	48 8d 05 0d 46 01 00 	lea    0x1460d(%rip),%rax        # 418af0 <_ZTV5CLApp+0x10>
  4044e3:	48 89 84 24 00 01 00 	mov    %rax,0x100(%rsp)
  4044ea:	00 
  4044eb:	e8 80 57 00 00       	callq  409c70 <_ZN6CLBaseD1Ev>
main():
/home/aliha951/ipdps-artifact/gapbs-master/src/pr.cc:112
}
  4044f0:	48 8b 84 24 d8 02 00 	mov    0x2d8(%rsp),%rax
  4044f7:	00 
  4044f8:	64 48 2b 04 25 28 00 	sub    %fs:0x28,%rax
  4044ff:	00 00 
  404501:	0f 85 dd 03 00 00    	jne    4048e4 <main+0xa24>
  404507:	48 81 c4 e8 02 00 00 	add    $0x2e8,%rsp
  40450e:	44 89 e0             	mov    %r12d,%eax
  404511:	5b                   	pop    %rbx
  404512:	5d                   	pop    %rbp
  404513:	41 5c                	pop    %r12
  404515:	41 5d                	pop    %r13
  404517:	41 5e                	pop    %r14
  404519:	41 5f                	pop    %r15
  40451b:	c3                   	retq   
  40451c:	0f 1f 40 00          	nopl   0x0(%rax)
_ZNSt11char_traitsIcE4copyEPcPKcm():
/usr/include/c++/10/bits/char_traits.h:431
	if (__n == 0)
  404520:	48 85 c0             	test   %rax,%rax
  404523:	0f 85 1d 04 00 00    	jne    404946 <main+0xa86>
  404529:	48 89 da             	mov    %rbx,%rdx
  40452c:	e9 05 fb ff ff       	jmpq   404036 <main+0x176>
  404531:	0f 1f 80 00 00 00 00 	nopl   0x0(%rax)
_ZNSt7__cxx1112basic_stringIcSt11char_traitsIcESaIcEE12_M_constructIPKcEEvT_S8_St20forward_iterator_tag():
/usr/include/c++/10/bits/basic_string.tcc:219
	    _M_data(_M_create(__dnew, size_type(0)));
  404538:	31 d2                	xor    %edx,%edx
  40453a:	4c 89 e6             	mov    %r12,%rsi
  40453d:	4c 89 ef             	mov    %r13,%rdi
  404540:	e8 0b f7 ff ff       	callq  403c50 <_ZNSt7__cxx1112basic_stringIcSt11char_traitsIcESaIcEE9_M_createERmm@plt>
_ZNSt7__cxx1112basic_stringIcSt11char_traitsIcESaIcEE7_M_dataEPc():
/usr/include/c++/10/bits/basic_string.h:187
      { _M_dataplus._M_p = __p; }
  404545:	48 89 84 24 e0 00 00 	mov    %rax,0xe0(%rsp)
  40454c:	00 
_ZNSt7__cxx1112basic_stringIcSt11char_traitsIcESaIcEE12_M_constructIPKcEEvT_S8_St20forward_iterator_tag():
/usr/include/c++/10/bits/basic_string.tcc:219
  40454d:	48 89 c7             	mov    %rax,%rdi
_ZNSt7__cxx1112basic_stringIcSt11char_traitsIcESaIcEE11_M_capacityEm():
/usr/include/c++/10/bits/basic_string.h:219
      { _M_allocated_capacity = __capacity; }
  404550:	48 8b 84 24 80 00 00 	mov    0x80(%rsp),%rax
  404557:	00 
  404558:	48 89 84 24 f0 00 00 	mov    %rax,0xf0(%rsp)
  40455f:	00 
_ZNSt11char_traitsIcE4copyEPcPKcm():
/usr/include/c++/10/bits/char_traits.h:437
	return static_cast<char_type*>(__builtin_memcpy(__s1, __s2, __n));
  404560:	4c 89 f2             	mov    %r14,%rdx
  404563:	48 89 ee             	mov    %rbp,%rsi
  404566:	e8 65 f3 ff ff       	callq  4038d0 <memcpy@plt>
_ZNSt7__cxx1112basic_stringIcSt11char_traitsIcESaIcEE12_M_constructIPKcEEvT_S8_St20forward_iterator_tag():
/usr/include/c++/10/bits/basic_string.tcc:232
	_M_set_length(__dnew);
  40456b:	48 8b 84 24 80 00 00 	mov    0x80(%rsp),%rax
  404572:	00 
_ZNKSt7__cxx1112basic_stringIcSt11char_traitsIcESaIcEE7_M_dataEv():
/usr/include/c++/10/bits/basic_string.h:195
      { return _M_dataplus._M_p; }
  404573:	48 8b 94 24 e0 00 00 	mov    0xe0(%rsp),%rdx
  40457a:	00 
_ZNSt11char_traitsIcE4copyEPcPKcm():
/usr/include/c++/10/bits/char_traits.h:437
  40457b:	e9 b6 fa ff ff       	jmpq   404036 <main+0x176>
_ZN6CLBase9HandleArgEaPc():
/home/aliha951/ipdps-artifact/gapbs-master/src/command_line.h:100
    switch (opt) {
  404580:	83 e8 66             	sub    $0x66,%eax
  404583:	3c 13                	cmp    $0x13,%al
  404585:	0f 87 f5 f9 ff ff    	ja     403f80 <main+0xc0>
  40458b:	48 8d 0d d2 08 01 00 	lea    0x108d2(%rip),%rcx        # 414e64 <_IO_stdin_used+0xe64>
  404592:	0f b6 c0             	movzbl %al,%eax
  404595:	48 63 04 81          	movslq (%rcx,%rax,4),%rax
  404599:	48 01 c8             	add    %rcx,%rax
  40459c:	3e ff e0             	notrack jmpq *%rax
_ZN6CLBase9ParseArgsEv():
/home/aliha951/ipdps-artifact/gapbs-master/src/command_line.h:90
    if ((filename_ == "") && (scale_ == -1)) {
  40459f:	44 8b a4 24 70 01 00 	mov    0x170(%rsp),%r12d
  4045a6:	00 
  4045a7:	41 83 fc ff          	cmp    $0xffffffff,%r12d
  4045ab:	0f 84 37 01 00 00    	je     4046e8 <main+0x828>
/home/aliha951/ipdps-artifact/gapbs-master/src/command_line.h:95
      symmetrize_ = true;
  4045b1:	c6 84 24 98 01 00 00 	movb   $0x1,0x198(%rsp)
  4045b8:	01 
/home/aliha951/ipdps-artifact/gapbs-master/src/command_line.h:92
      return false;
  4045b9:	e9 24 fb ff ff       	jmpq   4040e2 <main+0x222>
_ZN5CLApp9HandleArgEaPc():
/home/aliha951/ipdps-artifact/gapbs-master/src/command_line.h:174
      case 'z': pin_vertices_ = true;                 	break;
  4045be:	c6 84 24 c3 01 00 00 	movb   $0x1,0x1c3(%rsp)
  4045c5:	01 
  4045c6:	e9 b5 f9 ff ff       	jmpq   403f80 <main+0xc0>
/home/aliha951/ipdps-artifact/gapbs-master/src/command_line.h:169
      case 'v': do_verify_ = true;                      break;
  4045cb:	c6 84 24 c0 01 00 00 	movb   $0x1,0x1c0(%rsp)
  4045d2:	01 
  4045d3:	e9 a8 f9 ff ff       	jmpq   403f80 <main+0xc0>
main():
/usr/include/stdlib.h:368
}
__extern_inline long int
__NTH (atol (const char *__nptr))
{
  return strtol (__nptr, (char **) NULL, 10);
  4045d8:	ba 0a 00 00 00       	mov    $0xa,%edx
atol():
/usr/include/stdlib.h:368
  4045dd:	31 f6                	xor    %esi,%esi
  4045df:	48 89 ef             	mov    %rbp,%rdi
  4045e2:	e8 d9 f4 ff ff       	callq  403ac0 <strtol@plt>
_ZN5CLApp9HandleArgEaPc():
/home/aliha951/ipdps-artifact/gapbs-master/src/command_line.h:168
      case 'r': start_vertex_ = atol(opt_arg);          break;
  4045e7:	48 89 84 24 b8 01 00 	mov    %rax,0x1b8(%rsp)
  4045ee:	00 
  4045ef:	e9 8c f9 ff ff       	jmpq   403f80 <main+0xc0>
/home/aliha951/ipdps-artifact/gapbs-master/src/command_line.h:173
      case 'p': partial_execution_ = true;              break;
  4045f4:	c6 84 24 c2 01 00 00 	movb   $0x1,0x1c2(%rsp)
  4045fb:	01 
  4045fc:	e9 7f f9 ff ff       	jmpq   403f80 <main+0xc0>
main():
/usr/include/stdlib.h:363
  return (int) strtol (__nptr, (char **) NULL, 10);
  404601:	ba 0a 00 00 00       	mov    $0xa,%edx
atoi():
/usr/include/stdlib.h:363
  404606:	31 f6                	xor    %esi,%esi
  404608:	48 89 ef             	mov    %rbp,%rdi
  40460b:	e8 b0 f4 ff ff       	callq  403ac0 <strtol@plt>
  404610:	89 84 24 b4 01 00 00 	mov    %eax,0x1b4(%rsp)
_ZN5CLApp9HandleArgEaPc():
/home/aliha951/ipdps-artifact/gapbs-master/src/command_line.h:167
      case 'n': num_trials_ = atoi(opt_arg);            break;
  404617:	e9 64 f9 ff ff       	jmpq   403f80 <main+0xc0>
/home/aliha951/ipdps-artifact/gapbs-master/src/command_line.h:170
      case 'l': enable_logging_ = true;                 break;
  40461c:	c6 84 24 c1 01 00 00 	movb   $0x1,0x1c1(%rsp)
  404623:	01 
  404624:	e9 57 f9 ff ff       	jmpq   403f80 <main+0xc0>
/home/aliha951/ipdps-artifact/gapbs-master/src/command_line.h:166
      case 'a': do_analysis_ = true;                    break;
  404629:	c6 84 24 b0 01 00 00 	movb   $0x1,0x1b0(%rsp)
  404630:	01 
  404631:	e9 4a f9 ff ff       	jmpq   403f80 <main+0xc0>
  404636:	66 2e 0f 1f 84 00 00 	nopw   %cs:0x0(%rax,%rax,1)
  40463d:	00 00 00 
BenchmarkKernel<CSRGraph<int>, main(int, char**)::<lambda(const Graph&)>, void (*)(const CSRGraph<int>&, const pvector<float>&), main(int, char**)::<lambda(const Graph&, const pvector<float>&)> >():
/home/aliha951/ipdps-artifact/gapbs-master/src/benchmark.h:123
  for (int iter=0; iter < cli.num_trials(); iter++) {
  404640:	41 83 c4 01          	add    $0x1,%r12d
  404644:	44 39 a4 24 b4 01 00 	cmp    %r12d,0x1b4(%rsp)
  40464b:	00 
  40464c:	0f 8f 66 fb ff ff    	jg     4041b8 <main+0x2f8>
  404652:	e9 b7 fd ff ff       	jmpq   40440e <main+0x54e>
  404657:	66 0f 1f 84 00 00 00 	nopw   0x0(%rax,%rax,1)
  40465e:	00 00 
/home/aliha951/ipdps-artifact/gapbs-master/src/benchmark.h:130
      stats(g, result);
  404660:	4c 89 fe             	mov    %r15,%rsi
  404663:	4c 89 f7             	mov    %r14,%rdi
  404666:	e8 05 37 00 00       	callq  407d70 <_Z14PrintTopScoresRK8CSRGraphIiiLb1EERK7pvectorIfE>
  40466b:	e9 0b fc ff ff       	jmpq   40427b <main+0x3bb>
main():
/usr/include/x86_64-linux-gnu/bits/stdio2.h:67
# ifdef __va_arg_pack
__fortify_function int
__NTH (snprintf (char *__restrict __s, size_t __n,
		 const char *__restrict __fmt, ...))
{
  return __builtin___snprintf_chk (__s, __n, __USE_FORTIFY_LEVEL - 1,
  404670:	4c 8d 84 24 d0 01 00 	lea    0x1d0(%rsp),%r8
  404677:	00 
snprintf():
/usr/include/x86_64-linux-gnu/bits/stdio2.h:67
  404678:	48 8d 35 49 01 01 00 	lea    0x10149(%rip),%rsi        # 4147c8 <_IO_stdin_used+0x7c8>
  40467f:	b9 09 00 00 00       	mov    $0x9,%ecx
  404684:	4c 89 c7             	mov    %r8,%rdi
  404687:	f3 a5                	rep movsl %ds:(%rsi),%es:(%rdi)
_Z15stop_disk_statsv():
/home/aliha951/ipdps-artifact/gapbs-master/src/profiling_utils.h:319
    char command[256];
    snprintf(command, sizeof(command), "sudo pkill -f 'gather_diskstats.sh'");
    int ret = system(command);
  404689:	4c 89 c7             	mov    %r8,%rdi
  40468c:	e8 6f f2 ff ff       	callq  403900 <system@plt>
/home/aliha951/ipdps-artifact/gapbs-master/src/profiling_utils.h:320
    if (ret==-1)	std::cout << "could not stop diskstat gathering\n";
  404691:	83 c0 01             	add    $0x1,%eax
  404694:	0f 85 d8 fd ff ff    	jne    404472 <main+0x5b2>
_ZStlsISt11char_traitsIcEERSt13basic_ostreamIcT_ES5_PKc():
/usr/include/c++/10/ostream:611
    operator<<(basic_ostream<char, _Traits>& __out, const char* __s)
    {
      if (!__s)
	__out.setstate(ios_base::badbit);
      else
	__ostream_insert(__out, __s,
  40469a:	ba 22 00 00 00       	mov    $0x22,%edx
  40469f:	48 8d 35 4a 01 01 00 	lea    0x1014a(%rip),%rsi        # 4147f0 <_IO_stdin_used+0x7f0>
  4046a6:	48 8d 3d 13 4d 01 00 	lea    0x14d13(%rip),%rdi        # 4193c0 <_ZSt4cout@@GLIBCXX_3.4>
  4046ad:	e8 1e f3 ff ff       	callq  4039d0 <_ZSt16__ostream_insertIcSt11char_traitsIcEERSt13basic_ostreamIT_T0_ES6_PKS3_l@plt>
  4046b2:	e9 bb fd ff ff       	jmpq   404472 <main+0x5b2>
_ZN6CLBase9HandleArgEaPc():
/home/aliha951/ipdps-artifact/gapbs-master/src/command_line.h:106
      case 'u': uniform_ = true; scale_ = atoi(opt_arg);                break;
  4046b7:	c6 84 24 99 01 00 00 	movb   $0x1,0x199(%rsp)
  4046be:	01 
main():
/usr/include/stdlib.h:363
  4046bf:	ba 0a 00 00 00       	mov    $0xa,%edx
atoi():
/usr/include/stdlib.h:363
  4046c4:	31 f6                	xor    %esi,%esi
  4046c6:	48 89 ef             	mov    %rbp,%rdi
  4046c9:	e8 f2 f3 ff ff       	callq  403ac0 <strtol@plt>
  4046ce:	89 84 24 70 01 00 00 	mov    %eax,0x170(%rsp)
_ZN6CLBase9HandleArgEaPc():
/home/aliha951/ipdps-artifact/gapbs-master/src/command_line.h:106
  4046d5:	e9 a6 f8 ff ff       	jmpq   403f80 <main+0xc0>
BenchmarkKernel<CSRGraph<int>, main(int, char**)::<lambda(const Graph&)>, void (*)(const CSRGraph<int>&, const pvector<float>&), main(int, char**)::<lambda(const Graph&, const pvector<float>&)> >():
/home/aliha951/ipdps-artifact/gapbs-master/src/benchmark.h:108
  double total_seconds = 0;
  4046da:	66 0f ef ed          	pxor   %xmm5,%xmm5
  4046de:	f2 0f 11 2c 24       	movsd  %xmm5,(%rsp)
  4046e3:	e9 26 fd ff ff       	jmpq   40440e <main+0x54e>
_ZStlsISt11char_traitsIcEERSt13basic_ostreamIcT_ES5_PKc():
/usr/include/c++/10/ostream:611
  4046e8:	ba 2b 00 00 00       	mov    $0x2b,%edx
  4046ed:	48 8d 35 74 00 01 00 	lea    0x10074(%rip),%rsi        # 414768 <_IO_stdin_used+0x768>
  4046f4:	48 8d 3d c5 4c 01 00 	lea    0x14cc5(%rip),%rdi        # 4193c0 <_ZSt4cout@@GLIBCXX_3.4>
  4046fb:	e8 d0 f2 ff ff       	callq  4039d0 <_ZSt16__ostream_insertIcSt11char_traitsIcEERSt13basic_ostreamIT_T0_ES6_PKS3_l@plt>
_ZNSolsEPFRSoS_E():
/usr/include/c++/10/ostream:113
	return __pf(*this);
  404700:	48 8d 3d b9 4c 01 00 	lea    0x14cb9(%rip),%rdi        # 4193c0 <_ZSt4cout@@GLIBCXX_3.4>
  404707:	e8 54 15 00 00       	callq  405c60 <_ZSt4endlIcSt11char_traitsIcEERSt13basic_ostreamIT_T0_ES6_.isra.0>
  40470c:	e9 c6 fd ff ff       	jmpq   4044d7 <main+0x617>
_ZN6CLBase9HandleArgEaPc():
/home/aliha951/ipdps-artifact/gapbs-master/src/command_line.h:101
      case 'f': filename_ = std::string(opt_arg);                       break;
  404711:	48 89 ee             	mov    %rbp,%rsi
  404714:	4c 89 ef             	mov    %r13,%rdi
  404717:	e8 c4 15 00 00       	callq  405ce0 <_ZNSt7__cxx1112basic_stringIcSt11char_traitsIcESaIcEEC2EPKcRKS3_.constprop.0>
_ZNKSt7__cxx1112basic_stringIcSt11char_traitsIcESaIcEE7_M_dataEv():
/usr/include/c++/10/bits/basic_string.h:195
  40471c:	48 8b 84 24 e0 00 00 	mov    0xe0(%rsp),%rax
  404723:	00 
  404724:	48 8b bc 24 78 01 00 	mov    0x178(%rsp),%rdi
  40472b:	00 
_ZNKSt7__cxx1112basic_stringIcSt11char_traitsIcESaIcEE4sizeEv():
/usr/include/c++/10/bits/basic_string.h:915
      { return _M_string_length; }
  40472c:	48 8b 94 24 e8 00 00 	mov    0xe8(%rsp),%rdx
  404733:	00 
_ZNSt7__cxx1112basic_stringIcSt11char_traitsIcESaIcEEaSEOS4_():
/usr/include/c++/10/bits/basic_string.h:731
	if (__str._M_is_local())
  404734:	48 39 d8             	cmp    %rbx,%rax
  404737:	0f 84 14 01 00 00    	je     404851 <main+0x991>
/usr/include/c++/10/bits/basic_string.h:759
	    _M_capacity(__str._M_allocated_capacity);
  40473d:	48 8b 8c 24 f0 00 00 	mov    0xf0(%rsp),%rcx
  404744:	00 
/usr/include/c++/10/bits/basic_string.h:745
	    if (!_M_is_local())
  404745:	48 3b 7c 24 08       	cmp    0x8(%rsp),%rdi
  40474a:	0f 84 35 01 00 00    	je     404885 <main+0x9c5>
_ZNSt7__cxx1112basic_stringIcSt11char_traitsIcESaIcEE9_M_lengthEm():
/usr/include/c++/10/bits/basic_string.h:191
      { _M_string_length = __length; }
  404750:	66 48 0f 6e c2       	movq   %rdx,%xmm0
  404755:	66 48 0f 6e f1       	movq   %rcx,%xmm6
_ZNSt7__cxx1112basic_stringIcSt11char_traitsIcESaIcEEaSEOS4_():
/usr/include/c++/10/bits/basic_string.h:751
		    __capacity = _M_allocated_capacity;
  40475a:	48 8b b4 24 88 01 00 	mov    0x188(%rsp),%rsi
  404761:	00 
_ZNSt7__cxx1112basic_stringIcSt11char_traitsIcESaIcEE7_M_dataEPc():
/usr/include/c++/10/bits/basic_string.h:187
      { _M_dataplus._M_p = __p; }
  404762:	48 89 84 24 78 01 00 	mov    %rax,0x178(%rsp)
  404769:	00 
_ZNSt7__cxx1112basic_stringIcSt11char_traitsIcESaIcEE9_M_lengthEm():
/usr/include/c++/10/bits/basic_string.h:191
      { _M_string_length = __length; }
  40476a:	66 0f 6c c6          	punpcklqdq %xmm6,%xmm0
  40476e:	0f 29 84 24 80 01 00 	movaps %xmm0,0x180(%rsp)
  404775:	00 
_ZNSt7__cxx1112basic_stringIcSt11char_traitsIcESaIcEEaSEOS4_():
/usr/include/c++/10/bits/basic_string.h:760
	    if (__data)
  404776:	48 85 ff             	test   %rdi,%rdi
  404779:	0f 84 24 01 00 00    	je     4048a3 <main+0x9e3>
_ZNSt7__cxx1112basic_stringIcSt11char_traitsIcESaIcEE7_M_dataEPc():
/usr/include/c++/10/bits/basic_string.h:187
      { _M_dataplus._M_p = __p; }
  40477f:	48 89 bc 24 e0 00 00 	mov    %rdi,0xe0(%rsp)
  404786:	00 
_ZNSt7__cxx1112basic_stringIcSt11char_traitsIcESaIcEE11_M_capacityEm():
/usr/include/c++/10/bits/basic_string.h:219
      { _M_allocated_capacity = __capacity; }
  404787:	48 89 b4 24 f0 00 00 	mov    %rsi,0xf0(%rsp)
  40478e:	00 
_ZNKSt7__cxx1112basic_stringIcSt11char_traitsIcESaIcEE7_M_dataEv():
/usr/include/c++/10/bits/basic_string.h:195
      { return _M_dataplus._M_p; }
  40478f:	48 8b 84 24 e0 00 00 	mov    0xe0(%rsp),%rax
  404796:	00 
_ZNSt7__cxx1112basic_stringIcSt11char_traitsIcESaIcEE9_M_lengthEm():
/usr/include/c++/10/bits/basic_string.h:191
      { _M_string_length = __length; }
  404797:	48 c7 84 24 e8 00 00 	movq   $0x0,0xe8(%rsp)
  40479e:	00 00 00 00 00 
_ZNSt11char_traitsIcE6assignERcRKc():
/usr/include/c++/10/bits/char_traits.h:357
      { __c1 = __c2; }
  4047a3:	c6 00 00             	movb   $0x0,(%rax)
_ZNKSt7__cxx1112basic_stringIcSt11char_traitsIcESaIcEE7_M_dataEv():
/usr/include/c++/10/bits/basic_string.h:195
      { return _M_dataplus._M_p; }
  4047a6:	48 8b bc 24 e0 00 00 	mov    0xe0(%rsp),%rdi
  4047ad:	00 
_ZNSt7__cxx1112basic_stringIcSt11char_traitsIcESaIcEE10_M_disposeEv():
/usr/include/c++/10/bits/basic_string.h:239
	if (!_M_is_local())
  4047ae:	48 39 df             	cmp    %rbx,%rdi
  4047b1:	0f 85 f0 f8 ff ff    	jne    4040a7 <main+0x1e7>
  4047b7:	e9 c4 f7 ff ff       	jmpq   403f80 <main+0xc0>
main():
/usr/include/stdlib.h:363
  4047bc:	ba 0a 00 00 00       	mov    $0xa,%edx
atoi():
/usr/include/stdlib.h:363
  4047c1:	31 f6                	xor    %esi,%esi
  4047c3:	48 89 ef             	mov    %rbp,%rdi
  4047c6:	e8 f5 f2 ff ff       	callq  403ac0 <strtol@plt>
  4047cb:	89 84 24 74 01 00 00 	mov    %eax,0x174(%rsp)
_ZN6CLBase9HandleArgEaPc():
/home/aliha951/ipdps-artifact/gapbs-master/src/command_line.h:104
      case 'k': degree_ = atoi(opt_arg);                                break;
  4047d2:	e9 a9 f7 ff ff       	jmpq   403f80 <main+0xc0>
/home/aliha951/ipdps-artifact/gapbs-master/src/command_line.h:112
      case 'o': batching_mode_ = MADVISE;                               break;
  4047d7:	c7 84 24 ac 01 00 00 	movl   $0x2,0x1ac(%rsp)
  4047de:	02 00 00 00 
  4047e2:	e9 99 f7 ff ff       	jmpq   403f80 <main+0xc0>
/home/aliha951/ipdps-artifact/gapbs-master/src/command_line.h:109
      case 'q': batching_ = true;                                       break;
  4047e7:	c6 84 24 9b 01 00 00 	movb   $0x1,0x19b(%rsp)
  4047ee:	01 
  4047ef:	e9 8c f7 ff ff       	jmpq   403f80 <main+0xc0>
/home/aliha951/ipdps-artifact/gapbs-master/src/command_line.h:105
      case 's': symmetrize_ = true;                                     break;
  4047f4:	c6 84 24 98 01 00 00 	movb   $0x1,0x198(%rsp)
  4047fb:	01 
  4047fc:	e9 7f f7 ff ff       	jmpq   403f80 <main+0xc0>
main():
/usr/include/stdlib.h:363
  404801:	ba 0a 00 00 00       	mov    $0xa,%edx
atoi():
/usr/include/stdlib.h:363
  404806:	31 f6                	xor    %esi,%esi
  404808:	48 89 ef             	mov    %rbp,%rdi
  40480b:	e8 b0 f2 ff ff       	callq  403ac0 <strtol@plt>
  404810:	89 84 24 a8 01 00 00 	mov    %eax,0x1a8(%rsp)
_ZN6CLBase9HandleArgEaPc():
/home/aliha951/ipdps-artifact/gapbs-master/src/command_line.h:111
      case 'x': readahead_size_ = atoi(opt_arg);                        break;
  404817:	e9 64 f7 ff ff       	jmpq   403f80 <main+0xc0>
main():
/usr/include/stdlib.h:363
  40481c:	ba 0a 00 00 00       	mov    $0xa,%edx
atoi():
/usr/include/stdlib.h:363
  404821:	31 f6                	xor    %esi,%esi
  404823:	48 89 ef             	mov    %rbp,%rdi
  404826:	e8 95 f2 ff ff       	callq  403ac0 <strtol@plt>
_ZN6CLBase9HandleArgEaPc():
/home/aliha951/ipdps-artifact/gapbs-master/src/command_line.h:110
      case 'y': queue_size_ = (long unsigned int) atoi(opt_arg);        break;
  40482b:	48 98                	cltq   
  40482d:	48 89 84 24 a0 01 00 	mov    %rax,0x1a0(%rsp)
  404834:	00 
  404835:	e9 46 f7 ff ff       	jmpq   403f80 <main+0xc0>
/home/aliha951/ipdps-artifact/gapbs-master/src/command_line.h:107
      case 'm': in_place_ = true;                                       break;
  40483a:	c6 84 24 9a 01 00 00 	movb   $0x1,0x19a(%rsp)
  404841:	01 
  404842:	e9 39 f7 ff ff       	jmpq   403f80 <main+0xc0>
/home/aliha951/ipdps-artifact/gapbs-master/src/command_line.h:103
      case 'h': PrintUsage();                                           break;
  404847:	48 8b 7c 24 18       	mov    0x18(%rsp),%rdi
  40484c:	e8 7f 4a 00 00       	callq  4092d0 <_ZN6CLBase10PrintUsageEv>
_ZNSt7__cxx1112basic_stringIcSt11char_traitsIcESaIcEEaSEOS4_():
/usr/include/c++/10/bits/basic_string.h:734
	    if (__str.size())
  404851:	48 85 d2             	test   %rdx,%rdx
  404854:	74 1e                	je     404874 <main+0x9b4>
_ZNSt7__cxx1112basic_stringIcSt11char_traitsIcESaIcEE7_S_copyEPcPKcm():
/usr/include/c++/10/bits/basic_string.h:356
	if (__n == 1)
  404856:	48 83 fa 01          	cmp    $0x1,%rdx
  40485a:	74 54                	je     4048b0 <main+0x9f0>
_ZNSt11char_traitsIcE4copyEPcPKcm():
/usr/include/c++/10/bits/char_traits.h:437
	return static_cast<char_type*>(__builtin_memcpy(__s1, __s2, __n));
  40485c:	48 89 de             	mov    %rbx,%rsi
  40485f:	e8 6c f0 ff ff       	callq  4038d0 <memcpy@plt>
  404864:	48 8b bc 24 78 01 00 	mov    0x178(%rsp),%rdi
  40486b:	00 
  40486c:	48 8b 94 24 e8 00 00 	mov    0xe8(%rsp),%rdx
  404873:	00 
_ZNSt7__cxx1112basic_stringIcSt11char_traitsIcESaIcEE9_M_lengthEm():
/usr/include/c++/10/bits/basic_string.h:191
      { _M_string_length = __length; }
  404874:	48 89 94 24 80 01 00 	mov    %rdx,0x180(%rsp)
  40487b:	00 
_ZNSt11char_traitsIcE6assignERcRKc():
/usr/include/c++/10/bits/char_traits.h:357
      { __c1 = __c2; }
  40487c:	c6 04 17 00          	movb   $0x0,(%rdi,%rdx,1)
_ZNSt7__cxx1112basic_stringIcSt11char_traitsIcESaIcEE13_M_set_lengthEm():
/usr/include/c++/10/bits/basic_string.h:226
      }
  404880:	e9 0a ff ff ff       	jmpq   40478f <main+0x8cf>
_ZNSt7__cxx1112basic_stringIcSt11char_traitsIcESaIcEE9_M_lengthEm():
/usr/include/c++/10/bits/basic_string.h:191
      { _M_string_length = __length; }
  404885:	66 48 0f 6e c2       	movq   %rdx,%xmm0
  40488a:	66 48 0f 6e f9       	movq   %rcx,%xmm7
_ZNSt7__cxx1112basic_stringIcSt11char_traitsIcESaIcEE7_M_dataEPc():
/usr/include/c++/10/bits/basic_string.h:187
      { _M_dataplus._M_p = __p; }
  40488f:	48 89 84 24 78 01 00 	mov    %rax,0x178(%rsp)
  404896:	00 
_ZNSt7__cxx1112basic_stringIcSt11char_traitsIcESaIcEE9_M_lengthEm():
/usr/include/c++/10/bits/basic_string.h:191
      { _M_string_length = __length; }
  404897:	66 0f 6c c7          	punpcklqdq %xmm7,%xmm0
  40489b:	0f 29 84 24 80 01 00 	movaps %xmm0,0x180(%rsp)
  4048a2:	00 
_ZNSt7__cxx1112basic_stringIcSt11char_traitsIcESaIcEE7_M_dataEPc():
/usr/include/c++/10/bits/basic_string.h:187
      { _M_dataplus._M_p = __p; }
  4048a3:	48 89 9c 24 e0 00 00 	mov    %rbx,0xe0(%rsp)
  4048aa:	00 
  4048ab:	e9 df fe ff ff       	jmpq   40478f <main+0x8cf>
_ZNSt11char_traitsIcE6assignERcRKc():
/usr/include/c++/10/bits/char_traits.h:357
  4048b0:	0f b6 84 24 f0 00 00 	movzbl 0xf0(%rsp),%eax
  4048b7:	00 
  4048b8:	88 07                	mov    %al,(%rdi)
  4048ba:	48 8b bc 24 78 01 00 	mov    0x178(%rsp),%rdi
  4048c1:	00 
  4048c2:	48 8b 94 24 e8 00 00 	mov    0xe8(%rsp),%rdx
  4048c9:	00 
  4048ca:	eb a8                	jmp    404874 <main+0x9b4>
_ZN9__gnu_cxx6__stoaIddcJEEET0_PFT_PKT1_PPS3_DpT2_EPKcS5_PmS9_():
/usr/include/c++/10/ext/string_conversions.h:83
	std::__throw_invalid_argument(__name);
  4048cc:	48 8d 3d 95 ff 00 00 	lea    0xff95(%rip),%rdi        # 414868 <_IO_stdin_used+0x868>
  4048d3:	e8 78 ef ff ff       	callq  403850 <_ZSt24__throw_invalid_argumentPKc@plt>
/usr/include/c++/10/ext/string_conversions.h:86
	std::__throw_out_of_range(__name);
  4048d8:	48 8d 3d 89 ff 00 00 	lea    0xff89(%rip),%rdi        # 414868 <_IO_stdin_used+0x868>
  4048df:	e8 3c f2 ff ff       	callq  403b20 <_ZSt20__throw_out_of_rangePKc@plt>
main():
/home/aliha951/ipdps-artifact/gapbs-master/src/pr.cc:112
  4048e4:	e8 d7 f0 ff ff       	callq  4039c0 <__stack_chk_fail@plt>
_Z16start_disk_statsPKc():
/home/aliha951/ipdps-artifact/gapbs-master/src/profiling_utils.h:302
    perror("fork failed");
  4048e9:	48 8d 3d d9 f9 00 00 	lea    0xf9d9(%rip),%rdi        # 4142c9 <_IO_stdin_used+0x2c9>
  4048f0:	e8 eb ef ff ff       	callq  4038e0 <perror@plt>
/home/aliha951/ipdps-artifact/gapbs-master/src/profiling_utils.h:303
    exit(EXIT_FAILURE);
  4048f5:	bf 01 00 00 00       	mov    $0x1,%edi
  4048fa:	e8 31 f1 ff ff       	callq  403a30 <exit@plt>
/home/aliha951/ipdps-artifact/gapbs-master/src/profiling_utils.h:306
	  move_to_cgroup(root_cgroup, getpid());
  4048ff:	e8 2c f2 ff ff       	callq  403b30 <getpid@plt>
  404904:	48 8d 3d ca f9 00 00 	lea    0xf9ca(%rip),%rdi        # 4142d5 <_IO_stdin_used+0x2d5>
  40490b:	89 c6                	mov    %eax,%esi
  40490d:	e8 8e 26 00 00       	callq  406fa0 <_Z14move_to_cgroupPKci>
/home/aliha951/ipdps-artifact/gapbs-master/src/profiling_utils.h:307
    execlp("/home/aliha951/ipdps-gapbs/gather_diskstats.sh", "/home/aliha951/ipdps-gapbs/gather_diskstats.sh", result_file_name, NULL);
  404912:	48 8d 35 7f fe 00 00 	lea    0xfe7f(%rip),%rsi        # 414798 <_IO_stdin_used+0x798>
  404919:	31 c9                	xor    %ecx,%ecx
  40491b:	48 8d 15 c9 f9 00 00 	lea    0xf9c9(%rip),%rdx        # 4142eb <_IO_stdin_used+0x2eb>
  404922:	31 c0                	xor    %eax,%eax
  404924:	48 89 f7             	mov    %rsi,%rdi
  404927:	e8 54 ee ff ff       	callq  403780 <execlp@plt>
/home/aliha951/ipdps-artifact/gapbs-master/src/profiling_utils.h:308
    perror("execlp failed");
  40492c:	48 8d 3d c3 f9 00 00 	lea    0xf9c3(%rip),%rdi        # 4142f6 <_IO_stdin_used+0x2f6>
  404933:	e8 a8 ef ff ff       	callq  4038e0 <perror@plt>
  404938:	eb bb                	jmp    4048f5 <main+0xa35>
_ZNSt7__cxx1112basic_stringIcSt11char_traitsIcESaIcEE12_M_constructIPKcEEvT_S8_St20forward_iterator_tag():
/usr/include/c++/10/bits/basic_string.tcc:212
	  std::__throw_logic_error(__N("basic_string::"
  40493a:	48 8d 3d 17 fa 00 00 	lea    0xfa17(%rip),%rdi        # 414358 <_IO_stdin_used+0x358>
  404941:	e8 5a ef ff ff       	callq  4038a0 <_ZSt19__throw_logic_errorPKc@plt>
_ZNKSt7__cxx1112basic_stringIcSt11char_traitsIcESaIcEE7_M_dataEv():
/usr/include/c++/10/bits/basic_string.h:195
      { return _M_dataplus._M_p; }
  404946:	48 89 df             	mov    %rbx,%rdi
  404949:	e9 12 fc ff ff       	jmpq   404560 <main+0x6a0>
  40494e:	f3 0f 1e fa          	endbr64 
_ZZN9__gnu_cxx6__stoaIddcJEEET0_PFT_PKT1_PPS3_DpT2_EPKcS5_PmS9_EN11_Save_errnoD4Ev():
/usr/include/c++/10/ext/string_conversions.h:64
	~_Save_errno() { if (errno == 0) errno = _M_errno; }
  404952:	49 89 c4             	mov    %rax,%r12
  404955:	e9 72 f4 ff ff       	jmpq   403dcc <main.cold>
  40495a:	f3 0f 1e fa          	endbr64 
_ZN7pvectorIfE16ReleaseResourcesEv():
/home/aliha951/ipdps-artifact/gapbs-master/src/pvector.h:73
    if (start_ != nullptr) {
  40495e:	48 89 c5             	mov    %rax,%rbp
  404961:	e9 b7 f4 ff ff       	jmpq   403e1d <main.cold+0x51>
  404966:	f3 0f 1e fa          	endbr64 
_ZNKSt7__cxx1112basic_stringIcSt11char_traitsIcESaIcEE7_M_dataEv():
/usr/include/c++/10/bits/basic_string.h:195
  40496a:	48 89 c5             	mov    %rax,%rbp
  40496d:	e9 f3 f4 ff ff       	jmpq   403e65 <main.cold+0x99>
  404972:	f3 0f 1e fa          	endbr64 
  404976:	48 89 c5             	mov    %rax,%rbp
  404979:	e9 8d f4 ff ff       	jmpq   403e0b <main.cold+0x3f>
  40497e:	f3 0f 1e fa          	endbr64 
  404982:	48 89 c5             	mov    %rax,%rbp
  404985:	e9 fd f4 ff ff       	jmpq   403e87 <main.cold+0xbb>
  40498a:	f3 0f 1e fa          	endbr64 
  40498e:	49 89 c4             	mov    %rax,%r12
  404991:	e9 a6 f4 ff ff       	jmpq   403e3c <main.cold+0x70>
  404996:	f3 0f 1e fa          	endbr64 
_ZN5CLAppD4Ev():
/home/aliha951/ipdps-artifact/gapbs-master/src/command_line.h:140
class CLApp : public CLBase {
  40499a:	49 89 c4             	mov    %rax,%r12
  40499d:	e9 48 f4 ff ff       	jmpq   403dea <main.cold+0x1e>
  4049a2:	f3 0f 1e fa          	endbr64 
  4049a6:	48 89 c3             	mov    %rax,%rbx
  4049a9:	e9 81 f4 ff ff       	jmpq   403e2f <main.cold+0x63>
  4049ae:	f3 0f 1e fa          	endbr64 
_ZNKSt7__cxx1112basic_stringIcSt11char_traitsIcESaIcEE7_M_dataEv():
/usr/include/c++/10/bits/basic_string.h:195
  4049b2:	48 89 c5             	mov    %rax,%rbp
  4049b5:	e9 e4 f4 ff ff       	jmpq   403e9e <main.cold+0xd2>
main():
/usr/include/c++/10/bits/basic_string.h:195
  4049ba:	66 0f 1f 44 00 00    	nopw   0x0(%rax,%rax,1)

00000000004049c0 <_GLOBAL__sub_I__Z10PrintLabelRKNSt7__cxx1112basic_stringIcSt11char_traitsIcESaIcEEES6_>:
_GLOBAL__sub_I__Z10PrintLabelRKNSt7__cxx1112basic_stringIcSt11char_traitsIcESaIcEEES6_():
/home/aliha951/ipdps-artifact/gapbs-master/src/pr.cc:112
  4049c0:	f3 0f 1e fa          	endbr64 
  4049c4:	48 83 ec 08          	sub    $0x8,%rsp
/usr/include/c++/10/iostream:74
  extern wostream wclog;	/// Linked to standard error (buffered)
#endif
  ///@}

  // For construction of filebuffers for cout, cin, cerr, clog et. al.
  static ios_base::Init __ioinit;
  4049c8:	48 8d 3d 21 50 01 00 	lea    0x15021(%rip),%rdi        # 4199f0 <_ZStL8__ioinit>
__static_initialization_and_destruction_0():
/usr/include/c++/10/iostream:74
  4049cf:	e8 8c f1 ff ff       	callq  403b60 <_ZNSt8ios_base4InitC1Ev@plt>
  4049d4:	48 8b 3d 1d 46 01 00 	mov    0x1461d(%rip),%rdi        # 418ff8 <_ZNSt8ios_base4InitD1Ev@GLIBCXX_3.4>
_GLOBAL__sub_I__Z10PrintLabelRKNSt7__cxx1112basic_stringIcSt11char_traitsIcESaIcEEES6_():
/home/aliha951/ipdps-artifact/gapbs-master/src/pr.cc:112
  4049db:	48 83 c4 08          	add    $0x8,%rsp
__static_initialization_and_destruction_0():
/usr/include/c++/10/iostream:74
  4049df:	48 8d 15 62 49 01 00 	lea    0x14962(%rip),%rdx        # 419348 <__dso_handle>
  4049e6:	48 8d 35 03 50 01 00 	lea    0x15003(%rip),%rsi        # 4199f0 <_ZStL8__ioinit>
  4049ed:	e9 1e ef ff ff       	jmpq   403910 <__cxa_atexit@plt>
_GLOBAL__sub_I__Z10PrintLabelRKNSt7__cxx1112basic_stringIcSt11char_traitsIcESaIcEEES6_():
  4049f2:	66 2e 0f 1f 84 00 00 	nopw   %cs:0x0(%rax,%rax,1)
  4049f9:	00 00 00 
  4049fc:	0f 1f 40 00          	nopl   0x0(%rax)

0000000000404a00 <_start>:
_start():
  404a00:	f3 0f 1e fa          	endbr64 
  404a04:	31 ed                	xor    %ebp,%ebp
  404a06:	49 89 d1             	mov    %rdx,%r9
  404a09:	5e                   	pop    %rsi
  404a0a:	48 89 e2             	mov    %rsp,%rdx
  404a0d:	48 83 e4 f0          	and    $0xfffffffffffffff0,%rsp
  404a11:	50                   	push   %rax
  404a12:	54                   	push   %rsp
  404a13:	49 c7 c0 10 3b 41 00 	mov    $0x413b10,%r8
  404a1a:	48 c7 c1 a0 3a 41 00 	mov    $0x413aa0,%rcx
  404a21:	48 c7 c7 c0 3e 40 00 	mov    $0x403ec0,%rdi
  404a28:	ff 15 ba 45 01 00    	callq  *0x145ba(%rip)        # 418fe8 <__libc_start_main@GLIBC_2.2.5>
  404a2e:	f4                   	hlt    
  404a2f:	90                   	nop

0000000000404a30 <_dl_relocate_static_pie>:
_dl_relocate_static_pie():
  404a30:	f3 0f 1e fa          	endbr64 
  404a34:	c3                   	retq   
  404a35:	66 2e 0f 1f 84 00 00 	nopw   %cs:0x0(%rax,%rax,1)
  404a3c:	00 00 00 
  404a3f:	90                   	nop

0000000000404a40 <deregister_tm_clones>:
deregister_tm_clones():
  404a40:	b8 60 93 41 00       	mov    $0x419360,%eax
  404a45:	48 3d 60 93 41 00    	cmp    $0x419360,%rax
  404a4b:	74 13                	je     404a60 <deregister_tm_clones+0x20>
  404a4d:	b8 00 00 00 00       	mov    $0x0,%eax
  404a52:	48 85 c0             	test   %rax,%rax
  404a55:	74 09                	je     404a60 <deregister_tm_clones+0x20>
  404a57:	bf 60 93 41 00       	mov    $0x419360,%edi
  404a5c:	ff e0                	jmpq   *%rax
  404a5e:	66 90                	xchg   %ax,%ax
  404a60:	c3                   	retq   
  404a61:	66 66 2e 0f 1f 84 00 	data16 nopw %cs:0x0(%rax,%rax,1)
  404a68:	00 00 00 00 
  404a6c:	0f 1f 40 00          	nopl   0x0(%rax)

0000000000404a70 <register_tm_clones>:
register_tm_clones():
  404a70:	be 60 93 41 00       	mov    $0x419360,%esi
  404a75:	48 81 ee 60 93 41 00 	sub    $0x419360,%rsi
  404a7c:	48 89 f0             	mov    %rsi,%rax
  404a7f:	48 c1 ee 3f          	shr    $0x3f,%rsi
  404a83:	48 c1 f8 03          	sar    $0x3,%rax
  404a87:	48 01 c6             	add    %rax,%rsi
  404a8a:	48 d1 fe             	sar    %rsi
  404a8d:	74 11                	je     404aa0 <register_tm_clones+0x30>
  404a8f:	b8 00 00 00 00       	mov    $0x0,%eax
  404a94:	48 85 c0             	test   %rax,%rax
  404a97:	74 07                	je     404aa0 <register_tm_clones+0x30>
  404a99:	bf 60 93 41 00       	mov    $0x419360,%edi
  404a9e:	ff e0                	jmpq   *%rax
  404aa0:	c3                   	retq   
  404aa1:	66 66 2e 0f 1f 84 00 	data16 nopw %cs:0x0(%rax,%rax,1)
  404aa8:	00 00 00 00 
  404aac:	0f 1f 40 00          	nopl   0x0(%rax)

0000000000404ab0 <__do_global_dtors_aux>:
__do_global_dtors_aux():
  404ab0:	f3 0f 1e fa          	endbr64 
  404ab4:	80 3d 2d 4a 01 00 00 	cmpb   $0x0,0x14a2d(%rip)        # 4194e8 <completed.0>
  404abb:	75 13                	jne    404ad0 <__do_global_dtors_aux+0x20>
  404abd:	55                   	push   %rbp
  404abe:	48 89 e5             	mov    %rsp,%rbp
  404ac1:	e8 7a ff ff ff       	callq  404a40 <deregister_tm_clones>
  404ac6:	c6 05 1b 4a 01 00 01 	movb   $0x1,0x14a1b(%rip)        # 4194e8 <completed.0>
  404acd:	5d                   	pop    %rbp
  404ace:	c3                   	retq   
  404acf:	90                   	nop
  404ad0:	c3                   	retq   
  404ad1:	66 66 2e 0f 1f 84 00 	data16 nopw %cs:0x0(%rax,%rax,1)
  404ad8:	00 00 00 00 
  404adc:	0f 1f 40 00          	nopl   0x0(%rax)

0000000000404ae0 <frame_dummy>:
frame_dummy():
  404ae0:	f3 0f 1e fa          	endbr64 
  404ae4:	eb 8a                	jmp    404a70 <register_tm_clones>
  404ae6:	66 2e 0f 1f 84 00 00 	nopw   %cs:0x0(%rax,%rax,1)
  404aed:	00 00 00 

0000000000404af0 <_ZL13get_family_idi>:
_ZL13get_family_idi():
/home/aliha951/ipdps-artifact/gapbs-master/src/taskstats_helper.h:30
	struct genlmsghdr g;
	char buf[512];
};

/* Ask generic netlink for the family id of TASKSTATS */
static int get_family_id(int sd) {
  404af0:	41 54                	push   %r12
/home/aliha951/ipdps-artifact/gapbs-master/src/taskstats_helper.h:32
	struct msgtemplate req = {0};
	struct msgtemplate ans = {0};
  404af2:	b9 42 00 00 00       	mov    $0x42,%ecx
/home/aliha951/ipdps-artifact/gapbs-master/src/taskstats_helper.h:30
static int get_family_id(int sd) {
  404af7:	55                   	push   %rbp
  404af8:	89 fd                	mov    %edi,%ebp
  404afa:	48 81 ec 48 04 00 00 	sub    $0x448,%rsp
  404b01:	64 48 8b 04 25 28 00 	mov    %fs:0x28,%rax
  404b08:	00 00 
  404b0a:	48 89 84 24 38 04 00 	mov    %rax,0x438(%rsp)
  404b11:	00 
  404b12:	31 c0                	xor    %eax,%eax
/home/aliha951/ipdps-artifact/gapbs-master/src/taskstats_helper.h:32
	struct msgtemplate ans = {0};
  404b14:	4c 8d a4 24 20 02 00 	lea    0x220(%rsp),%r12
  404b1b:	00 
  404b1c:	4c 89 e7             	mov    %r12,%rdi
  404b1f:	f3 48 ab             	rep stos %rax,%es:(%rdi)
/home/aliha951/ipdps-artifact/gapbs-master/src/taskstats_helper.h:31
	struct msgtemplate req = {0};
  404b22:	b9 42 00 00 00       	mov    $0x42,%ecx
/home/aliha951/ipdps-artifact/gapbs-master/src/taskstats_helper.h:32
	struct msgtemplate ans = {0};
  404b27:	c7 07 00 00 00 00    	movl   $0x0,(%rdi)
/home/aliha951/ipdps-artifact/gapbs-master/src/taskstats_helper.h:31
	struct msgtemplate req = {0};
  404b2d:	48 89 e7             	mov    %rsp,%rdi
  404b30:	f3 48 ab             	rep stos %rax,%es:(%rdi)
/home/aliha951/ipdps-artifact/gapbs-master/src/taskstats_helper.h:36
	struct nlattr *na;
	int rep_len;

	req.n.nlmsg_len = NLMSG_LENGTH(GENL_HDRLEN);
  404b33:	48 b8 14 00 00 00 10 	movabs $0x1001000000014,%rax
  404b3a:	00 01 00 
  404b3d:	48 89 04 24          	mov    %rax,(%rsp)
/home/aliha951/ipdps-artifact/gapbs-master/src/taskstats_helper.h:31
	struct msgtemplate req = {0};
  404b41:	c7 07 00 00 00 00    	movl   $0x0,(%rdi)
/home/aliha951/ipdps-artifact/gapbs-master/src/taskstats_helper.h:40
	req.n.nlmsg_type = GENL_ID_CTRL;
	req.n.nlmsg_flags = NLM_F_REQUEST;
	req.n.nlmsg_seq = 0;
	req.n.nlmsg_pid = getpid();
  404b47:	e8 e4 ef ff ff       	callq  403b30 <getpid@plt>
/usr/include/x86_64-linux-gnu/bits/string_fortified.h:34

__fortify_function void *
__NTH (memcpy (void *__restrict __dest, const void *__restrict __src,
	       size_t __len))
{
  return __builtin___memcpy_chk (__dest, __src, __len, __bos0 (__dest));
  404b4c:	ba 53 00 00 00       	mov    $0x53,%edx
/home/aliha951/ipdps-artifact/gapbs-master/src/taskstats_helper.h:50
	na->nla_type = CTRL_ATTR_FAMILY_NAME;
	na->nla_len = NLA_HDRLEN + strlen(TASKSTATS_GENL_NAME) + 1;
	memcpy(NLA_DATA(na), TASKSTATS_GENL_NAME, strlen(TASKSTATS_GENL_NAME) + 1);
	req.n.nlmsg_len += NLMSG_ALIGN(na->nla_len);

	if (send(sd, &req, req.n.nlmsg_len, 0) < 0)
  404b51:	31 c9                	xor    %ecx,%ecx
memcpy():
/usr/include/x86_64-linux-gnu/bits/string_fortified.h:34
  404b53:	48 89 e6             	mov    %rsp,%rsi
_ZL13get_family_idi():
/home/aliha951/ipdps-artifact/gapbs-master/src/taskstats_helper.h:40
	req.n.nlmsg_pid = getpid();
  404b56:	89 44 24 0c          	mov    %eax,0xc(%rsp)
/home/aliha951/ipdps-artifact/gapbs-master/src/taskstats_helper.h:41
	req.g.cmd = CTRL_CMD_GETFAMILY;
  404b5a:	b8 03 01 00 00       	mov    $0x103,%eax
/home/aliha951/ipdps-artifact/gapbs-master/src/taskstats_helper.h:50
	if (send(sd, &req, req.n.nlmsg_len, 0) < 0)
  404b5f:	89 ef                	mov    %ebp,%edi
/home/aliha951/ipdps-artifact/gapbs-master/src/taskstats_helper.h:41
	req.g.cmd = CTRL_CMD_GETFAMILY;
  404b61:	66 89 44 24 10       	mov    %ax,0x10(%rsp)
memcpy():
/usr/include/x86_64-linux-gnu/bits/string_fortified.h:34
  404b66:	48 b8 54 41 53 4b 53 	movabs $0x544154534b534154,%rax
  404b6d:	54 41 54 
  404b70:	48 89 44 24 18       	mov    %rax,0x18(%rsp)
_ZL13get_family_idi():
/home/aliha951/ipdps-artifact/gapbs-master/src/taskstats_helper.h:48
	req.n.nlmsg_len += NLMSG_ALIGN(na->nla_len);
  404b75:	8b 04 24             	mov    (%rsp),%eax
memcpy():
/usr/include/x86_64-linux-gnu/bits/string_fortified.h:34
  404b78:	66 89 54 24 20       	mov    %dx,0x20(%rsp)
_ZL13get_family_idi():
/home/aliha951/ipdps-artifact/gapbs-master/src/taskstats_helper.h:48
  404b7d:	8d 50 10             	lea    0x10(%rax),%edx
/home/aliha951/ipdps-artifact/gapbs-master/src/taskstats_helper.h:46
	na->nla_len = NLA_HDRLEN + strlen(TASKSTATS_GENL_NAME) + 1;
  404b80:	c7 44 24 14 0e 00 02 	movl   $0x2000e,0x14(%rsp)
  404b87:	00 
/home/aliha951/ipdps-artifact/gapbs-master/src/taskstats_helper.h:48
	req.n.nlmsg_len += NLMSG_ALIGN(na->nla_len);
  404b88:	89 14 24             	mov    %edx,(%rsp)
/home/aliha951/ipdps-artifact/gapbs-master/src/taskstats_helper.h:50
	if (send(sd, &req, req.n.nlmsg_len, 0) < 0)
  404b8b:	e8 80 ec ff ff       	callq  403810 <send@plt>
  404b90:	48 85 c0             	test   %rax,%rax
  404b93:	78 6b                	js     404c00 <_ZL13get_family_idi+0x110>
/usr/include/x86_64-linux-gnu/bits/socket2.h:44
	return __recv_chk (__fd, __buf, __n, __bos0 (__buf), __flags);

      if (__n > __bos0 (__buf))
	return __recv_chk_warn (__fd, __buf, __n, __bos0 (__buf), __flags);
    }
  return __recv_alias (__fd, __buf, __n, __flags);
  404b95:	31 c9                	xor    %ecx,%ecx
recv():
/usr/include/x86_64-linux-gnu/bits/socket2.h:44
  404b97:	ba 14 02 00 00       	mov    $0x214,%edx
  404b9c:	4c 89 e6             	mov    %r12,%rsi
  404b9f:	89 ef                	mov    %ebp,%edi
  404ba1:	e8 0a ec ff ff       	callq  4037b0 <recv@plt>
_ZL13get_family_idi():
/home/aliha951/ipdps-artifact/gapbs-master/src/taskstats_helper.h:54
		return -1;

	rep_len = recv(sd, &ans, sizeof(ans), 0);
	if (rep_len < 0 || ans.n.nlmsg_type == NLMSG_ERROR)
  404ba6:	85 c0                	test   %eax,%eax
  404ba8:	78 56                	js     404c00 <_ZL13get_family_idi+0x110>
/home/aliha951/ipdps-artifact/gapbs-master/src/taskstats_helper.h:54 (discriminator 1)
  404baa:	66 83 bc 24 24 02 00 	cmpw   $0x2,0x224(%rsp)
  404bb1:	00 02 
  404bb3:	74 4b                	je     404c00 <_ZL13get_family_idi+0x110>
/home/aliha951/ipdps-artifact/gapbs-master/src/taskstats_helper.h:59
		return -1;

	/* First attr is family name we sent, second should be ID */
	na = (struct nlattr *) GENLMSG_DATA(&ans.n);
	na = (struct nlattr *) ((char*)na + NLA_ALIGN(na->nla_len));
  404bb5:	0f b7 84 24 34 02 00 	movzwl 0x234(%rsp),%eax
  404bbc:	00 
  404bbd:	83 c0 03             	add    $0x3,%eax
  404bc0:	25 fc ff 01 00       	and    $0x1fffc,%eax
  404bc5:	48 8d 84 04 34 02 00 	lea    0x234(%rsp,%rax,1),%rax
  404bcc:	00 
/home/aliha951/ipdps-artifact/gapbs-master/src/taskstats_helper.h:60
	if (na->nla_type == CTRL_ATTR_FAMILY_ID)
  404bcd:	66 83 78 02 01       	cmpw   $0x1,0x2(%rax)
  404bd2:	75 2c                	jne    404c00 <_ZL13get_family_idi+0x110>
/home/aliha951/ipdps-artifact/gapbs-master/src/taskstats_helper.h:61
		return *(__u16 *) NLA_DATA(na);
  404bd4:	0f b7 40 04          	movzwl 0x4(%rax),%eax
/home/aliha951/ipdps-artifact/gapbs-master/src/taskstats_helper.h:63
	return -1;
}
  404bd8:	48 8b b4 24 38 04 00 	mov    0x438(%rsp),%rsi
  404bdf:	00 
  404be0:	64 48 2b 34 25 28 00 	sub    %fs:0x28,%rsi
  404be7:	00 00 
  404be9:	75 1c                	jne    404c07 <_ZL13get_family_idi+0x117>
  404beb:	48 81 c4 48 04 00 00 	add    $0x448,%rsp
  404bf2:	5d                   	pop    %rbp
  404bf3:	41 5c                	pop    %r12
  404bf5:	c3                   	retq   
  404bf6:	66 2e 0f 1f 84 00 00 	nopw   %cs:0x0(%rax,%rax,1)
  404bfd:	00 00 00 
/home/aliha951/ipdps-artifact/gapbs-master/src/taskstats_helper.h:51
		return -1;
  404c00:	b8 ff ff ff ff       	mov    $0xffffffff,%eax
  404c05:	eb d1                	jmp    404bd8 <_ZL13get_family_idi+0xe8>
/home/aliha951/ipdps-artifact/gapbs-master/src/taskstats_helper.h:63
}
  404c07:	e8 b4 ed ff ff       	callq  4039c0 <__stack_chk_fail@plt>
  404c0c:	0f 1f 40 00          	nopl   0x0(%rax)

0000000000404c10 <_ZL21request_taskstats_pidiiiP9taskstatsPm>:
_ZL21request_taskstats_pidiiiP9taskstatsPm():
/home/aliha951/ipdps-artifact/gapbs-master/src/taskstats_helper.h:80
		return -1;
	}
	return sd;
}

static int request_taskstats_pid(int sd, int family_id, pid_t pid, struct taskstats *out_ts, size_t *out_len) {
  404c10:	41 57                	push   %r15
  404c12:	41 89 d7             	mov    %edx,%r15d
  404c15:	41 56                	push   %r14
  404c17:	41 55                	push   %r13
  404c19:	41 89 fd             	mov    %edi,%r13d
  404c1c:	41 54                	push   %r12
  404c1e:	49 89 cc             	mov    %rcx,%r12
/home/aliha951/ipdps-artifact/gapbs-master/src/taskstats_helper.h:81
	struct msgtemplate req = {0};
  404c21:	b9 42 00 00 00       	mov    $0x42,%ecx
/home/aliha951/ipdps-artifact/gapbs-master/src/taskstats_helper.h:80
static int request_taskstats_pid(int sd, int family_id, pid_t pid, struct taskstats *out_ts, size_t *out_len) {
  404c26:	55                   	push   %rbp
/usr/include/x86_64-linux-gnu/bits/string_fortified.h:71
    {
      __warn_memset_zero_len ();
      return __dest;
    }
#endif
  return __builtin___memset_chk (__dest, __ch, __len, __bos0 (__dest));
  404c27:	49 8d 6c 24 08       	lea    0x8(%r12),%rbp
/home/aliha951/ipdps-artifact/gapbs-master/src/taskstats_helper.h:80
  404c2c:	53                   	push   %rbx
  404c2d:	4c 89 c3             	mov    %r8,%rbx
  404c30:	48 81 ec 48 04 00 00 	sub    $0x448,%rsp
  404c37:	64 48 8b 04 25 28 00 	mov    %fs:0x28,%rax
  404c3e:	00 00 
  404c40:	48 89 84 24 38 04 00 	mov    %rax,0x438(%rsp)
  404c47:	00 
  404c48:	31 c0                	xor    %eax,%eax
/home/aliha951/ipdps-artifact/gapbs-master/src/taskstats_helper.h:81
	struct msgtemplate req = {0};
  404c4a:	48 89 e7             	mov    %rsp,%rdi
/home/aliha951/ipdps-artifact/gapbs-master/src/taskstats_helper.h:85
	struct msgtemplate rep = {0};
	struct nlattr *na;

	*out_len = 0;
  404c4d:	49 c7 00 00 00 00 00 	movq   $0x0,(%r8)
/home/aliha951/ipdps-artifact/gapbs-master/src/taskstats_helper.h:82
	struct msgtemplate rep = {0};
  404c54:	4c 8d b4 24 20 02 00 	lea    0x220(%rsp),%r14
  404c5b:	00 
/home/aliha951/ipdps-artifact/gapbs-master/src/taskstats_helper.h:81
	struct msgtemplate req = {0};
  404c5c:	f3 48 ab             	rep stos %rax,%es:(%rdi)
/home/aliha951/ipdps-artifact/gapbs-master/src/taskstats_helper.h:82
	struct msgtemplate rep = {0};
  404c5f:	b9 42 00 00 00       	mov    $0x42,%ecx
/home/aliha951/ipdps-artifact/gapbs-master/src/taskstats_helper.h:81
	struct msgtemplate req = {0};
  404c64:	c7 07 00 00 00 00    	movl   $0x0,(%rdi)
/home/aliha951/ipdps-artifact/gapbs-master/src/taskstats_helper.h:82
	struct msgtemplate rep = {0};
  404c6a:	4c 89 f7             	mov    %r14,%rdi
  404c6d:	f3 48 ab             	rep stos %rax,%es:(%rdi)
memset():
/usr/include/x86_64-linux-gnu/bits/string_fortified.h:71
  404c70:	4c 89 e1             	mov    %r12,%rcx
_ZL21request_taskstats_pidiiiP9taskstatsPm():
/home/aliha951/ipdps-artifact/gapbs-master/src/taskstats_helper.h:82
  404c73:	c7 07 00 00 00 00    	movl   $0x0,(%rdi)
memset():
/usr/include/x86_64-linux-gnu/bits/string_fortified.h:71
  404c79:	48 89 ef             	mov    %rbp,%rdi
  404c7c:	48 83 e7 f8          	and    $0xfffffffffffffff8,%rdi
  404c80:	49 c7 04 24 00 00 00 	movq   $0x0,(%r12)
  404c87:	00 
  404c88:	49 c7 84 24 a8 01 00 	movq   $0x0,0x1a8(%r12)
  404c8f:	00 00 00 00 00 
  404c94:	48 29 f9             	sub    %rdi,%rcx
  404c97:	81 c1 b0 01 00 00    	add    $0x1b0,%ecx
  404c9d:	c1 e9 03             	shr    $0x3,%ecx
  404ca0:	f3 48 ab             	rep stos %rax,%es:(%rdi)
_ZL21request_taskstats_pidiiiP9taskstatsPm():
/home/aliha951/ipdps-artifact/gapbs-master/src/taskstats_helper.h:90
	memset(out_ts, 0, sizeof(*out_ts));

	req.n.nlmsg_len = NLMSG_LENGTH(GENL_HDRLEN);
	req.n.nlmsg_type = family_id;
	req.n.nlmsg_flags = NLM_F_REQUEST;
  404ca3:	b8 01 00 00 00       	mov    $0x1,%eax
/home/aliha951/ipdps-artifact/gapbs-master/src/taskstats_helper.h:89
	req.n.nlmsg_type = family_id;
  404ca8:	66 89 74 24 04       	mov    %si,0x4(%rsp)
/home/aliha951/ipdps-artifact/gapbs-master/src/taskstats_helper.h:88
	req.n.nlmsg_len = NLMSG_LENGTH(GENL_HDRLEN);
  404cad:	c7 04 24 14 00 00 00 	movl   $0x14,(%rsp)
/home/aliha951/ipdps-artifact/gapbs-master/src/taskstats_helper.h:90
	req.n.nlmsg_flags = NLM_F_REQUEST;
  404cb4:	66 89 44 24 06       	mov    %ax,0x6(%rsp)
/home/aliha951/ipdps-artifact/gapbs-master/src/taskstats_helper.h:91
	req.n.nlmsg_seq = 1;
  404cb9:	c7 44 24 08 01 00 00 	movl   $0x1,0x8(%rsp)
  404cc0:	00 
/home/aliha951/ipdps-artifact/gapbs-master/src/taskstats_helper.h:92
	req.n.nlmsg_pid = getpid();
  404cc1:	e8 6a ee ff ff       	callq  403b30 <getpid@plt>
/home/aliha951/ipdps-artifact/gapbs-master/src/taskstats_helper.h:93
	req.g.cmd = TASKSTATS_CMD_GET;
  404cc6:	ba 01 0e 00 00       	mov    $0xe01,%edx
/home/aliha951/ipdps-artifact/gapbs-master/src/taskstats_helper.h:103
  na->nla_type = TASKSTATS_CMD_ATTR_TGID; // Use TGID to get stats for thread group (process) instead of single thread
	na->nla_len = NLA_HDRLEN + sizeof(pid);
	memcpy(NLA_DATA(na), &pid, sizeof(pid));
	req.n.nlmsg_len += NLMSG_ALIGN(na->nla_len);

	if (send(sd, &req, req.n.nlmsg_len, 0) < 0)
  404ccb:	31 c9                	xor    %ecx,%ecx
  404ccd:	48 89 e6             	mov    %rsp,%rsi
/home/aliha951/ipdps-artifact/gapbs-master/src/taskstats_helper.h:92
	req.n.nlmsg_pid = getpid();
  404cd0:	89 44 24 0c          	mov    %eax,0xc(%rsp)
/home/aliha951/ipdps-artifact/gapbs-master/src/taskstats_helper.h:101
	req.n.nlmsg_len += NLMSG_ALIGN(na->nla_len);
  404cd4:	8b 04 24             	mov    (%rsp),%eax
/home/aliha951/ipdps-artifact/gapbs-master/src/taskstats_helper.h:103
	if (send(sd, &req, req.n.nlmsg_len, 0) < 0)
  404cd7:	44 89 ef             	mov    %r13d,%edi
/home/aliha951/ipdps-artifact/gapbs-master/src/taskstats_helper.h:93
	req.g.cmd = TASKSTATS_CMD_GET;
  404cda:	66 89 54 24 10       	mov    %dx,0x10(%rsp)
/home/aliha951/ipdps-artifact/gapbs-master/src/taskstats_helper.h:101
	req.n.nlmsg_len += NLMSG_ALIGN(na->nla_len);
  404cdf:	8d 50 08             	lea    0x8(%rax),%edx
/home/aliha951/ipdps-artifact/gapbs-master/src/taskstats_helper.h:99
	na->nla_len = NLA_HDRLEN + sizeof(pid);
  404ce2:	c7 44 24 14 08 00 02 	movl   $0x20008,0x14(%rsp)
  404ce9:	00 
/usr/include/x86_64-linux-gnu/bits/string_fortified.h:34
  return __builtin___memcpy_chk (__dest, __src, __len, __bos0 (__dest));
  404cea:	44 89 7c 24 18       	mov    %r15d,0x18(%rsp)
/home/aliha951/ipdps-artifact/gapbs-master/src/taskstats_helper.h:101
	req.n.nlmsg_len += NLMSG_ALIGN(na->nla_len);
  404cef:	89 14 24             	mov    %edx,(%rsp)
/home/aliha951/ipdps-artifact/gapbs-master/src/taskstats_helper.h:103
	if (send(sd, &req, req.n.nlmsg_len, 0) < 0)
  404cf2:	e8 19 eb ff ff       	callq  403810 <send@plt>
  404cf7:	48 85 c0             	test   %rax,%rax
  404cfa:	0f 88 18 01 00 00    	js     404e18 <_ZL21request_taskstats_pidiiiP9taskstatsPm+0x208>
/usr/include/x86_64-linux-gnu/bits/socket2.h:44
  404d00:	31 c9                	xor    %ecx,%ecx
recv():
/usr/include/x86_64-linux-gnu/bits/socket2.h:44
  404d02:	ba 14 02 00 00       	mov    $0x214,%edx
  404d07:	4c 89 f6             	mov    %r14,%rsi
  404d0a:	44 89 ef             	mov    %r13d,%edi
  404d0d:	e8 9e ea ff ff       	callq  4037b0 <recv@plt>
_ZL21request_taskstats_pidiiiP9taskstatsPm():
/home/aliha951/ipdps-artifact/gapbs-master/src/taskstats_helper.h:105
		return -1;
	if (recv(sd, &rep, sizeof(rep), 0) < 0)
  404d12:	48 85 c0             	test   %rax,%rax
  404d15:	0f 88 fd 00 00 00    	js     404e18 <_ZL21request_taskstats_pidiiiP9taskstatsPm+0x208>
/home/aliha951/ipdps-artifact/gapbs-master/src/taskstats_helper.h:109
		return -1;

	na = (struct nlattr *) GENLMSG_DATA(&rep.n);
	int rem = rep.n.nlmsg_len - NLMSG_LENGTH(GENL_HDRLEN);
  404d1b:	8b 84 24 20 02 00 00 	mov    0x220(%rsp),%eax
  404d22:	8d 70 ec             	lea    -0x14(%rax),%esi
/home/aliha951/ipdps-artifact/gapbs-master/src/taskstats_helper.h:110
	while (rem > 0 && na->nla_len >= NLA_HDRLEN && rem >= na->nla_len) {
  404d25:	85 f6                	test   %esi,%esi
  404d27:	0f 8e eb 00 00 00    	jle    404e18 <_ZL21request_taskstats_pidiiiP9taskstatsPm+0x208>
/home/aliha951/ipdps-artifact/gapbs-master/src/taskstats_helper.h:108
	na = (struct nlattr *) GENLMSG_DATA(&rep.n);
  404d2d:	48 8d 8c 24 34 02 00 	lea    0x234(%rsp),%rcx
  404d34:	00 
  404d35:	eb 29                	jmp    404d60 <_ZL21request_taskstats_pidiiiP9taskstatsPm+0x150>
  404d37:	66 0f 1f 84 00 00 00 	nopw   0x0(%rax,%rax,1)
  404d3e:	00 00 
/home/aliha951/ipdps-artifact/gapbs-master/src/taskstats_helper.h:126
				}
				int step2 = NLA_ALIGN(n2->nla_len);
				aggr_len -= step2;
				n2 = (struct nlattr *) ((char*)n2 + step2);
			}
		} else if (na->nla_type == TASKSTATS_TYPE_STATS) {
  404d40:	66 83 f8 03          	cmp    $0x3,%ax
  404d44:	0f 84 26 01 00 00    	je     404e70 <_ZL21request_taskstats_pidiiiP9taskstatsPm+0x260>
/home/aliha951/ipdps-artifact/gapbs-master/src/taskstats_helper.h:133
			if (payload > sizeof(*out_ts)) payload = sizeof(*out_ts);
			memcpy(out_ts, NLA_DATA(na), payload);
			*out_len = payload;
			return 0;
		}
		int step = NLA_ALIGN(na->nla_len);
  404d4a:	83 c2 03             	add    $0x3,%edx
  404d4d:	83 e2 fc             	and    $0xfffffffc,%edx
/home/aliha951/ipdps-artifact/gapbs-master/src/taskstats_helper.h:134
		rem -= step;
  404d50:	29 d6                	sub    %edx,%esi
/home/aliha951/ipdps-artifact/gapbs-master/src/taskstats_helper.h:135
		na = (struct nlattr *) ((char*)na + step);
  404d52:	48 63 d2             	movslq %edx,%rdx
  404d55:	48 01 d1             	add    %rdx,%rcx
/home/aliha951/ipdps-artifact/gapbs-master/src/taskstats_helper.h:110
	while (rem > 0 && na->nla_len >= NLA_HDRLEN && rem >= na->nla_len) {
  404d58:	85 f6                	test   %esi,%esi
  404d5a:	0f 8e b8 00 00 00    	jle    404e18 <_ZL21request_taskstats_pidiiiP9taskstatsPm+0x208>
/home/aliha951/ipdps-artifact/gapbs-master/src/taskstats_helper.h:110 (discriminator 1)
  404d60:	0f b7 11             	movzwl (%rcx),%edx
  404d63:	66 83 fa 03          	cmp    $0x3,%dx
  404d67:	0f 86 ab 00 00 00    	jbe    404e18 <_ZL21request_taskstats_pidiiiP9taskstatsPm+0x208>
/home/aliha951/ipdps-artifact/gapbs-master/src/taskstats_helper.h:110 (discriminator 2)
  404d6d:	39 f2                	cmp    %esi,%edx
  404d6f:	0f 8f a3 00 00 00    	jg     404e18 <_ZL21request_taskstats_pidiiiP9taskstatsPm+0x208>
/home/aliha951/ipdps-artifact/gapbs-master/src/taskstats_helper.h:111
		if (na->nla_type == TASKSTATS_TYPE_AGGR_PID || na->nla_type == TASKSTATS_TYPE_AGGR_TGID) {
  404d75:	0f b7 41 02          	movzwl 0x2(%rcx),%eax
  404d79:	8d 78 fc             	lea    -0x4(%rax),%edi
  404d7c:	66 83 ff 01          	cmp    $0x1,%di
  404d80:	77 be                	ja     404d40 <_ZL21request_taskstats_pidiiiP9taskstatsPm+0x130>
/home/aliha951/ipdps-artifact/gapbs-master/src/taskstats_helper.h:114
			while (aggr_len > 0 && n2->nla_len >= NLA_HDRLEN && aggr_len >= n2->nla_len) {
  404d82:	41 89 d0             	mov    %edx,%r8d
/home/aliha951/ipdps-artifact/gapbs-master/src/taskstats_helper.h:113
			struct nlattr *n2 = (struct nlattr *) NLA_DATA(na);
  404d85:	48 8d 79 04          	lea    0x4(%rcx),%rdi
/home/aliha951/ipdps-artifact/gapbs-master/src/taskstats_helper.h:114
			while (aggr_len > 0 && n2->nla_len >= NLA_HDRLEN && aggr_len >= n2->nla_len) {
  404d89:	41 83 e8 04          	sub    $0x4,%r8d
  404d8d:	75 1c                	jne    404dab <_ZL21request_taskstats_pidiiiP9taskstatsPm+0x19b>
  404d8f:	eb b9                	jmp    404d4a <_ZL21request_taskstats_pidiiiP9taskstatsPm+0x13a>
  404d91:	0f 1f 80 00 00 00 00 	nopl   0x0(%rax)
/home/aliha951/ipdps-artifact/gapbs-master/src/taskstats_helper.h:122
				int step2 = NLA_ALIGN(n2->nla_len);
  404d98:	83 c0 03             	add    $0x3,%eax
  404d9b:	83 e0 fc             	and    $0xfffffffc,%eax
/home/aliha951/ipdps-artifact/gapbs-master/src/taskstats_helper.h:123
				aggr_len -= step2;
  404d9e:	41 29 c0             	sub    %eax,%r8d
/home/aliha951/ipdps-artifact/gapbs-master/src/taskstats_helper.h:124
				n2 = (struct nlattr *) ((char*)n2 + step2);
  404da1:	48 98                	cltq   
  404da3:	48 01 c7             	add    %rax,%rdi
/home/aliha951/ipdps-artifact/gapbs-master/src/taskstats_helper.h:114
			while (aggr_len > 0 && n2->nla_len >= NLA_HDRLEN && aggr_len >= n2->nla_len) {
  404da6:	45 85 c0             	test   %r8d,%r8d
  404da9:	7e 9f                	jle    404d4a <_ZL21request_taskstats_pidiiiP9taskstatsPm+0x13a>
/home/aliha951/ipdps-artifact/gapbs-master/src/taskstats_helper.h:114 (discriminator 1)
  404dab:	0f b7 07             	movzwl (%rdi),%eax
  404dae:	66 83 f8 03          	cmp    $0x3,%ax
  404db2:	76 96                	jbe    404d4a <_ZL21request_taskstats_pidiiiP9taskstatsPm+0x13a>
/home/aliha951/ipdps-artifact/gapbs-master/src/taskstats_helper.h:114 (discriminator 2)
  404db4:	44 39 c0             	cmp    %r8d,%eax
  404db7:	7f 91                	jg     404d4a <_ZL21request_taskstats_pidiiiP9taskstatsPm+0x13a>
/home/aliha951/ipdps-artifact/gapbs-master/src/taskstats_helper.h:115
				if (n2->nla_type == TASKSTATS_TYPE_STATS) {
  404db9:	66 83 7f 02 03       	cmpw   $0x3,0x2(%rdi)
  404dbe:	75 d8                	jne    404d98 <_ZL21request_taskstats_pidiiiP9taskstatsPm+0x188>
/home/aliha951/ipdps-artifact/gapbs-master/src/taskstats_helper.h:116
					size_t payload = n2->nla_len - NLA_HDRLEN;
  404dc0:	83 e8 04             	sub    $0x4,%eax
  404dc3:	ba b0 01 00 00       	mov    $0x1b0,%edx
/home/aliha951/ipdps-artifact/gapbs-master/src/taskstats_helper.h:118
					memcpy(out_ts, NLA_DATA(n2), payload);
  404dc8:	48 8d 77 04          	lea    0x4(%rdi),%rsi
/home/aliha951/ipdps-artifact/gapbs-master/src/taskstats_helper.h:116
					size_t payload = n2->nla_len - NLA_HDRLEN;
  404dcc:	48 98                	cltq   
/home/aliha951/ipdps-artifact/gapbs-master/src/taskstats_helper.h:117
					if (payload > sizeof(*out_ts)) payload = sizeof(*out_ts);
  404dce:	48 3d b0 01 00 00    	cmp    $0x1b0,%rax
  404dd4:	48 0f 47 c2          	cmova  %rdx,%rax
/usr/include/x86_64-linux-gnu/bits/string_fortified.h:34
  404dd8:	83 f8 08             	cmp    $0x8,%eax
memcpy():
/usr/include/x86_64-linux-gnu/bits/string_fortified.h:34
  404ddb:	72 6b                	jb     404e48 <_ZL21request_taskstats_pidiiiP9taskstatsPm+0x238>
  404ddd:	48 8b 57 04          	mov    0x4(%rdi),%rdx
_ZL21request_taskstats_pidiiiP9taskstatsPm():
/usr/include/x86_64-linux-gnu/bits/string_fortified.h:34
  404de1:	49 89 14 24          	mov    %rdx,(%r12)
memcpy():
/usr/include/x86_64-linux-gnu/bits/string_fortified.h:34
  404de5:	89 c2                	mov    %eax,%edx
  404de7:	48 89 ef             	mov    %rbp,%rdi
  404dea:	48 8b 4c 16 f8       	mov    -0x8(%rsi,%rdx,1),%rcx
  404def:	48 83 e7 f8          	and    $0xfffffffffffffff8,%rdi
  404df3:	49 89 4c 14 f8       	mov    %rcx,-0x8(%r12,%rdx,1)
  404df8:	49 29 fc             	sub    %rdi,%r12
  404dfb:	4c 29 e6             	sub    %r12,%rsi
  404dfe:	41 01 c4             	add    %eax,%r12d
  404e01:	41 c1 ec 03          	shr    $0x3,%r12d
  404e05:	44 89 e1             	mov    %r12d,%ecx
  404e08:	f3 48 a5             	rep movsq %ds:(%rsi),%es:(%rdi)
_ZL21request_taskstats_pidiiiP9taskstatsPm():
/home/aliha951/ipdps-artifact/gapbs-master/src/taskstats_helper.h:130
			*out_len = payload;
  404e0b:	48 89 03             	mov    %rax,(%rbx)
/home/aliha951/ipdps-artifact/gapbs-master/src/taskstats_helper.h:131
			return 0;
  404e0e:	31 c0                	xor    %eax,%eax
  404e10:	eb 0b                	jmp    404e1d <_ZL21request_taskstats_pidiiiP9taskstatsPm+0x20d>
  404e12:	66 0f 1f 44 00 00    	nopw   0x0(%rax,%rax,1)
/home/aliha951/ipdps-artifact/gapbs-master/src/taskstats_helper.h:104
		return -1;
  404e18:	b8 ff ff ff ff       	mov    $0xffffffff,%eax
/home/aliha951/ipdps-artifact/gapbs-master/src/taskstats_helper.h:138
	}
	return -1; /* Not found */
}
  404e1d:	48 8b 9c 24 38 04 00 	mov    0x438(%rsp),%rbx
  404e24:	00 
  404e25:	64 48 2b 1c 25 28 00 	sub    %fs:0x28,%rbx
  404e2c:	00 00 
  404e2e:	75 7c                	jne    404eac <_ZL21request_taskstats_pidiiiP9taskstatsPm+0x29c>
  404e30:	48 81 c4 48 04 00 00 	add    $0x448,%rsp
  404e37:	5b                   	pop    %rbx
  404e38:	5d                   	pop    %rbp
  404e39:	41 5c                	pop    %r12
  404e3b:	41 5d                	pop    %r13
  404e3d:	41 5e                	pop    %r14
  404e3f:	41 5f                	pop    %r15
  404e41:	c3                   	retq   
  404e42:	66 0f 1f 44 00 00    	nopw   0x0(%rax,%rax,1)
memcpy():
/usr/include/x86_64-linux-gnu/bits/string_fortified.h:34
  404e48:	a8 04                	test   $0x4,%al
  404e4a:	75 4a                	jne    404e96 <_ZL21request_taskstats_pidiiiP9taskstatsPm+0x286>
  404e4c:	85 c0                	test   %eax,%eax
  404e4e:	74 bb                	je     404e0b <_ZL21request_taskstats_pidiiiP9taskstatsPm+0x1fb>
  404e50:	0f b6 16             	movzbl (%rsi),%edx
  404e53:	41 88 14 24          	mov    %dl,(%r12)
  404e57:	a8 02                	test   $0x2,%al
  404e59:	74 b0                	je     404e0b <_ZL21request_taskstats_pidiiiP9taskstatsPm+0x1fb>
  404e5b:	89 c2                	mov    %eax,%edx
  404e5d:	0f b7 4c 16 fe       	movzwl -0x2(%rsi,%rdx,1),%ecx
  404e62:	66 41 89 4c 14 fe    	mov    %cx,-0x2(%r12,%rdx,1)
  404e68:	eb a1                	jmp    404e0b <_ZL21request_taskstats_pidiiiP9taskstatsPm+0x1fb>
  404e6a:	66 0f 1f 44 00 00    	nopw   0x0(%rax,%rax,1)
_ZL21request_taskstats_pidiiiP9taskstatsPm():
/home/aliha951/ipdps-artifact/gapbs-master/src/taskstats_helper.h:127
			size_t payload = na->nla_len - NLA_HDRLEN;
  404e70:	8d 42 fc             	lea    -0x4(%rdx),%eax
  404e73:	ba b0 01 00 00       	mov    $0x1b0,%edx
/home/aliha951/ipdps-artifact/gapbs-master/src/taskstats_helper.h:129
			memcpy(out_ts, NLA_DATA(na), payload);
  404e78:	48 8d 71 04          	lea    0x4(%rcx),%rsi
/home/aliha951/ipdps-artifact/gapbs-master/src/taskstats_helper.h:127
			size_t payload = na->nla_len - NLA_HDRLEN;
  404e7c:	48 98                	cltq   
/home/aliha951/ipdps-artifact/gapbs-master/src/taskstats_helper.h:128
			if (payload > sizeof(*out_ts)) payload = sizeof(*out_ts);
  404e7e:	48 3d b0 01 00 00    	cmp    $0x1b0,%rax
  404e84:	48 0f 47 c2          	cmova  %rdx,%rax
memcpy():
/usr/include/x86_64-linux-gnu/bits/string_fortified.h:34
  404e88:	83 f8 08             	cmp    $0x8,%eax
  404e8b:	72 bb                	jb     404e48 <_ZL21request_taskstats_pidiiiP9taskstatsPm+0x238>
  404e8d:	48 8b 51 04          	mov    0x4(%rcx),%rdx
  404e91:	e9 4b ff ff ff       	jmpq   404de1 <_ZL21request_taskstats_pidiiiP9taskstatsPm+0x1d1>
  404e96:	8b 16                	mov    (%rsi),%edx
  404e98:	41 89 14 24          	mov    %edx,(%r12)
  404e9c:	89 c2                	mov    %eax,%edx
  404e9e:	8b 4c 16 fc          	mov    -0x4(%rsi,%rdx,1),%ecx
  404ea2:	41 89 4c 14 fc       	mov    %ecx,-0x4(%r12,%rdx,1)
  404ea7:	e9 5f ff ff ff       	jmpq   404e0b <_ZL21request_taskstats_pidiiiP9taskstatsPm+0x1fb>
_ZL21request_taskstats_pidiiiP9taskstatsPm():
/home/aliha951/ipdps-artifact/gapbs-master/src/taskstats_helper.h:138
}
  404eac:	e8 0f eb ff ff       	callq  4039c0 <__stack_chk_fail@plt>
  404eb1:	66 66 2e 0f 1f 84 00 	data16 nopw %cs:0x0(%rax,%rax,1)
  404eb8:	00 00 00 00 
  404ebc:	0f 1f 40 00          	nopl   0x0(%rax)

0000000000404ec0 <_Z14PageRankPullGSRK8CSRGraphIiiLb1EEidb._omp_fn.1>:
_Z14PageRankPullGSRK8CSRGraphIiiLb1EEidb._omp_fn.1():
/home/aliha951/ipdps-artifact/gapbs-master/src/pr.cc:45
    #pragma omp parallel for reduction(+ : error) schedule(dynamic, 16384)
  404ec0:	f3 0f 1e fa          	endbr64 
  404ec4:	41 54                	push   %r12
  404ec6:	b9 00 40 00 00       	mov    $0x4000,%ecx
  404ecb:	ba 01 00 00 00       	mov    $0x1,%edx
  404ed0:	55                   	push   %rbp
  404ed1:	53                   	push   %rbx
  404ed2:	48 89 fb             	mov    %rdi,%rbx
  404ed5:	48 83 ec 30          	sub    $0x30,%rsp
  404ed9:	f3 0f 10 6f 20       	movss  0x20(%rdi),%xmm5
  404ede:	64 48 8b 04 25 28 00 	mov    %fs:0x28,%rax
  404ee5:	00 00 
  404ee7:	48 89 44 24 28       	mov    %rax,0x28(%rsp)
  404eec:	31 c0                	xor    %eax,%eax
_ZNK8CSRGraphIiiLb1EE9num_nodesEv():
/home/aliha951/ipdps-artifact/gapbs-master/src/graph.h:194
  bool directed() const {
    return directed_;
  }

  int64_t num_nodes() const {
    return num_nodes_;
  404eee:	48 8b 07             	mov    (%rdi),%rax
  404ef1:	48 8d 6c 24 20       	lea    0x20(%rsp),%rbp
  404ef6:	4c 8d 64 24 18       	lea    0x18(%rsp),%r12
  404efb:	49 89 e9             	mov    %rbp,%r9
  404efe:	4d 89 e0             	mov    %r12,%r8
  404f01:	31 ff                	xor    %edi,%edi
_Z14PageRankPullGSRK8CSRGraphIiiLb1EEidb._omp_fn.1():
/home/aliha951/ipdps-artifact/gapbs-master/src/pr.cc:45
  404f03:	f3 0f 11 2c 24       	movss  %xmm5,(%rsp)
_ZNK8CSRGraphIiiLb1EE9num_nodesEv():
/home/aliha951/ipdps-artifact/gapbs-master/src/graph.h:193
  int64_t num_nodes() const {
  404f08:	48 63 70 08          	movslq 0x8(%rax),%rsi
  404f0c:	e8 2f e9 ff ff       	callq  403840 <GOMP_loop_nonmonotonic_dynamic_start@plt>
_Z14PageRankPullGSRK8CSRGraphIiiLb1EEidb._omp_fn.1():
/home/aliha951/ipdps-artifact/gapbs-master/src/pr.cc:45
  404f11:	66 0f ef d2          	pxor   %xmm2,%xmm2
  404f15:	84 c0                	test   %al,%al
  404f17:	0f 84 fd 00 00 00    	je     40501a <_Z14PageRankPullGSRK8CSRGraphIiiLb1EEidb._omp_fn.1+0x15a>
/home/aliha951/ipdps-artifact/gapbs-master/src/pr.cc:51
      scores[u] = base_score + kDamp * incoming_total;
  404f1d:	f3 0f 10 3d 8b 02 01 	movss  0x1028b(%rip),%xmm7        # 4151b0 <_ZZNSt8__detail18__to_chars_10_implIjEEvPcjT_E8__digits+0x2d0>
  404f24:	00 
  404f25:	f3 0f 10 2c 24       	movss  (%rsp),%xmm5
  404f2a:	66 0f ef e4          	pxor   %xmm4,%xmm4
  404f2e:	f3 0f 10 35 7a 00 01 	movss  0x1007a(%rip),%xmm6        # 414fb0 <_ZZNSt8__detail18__to_chars_10_implIjEEvPcjT_E8__digits+0xd0>
  404f35:	00 
  404f36:	66 2e 0f 1f 84 00 00 	nopw   %cs:0x0(%rax,%rax,1)
  404f3d:	00 00 00 
/home/aliha951/ipdps-artifact/gapbs-master/src/pr.cc:48
      for (NodeID v : g.in_neigh(u))
  404f40:	48 8b 03             	mov    (%rbx),%rax
  404f43:	44 8b 54 24 20       	mov    0x20(%rsp),%r10d
  404f48:	48 63 4c 24 18       	movslq 0x18(%rsp),%rcx
_ZNK8CSRGraphIiiLb1EE8in_neighEim():
/home/aliha951/ipdps-artifact/gapbs-master/src/graph.h:220
    return Neighborhood(n, out_index_, start_offset);
  }

  Neighborhood in_neigh(NodeID_ n, OffsetT start_offset = 0) const {
    static_assert(MakeInverse, "Graph inversion disabled but reading inverse");
    return Neighborhood(n, in_index_, start_offset);
  404f4d:	4c 8b 48 28          	mov    0x28(%rax),%r9
_ZNK8CSRGraphIiiLb1EE10out_degreeEi():
/home/aliha951/ipdps-artifact/gapbs-master/src/graph.h:206
    return out_index_[v+1] - out_index_[v];
  404f51:	4c 8b 40 18          	mov    0x18(%rax),%r8
_ZN7pvectorIfEixEm():
/home/aliha951/ipdps-artifact/gapbs-master/src/pvector.h:116
    reserve(num_elements);
    end_size_ = start_ + num_elements;
  }

  T_& operator[](size_t n) {
    return start_[n];
  404f55:	48 8b 43 08          	mov    0x8(%rbx),%rax
  404f59:	48 8b 38             	mov    (%rax),%rdi
  404f5c:	48 8b 43 10          	mov    0x10(%rbx),%rax
  404f60:	48 8b 30             	mov    (%rax),%rsi
  404f63:	0f 1f 44 00 00       	nopl   0x0(%rax,%rax,1)
_ZN8CSRGraphIiiLb1EE12Neighborhood3endEv():
/home/aliha951/ipdps-artifact/gapbs-master/src/graph.h:116 (discriminator 1)
    iterator end()   { return g_index_[n_+1]; }
  404f68:	4d 8b 5c c9 08       	mov    0x8(%r9,%rcx,8),%r11
_Z14PageRankPullGSRK8CSRGraphIiiLb1EEidb._omp_fn.1():
/home/aliha951/ipdps-artifact/gapbs-master/src/pr.cc:48 (discriminator 1)
  404f6d:	49 8b 04 c9          	mov    (%r9,%rcx,8),%rax
/home/aliha951/ipdps-artifact/gapbs-master/src/pr.cc:47 (discriminator 1)
      ScoreT incoming_total = 0;
  404f71:	0f 28 c4             	movaps %xmm4,%xmm0
/home/aliha951/ipdps-artifact/gapbs-master/src/pr.cc:48 (discriminator 1)
      for (NodeID v : g.in_neigh(u))
  404f74:	49 39 c3             	cmp    %rax,%r11
  404f77:	74 1c                	je     404f95 <_Z14PageRankPullGSRK8CSRGraphIiiLb1EEidb._omp_fn.1+0xd5>
  404f79:	0f 1f 80 00 00 00 00 	nopl   0x0(%rax)
/home/aliha951/ipdps-artifact/gapbs-master/src/pr.cc:49 (discriminator 2)
        incoming_total += outgoing_contrib[v];
  404f80:	48 63 10             	movslq (%rax),%rdx
/home/aliha951/ipdps-artifact/gapbs-master/src/pr.cc:48 (discriminator 2)
      for (NodeID v : g.in_neigh(u))
  404f83:	48 83 c0 04          	add    $0x4,%rax
/home/aliha951/ipdps-artifact/gapbs-master/src/pr.cc:49 (discriminator 2)
        incoming_total += outgoing_contrib[v];
  404f87:	f3 0f 58 04 96       	addss  (%rsi,%rdx,4),%xmm0
/home/aliha951/ipdps-artifact/gapbs-master/src/pr.cc:48 (discriminator 2)
      for (NodeID v : g.in_neigh(u))
  404f8c:	49 39 c3             	cmp    %rax,%r11
  404f8f:	75 ef                	jne    404f80 <_Z14PageRankPullGSRK8CSRGraphIiiLb1EEidb._omp_fn.1+0xc0>
/home/aliha951/ipdps-artifact/gapbs-master/src/pr.cc:51
      scores[u] = base_score + kDamp * incoming_total;
  404f91:	f3 0f 59 c7          	mulss  %xmm7,%xmm0
  404f95:	f3 0f 58 c5          	addss  %xmm5,%xmm0
/home/aliha951/ipdps-artifact/gapbs-master/src/pr.cc:50
      ScoreT old_score = scores[u];
  404f99:	f3 0f 10 1c 8f       	movss  (%rdi,%rcx,4),%xmm3
_ZNK8CSRGraphIiiLb1EE10out_degreeEi():
/home/aliha951/ipdps-artifact/gapbs-master/src/graph.h:206
    return out_index_[v+1] - out_index_[v];
  404f9e:	49 8b 44 c8 08       	mov    0x8(%r8,%rcx,8),%rax
  404fa3:	49 2b 04 c8          	sub    (%r8,%rcx,8),%rax
  404fa7:	48 c1 f8 02          	sar    $0x2,%rax
_Z14PageRankPullGSRK8CSRGraphIiiLb1EEidb._omp_fn.1():
/home/aliha951/ipdps-artifact/gapbs-master/src/pr.cc:52
      error += fabs(scores[u] - old_score);
  404fab:	0f 28 c8             	movaps %xmm0,%xmm1
/home/aliha951/ipdps-artifact/gapbs-master/src/pr.cc:51
      scores[u] = base_score + kDamp * incoming_total;
  404fae:	f3 0f 11 04 8f       	movss  %xmm0,(%rdi,%rcx,4)
/home/aliha951/ipdps-artifact/gapbs-master/src/pr.cc:52
      error += fabs(scores[u] - old_score);
  404fb3:	f3 0f 5c cb          	subss  %xmm3,%xmm1
_ZSt4fabsf():
/usr/include/c++/10/cmath:242
  using ::fabs;

#ifndef __CORRECT_ISO_CPP_MATH_H_PROTO
  inline _GLIBCXX_CONSTEXPR float
  fabs(float __x)
  { return __builtin_fabsf(__x); }
  404fb7:	0f 54 ce             	andps  %xmm6,%xmm1
_Z14PageRankPullGSRK8CSRGraphIiiLb1EEidb._omp_fn.1():
/home/aliha951/ipdps-artifact/gapbs-master/src/pr.cc:52
  404fba:	f3 0f 5a c9          	cvtss2sd %xmm1,%xmm1
  404fbe:	f2 0f 58 d1          	addsd  %xmm1,%xmm2
/home/aliha951/ipdps-artifact/gapbs-master/src/pr.cc:53
      outgoing_contrib[u] = scores[u] / g.out_degree(u);
  404fc2:	66 0f ef c9          	pxor   %xmm1,%xmm1
  404fc6:	f3 48 0f 2a c8       	cvtsi2ss %rax,%xmm1
  404fcb:	f3 0f 5e c1          	divss  %xmm1,%xmm0
  404fcf:	f3 0f 11 04 8e       	movss  %xmm0,(%rsi,%rcx,4)
  404fd4:	48 83 c1 01          	add    $0x1,%rcx
  404fd8:	41 39 ca             	cmp    %ecx,%r10d
  404fdb:	7f 8b                	jg     404f68 <_Z14PageRankPullGSRK8CSRGraphIiiLb1EEidb._omp_fn.1+0xa8>
  404fdd:	48 89 ee             	mov    %rbp,%rsi
  404fe0:	4c 89 e7             	mov    %r12,%rdi
  404fe3:	f3 0f 11 6c 24 0c    	movss  %xmm5,0xc(%rsp)
  404fe9:	f2 0f 11 14 24       	movsd  %xmm2,(%rsp)
  404fee:	e8 bd e9 ff ff       	callq  4039b0 <GOMP_loop_nonmonotonic_dynamic_next@plt>
  404ff3:	f2 0f 10 14 24       	movsd  (%rsp),%xmm2
  404ff8:	f3 0f 10 6c 24 0c    	movss  0xc(%rsp),%xmm5
  404ffe:	66 0f ef e4          	pxor   %xmm4,%xmm4
  405002:	84 c0                	test   %al,%al
  405004:	f3 0f 10 3d a4 01 01 	movss  0x101a4(%rip),%xmm7        # 4151b0 <_ZZNSt8__detail18__to_chars_10_implIjEEvPcjT_E8__digits+0x2d0>
  40500b:	00 
  40500c:	f3 0f 10 35 9c ff 00 	movss  0xff9c(%rip),%xmm6        # 414fb0 <_ZZNSt8__detail18__to_chars_10_implIjEEvPcjT_E8__digits+0xd0>
  405013:	00 
  405014:	0f 85 26 ff ff ff    	jne    404f40 <_Z14PageRankPullGSRK8CSRGraphIiiLb1EEidb._omp_fn.1+0x80>
  40501a:	f2 0f 11 14 24       	movsd  %xmm2,(%rsp)
  40501f:	e8 7c e6 ff ff       	callq  4036a0 <GOMP_loop_end_nowait@plt>
  405024:	48 8b 53 18          	mov    0x18(%rbx),%rdx
  405028:	f2 0f 10 14 24       	movsd  (%rsp),%xmm2
/home/aliha951/ipdps-artifact/gapbs-master/src/pr.cc:45 (discriminator 5)
    #pragma omp parallel for reduction(+ : error) schedule(dynamic, 16384)
  40502d:	48 8d 4b 18          	lea    0x18(%rbx),%rcx
  405031:	66 48 0f 6e fa       	movq   %rdx,%xmm7
  405036:	48 89 d0             	mov    %rdx,%rax
  405039:	f2 0f 58 fa          	addsd  %xmm2,%xmm7
  40503d:	66 48 0f 7e fe       	movq   %xmm7,%rsi
  405042:	f0 48 0f b1 31       	lock cmpxchg %rsi,(%rcx)
  405047:	48 39 c2             	cmp    %rax,%rdx
  40504a:	75 19                	jne    405065 <_Z14PageRankPullGSRK8CSRGraphIiiLb1EEidb._omp_fn.1+0x1a5>
/home/aliha951/ipdps-artifact/gapbs-master/src/pr.cc:45
  40504c:	48 8b 44 24 28       	mov    0x28(%rsp),%rax
  405051:	64 48 2b 04 25 28 00 	sub    %fs:0x28,%rax
  405058:	00 00 
  40505a:	75 0e                	jne    40506a <_Z14PageRankPullGSRK8CSRGraphIiiLb1EEidb._omp_fn.1+0x1aa>
  40505c:	48 83 c4 30          	add    $0x30,%rsp
  405060:	5b                   	pop    %rbx
  405061:	5d                   	pop    %rbp
  405062:	41 5c                	pop    %r12
  405064:	c3                   	retq   
  405065:	48 89 c2             	mov    %rax,%rdx
  405068:	eb c7                	jmp    405031 <_Z14PageRankPullGSRK8CSRGraphIiiLb1EEidb._omp_fn.1+0x171>
  40506a:	e8 51 e9 ff ff       	callq  4039c0 <__stack_chk_fail@plt>
  40506f:	90                   	nop

0000000000405070 <_Z14PageRankPullGSRK8CSRGraphIiiLb1EEidb._omp_fn.0>:
_Z14PageRankPullGSRK8CSRGraphIiiLb1EEidb._omp_fn.0():
/home/aliha951/ipdps-artifact/gapbs-master/src/pr.cc:40
  #pragma omp parallel for
  405070:	f3 0f 1e fa          	endbr64 
  405074:	41 54                	push   %r12
  405076:	55                   	push   %rbp
  405077:	53                   	push   %rbx
  405078:	48 89 fb             	mov    %rdi,%rbx
/home/aliha951/ipdps-artifact/gapbs-master/src/pr.cc:41
  for (NodeID n=0; n < g.num_nodes(); n++)
  40507b:	4c 8b 27             	mov    (%rdi),%r12
_ZNK8CSRGraphIiiLb1EE9num_nodesEv():
/home/aliha951/ipdps-artifact/gapbs-master/src/graph.h:193
  int64_t num_nodes() const {
  40507e:	e8 8d ea ff ff       	callq  403b10 <omp_get_num_threads@plt>
  405083:	89 c5                	mov    %eax,%ebp
  405085:	e8 66 e9 ff ff       	callq  4039f0 <omp_get_thread_num@plt>
  40508a:	89 c1                	mov    %eax,%ecx
_Z14PageRankPullGSRK8CSRGraphIiiLb1EEidb._omp_fn.0():
/home/aliha951/ipdps-artifact/gapbs-master/src/pr.cc:41
  40508c:	49 8b 44 24 08       	mov    0x8(%r12),%rax
  405091:	99                   	cltd   
  405092:	f7 fd                	idiv   %ebp
  405094:	39 d1                	cmp    %edx,%ecx
  405096:	7c 58                	jl     4050f0 <_Z14PageRankPullGSRK8CSRGraphIiiLb1EEidb._omp_fn.0+0x80>
  405098:	0f af c8             	imul   %eax,%ecx
  40509b:	01 ca                	add    %ecx,%edx
  40509d:	01 d0                	add    %edx,%eax
  40509f:	39 c2                	cmp    %eax,%edx
  4050a1:	7d 47                	jge    4050ea <_Z14PageRankPullGSRK8CSRGraphIiiLb1EEidb._omp_fn.0+0x7a>
_ZN7pvectorIfEixEm():
/home/aliha951/ipdps-artifact/gapbs-master/src/pvector.h:116
  4050a3:	48 8b 4b 08          	mov    0x8(%rbx),%rcx
_Z14PageRankPullGSRK8CSRGraphIiiLb1EEidb._omp_fn.0():
/home/aliha951/ipdps-artifact/gapbs-master/src/pr.cc:40
  #pragma omp parallel for
  4050a7:	f3 0f 10 53 10       	movss  0x10(%rbx),%xmm2
  4050ac:	48 63 d2             	movslq %edx,%rdx
_ZNK8CSRGraphIiiLb1EE10out_degreeEi():
/home/aliha951/ipdps-artifact/gapbs-master/src/graph.h:206
    return out_index_[v+1] - out_index_[v];
  4050af:	49 8b 74 24 18       	mov    0x18(%r12),%rsi
_ZN7pvectorIfEixEm():
/home/aliha951/ipdps-artifact/gapbs-master/src/pvector.h:116
  4050b4:	48 8b 39             	mov    (%rcx),%rdi
  4050b7:	66 0f 1f 84 00 00 00 	nopw   0x0(%rax,%rax,1)
  4050be:	00 00 
_ZNK8CSRGraphIiiLb1EE10out_degreeEi():
/home/aliha951/ipdps-artifact/gapbs-master/src/graph.h:206 (discriminator 1)
  4050c0:	48 8b 4c d6 08       	mov    0x8(%rsi,%rdx,8),%rcx
  4050c5:	48 2b 0c d6          	sub    (%rsi,%rdx,8),%rcx
_Z14PageRankPullGSRK8CSRGraphIiiLb1EEidb._omp_fn.0():
/home/aliha951/ipdps-artifact/gapbs-master/src/pr.cc:42 (discriminator 1)
    outgoing_contrib[n] = init_score / g.out_degree(n);
  4050c9:	66 0f ef c9          	pxor   %xmm1,%xmm1
  4050cd:	0f 28 c2             	movaps %xmm2,%xmm0
_ZNK8CSRGraphIiiLb1EE10out_degreeEi():
/home/aliha951/ipdps-artifact/gapbs-master/src/graph.h:206 (discriminator 1)
  4050d0:	48 c1 f9 02          	sar    $0x2,%rcx
_Z14PageRankPullGSRK8CSRGraphIiiLb1EEidb._omp_fn.0():
/home/aliha951/ipdps-artifact/gapbs-master/src/pr.cc:42 (discriminator 1)
  4050d4:	f3 48 0f 2a c9       	cvtsi2ss %rcx,%xmm1
  4050d9:	f3 0f 5e c1          	divss  %xmm1,%xmm0
  4050dd:	f3 0f 11 04 97       	movss  %xmm0,(%rdi,%rdx,4)
  4050e2:	48 83 c2 01          	add    $0x1,%rdx
  4050e6:	39 d0                	cmp    %edx,%eax
  4050e8:	7f d6                	jg     4050c0 <_Z14PageRankPullGSRK8CSRGraphIiiLb1EEidb._omp_fn.0+0x50>
/home/aliha951/ipdps-artifact/gapbs-master/src/pr.cc:40
  #pragma omp parallel for
  4050ea:	5b                   	pop    %rbx
  4050eb:	5d                   	pop    %rbp
  4050ec:	41 5c                	pop    %r12
  4050ee:	c3                   	retq   
  4050ef:	90                   	nop
  4050f0:	83 c0 01             	add    $0x1,%eax
/home/aliha951/ipdps-artifact/gapbs-master/src/pr.cc:41
  for (NodeID n=0; n < g.num_nodes(); n++)
  4050f3:	31 d2                	xor    %edx,%edx
  4050f5:	eb a1                	jmp    405098 <_Z14PageRankPullGSRK8CSRGraphIiiLb1EEidb._omp_fn.0+0x28>
  4050f7:	66 0f 1f 84 00 00 00 	nopw   0x0(%rax,%rax,1)
  4050fe:	00 00 

0000000000405100 <_ZN7pvectorIfE4fillEf._omp_fn.0>:
_ZN7pvectorIfE4fillEf._omp_fn.0():
/home/aliha951/ipdps-artifact/gapbs-master/src/pvector.h:133
    *end_size_ = val;
    end_size_++;
  }

  void fill(T_ init_val) {
    #pragma omp parallel for
  405100:	f3 0f 1e fa          	endbr64 
  405104:	41 55                	push   %r13
  405106:	41 54                	push   %r12
  405108:	55                   	push   %rbp
  405109:	53                   	push   %rbx
  40510a:	48 83 ec 08          	sub    $0x8,%rsp
  40510e:	48 8b 07             	mov    (%rdi),%rax
/home/aliha951/ipdps-artifact/gapbs-master/src/pvector.h:134
    for (T_* ptr=start_; ptr < end_size_; ptr++)
  405111:	48 8b 28             	mov    (%rax),%rbp
  405114:	4c 8b 68 08          	mov    0x8(%rax),%r13
  405118:	4c 39 ed             	cmp    %r13,%rbp
  40511b:	0f 83 e3 00 00 00    	jae    405204 <_ZN7pvectorIfE4fillEf._omp_fn.0+0x104>
  405121:	49 89 fc             	mov    %rdi,%r12
  405124:	e8 e7 e9 ff ff       	callq  403b10 <omp_get_num_threads@plt>
  405129:	48 63 d8             	movslq %eax,%rbx
  40512c:	e8 bf e8 ff ff       	callq  4039f0 <omp_get_thread_num@plt>
  405131:	48 63 c8             	movslq %eax,%rcx
  405134:	49 8d 45 03          	lea    0x3(%r13),%rax
  405138:	48 29 e8             	sub    %rbp,%rax
  40513b:	48 89 c2             	mov    %rax,%rdx
  40513e:	48 8d 40 03          	lea    0x3(%rax),%rax
  405142:	48 0f 49 c2          	cmovns %rdx,%rax
  405146:	48 c1 f8 02          	sar    $0x2,%rax
  40514a:	48 99                	cqto   
  40514c:	48 f7 fb             	idiv   %rbx
  40514f:	48 39 d1             	cmp    %rdx,%rcx
  405152:	0f 8c b8 00 00 00    	jl     405210 <_ZN7pvectorIfE4fillEf._omp_fn.0+0x110>
  405158:	48 0f af c8          	imul   %rax,%rcx
  40515c:	48 01 ca             	add    %rcx,%rdx
  40515f:	48 01 d0             	add    %rdx,%rax
  405162:	48 39 c2             	cmp    %rax,%rdx
  405165:	0f 8d 99 00 00 00    	jge    405204 <_ZN7pvectorIfE4fillEf._omp_fn.0+0x104>
  40516b:	48 c1 e2 02          	shl    $0x2,%rdx
  40516f:	48 c1 e0 02          	shl    $0x2,%rax
/home/aliha951/ipdps-artifact/gapbs-master/src/pvector.h:133
    #pragma omp parallel for
  405173:	f3 41 0f 10 4c 24 08 	movss  0x8(%r12),%xmm1
  40517a:	48 8d 74 15 00       	lea    0x0(%rbp,%rdx,1),%rsi
  40517f:	48 01 c5             	add    %rax,%rbp
  405182:	48 29 d0             	sub    %rdx,%rax
  405185:	48 83 e8 01          	sub    $0x1,%rax
  405189:	48 8d 7e 01          	lea    0x1(%rsi),%rdi
  40518d:	48 89 f1             	mov    %rsi,%rcx
  405190:	48 89 c2             	mov    %rax,%rdx
  405193:	48 c1 ea 02          	shr    $0x2,%rdx
  405197:	48 83 c2 01          	add    $0x1,%rdx
  40519b:	48 39 fd             	cmp    %rdi,%rbp
  40519e:	bf 01 00 00 00       	mov    $0x1,%edi
  4051a3:	48 0f 42 d7          	cmovb  %rdi,%rdx
  4051a7:	72 3b                	jb     4051e4 <_ZN7pvectorIfE4fillEf._omp_fn.0+0xe4>
  4051a9:	48 83 f8 0b          	cmp    $0xb,%rax
  4051ad:	76 35                	jbe    4051e4 <_ZN7pvectorIfE4fillEf._omp_fn.0+0xe4>
  4051af:	48 89 d0             	mov    %rdx,%rax
  4051b2:	0f 28 c1             	movaps %xmm1,%xmm0
  4051b5:	48 c1 e8 02          	shr    $0x2,%rax
  4051b9:	0f c6 c0 00          	shufps $0x0,%xmm0,%xmm0
  4051bd:	48 c1 e0 04          	shl    $0x4,%rax
  4051c1:	48 01 f0             	add    %rsi,%rax
  4051c4:	0f 1f 40 00          	nopl   0x0(%rax)
/home/aliha951/ipdps-artifact/gapbs-master/src/pvector.h:135 (discriminator 1)
      *ptr = init_val;
  4051c8:	0f 11 01             	movups %xmm0,(%rcx)
  4051cb:	48 83 c1 10          	add    $0x10,%rcx
  4051cf:	48 39 c1             	cmp    %rax,%rcx
  4051d2:	75 f4                	jne    4051c8 <_ZN7pvectorIfE4fillEf._omp_fn.0+0xc8>
  4051d4:	48 89 d0             	mov    %rdx,%rax
  4051d7:	48 83 e0 fc          	and    $0xfffffffffffffffc,%rax
  4051db:	48 8d 34 86          	lea    (%rsi,%rax,4),%rsi
  4051df:	48 39 c2             	cmp    %rax,%rdx
  4051e2:	74 20                	je     405204 <_ZN7pvectorIfE4fillEf._omp_fn.0+0x104>
  4051e4:	48 8d 46 04          	lea    0x4(%rsi),%rax
/home/aliha951/ipdps-artifact/gapbs-master/src/pvector.h:135
  4051e8:	f3 0f 11 0e          	movss  %xmm1,(%rsi)
  4051ec:	48 39 c5             	cmp    %rax,%rbp
  4051ef:	76 13                	jbe    405204 <_ZN7pvectorIfE4fillEf._omp_fn.0+0x104>
  4051f1:	48 8d 46 08          	lea    0x8(%rsi),%rax
  4051f5:	f3 0f 11 4e 04       	movss  %xmm1,0x4(%rsi)
  4051fa:	48 39 c5             	cmp    %rax,%rbp
  4051fd:	76 05                	jbe    405204 <_ZN7pvectorIfE4fillEf._omp_fn.0+0x104>
  4051ff:	f3 0f 11 4e 08       	movss  %xmm1,0x8(%rsi)
/home/aliha951/ipdps-artifact/gapbs-master/src/pvector.h:133
    #pragma omp parallel for
  405204:	48 83 c4 08          	add    $0x8,%rsp
  405208:	5b                   	pop    %rbx
  405209:	5d                   	pop    %rbp
  40520a:	41 5c                	pop    %r12
  40520c:	41 5d                	pop    %r13
  40520e:	c3                   	retq   
  40520f:	90                   	nop
  405210:	48 83 c0 01          	add    $0x1,%rax
/home/aliha951/ipdps-artifact/gapbs-master/src/pvector.h:134
    for (T_* ptr=start_; ptr < end_size_; ptr++)
  405214:	31 d2                	xor    %edx,%edx
  405216:	e9 3d ff ff ff       	jmpq   405158 <_ZN7pvectorIfE4fillEf._omp_fn.0+0x58>
  40521b:	0f 1f 44 00 00       	nopl   0x0(%rax,%rax,1)

0000000000405220 <_ZN8CSRGraphIiiLb1EE8GenIndexERK7pvectorIlEPi._omp_fn.0>:
_ZN8CSRGraphIiiLb1EE8GenIndexERK7pvectorIlEPi._omp_fn.0():
/home/aliha951/ipdps-artifact/gapbs-master/src/graph.h:245
  }

  static DestID_** GenIndex(const pvector<SGOffset> &offsets, DestID_* neighs) {
    NodeID_ length = offsets.size();
    DestID_** index = new DestID_*[length];
    #pragma omp parallel for
  405220:	f3 0f 1e fa          	endbr64 
  405224:	55                   	push   %rbp
  405225:	53                   	push   %rbx
  405226:	48 89 fb             	mov    %rdi,%rbx
  405229:	48 83 ec 08          	sub    $0x8,%rsp
  40522d:	e8 de e8 ff ff       	callq  403b10 <omp_get_num_threads@plt>
  405232:	89 c5                	mov    %eax,%ebp
  405234:	e8 b7 e7 ff ff       	callq  4039f0 <omp_get_thread_num@plt>
  405239:	89 c1                	mov    %eax,%ecx
  40523b:	8b 43 18             	mov    0x18(%rbx),%eax
  40523e:	99                   	cltd   
  40523f:	f7 fd                	idiv   %ebp
  405241:	39 d1                	cmp    %edx,%ecx
  405243:	7c 43                	jl     405288 <_ZN8CSRGraphIiiLb1EE8GenIndexERK7pvectorIlEPi._omp_fn.0+0x68>
  405245:	0f af c8             	imul   %eax,%ecx
  405248:	01 ca                	add    %ecx,%edx
  40524a:	01 d0                	add    %edx,%eax
  40524c:	39 c2                	cmp    %eax,%edx
  40524e:	7d 2c                	jge    40527c <_ZN8CSRGraphIiiLb1EE8GenIndexERK7pvectorIlEPi._omp_fn.0+0x5c>
_ZNK7pvectorIlEixEm():
/home/aliha951/ipdps-artifact/gapbs-master/src/pvector.h:120
    return start_[n];
  405250:	48 8b 0b             	mov    (%rbx),%rcx
_ZN8CSRGraphIiiLb1EE8GenIndexERK7pvectorIlEPi._omp_fn.0():
/home/aliha951/ipdps-artifact/gapbs-master/src/graph.h:245
  405253:	4c 8b 43 10          	mov    0x10(%rbx),%r8
  405257:	48 63 d2             	movslq %edx,%rdx
  40525a:	48 8b 7b 08          	mov    0x8(%rbx),%rdi
_ZNK7pvectorIlEixEm():
/home/aliha951/ipdps-artifact/gapbs-master/src/pvector.h:120
  40525e:	48 8b 31             	mov    (%rcx),%rsi
  405261:	0f 1f 80 00 00 00 00 	nopl   0x0(%rax)
_ZN8CSRGraphIiiLb1EE8GenIndexERK7pvectorIlEPi._omp_fn.0():
/home/aliha951/ipdps-artifact/gapbs-master/src/graph.h:247 (discriminator 1)
    for (NodeID_ n=0; n < length; n++)
      index[n] = neighs + offsets[n];
  405268:	48 8b 0c d6          	mov    (%rsi,%rdx,8),%rcx
  40526c:	48 8d 0c 8f          	lea    (%rdi,%rcx,4),%rcx
  405270:	49 89 0c d0          	mov    %rcx,(%r8,%rdx,8)
  405274:	48 83 c2 01          	add    $0x1,%rdx
  405278:	39 d0                	cmp    %edx,%eax
  40527a:	7f ec                	jg     405268 <_ZN8CSRGraphIiiLb1EE8GenIndexERK7pvectorIlEPi._omp_fn.0+0x48>
/home/aliha951/ipdps-artifact/gapbs-master/src/graph.h:245
    #pragma omp parallel for
  40527c:	48 83 c4 08          	add    $0x8,%rsp
  405280:	5b                   	pop    %rbx
  405281:	5d                   	pop    %rbp
  405282:	c3                   	retq   
  405283:	0f 1f 44 00 00       	nopl   0x0(%rax,%rax,1)
  405288:	83 c0 01             	add    $0x1,%eax
  40528b:	31 d2                	xor    %edx,%edx
  40528d:	eb b6                	jmp    405245 <_ZN8CSRGraphIiiLb1EE8GenIndexERK7pvectorIlEPi._omp_fn.0+0x25>
  40528f:	90                   	nop

0000000000405290 <_ZN7pvectorI8EdgePairIiiEE7reserveEm._omp_fn.0>:
_ZN7pvectorI8EdgePairIiiEE7reserveEm._omp_fn.0():
/home/aliha951/ipdps-artifact/gapbs-master/src/pvector.h:86
      #pragma omp parallel for
  405290:	f3 0f 1e fa          	endbr64 
  405294:	41 55                	push   %r13
  405296:	41 54                	push   %r12
  405298:	55                   	push   %rbp
  405299:	53                   	push   %rbx
  40529a:	48 83 ec 08          	sub    $0x8,%rsp
  40529e:	48 8b 07             	mov    (%rdi),%rax
_ZNK7pvectorI8EdgePairIiiEE4sizeEv():
/home/aliha951/ipdps-artifact/gapbs-master/src/pvector.h:143
  size_t capacity() const {
    return end_capacity_ - start_;
  }

  size_t size() const {
    return end_size_ - start_;
  4052a1:	4c 8b 20             	mov    (%rax),%r12
  4052a4:	48 8b 40 08          	mov    0x8(%rax),%rax
  4052a8:	4c 29 e0             	sub    %r12,%rax
  4052ab:	48 c1 f8 03          	sar    $0x3,%rax
  4052af:	74 50                	je     405301 <_ZN7pvectorI8EdgePairIiiEE7reserveEm._omp_fn.0+0x71>
  4052b1:	49 89 fd             	mov    %rdi,%r13
  4052b4:	48 89 c3             	mov    %rax,%rbx
  4052b7:	e8 54 e8 ff ff       	callq  403b10 <omp_get_num_threads@plt>
  4052bc:	89 c5                	mov    %eax,%ebp
  4052be:	e8 2d e7 ff ff       	callq  4039f0 <omp_get_thread_num@plt>
  4052c3:	48 63 f5             	movslq %ebp,%rsi
  4052c6:	31 d2                	xor    %edx,%edx
  4052c8:	48 63 c8             	movslq %eax,%rcx
  4052cb:	48 89 d8             	mov    %rbx,%rax
  4052ce:	48 f7 f6             	div    %rsi
  4052d1:	48 39 d1             	cmp    %rdx,%rcx
  4052d4:	72 3a                	jb     405310 <_ZN7pvectorI8EdgePairIiiEE7reserveEm._omp_fn.0+0x80>
  4052d6:	48 0f af c8          	imul   %rax,%rcx
  4052da:	48 01 ca             	add    %rcx,%rdx
  4052dd:	48 01 d0             	add    %rdx,%rax
  4052e0:	48 39 c2             	cmp    %rax,%rdx
  4052e3:	73 1c                	jae    405301 <_ZN7pvectorI8EdgePairIiiEE7reserveEm._omp_fn.0+0x71>
_ZN7pvectorI8EdgePairIiiEE7reserveEm._omp_fn.0():
/home/aliha951/ipdps-artifact/gapbs-master/src/pvector.h:86
      #pragma omp parallel for
  4052e5:	49 8b 75 08          	mov    0x8(%r13),%rsi
  4052e9:	0f 1f 80 00 00 00 00 	nopl   0x0(%rax)
/home/aliha951/ipdps-artifact/gapbs-master/src/pvector.h:88 (discriminator 1)
        new_range[i] = start_[i];
  4052f0:	49 8b 0c d4          	mov    (%r12,%rdx,8),%rcx
  4052f4:	48 89 0c d6          	mov    %rcx,(%rsi,%rdx,8)
  4052f8:	48 83 c2 01          	add    $0x1,%rdx
  4052fc:	48 39 d0             	cmp    %rdx,%rax
  4052ff:	75 ef                	jne    4052f0 <_ZN7pvectorI8EdgePairIiiEE7reserveEm._omp_fn.0+0x60>
/home/aliha951/ipdps-artifact/gapbs-master/src/pvector.h:86
      #pragma omp parallel for
  405301:	48 83 c4 08          	add    $0x8,%rsp
  405305:	5b                   	pop    %rbx
  405306:	5d                   	pop    %rbp
  405307:	41 5c                	pop    %r12
  405309:	41 5d                	pop    %r13
  40530b:	c3                   	retq   
  40530c:	0f 1f 40 00          	nopl   0x0(%rax)
  405310:	48 83 c0 01          	add    $0x1,%rax
_ZNK7pvectorI8EdgePairIiiEE4sizeEv():
/home/aliha951/ipdps-artifact/gapbs-master/src/pvector.h:143
    return end_size_ - start_;
  405314:	31 d2                	xor    %edx,%edx
  405316:	eb be                	jmp    4052d6 <_ZN7pvectorI8EdgePairIiiEE7reserveEm._omp_fn.0+0x46>
_ZN7pvectorI8EdgePairIiiEE7reserveEm._omp_fn.0():
/home/aliha951/ipdps-artifact/gapbs-master/src/pvector.h:143
  405318:	0f 1f 84 00 00 00 00 	nopl   0x0(%rax,%rax,1)
  40531f:	00 

0000000000405320 <_ZN11BuilderBaseIiiiLb1EE12CountDegreesERK7pvectorI8EdgePairIiiEEb._omp_fn.0>:
_ZN11BuilderBaseIiiiLb1EE12CountDegreesERK7pvectorI8EdgePairIiiEEb._omp_fn.0():
/home/aliha951/ipdps-artifact/gapbs-master/src/builder.h:82
    return max_seen;
  }

  pvector<NodeID_> CountDegrees(const EdgeList &el, bool transpose) {
    pvector<NodeID_> degrees(num_nodes_, 0);
    #pragma omp parallel for
  405320:	f3 0f 1e fa          	endbr64 
  405324:	41 55                	push   %r13
  405326:	41 54                	push   %r12
  405328:	55                   	push   %rbp
  405329:	53                   	push   %rbx
  40532a:	48 83 ec 08          	sub    $0x8,%rsp
/home/aliha951/ipdps-artifact/gapbs-master/src/builder.h:83
    for (auto it = el.begin(); it < el.end(); it++) {
  40532e:	48 8b 47 08          	mov    0x8(%rdi),%rax
_ZNK7pvectorI8EdgePairIiiEE5beginEv():
/home/aliha951/ipdps-artifact/gapbs-master/src/pvector.h:147
  }

  iterator begin() const {
    return start_;
  405332:	4c 8b 20             	mov    (%rax),%r12
_ZNK7pvectorI8EdgePairIiiEE3endEv():
/home/aliha951/ipdps-artifact/gapbs-master/src/pvector.h:151
  }

  iterator end() const {
    return end_size_;
  405335:	4c 8b 68 08          	mov    0x8(%rax),%r13
  405339:	4d 39 e5             	cmp    %r12,%r13
  40533c:	0f 86 8a 00 00 00    	jbe    4053cc <_ZN11BuilderBaseIiiiLb1EE12CountDegreesERK7pvectorI8EdgePairIiiEEb._omp_fn.0+0xac>
  405342:	48 89 fb             	mov    %rdi,%rbx
  405345:	e8 c6 e7 ff ff       	callq  403b10 <omp_get_num_threads@plt>
  40534a:	48 63 e8             	movslq %eax,%rbp
  40534d:	e8 9e e6 ff ff       	callq  4039f0 <omp_get_thread_num@plt>
  405352:	48 63 c8             	movslq %eax,%rcx
  405355:	49 8d 45 07          	lea    0x7(%r13),%rax
  405359:	4c 29 e0             	sub    %r12,%rax
  40535c:	48 89 c2             	mov    %rax,%rdx
  40535f:	48 8d 40 07          	lea    0x7(%rax),%rax
  405363:	48 0f 49 c2          	cmovns %rdx,%rax
  405367:	48 c1 f8 03          	sar    $0x3,%rax
  40536b:	48 99                	cqto   
  40536d:	48 f7 fd             	idiv   %rbp
  405370:	48 39 d1             	cmp    %rdx,%rcx
  405373:	7c 6b                	jl     4053e0 <_ZN11BuilderBaseIiiiLb1EE12CountDegreesERK7pvectorI8EdgePairIiiEEb._omp_fn.0+0xc0>
  405375:	48 0f af c8          	imul   %rax,%rcx
  405379:	48 01 ca             	add    %rcx,%rdx
  40537c:	48 01 d0             	add    %rdx,%rax
  40537f:	48 39 c2             	cmp    %rax,%rdx
  405382:	7d 48                	jge    4053cc <_ZN11BuilderBaseIiiiLb1EE12CountDegreesERK7pvectorI8EdgePairIiiEEb._omp_fn.0+0xac>
  405384:	80 7b 18 00          	cmpb   $0x0,0x18(%rbx)
_ZN11BuilderBaseIiiiLb1EE12CountDegreesERK7pvectorI8EdgePairIiiEEb._omp_fn.0():
/home/aliha951/ipdps-artifact/gapbs-master/src/builder.h:82
    #pragma omp parallel for
  405388:	48 8b 3b             	mov    (%rbx),%rdi
  40538b:	49 8d 14 d4          	lea    (%r12,%rdx,8),%rdx
  40538f:	4d 8d 04 c4          	lea    (%r12,%rax,8),%r8
  405393:	75 53                	jne    4053e8 <_ZN11BuilderBaseIiiiLb1EE12CountDegreesERK7pvectorI8EdgePairIiiEEb._omp_fn.0+0xc8>
  405395:	0f 1f 00             	nopl   (%rax)
_ZN7pvectorIiEixEm():
/home/aliha951/ipdps-artifact/gapbs-master/src/pvector.h:116
    return start_[n];
  405398:	48 8b 4b 10          	mov    0x10(%rbx),%rcx
_ZN11BuilderBaseIiiiLb1EE12CountDegreesERK7pvectorI8EdgePairIiiEEb._omp_fn.0():
/home/aliha951/ipdps-artifact/gapbs-master/src/builder.h:84
      Edge e = *it;
  40539c:	48 63 42 04          	movslq 0x4(%rdx),%rax
/home/aliha951/ipdps-artifact/gapbs-master/src/builder.h:86
      if (symmetrize_ || (!symmetrize_ && !transpose))
        fetch_and_add(degrees[e.u], 1);
  4053a0:	48 63 32             	movslq (%rdx),%rsi
_Z13fetch_and_addIiiET_RS0_T0_():
/home/aliha951/ipdps-artifact/gapbs-master/src/platform_atomics.h:26

    // gcc/clang/icc instrinsics

    template<typename T, typename U>
    T fetch_and_add(T &x, U inc) {
      return __sync_fetch_and_add(&x, inc);
  4053a3:	48 8b 09             	mov    (%rcx),%rcx
  4053a6:	f0 83 04 b1 01       	lock addl $0x1,(%rcx,%rsi,4)
_ZN11BuilderBaseIiiiLb1EE12CountDegreesERK7pvectorI8EdgePairIiiEEb._omp_fn.0():
/home/aliha951/ipdps-artifact/gapbs-master/src/builder.h:87
      if ((symmetrize_ && !in_place_) || (!symmetrize_ && transpose))
  4053ab:	80 7f 08 00          	cmpb   $0x0,0x8(%rdi)
  4053af:	74 12                	je     4053c3 <_ZN11BuilderBaseIiiiLb1EE12CountDegreesERK7pvectorI8EdgePairIiiEEb._omp_fn.0+0xa3>
  4053b1:	80 7f 0a 00          	cmpb   $0x0,0xa(%rdi)
  4053b5:	75 0c                	jne    4053c3 <_ZN11BuilderBaseIiiiLb1EE12CountDegreesERK7pvectorI8EdgePairIiiEEb._omp_fn.0+0xa3>
_ZN7pvectorIiEixEm():
/home/aliha951/ipdps-artifact/gapbs-master/src/pvector.h:116
  4053b7:	48 8b 4b 10          	mov    0x10(%rbx),%rcx
_Z13fetch_and_addIiiET_RS0_T0_():
/home/aliha951/ipdps-artifact/gapbs-master/src/platform_atomics.h:26
  4053bb:	48 8b 09             	mov    (%rcx),%rcx
  4053be:	f0 83 04 81 01       	lock addl $0x1,(%rcx,%rax,4)
  4053c3:	48 83 c2 08          	add    $0x8,%rdx
  4053c7:	49 39 d0             	cmp    %rdx,%r8
  4053ca:	77 cc                	ja     405398 <_ZN11BuilderBaseIiiiLb1EE12CountDegreesERK7pvectorI8EdgePairIiiEEb._omp_fn.0+0x78>
_ZN11BuilderBaseIiiiLb1EE12CountDegreesERK7pvectorI8EdgePairIiiEEb._omp_fn.0():
/home/aliha951/ipdps-artifact/gapbs-master/src/builder.h:82
    #pragma omp parallel for
  4053cc:	48 83 c4 08          	add    $0x8,%rsp
  4053d0:	5b                   	pop    %rbx
  4053d1:	5d                   	pop    %rbp
  4053d2:	41 5c                	pop    %r12
  4053d4:	41 5d                	pop    %r13
  4053d6:	c3                   	retq   
  4053d7:	66 0f 1f 84 00 00 00 	nopw   0x0(%rax,%rax,1)
  4053de:	00 00 
  4053e0:	48 83 c0 01          	add    $0x1,%rax
_ZNK7pvectorI8EdgePairIiiEE3endEv():
/home/aliha951/ipdps-artifact/gapbs-master/src/pvector.h:151
    return end_size_;
  4053e4:	31 d2                	xor    %edx,%edx
  4053e6:	eb 8d                	jmp    405375 <_ZN11BuilderBaseIiiiLb1EE12CountDegreesERK7pvectorI8EdgePairIiiEEb._omp_fn.0+0x55>
_ZN11BuilderBaseIiiiLb1EE12CountDegreesERK7pvectorI8EdgePairIiiEEb._omp_fn.0():
/home/aliha951/ipdps-artifact/gapbs-master/src/builder.h:85
      if (symmetrize_ || (!symmetrize_ && !transpose))
  4053e8:	80 7f 08 00          	cmpb   $0x0,0x8(%rdi)
/home/aliha951/ipdps-artifact/gapbs-master/src/builder.h:84
      Edge e = *it;
  4053ec:	48 63 42 04          	movslq 0x4(%rdx),%rax
/home/aliha951/ipdps-artifact/gapbs-master/src/builder.h:85
      if (symmetrize_ || (!symmetrize_ && !transpose))
  4053f0:	74 1b                	je     40540d <_ZN11BuilderBaseIiiiLb1EE12CountDegreesERK7pvectorI8EdgePairIiiEEb._omp_fn.0+0xed>
_ZN7pvectorIiEixEm():
/home/aliha951/ipdps-artifact/gapbs-master/src/pvector.h:116
    return start_[n];
  4053f2:	48 8b 4b 10          	mov    0x10(%rbx),%rcx
_ZN11BuilderBaseIiiiLb1EE12CountDegreesERK7pvectorI8EdgePairIiiEEb._omp_fn.0():
/home/aliha951/ipdps-artifact/gapbs-master/src/builder.h:86
        fetch_and_add(degrees[e.u], 1);
  4053f6:	48 63 32             	movslq (%rdx),%rsi
_Z13fetch_and_addIiiET_RS0_T0_():
/home/aliha951/ipdps-artifact/gapbs-master/src/platform_atomics.h:26
  4053f9:	48 8b 09             	mov    (%rcx),%rcx
  4053fc:	f0 83 04 b1 01       	lock addl $0x1,(%rcx,%rsi,4)
_ZN11BuilderBaseIiiiLb1EE12CountDegreesERK7pvectorI8EdgePairIiiEEb._omp_fn.0():
/home/aliha951/ipdps-artifact/gapbs-master/src/builder.h:87
      if ((symmetrize_ && !in_place_) || (!symmetrize_ && transpose))
  405401:	80 7f 08 00          	cmpb   $0x0,0x8(%rdi)
  405405:	74 06                	je     40540d <_ZN11BuilderBaseIiiiLb1EE12CountDegreesERK7pvectorI8EdgePairIiiEEb._omp_fn.0+0xed>
/home/aliha951/ipdps-artifact/gapbs-master/src/builder.h:87 (discriminator 1)
  405407:	80 7f 0a 00          	cmpb   $0x0,0xa(%rdi)
  40540b:	75 0c                	jne    405419 <_ZN11BuilderBaseIiiiLb1EE12CountDegreesERK7pvectorI8EdgePairIiiEEb._omp_fn.0+0xf9>
_ZN7pvectorIiEixEm():
/home/aliha951/ipdps-artifact/gapbs-master/src/pvector.h:116
  40540d:	48 8b 4b 10          	mov    0x10(%rbx),%rcx
_Z13fetch_and_addIiiET_RS0_T0_():
/home/aliha951/ipdps-artifact/gapbs-master/src/platform_atomics.h:26
  405411:	48 8b 09             	mov    (%rcx),%rcx
  405414:	f0 83 04 81 01       	lock addl $0x1,(%rcx,%rax,4)
  405419:	48 83 c2 08          	add    $0x8,%rdx
  40541d:	49 39 d0             	cmp    %rdx,%r8
  405420:	77 c6                	ja     4053e8 <_ZN11BuilderBaseIiiiLb1EE12CountDegreesERK7pvectorI8EdgePairIiiEEb._omp_fn.0+0xc8>
  405422:	eb a8                	jmp    4053cc <_ZN11BuilderBaseIiiiLb1EE12CountDegreesERK7pvectorI8EdgePairIiiEEb._omp_fn.0+0xac>
_ZN11BuilderBaseIiiiLb1EE12CountDegreesERK7pvectorI8EdgePairIiiEEb._omp_fn.0():
/home/aliha951/ipdps-artifact/gapbs-master/src/platform_atomics.h:26
  405424:	66 66 2e 0f 1f 84 00 	data16 nopw %cs:0x0(%rax,%rax,1)
  40542b:	00 00 00 00 
  40542f:	90                   	nop

0000000000405430 <_ZN11BuilderBaseIiiiLb1EE17ParallelPrefixSumERK7pvectorIiE._omp_fn.0>:
_ZN11BuilderBaseIiiiLb1EE17ParallelPrefixSumERK7pvectorIiE._omp_fn.0():
/home/aliha951/ipdps-artifact/gapbs-master/src/builder.h:110
  static
  pvector<SGOffset> ParallelPrefixSum(const pvector<NodeID_> &degrees) {
    const size_t block_size = 1<<20;
    const size_t num_blocks = (degrees.size() + block_size - 1) / block_size;
    pvector<SGOffset> local_sums(num_blocks);
    #pragma omp parallel for
  405430:	f3 0f 1e fa          	endbr64 
  405434:	41 54                	push   %r12
  405436:	55                   	push   %rbp
  405437:	53                   	push   %rbx
  405438:	48 8b 5f 08          	mov    0x8(%rdi),%rbx
  40543c:	48 85 db             	test   %rbx,%rbx
  40543f:	0f 84 4d 01 00 00    	je     405592 <_ZN11BuilderBaseIiiiLb1EE17ParallelPrefixSumERK7pvectorIiE._omp_fn.0+0x162>
  405445:	49 89 fc             	mov    %rdi,%r12
  405448:	e8 c3 e6 ff ff       	callq  403b10 <omp_get_num_threads@plt>
  40544d:	89 c5                	mov    %eax,%ebp
  40544f:	e8 9c e5 ff ff       	callq  4039f0 <omp_get_thread_num@plt>
  405454:	48 63 cd             	movslq %ebp,%rcx
  405457:	31 d2                	xor    %edx,%edx
  405459:	48 63 f0             	movslq %eax,%rsi
  40545c:	48 89 d8             	mov    %rbx,%rax
  40545f:	48 f7 f1             	div    %rcx
  405462:	48 39 d6             	cmp    %rdx,%rsi
  405465:	0f 82 3d 01 00 00    	jb     4055a8 <_ZN11BuilderBaseIiiiLb1EE17ParallelPrefixSumERK7pvectorIiE._omp_fn.0+0x178>
  40546b:	48 0f af f0          	imul   %rax,%rsi
  40546f:	48 01 d6             	add    %rdx,%rsi
  405472:	48 01 f0             	add    %rsi,%rax
  405475:	48 39 c6             	cmp    %rax,%rsi
  405478:	0f 83 14 01 00 00    	jae    405592 <_ZN11BuilderBaseIiiiLb1EE17ParallelPrefixSumERK7pvectorIiE._omp_fn.0+0x162>
/home/aliha951/ipdps-artifact/gapbs-master/src/builder.h:113
    for (size_t block=0; block < num_blocks; block++) {
      SGOffset lsum = 0;
      size_t block_end = std::min((block + 1) * block_size, degrees.size());
  40547e:	49 8b 14 24          	mov    (%r12),%rdx
  405482:	49 89 f0             	mov    %rsi,%r8
/home/aliha951/ipdps-artifact/gapbs-master/src/builder.h:115
      for (size_t i=block * block_size; i < block_end; i++)
        lsum += degrees[i];
  405485:	66 0f ef e4          	pxor   %xmm4,%xmm4
  405489:	49 c1 e0 14          	shl    $0x14,%r8
_ZNK7pvectorIiE4sizeEv():
/home/aliha951/ipdps-artifact/gapbs-master/src/pvector.h:143
    return end_size_ - start_;
  40548d:	4c 8b 1a             	mov    (%rdx),%r11
  405490:	4c 8b 52 08          	mov    0x8(%rdx),%r10
_ZN7pvectorIlEixEm():
/home/aliha951/ipdps-artifact/gapbs-master/src/pvector.h:116
    return start_[n];
  405494:	49 8b 54 24 10       	mov    0x10(%r12),%rdx
_ZNK7pvectorIiE4sizeEv():
/home/aliha951/ipdps-artifact/gapbs-master/src/pvector.h:143
    return end_size_ - start_;
  405499:	4d 29 da             	sub    %r11,%r10
_ZN7pvectorIlEixEm():
/home/aliha951/ipdps-artifact/gapbs-master/src/pvector.h:116
    return start_[n];
  40549c:	48 8b 12             	mov    (%rdx),%rdx
_ZNK7pvectorIiE4sizeEv():
/home/aliha951/ipdps-artifact/gapbs-master/src/pvector.h:143
    return end_size_ - start_;
  40549f:	49 c1 fa 02          	sar    $0x2,%r10
  4054a3:	4c 8d 0c f2          	lea    (%rdx,%rsi,8),%r9
  4054a7:	48 c1 e6 16          	shl    $0x16,%rsi
  4054ab:	48 8d 2c c2          	lea    (%rdx,%rax,8),%rbp
  4054af:	4c 01 de             	add    %r11,%rsi
  4054b2:	66 0f 1f 44 00 00    	nopw   0x0(%rax,%rax,1)
/home/aliha951/ipdps-artifact/gapbs-master/src/pvector.h:142
  size_t size() const {
  4054b8:	4c 89 c1             	mov    %r8,%rcx
_ZN11BuilderBaseIiiiLb1EE17ParallelPrefixSumERK7pvectorIiE._omp_fn.0():
/home/aliha951/ipdps-artifact/gapbs-master/src/builder.h:113
      size_t block_end = std::min((block + 1) * block_size, degrees.size());
  4054bb:	49 81 c0 00 00 10 00 	add    $0x100000,%r8
  4054c2:	4c 89 d3             	mov    %r10,%rbx
  4054c5:	4d 39 d0             	cmp    %r10,%r8
  4054c8:	49 0f 46 d8          	cmovbe %r8,%rbx
/home/aliha951/ipdps-artifact/gapbs-master/src/builder.h:114
      for (size_t i=block * block_size; i < block_end; i++)
  4054cc:	48 39 cb             	cmp    %rcx,%rbx
  4054cf:	0f 86 cb 00 00 00    	jbe    4055a0 <_ZN11BuilderBaseIiiiLb1EE17ParallelPrefixSumERK7pvectorIiE._omp_fn.0+0x170>
  4054d5:	48 89 df             	mov    %rbx,%rdi
  4054d8:	48 29 cf             	sub    %rcx,%rdi
  4054db:	48 8d 47 ff          	lea    -0x1(%rdi),%rax
  4054df:	48 83 f8 02          	cmp    $0x2,%rax
  4054e3:	0f 86 bb 00 00 00    	jbe    4055a4 <_ZN11BuilderBaseIiiiLb1EE17ParallelPrefixSumERK7pvectorIiE._omp_fn.0+0x174>
  4054e9:	48 89 fa             	mov    %rdi,%rdx
  4054ec:	48 89 f0             	mov    %rsi,%rax
  4054ef:	66 0f ef c9          	pxor   %xmm1,%xmm1
  4054f3:	48 c1 ea 02          	shr    $0x2,%rdx
  4054f7:	48 c1 e2 04          	shl    $0x4,%rdx
  4054fb:	48 01 f2             	add    %rsi,%rdx
  4054fe:	66 90                	xchg   %ax,%ax
/home/aliha951/ipdps-artifact/gapbs-master/src/builder.h:115 (discriminator 2)
        lsum += degrees[i];
  405500:	f3 0f 6f 00          	movdqu (%rax),%xmm0
  405504:	66 0f 6f d4          	movdqa %xmm4,%xmm2
  405508:	48 83 c0 10          	add    $0x10,%rax
  40550c:	66 0f 66 d0          	pcmpgtd %xmm0,%xmm2
  405510:	66 0f 6f d8          	movdqa %xmm0,%xmm3
  405514:	66 0f 62 da          	punpckldq %xmm2,%xmm3
  405518:	66 0f 6a c2          	punpckhdq %xmm2,%xmm0
  40551c:	66 0f d4 cb          	paddq  %xmm3,%xmm1
  405520:	66 0f d4 c8          	paddq  %xmm0,%xmm1
/home/aliha951/ipdps-artifact/gapbs-master/src/builder.h:114 (discriminator 2)
      for (size_t i=block * block_size; i < block_end; i++)
  405524:	48 39 d0             	cmp    %rdx,%rax
  405527:	75 d7                	jne    405500 <_ZN11BuilderBaseIiiiLb1EE17ParallelPrefixSumERK7pvectorIiE._omp_fn.0+0xd0>
  405529:	66 0f 6f c1          	movdqa %xmm1,%xmm0
  40552d:	48 89 fa             	mov    %rdi,%rdx
  405530:	66 0f 73 d8 08       	psrldq $0x8,%xmm0
  405535:	48 83 e2 fc          	and    $0xfffffffffffffffc,%rdx
  405539:	66 0f d4 c1          	paddq  %xmm1,%xmm0
  40553d:	48 01 d1             	add    %rdx,%rcx
  405540:	66 48 0f 7e c0       	movq   %xmm0,%rax
  405545:	48 39 fa             	cmp    %rdi,%rdx
  405548:	74 31                	je     40557b <_ZN11BuilderBaseIiiiLb1EE17ParallelPrefixSumERK7pvectorIiE._omp_fn.0+0x14b>
/home/aliha951/ipdps-artifact/gapbs-master/src/builder.h:115
        lsum += degrees[i];
  40554a:	49 63 3c 8b          	movslq (%r11,%rcx,4),%rdi
_ZNK7pvectorIiEixEm():
/home/aliha951/ipdps-artifact/gapbs-master/src/pvector.h:120
    return start_[n];
  40554e:	48 8d 14 8d 00 00 00 	lea    0x0(,%rcx,4),%rdx
  405555:	00 
_ZN11BuilderBaseIiiiLb1EE17ParallelPrefixSumERK7pvectorIiE._omp_fn.0():
/home/aliha951/ipdps-artifact/gapbs-master/src/builder.h:115
  405556:	48 01 f8             	add    %rdi,%rax
/home/aliha951/ipdps-artifact/gapbs-master/src/builder.h:114
      for (size_t i=block * block_size; i < block_end; i++)
  405559:	48 8d 79 01          	lea    0x1(%rcx),%rdi
  40555d:	48 39 df             	cmp    %rbx,%rdi
  405560:	73 19                	jae    40557b <_ZN11BuilderBaseIiiiLb1EE17ParallelPrefixSumERK7pvectorIiE._omp_fn.0+0x14b>
/home/aliha951/ipdps-artifact/gapbs-master/src/builder.h:115
        lsum += degrees[i];
  405562:	49 63 7c 13 04       	movslq 0x4(%r11,%rdx,1),%rdi
/home/aliha951/ipdps-artifact/gapbs-master/src/builder.h:114
      for (size_t i=block * block_size; i < block_end; i++)
  405567:	48 83 c1 02          	add    $0x2,%rcx
/home/aliha951/ipdps-artifact/gapbs-master/src/builder.h:115
        lsum += degrees[i];
  40556b:	48 01 f8             	add    %rdi,%rax
/home/aliha951/ipdps-artifact/gapbs-master/src/builder.h:114
      for (size_t i=block * block_size; i < block_end; i++)
  40556e:	48 39 cb             	cmp    %rcx,%rbx
  405571:	76 08                	jbe    40557b <_ZN11BuilderBaseIiiiLb1EE17ParallelPrefixSumERK7pvectorIiE._omp_fn.0+0x14b>
/home/aliha951/ipdps-artifact/gapbs-master/src/builder.h:115
        lsum += degrees[i];
  405573:	49 63 54 13 08       	movslq 0x8(%r11,%rdx,1),%rdx
  405578:	48 01 d0             	add    %rdx,%rax
/home/aliha951/ipdps-artifact/gapbs-master/src/builder.h:116
      local_sums[block] = lsum;
  40557b:	49 89 01             	mov    %rax,(%r9)
  40557e:	49 83 c1 08          	add    $0x8,%r9
  405582:	48 81 c6 00 00 40 00 	add    $0x400000,%rsi
  405589:	49 39 e9             	cmp    %rbp,%r9
  40558c:	0f 85 26 ff ff ff    	jne    4054b8 <_ZN11BuilderBaseIiiiLb1EE17ParallelPrefixSumERK7pvectorIiE._omp_fn.0+0x88>
/home/aliha951/ipdps-artifact/gapbs-master/src/builder.h:110
    #pragma omp parallel for
  405592:	5b                   	pop    %rbx
  405593:	5d                   	pop    %rbp
  405594:	41 5c                	pop    %r12
  405596:	c3                   	retq   
  405597:	66 0f 1f 84 00 00 00 	nopw   0x0(%rax,%rax,1)
  40559e:	00 00 
/home/aliha951/ipdps-artifact/gapbs-master/src/builder.h:112
      SGOffset lsum = 0;
  4055a0:	31 c0                	xor    %eax,%eax
  4055a2:	eb d7                	jmp    40557b <_ZN11BuilderBaseIiiiLb1EE17ParallelPrefixSumERK7pvectorIiE._omp_fn.0+0x14b>
  4055a4:	31 c0                	xor    %eax,%eax
  4055a6:	eb a2                	jmp    40554a <_ZN11BuilderBaseIiiiLb1EE17ParallelPrefixSumERK7pvectorIiE._omp_fn.0+0x11a>
  4055a8:	48 83 c0 01          	add    $0x1,%rax
/home/aliha951/ipdps-artifact/gapbs-master/src/builder.h:110
    #pragma omp parallel for
  4055ac:	31 d2                	xor    %edx,%edx
  4055ae:	e9 b8 fe ff ff       	jmpq   40546b <_ZN11BuilderBaseIiiiLb1EE17ParallelPrefixSumERK7pvectorIiE._omp_fn.0+0x3b>
  4055b3:	66 66 2e 0f 1f 84 00 	data16 nopw %cs:0x0(%rax,%rax,1)
  4055ba:	00 00 00 00 
  4055be:	66 90                	xchg   %ax,%ax

00000000004055c0 <_ZN11BuilderBaseIiiiLb1EE17ParallelPrefixSumERK7pvectorIiE._omp_fn.1>:
_ZN11BuilderBaseIiiiLb1EE17ParallelPrefixSumERK7pvectorIiE._omp_fn.1():
/home/aliha951/ipdps-artifact/gapbs-master/src/builder.h:126
      bulk_prefix[block] = total;
      total += local_sums[block];
    }
    bulk_prefix[num_blocks] = total;
    pvector<SGOffset> prefix(degrees.size() + 1);
    #pragma omp parallel for
  4055c0:	f3 0f 1e fa          	endbr64 
  4055c4:	41 54                	push   %r12
  4055c6:	55                   	push   %rbp
  4055c7:	53                   	push   %rbx
  4055c8:	48 8b 5f 10          	mov    0x10(%rdi),%rbx
  4055cc:	48 85 db             	test   %rbx,%rbx
  4055cf:	0f 84 98 00 00 00    	je     40566d <_ZN11BuilderBaseIiiiLb1EE17ParallelPrefixSumERK7pvectorIiE._omp_fn.1+0xad>
  4055d5:	48 89 fd             	mov    %rdi,%rbp
  4055d8:	e8 33 e5 ff ff       	callq  403b10 <omp_get_num_threads@plt>
  4055dd:	41 89 c4             	mov    %eax,%r12d
  4055e0:	e8 0b e4 ff ff       	callq  4039f0 <omp_get_thread_num@plt>
  4055e5:	49 63 cc             	movslq %r12d,%rcx
  4055e8:	31 d2                	xor    %edx,%edx
  4055ea:	4c 63 c8             	movslq %eax,%r9
  4055ed:	48 89 d8             	mov    %rbx,%rax
  4055f0:	48 f7 f1             	div    %rcx
  4055f3:	49 39 d1             	cmp    %rdx,%r9
  4055f6:	72 7a                	jb     405672 <_ZN11BuilderBaseIiiiLb1EE17ParallelPrefixSumERK7pvectorIiE._omp_fn.1+0xb2>
  4055f8:	4c 0f af c8          	imul   %rax,%r9
  4055fc:	49 01 d1             	add    %rdx,%r9
  4055ff:	4c 01 c8             	add    %r9,%rax
  405602:	49 39 c1             	cmp    %rax,%r9
  405605:	73 66                	jae    40566d <_ZN11BuilderBaseIiiiLb1EE17ParallelPrefixSumERK7pvectorIiE._omp_fn.1+0xad>
/home/aliha951/ipdps-artifact/gapbs-master/src/builder.h:129
    for (size_t block=0; block < num_blocks; block++) {
      SGOffset local_total = bulk_prefix[block];
      size_t block_end = std::min((block + 1) * block_size, degrees.size());
  405607:	48 8b 4d 00          	mov    0x0(%rbp),%rcx
_ZN7pvectorIlEixEm():
/home/aliha951/ipdps-artifact/gapbs-master/src/pvector.h:116
    return start_[n];
  40560b:	48 8b 55 18          	mov    0x18(%rbp),%rdx
_ZN11BuilderBaseIiiiLb1EE17ParallelPrefixSumERK7pvectorIiE._omp_fn.1():
/home/aliha951/ipdps-artifact/gapbs-master/src/builder.h:131
      for (size_t i=block * block_size; i < block_end; i++) {
        prefix[i] = local_total;
  40560f:	48 8b 6d 08          	mov    0x8(%rbp),%rbp
_ZNK7pvectorIiE4sizeEv():
/home/aliha951/ipdps-artifact/gapbs-master/src/pvector.h:143
    return end_size_ - start_;
  405613:	4c 8b 01             	mov    (%rcx),%r8
  405616:	4c 8b 59 08          	mov    0x8(%rcx),%r11
_ZN7pvectorIlEixEm():
/home/aliha951/ipdps-artifact/gapbs-master/src/pvector.h:116
    return start_[n];
  40561a:	48 8b 12             	mov    (%rdx),%rdx
_ZNK7pvectorIiE4sizeEv():
/home/aliha951/ipdps-artifact/gapbs-master/src/pvector.h:143
    return end_size_ - start_;
  40561d:	4d 29 c3             	sub    %r8,%r11
  405620:	4e 8d 14 ca          	lea    (%rdx,%r9,8),%r10
  405624:	49 c1 fb 02          	sar    $0x2,%r11
  405628:	49 c1 e1 14          	shl    $0x14,%r9
  40562c:	48 8d 1c c2          	lea    (%rdx,%rax,8),%rbx
_ZN7pvectorIlEixEm():
/home/aliha951/ipdps-artifact/gapbs-master/src/pvector.h:115
  T_& operator[](size_t n) {
  405630:	4c 89 c8             	mov    %r9,%rax
_ZN11BuilderBaseIiiiLb1EE17ParallelPrefixSumERK7pvectorIiE._omp_fn.1():
/home/aliha951/ipdps-artifact/gapbs-master/src/builder.h:129
      size_t block_end = std::min((block + 1) * block_size, degrees.size());
  405633:	49 81 c1 00 00 10 00 	add    $0x100000,%r9
  40563a:	4c 89 de             	mov    %r11,%rsi
/home/aliha951/ipdps-artifact/gapbs-master/src/builder.h:128
      SGOffset local_total = bulk_prefix[block];
  40563d:	49 8b 12             	mov    (%r10),%rdx
_ZNK7pvectorIiE4sizeEv():
/home/aliha951/ipdps-artifact/gapbs-master/src/pvector.h:142
  size_t size() const {
  405640:	4d 39 d9             	cmp    %r11,%r9
  405643:	49 0f 46 f1          	cmovbe %r9,%rsi
_ZN11BuilderBaseIiiiLb1EE17ParallelPrefixSumERK7pvectorIiE._omp_fn.1():
/home/aliha951/ipdps-artifact/gapbs-master/src/builder.h:130
      for (size_t i=block * block_size; i < block_end; i++) {
  405647:	48 39 c6             	cmp    %rax,%rsi
  40564a:	76 18                	jbe    405664 <_ZN11BuilderBaseIiiiLb1EE17ParallelPrefixSumERK7pvectorIiE._omp_fn.1+0xa4>
_ZN7pvectorIlEixEm():
/home/aliha951/ipdps-artifact/gapbs-master/src/pvector.h:116
    return start_[n];
  40564c:	48 8b 7d 00          	mov    0x0(%rbp),%rdi
_ZN11BuilderBaseIiiiLb1EE17ParallelPrefixSumERK7pvectorIiE._omp_fn.1():
/home/aliha951/ipdps-artifact/gapbs-master/src/builder.h:132 (discriminator 2)
        local_total += degrees[i];
  405650:	49 63 0c 80          	movslq (%r8,%rax,4),%rcx
/home/aliha951/ipdps-artifact/gapbs-master/src/builder.h:131 (discriminator 2)
        prefix[i] = local_total;
  405654:	48 89 14 c7          	mov    %rdx,(%rdi,%rax,8)
/home/aliha951/ipdps-artifact/gapbs-master/src/builder.h:130 (discriminator 2)
      for (size_t i=block * block_size; i < block_end; i++) {
  405658:	48 83 c0 01          	add    $0x1,%rax
/home/aliha951/ipdps-artifact/gapbs-master/src/builder.h:132 (discriminator 2)
        local_total += degrees[i];
  40565c:	48 01 ca             	add    %rcx,%rdx
/home/aliha951/ipdps-artifact/gapbs-master/src/builder.h:130 (discriminator 2)
      for (size_t i=block * block_size; i < block_end; i++) {
  40565f:	48 39 c6             	cmp    %rax,%rsi
  405662:	75 ec                	jne    405650 <_ZN11BuilderBaseIiiiLb1EE17ParallelPrefixSumERK7pvectorIiE._omp_fn.1+0x90>
  405664:	49 83 c2 08          	add    $0x8,%r10
  405668:	49 39 da             	cmp    %rbx,%r10
  40566b:	75 c3                	jne    405630 <_ZN11BuilderBaseIiiiLb1EE17ParallelPrefixSumERK7pvectorIiE._omp_fn.1+0x70>
/home/aliha951/ipdps-artifact/gapbs-master/src/builder.h:126
    #pragma omp parallel for
  40566d:	5b                   	pop    %rbx
  40566e:	5d                   	pop    %rbp
  40566f:	41 5c                	pop    %r12
  405671:	c3                   	retq   
  405672:	48 83 c0 01          	add    $0x1,%rax
  405676:	31 d2                	xor    %edx,%edx
  405678:	e9 7b ff ff ff       	jmpq   4055f8 <_ZN11BuilderBaseIiiiLb1EE17ParallelPrefixSumERK7pvectorIiE._omp_fn.1+0x38>
  40567d:	0f 1f 00             	nopl   (%rax)

0000000000405680 <_ZN7pvectorIiE4fillEi._omp_fn.0>:
_ZN7pvectorIiE4fillEi._omp_fn.0():
/home/aliha951/ipdps-artifact/gapbs-master/src/pvector.h:133
    #pragma omp parallel for
  405680:	f3 0f 1e fa          	endbr64 
  405684:	41 55                	push   %r13
  405686:	41 54                	push   %r12
  405688:	55                   	push   %rbp
  405689:	53                   	push   %rbx
  40568a:	48 83 ec 08          	sub    $0x8,%rsp
  40568e:	48 8b 07             	mov    (%rdi),%rax
/home/aliha951/ipdps-artifact/gapbs-master/src/pvector.h:134
    for (T_* ptr=start_; ptr < end_size_; ptr++)
  405691:	48 8b 28             	mov    (%rax),%rbp
  405694:	4c 8b 68 08          	mov    0x8(%rax),%r13
  405698:	4c 39 ed             	cmp    %r13,%rbp
  40569b:	0f 83 dd 00 00 00    	jae    40577e <_ZN7pvectorIiE4fillEi._omp_fn.0+0xfe>
  4056a1:	49 89 fc             	mov    %rdi,%r12
  4056a4:	e8 67 e4 ff ff       	callq  403b10 <omp_get_num_threads@plt>
  4056a9:	48 63 d8             	movslq %eax,%rbx
  4056ac:	e8 3f e3 ff ff       	callq  4039f0 <omp_get_thread_num@plt>
  4056b1:	48 63 c8             	movslq %eax,%rcx
  4056b4:	49 8d 45 03          	lea    0x3(%r13),%rax
  4056b8:	48 29 e8             	sub    %rbp,%rax
  4056bb:	48 89 c2             	mov    %rax,%rdx
  4056be:	48 8d 40 03          	lea    0x3(%rax),%rax
  4056c2:	48 0f 49 c2          	cmovns %rdx,%rax
  4056c6:	48 c1 f8 02          	sar    $0x2,%rax
  4056ca:	48 99                	cqto   
  4056cc:	48 f7 fb             	idiv   %rbx
  4056cf:	48 39 d1             	cmp    %rdx,%rcx
  4056d2:	0f 8c b8 00 00 00    	jl     405790 <_ZN7pvectorIiE4fillEi._omp_fn.0+0x110>
  4056d8:	48 0f af c8          	imul   %rax,%rcx
  4056dc:	48 01 ca             	add    %rcx,%rdx
  4056df:	48 01 d0             	add    %rdx,%rax
  4056e2:	48 39 c2             	cmp    %rax,%rdx
  4056e5:	0f 8d 93 00 00 00    	jge    40577e <_ZN7pvectorIiE4fillEi._omp_fn.0+0xfe>
  4056eb:	48 c1 e2 02          	shl    $0x2,%rdx
  4056ef:	48 c1 e0 02          	shl    $0x2,%rax
/home/aliha951/ipdps-artifact/gapbs-master/src/pvector.h:133
    #pragma omp parallel for
  4056f3:	41 8b 7c 24 08       	mov    0x8(%r12),%edi
  4056f8:	48 8d 74 15 00       	lea    0x0(%rbp,%rdx,1),%rsi
  4056fd:	48 01 c5             	add    %rax,%rbp
  405700:	48 29 d0             	sub    %rdx,%rax
  405703:	48 83 e8 01          	sub    $0x1,%rax
  405707:	4c 8d 46 01          	lea    0x1(%rsi),%r8
  40570b:	48 89 f1             	mov    %rsi,%rcx
  40570e:	48 89 c2             	mov    %rax,%rdx
  405711:	48 c1 ea 02          	shr    $0x2,%rdx
  405715:	48 83 c2 01          	add    $0x1,%rdx
  405719:	4c 39 c5             	cmp    %r8,%rbp
  40571c:	41 b8 01 00 00 00    	mov    $0x1,%r8d
  405722:	49 0f 42 d0          	cmovb  %r8,%rdx
  405726:	72 3c                	jb     405764 <_ZN7pvectorIiE4fillEi._omp_fn.0+0xe4>
  405728:	48 83 f8 0b          	cmp    $0xb,%rax
  40572c:	76 36                	jbe    405764 <_ZN7pvectorIiE4fillEi._omp_fn.0+0xe4>
  40572e:	48 89 d0             	mov    %rdx,%rax
  405731:	66 0f 6e cf          	movd   %edi,%xmm1
  405735:	48 c1 e8 02          	shr    $0x2,%rax
  405739:	66 0f 70 c1 00       	pshufd $0x0,%xmm1,%xmm0
  40573e:	48 c1 e0 04          	shl    $0x4,%rax
  405742:	48 01 f0             	add    %rsi,%rax
  405745:	0f 1f 00             	nopl   (%rax)
/home/aliha951/ipdps-artifact/gapbs-master/src/pvector.h:135 (discriminator 1)
      *ptr = init_val;
  405748:	0f 11 01             	movups %xmm0,(%rcx)
  40574b:	48 83 c1 10          	add    $0x10,%rcx
  40574f:	48 39 c1             	cmp    %rax,%rcx
  405752:	75 f4                	jne    405748 <_ZN7pvectorIiE4fillEi._omp_fn.0+0xc8>
  405754:	48 89 d0             	mov    %rdx,%rax
  405757:	48 83 e0 fc          	and    $0xfffffffffffffffc,%rax
  40575b:	48 8d 34 86          	lea    (%rsi,%rax,4),%rsi
  40575f:	48 39 c2             	cmp    %rax,%rdx
  405762:	74 1a                	je     40577e <_ZN7pvectorIiE4fillEi._omp_fn.0+0xfe>
  405764:	48 8d 46 04          	lea    0x4(%rsi),%rax
/home/aliha951/ipdps-artifact/gapbs-master/src/pvector.h:135
  405768:	89 3e                	mov    %edi,(%rsi)
  40576a:	48 39 c5             	cmp    %rax,%rbp
  40576d:	76 0f                	jbe    40577e <_ZN7pvectorIiE4fillEi._omp_fn.0+0xfe>
  40576f:	48 8d 46 08          	lea    0x8(%rsi),%rax
  405773:	89 7e 04             	mov    %edi,0x4(%rsi)
  405776:	48 39 c5             	cmp    %rax,%rbp
  405779:	76 03                	jbe    40577e <_ZN7pvectorIiE4fillEi._omp_fn.0+0xfe>
  40577b:	89 7e 08             	mov    %edi,0x8(%rsi)
/home/aliha951/ipdps-artifact/gapbs-master/src/pvector.h:133
    #pragma omp parallel for
  40577e:	48 83 c4 08          	add    $0x8,%rsp
  405782:	5b                   	pop    %rbx
  405783:	5d                   	pop    %rbp
  405784:	41 5c                	pop    %r12
  405786:	41 5d                	pop    %r13
  405788:	c3                   	retq   
  405789:	0f 1f 80 00 00 00 00 	nopl   0x0(%rax)
  405790:	48 83 c0 01          	add    $0x1,%rax
/home/aliha951/ipdps-artifact/gapbs-master/src/pvector.h:134
    for (T_* ptr=start_; ptr < end_size_; ptr++)
  405794:	31 d2                	xor    %edx,%edx
  405796:	e9 3d ff ff ff       	jmpq   4056d8 <_ZN7pvectorIiE4fillEi._omp_fn.0+0x58>
  40579b:	0f 1f 44 00 00       	nopl   0x0(%rax,%rax,1)

00000000004057a0 <_ZN11BuilderBaseIiiiLb1EE7MakeCSRERK7pvectorI8EdgePairIiiEEbPPPiS8_._omp_fn.0>:
_ZN11BuilderBaseIiiiLb1EE7MakeCSRERK7pvectorI8EdgePairIiiEEbPPPiS8_._omp_fn.0():
/home/aliha951/ipdps-artifact/gapbs-master/src/builder.h:306
               DestID_** neighs) {
    pvector<NodeID_> degrees = CountDegrees(el, transpose);
    pvector<SGOffset> offsets = ParallelPrefixSum(degrees);
    *neighs = new DestID_[offsets[num_nodes_]];
    *index = CSRGraph<NodeID_, DestID_>::GenIndex(offsets, *neighs);
    #pragma omp parallel for
  4057a0:	f3 0f 1e fa          	endbr64 
  4057a4:	41 55                	push   %r13
  4057a6:	41 54                	push   %r12
  4057a8:	55                   	push   %rbp
  4057a9:	53                   	push   %rbx
  4057aa:	48 83 ec 08          	sub    $0x8,%rsp
/home/aliha951/ipdps-artifact/gapbs-master/src/builder.h:307
    for (auto it = el.begin(); it < el.end(); it++) {
  4057ae:	48 8b 47 08          	mov    0x8(%rdi),%rax
_ZNK7pvectorI8EdgePairIiiEE5beginEv():
/home/aliha951/ipdps-artifact/gapbs-master/src/pvector.h:147
    return start_;
  4057b2:	4c 8b 20             	mov    (%rax),%r12
_ZNK7pvectorI8EdgePairIiiEE3endEv():
/home/aliha951/ipdps-artifact/gapbs-master/src/pvector.h:151
    return end_size_;
  4057b5:	4c 8b 68 08          	mov    0x8(%rax),%r13
  4057b9:	4d 39 e5             	cmp    %r12,%r13
  4057bc:	0f 86 c5 00 00 00    	jbe    405887 <_ZN11BuilderBaseIiiiLb1EE7MakeCSRERK7pvectorI8EdgePairIiiEEbPPPiS8_._omp_fn.0+0xe7>
  4057c2:	48 89 fb             	mov    %rdi,%rbx
  4057c5:	e8 46 e3 ff ff       	callq  403b10 <omp_get_num_threads@plt>
  4057ca:	48 63 e8             	movslq %eax,%rbp
  4057cd:	e8 1e e2 ff ff       	callq  4039f0 <omp_get_thread_num@plt>
  4057d2:	48 63 c8             	movslq %eax,%rcx
  4057d5:	49 8d 45 07          	lea    0x7(%r13),%rax
  4057d9:	4c 29 e0             	sub    %r12,%rax
  4057dc:	48 89 c2             	mov    %rax,%rdx
  4057df:	48 8d 40 07          	lea    0x7(%rax),%rax
  4057e3:	48 0f 49 c2          	cmovns %rdx,%rax
  4057e7:	48 c1 f8 03          	sar    $0x3,%rax
  4057eb:	48 99                	cqto   
  4057ed:	48 f7 fd             	idiv   %rbp
  4057f0:	48 39 d1             	cmp    %rdx,%rcx
  4057f3:	0f 8c 9f 00 00 00    	jl     405898 <_ZN11BuilderBaseIiiiLb1EE7MakeCSRERK7pvectorI8EdgePairIiiEEbPPPiS8_._omp_fn.0+0xf8>
  4057f9:	48 0f af c8          	imul   %rax,%rcx
  4057fd:	48 01 ca             	add    %rcx,%rdx
  405800:	48 01 d0             	add    %rdx,%rax
  405803:	48 39 c2             	cmp    %rax,%rdx
  405806:	7d 7f                	jge    405887 <_ZN11BuilderBaseIiiiLb1EE7MakeCSRERK7pvectorI8EdgePairIiiEEbPPPiS8_._omp_fn.0+0xe7>
  405808:	49 8d 14 d4          	lea    (%r12,%rdx,8),%rdx
_ZN11BuilderBaseIiiiLb1EE7MakeCSRERK7pvectorI8EdgePairIiiEEbPPPiS8_._omp_fn.0():
/home/aliha951/ipdps-artifact/gapbs-master/src/builder.h:306
    #pragma omp parallel for
  40580c:	4c 8b 4b 10          	mov    0x10(%rbx),%r9
  405810:	44 0f b6 53 20       	movzbl 0x20(%rbx),%r10d
  405815:	4d 8d 24 c4          	lea    (%r12,%rax,8),%r12
  405819:	4c 8b 03             	mov    (%rbx),%r8
  40581c:	eb 2c                	jmp    40584a <_ZN11BuilderBaseIiiiLb1EE7MakeCSRERK7pvectorI8EdgePairIiiEEbPPPiS8_._omp_fn.0+0xaa>
  40581e:	66 90                	xchg   %ax,%ax
/home/aliha951/ipdps-artifact/gapbs-master/src/builder.h:309
      Edge e = *it;
      if (symmetrize_ || (!symmetrize_ && !transpose))
  405820:	45 84 d2             	test   %r10b,%r10b
  405823:	74 31                	je     405856 <_ZN11BuilderBaseIiiiLb1EE7MakeCSRERK7pvectorI8EdgePairIiiEEbPPPiS8_._omp_fn.0+0xb6>
_ZN7pvectorIlEixEm():
/home/aliha951/ipdps-artifact/gapbs-master/src/pvector.h:116
    return start_[n];
  405825:	48 8b 43 18          	mov    0x18(%rbx),%rax
_ZN11BuilderBaseIiiiLb1EE7MakeCSRERK7pvectorI8EdgePairIiiEEbPPPiS8_._omp_fn.0():
/home/aliha951/ipdps-artifact/gapbs-master/src/builder.h:312
        (*neighs)[fetch_and_add(offsets[e.u], 1)] = e.v;
      if (symmetrize_ || (!symmetrize_ && transpose))
        (*neighs)[fetch_and_add(offsets[static_cast<NodeID_>(e.v)], 1)] =
  405829:	4d 8b 19             	mov    (%r9),%r11
  40582c:	48 63 ce             	movslq %esi,%rcx
_Z13fetch_and_addIliET_RS0_T0_():
/home/aliha951/ipdps-artifact/gapbs-master/src/platform_atomics.h:26
  40582f:	be 01 00 00 00       	mov    $0x1,%esi
  405834:	48 8b 00             	mov    (%rax),%rax
  405837:	f0 48 0f c1 34 c8    	lock xadd %rsi,(%rax,%rcx,8)
  40583d:	48 83 c2 08          	add    $0x8,%rdx
_ZN11BuilderBaseIiiiLb1EE7MakeCSRERK7pvectorI8EdgePairIiiEEbPPPiS8_._omp_fn.0():
/home/aliha951/ipdps-artifact/gapbs-master/src/builder.h:312
  405841:	41 89 3c b3          	mov    %edi,(%r11,%rsi,4)
  405845:	49 39 d4             	cmp    %rdx,%r12
  405848:	76 3d                	jbe    405887 <_ZN11BuilderBaseIiiiLb1EE7MakeCSRERK7pvectorI8EdgePairIiiEEbPPPiS8_._omp_fn.0+0xe7>
/home/aliha951/ipdps-artifact/gapbs-master/src/builder.h:309
      if (symmetrize_ || (!symmetrize_ && !transpose))
  40584a:	41 80 78 08 01       	cmpb   $0x1,0x8(%r8)
/home/aliha951/ipdps-artifact/gapbs-master/src/builder.h:308
      Edge e = *it;
  40584f:	8b 3a                	mov    (%rdx),%edi
  405851:	8b 72 04             	mov    0x4(%rdx),%esi
/home/aliha951/ipdps-artifact/gapbs-master/src/builder.h:309
      if (symmetrize_ || (!symmetrize_ && !transpose))
  405854:	75 ca                	jne    405820 <_ZN11BuilderBaseIiiiLb1EE7MakeCSRERK7pvectorI8EdgePairIiiEEbPPPiS8_._omp_fn.0+0x80>
_ZN7pvectorIlEixEm():
/home/aliha951/ipdps-artifact/gapbs-master/src/pvector.h:116
  405856:	48 8b 4b 18          	mov    0x18(%rbx),%rcx
_ZN11BuilderBaseIiiiLb1EE7MakeCSRERK7pvectorI8EdgePairIiiEEbPPPiS8_._omp_fn.0():
/home/aliha951/ipdps-artifact/gapbs-master/src/builder.h:310
        (*neighs)[fetch_and_add(offsets[e.u], 1)] = e.v;
  40585a:	4d 8b 19             	mov    (%r9),%r11
  40585d:	48 63 c7             	movslq %edi,%rax
_Z13fetch_and_addIliET_RS0_T0_():
/home/aliha951/ipdps-artifact/gapbs-master/src/platform_atomics.h:26
  405860:	bd 01 00 00 00       	mov    $0x1,%ebp
  405865:	48 8b 09             	mov    (%rcx),%rcx
  405868:	f0 48 0f c1 2c c1    	lock xadd %rbp,(%rcx,%rax,8)
_ZN11BuilderBaseIiiiLb1EE7MakeCSRERK7pvectorI8EdgePairIiiEEbPPPiS8_._omp_fn.0():
/home/aliha951/ipdps-artifact/gapbs-master/src/builder.h:311
      if (symmetrize_ || (!symmetrize_ && transpose))
  40586e:	41 80 78 08 00       	cmpb   $0x0,0x8(%r8)
/home/aliha951/ipdps-artifact/gapbs-master/src/builder.h:310
        (*neighs)[fetch_and_add(offsets[e.u], 1)] = e.v;
  405873:	41 89 34 ab          	mov    %esi,(%r11,%rbp,4)
/home/aliha951/ipdps-artifact/gapbs-master/src/builder.h:311
      if (symmetrize_ || (!symmetrize_ && transpose))
  405877:	75 ac                	jne    405825 <_ZN11BuilderBaseIiiiLb1EE7MakeCSRERK7pvectorI8EdgePairIiiEEbPPPiS8_._omp_fn.0+0x85>
  405879:	45 84 d2             	test   %r10b,%r10b
  40587c:	75 a7                	jne    405825 <_ZN11BuilderBaseIiiiLb1EE7MakeCSRERK7pvectorI8EdgePairIiiEEbPPPiS8_._omp_fn.0+0x85>
  40587e:	48 83 c2 08          	add    $0x8,%rdx
  405882:	49 39 d4             	cmp    %rdx,%r12
  405885:	77 c3                	ja     40584a <_ZN11BuilderBaseIiiiLb1EE7MakeCSRERK7pvectorI8EdgePairIiiEEbPPPiS8_._omp_fn.0+0xaa>
/home/aliha951/ipdps-artifact/gapbs-master/src/builder.h:306
    #pragma omp parallel for
  405887:	48 83 c4 08          	add    $0x8,%rsp
  40588b:	5b                   	pop    %rbx
  40588c:	5d                   	pop    %rbp
  40588d:	41 5c                	pop    %r12
  40588f:	41 5d                	pop    %r13
  405891:	c3                   	retq   
  405892:	66 0f 1f 44 00 00    	nopw   0x0(%rax,%rax,1)
  405898:	48 83 c0 01          	add    $0x1,%rax
_ZNK7pvectorI8EdgePairIiiEE3endEv():
/home/aliha951/ipdps-artifact/gapbs-master/src/pvector.h:151
    return end_size_;
  40589c:	31 d2                	xor    %edx,%edx
  40589e:	e9 56 ff ff ff       	jmpq   4057f9 <_ZN11BuilderBaseIiiiLb1EE7MakeCSRERK7pvectorI8EdgePairIiiEEbPPPiS8_._omp_fn.0+0x59>
_ZN11BuilderBaseIiiiLb1EE7MakeCSRERK7pvectorI8EdgePairIiiEEbPPPiS8_._omp_fn.0():
/home/aliha951/ipdps-artifact/gapbs-master/src/pvector.h:151
  4058a3:	66 66 2e 0f 1f 84 00 	data16 nopw %cs:0x0(%rax,%rax,1)
  4058aa:	00 00 00 00 
  4058ae:	66 90                	xchg   %ax,%ax

00000000004058b0 <_ZL12open_counterjmiii.part.0>:
_ZL12open_counterjmiii.part.0():
/home/aliha951/ipdps-artifact/gapbs-master/src/profiling_utils.h:120
static int open_counter(uint32_t type, uint64_t config,
  4058b0:	50                   	push   %rax
  4058b1:	58                   	pop    %rax
/home/aliha951/ipdps-artifact/gapbs-master/src/profiling_utils.h:138
    perror("perf_event_open");
  4058b2:	48 8d 3d 4b e7 00 00 	lea    0xe74b(%rip),%rdi        # 414004 <_IO_stdin_used+0x4>
/home/aliha951/ipdps-artifact/gapbs-master/src/profiling_utils.h:120
static int open_counter(uint32_t type, uint64_t config,
  4058b9:	48 83 ec 08          	sub    $0x8,%rsp
/home/aliha951/ipdps-artifact/gapbs-master/src/profiling_utils.h:138
    perror("perf_event_open");
  4058bd:	e8 1e e0 ff ff       	callq  4038e0 <perror@plt>
/home/aliha951/ipdps-artifact/gapbs-master/src/profiling_utils.h:139
    exit(1);
  4058c2:	bf 01 00 00 00       	mov    $0x1,%edi
  4058c7:	e8 64 e1 ff ff       	callq  403a30 <exit@plt>
  4058cc:	0f 1f 40 00          	nopl   0x0(%rax)

00000000004058d0 <_ZSt13__adjust_heapIPiliN9__gnu_cxx5__ops15_Iter_less_iterEEvT_T0_S5_T1_T2_.isra.0>:
_ZSt13__adjust_heapIPiliN9__gnu_cxx5__ops15_Iter_less_iterEEvT_T0_S5_T1_T2_():
/usr/include/c++/10/bits/stl_heap.h:228
    __adjust_heap(_RandomAccessIterator __first, _Distance __holeIndex,
		  _Distance __len, _Tp __value, _Compare __comp)
    {
      const _Distance __topIndex = __holeIndex;
      _Distance __secondChild = __holeIndex;
      while (__secondChild < (__len - 1) / 2)
  4058d0:	48 8d 42 ff          	lea    -0x1(%rdx),%rax
/usr/include/c++/10/bits/stl_heap.h:223
    __adjust_heap(_RandomAccessIterator __first, _Distance __holeIndex,
  4058d4:	55                   	push   %rbp
/usr/include/c++/10/bits/stl_heap.h:237
		     __first + (__secondChild - 1)))
	    __secondChild--;
	  *(__first + __holeIndex) = _GLIBCXX_MOVE(*(__first + __secondChild));
	  __holeIndex = __secondChild;
	}
      if ((__len & 1) == 0 && __secondChild == (__len - 2) / 2)
  4058d5:	48 89 d5             	mov    %rdx,%rbp
/usr/include/c++/10/bits/stl_heap.h:223
    __adjust_heap(_RandomAccessIterator __first, _Distance __holeIndex,
  4058d8:	49 89 f0             	mov    %rsi,%r8
/usr/include/c++/10/bits/stl_heap.h:228
      while (__secondChild < (__len - 1) / 2)
  4058db:	49 89 c3             	mov    %rax,%r11
/usr/include/c++/10/bits/stl_heap.h:223
    __adjust_heap(_RandomAccessIterator __first, _Distance __holeIndex,
  4058de:	53                   	push   %rbx
  4058df:	41 89 c9             	mov    %ecx,%r9d
  4058e2:	48 89 d3             	mov    %rdx,%rbx
/usr/include/c++/10/bits/stl_heap.h:228
      while (__secondChild < (__len - 1) / 2)
  4058e5:	49 c1 eb 3f          	shr    $0x3f,%r11
/usr/include/c++/10/bits/stl_heap.h:237
      if ((__len & 1) == 0 && __secondChild == (__len - 2) / 2)
  4058e9:	83 e5 01             	and    $0x1,%ebp
/usr/include/c++/10/bits/stl_heap.h:228
      while (__secondChild < (__len - 1) / 2)
  4058ec:	49 01 c3             	add    %rax,%r11
  4058ef:	49 d1 fb             	sar    %r11
  4058f2:	4c 39 de             	cmp    %r11,%rsi
  4058f5:	7c 1e                	jl     405915 <_ZSt13__adjust_heapIPiliN9__gnu_cxx5__ops15_Iter_less_iterEEvT_T0_S5_T1_T2_.isra.0+0x45>
  4058f7:	e9 94 00 00 00       	jmpq   405990 <_ZSt13__adjust_heapIPiliN9__gnu_cxx5__ops15_Iter_less_iterEEvT_T0_S5_T1_T2_.isra.0+0xc0>
  4058fc:	0f 1f 40 00          	nopl   0x0(%rax)
/usr/include/c++/10/bits/stl_heap.h:233
	    __secondChild--;
  405900:	48 83 e8 01          	sub    $0x1,%rax
/usr/include/c++/10/bits/stl_heap.h:234
	  *(__first + __holeIndex) = _GLIBCXX_MOVE(*(__first + __secondChild));
  405904:	48 8d 0c 87          	lea    (%rdi,%rax,4),%rcx
  405908:	8b 11                	mov    (%rcx),%edx
  40590a:	89 14 b7             	mov    %edx,(%rdi,%rsi,4)
/usr/include/c++/10/bits/stl_heap.h:228
      while (__secondChild < (__len - 1) / 2)
  40590d:	4c 39 d8             	cmp    %r11,%rax
  405910:	7d 26                	jge    405938 <_ZSt13__adjust_heapIPiliN9__gnu_cxx5__ops15_Iter_less_iterEEvT_T0_S5_T1_T2_.isra.0+0x68>
/usr/include/c++/10/bits/stl_heap.h:223
    __adjust_heap(_RandomAccessIterator __first, _Distance __holeIndex,
  405912:	48 89 c6             	mov    %rax,%rsi
/usr/include/c++/10/bits/stl_heap.h:230
	  __secondChild = 2 * (__secondChild + 1);
  405915:	48 8d 56 01          	lea    0x1(%rsi),%rdx
  405919:	48 8d 04 12          	lea    (%rdx,%rdx,1),%rax
/usr/include/c++/10/bits/stl_heap.h:232
		     __first + (__secondChild - 1)))
  40591d:	48 c1 e2 03          	shl    $0x3,%rdx
/usr/include/c++/10/bits/stl_heap.h:231
	  if (__comp(__first + __secondChild,
  405921:	48 8d 0c 17          	lea    (%rdi,%rdx,1),%rcx
_ZNK9__gnu_cxx5__ops15_Iter_less_iterclIPiS3_EEbT_T0_():
/usr/include/c++/10/bits/predefined_ops.h:43
  {
    template<typename _Iterator1, typename _Iterator2>
      _GLIBCXX14_CONSTEXPR
      bool
      operator()(_Iterator1 __it1, _Iterator2 __it2) const
      { return *__it1 < *__it2; }
  405925:	44 8b 11             	mov    (%rcx),%r10d
_ZSt13__adjust_heapIPiliN9__gnu_cxx5__ops15_Iter_less_iterEEvT_T0_S5_T1_T2_():
/usr/include/c++/10/bits/stl_heap.h:231
  405928:	44 3b 54 17 fc       	cmp    -0x4(%rdi,%rdx,1),%r10d
  40592d:	7c d1                	jl     405900 <_ZSt13__adjust_heapIPiliN9__gnu_cxx5__ops15_Iter_less_iterEEvT_T0_S5_T1_T2_.isra.0+0x30>
/usr/include/c++/10/bits/stl_heap.h:234
	  *(__first + __holeIndex) = _GLIBCXX_MOVE(*(__first + __secondChild));
  40592f:	44 89 14 b7          	mov    %r10d,(%rdi,%rsi,4)
/usr/include/c++/10/bits/stl_heap.h:228
      while (__secondChild < (__len - 1) / 2)
  405933:	4c 39 d8             	cmp    %r11,%rax
  405936:	7c da                	jl     405912 <_ZSt13__adjust_heapIPiliN9__gnu_cxx5__ops15_Iter_less_iterEEvT_T0_S5_T1_T2_.isra.0+0x42>
/usr/include/c++/10/bits/stl_heap.h:237
      if ((__len & 1) == 0 && __secondChild == (__len - 2) / 2)
  405938:	48 85 ed             	test   %rbp,%rbp
  40593b:	74 63                	je     4059a0 <_ZSt13__adjust_heapIPiliN9__gnu_cxx5__ops15_Iter_less_iterEEvT_T0_S5_T1_T2_.isra.0+0xd0>
_ZSt11__push_heapIPiliN9__gnu_cxx5__ops14_Iter_less_valEEvT_T0_S5_T1_RT2_():
/usr/include/c++/10/bits/stl_heap.h:138
      _Distance __parent = (__holeIndex - 1) / 2;
  40593d:	48 8d 50 ff          	lea    -0x1(%rax),%rdx
  405941:	48 89 d6             	mov    %rdx,%rsi
  405944:	48 c1 ee 3f          	shr    $0x3f,%rsi
  405948:	48 01 d6             	add    %rdx,%rsi
  40594b:	48 d1 fe             	sar    %rsi
/usr/include/c++/10/bits/stl_heap.h:139
      while (__holeIndex > __topIndex && __comp(__first + __parent, __value))
  40594e:	4c 39 c0             	cmp    %r8,%rax
  405951:	7f 26                	jg     405979 <_ZSt13__adjust_heapIPiliN9__gnu_cxx5__ops15_Iter_less_iterEEvT_T0_S5_T1_T2_.isra.0+0xa9>
  405953:	eb 34                	jmp    405989 <_ZSt13__adjust_heapIPiliN9__gnu_cxx5__ops15_Iter_less_iterEEvT_T0_S5_T1_T2_.isra.0+0xb9>
  405955:	0f 1f 00             	nopl   (%rax)
/usr/include/c++/10/bits/stl_heap.h:141
	  *(__first + __holeIndex) = _GLIBCXX_MOVE(*(__first + __parent));
  405958:	89 11                	mov    %edx,(%rcx)
/usr/include/c++/10/bits/stl_heap.h:143
	  __parent = (__holeIndex - 1) / 2;
  40595a:	48 8d 56 ff          	lea    -0x1(%rsi),%rdx
  40595e:	48 89 d0             	mov    %rdx,%rax
  405961:	48 c1 e8 3f          	shr    $0x3f,%rax
  405965:	48 01 d0             	add    %rdx,%rax
  405968:	48 d1 f8             	sar    %rax
  40596b:	48 89 c2             	mov    %rax,%rdx
/usr/include/c++/10/bits/stl_heap.h:139
      while (__holeIndex > __topIndex && __comp(__first + __parent, __value))
  40596e:	48 89 f0             	mov    %rsi,%rax
  405971:	49 39 f0             	cmp    %rsi,%r8
  405974:	7d 5a                	jge    4059d0 <_ZSt13__adjust_heapIPiliN9__gnu_cxx5__ops15_Iter_less_iterEEvT_T0_S5_T1_T2_.isra.0+0x100>
/usr/include/c++/10/bits/stl_heap.h:143
	  __parent = (__holeIndex - 1) / 2;
  405976:	48 89 d6             	mov    %rdx,%rsi
/usr/include/c++/10/bits/stl_heap.h:139
      while (__holeIndex > __topIndex && __comp(__first + __parent, __value))
  405979:	4c 8d 14 b7          	lea    (%rdi,%rsi,4),%r10
/usr/include/c++/10/bits/stl_heap.h:141
	  *(__first + __holeIndex) = _GLIBCXX_MOVE(*(__first + __parent));
  40597d:	48 8d 0c 87          	lea    (%rdi,%rax,4),%rcx
_ZNK9__gnu_cxx5__ops14_Iter_less_valclIPiiEEbT_RT0_():
/usr/include/c++/10/bits/predefined_ops.h:67

    template<typename _Iterator, typename _Value>
      _GLIBCXX20_CONSTEXPR
      bool
      operator()(_Iterator __it, _Value& __val) const
      { return *__it < __val; }
  405981:	41 8b 12             	mov    (%r10),%edx
_ZSt11__push_heapIPiliN9__gnu_cxx5__ops14_Iter_less_valEEvT_T0_S5_T1_RT2_():
/usr/include/c++/10/bits/stl_heap.h:139
      while (__holeIndex > __topIndex && __comp(__first + __parent, __value))
  405984:	44 39 ca             	cmp    %r9d,%edx
  405987:	7c cf                	jl     405958 <_ZSt13__adjust_heapIPiliN9__gnu_cxx5__ops15_Iter_less_iterEEvT_T0_S5_T1_T2_.isra.0+0x88>
/usr/include/c++/10/bits/stl_heap.h:145
      *(__first + __holeIndex) = _GLIBCXX_MOVE(__value);
  405989:	44 89 09             	mov    %r9d,(%rcx)
_ZSt13__adjust_heapIPiliN9__gnu_cxx5__ops15_Iter_less_iterEEvT_T0_S5_T1_T2_():
/usr/include/c++/10/bits/stl_heap.h:248
	}
      __decltype(__gnu_cxx::__ops::__iter_comp_val(_GLIBCXX_MOVE(__comp)))
	__cmp(_GLIBCXX_MOVE(__comp));
      std::__push_heap(__first, __holeIndex, __topIndex,
		       _GLIBCXX_MOVE(__value), __cmp);
    }
  40598c:	5b                   	pop    %rbx
  40598d:	5d                   	pop    %rbp
  40598e:	c3                   	retq   
  40598f:	90                   	nop
_ZSt11__push_heapIPiliN9__gnu_cxx5__ops14_Iter_less_valEEvT_T0_S5_T1_RT2_():
/usr/include/c++/10/bits/stl_heap.h:145
      *(__first + __holeIndex) = _GLIBCXX_MOVE(__value);
  405990:	48 8d 0c b7          	lea    (%rdi,%rsi,4),%rcx
_ZSt13__adjust_heapIPiliN9__gnu_cxx5__ops15_Iter_less_iterEEvT_T0_S5_T1_T2_():
/usr/include/c++/10/bits/stl_heap.h:237
      if ((__len & 1) == 0 && __secondChild == (__len - 2) / 2)
  405994:	48 85 ed             	test   %rbp,%rbp
  405997:	75 f0                	jne    405989 <_ZSt13__adjust_heapIPiliN9__gnu_cxx5__ops15_Iter_less_iterEEvT_T0_S5_T1_T2_.isra.0+0xb9>
  405999:	4c 89 c0             	mov    %r8,%rax
  40599c:	0f 1f 40 00          	nopl   0x0(%rax)
  4059a0:	48 8d 53 fe          	lea    -0x2(%rbx),%rdx
  4059a4:	48 89 d3             	mov    %rdx,%rbx
  4059a7:	48 c1 eb 3f          	shr    $0x3f,%rbx
  4059ab:	48 01 d3             	add    %rdx,%rbx
  4059ae:	48 d1 fb             	sar    %rbx
  4059b1:	48 39 d8             	cmp    %rbx,%rax
  4059b4:	75 87                	jne    40593d <_ZSt13__adjust_heapIPiliN9__gnu_cxx5__ops15_Iter_less_iterEEvT_T0_S5_T1_T2_.isra.0+0x6d>
/usr/include/c++/10/bits/stl_heap.h:239
	  __secondChild = 2 * (__secondChild + 1);
  4059b6:	48 8d 44 00 02       	lea    0x2(%rax,%rax,1),%rax
/usr/include/c++/10/bits/stl_heap.h:240
	  *(__first + __holeIndex) = _GLIBCXX_MOVE(*(__first
  4059bb:	8b 54 87 fc          	mov    -0x4(%rdi,%rax,4),%edx
/usr/include/c++/10/bits/stl_heap.h:242
	  __holeIndex = __secondChild - 1;
  4059bf:	48 83 e8 01          	sub    $0x1,%rax
/usr/include/c++/10/bits/stl_heap.h:240
	  *(__first + __holeIndex) = _GLIBCXX_MOVE(*(__first
  4059c3:	89 11                	mov    %edx,(%rcx)
_ZSt11__push_heapIPiliN9__gnu_cxx5__ops14_Iter_less_valEEvT_T0_S5_T1_RT2_():
/usr/include/c++/10/bits/stl_heap.h:145
      *(__first + __holeIndex) = _GLIBCXX_MOVE(__value);
  4059c5:	48 8d 0c 87          	lea    (%rdi,%rax,4),%rcx
