
../pr_batching:     file format elf64-x86-64


Disassembly of section .init:

0000000000403000 <_init>:
_init():
  403000:	f3 0f 1e fa          	endbr64 
  403004:	48 83 ec 08          	sub    $0x8,%rsp
  403008:	48 8b 05 e1 6f 01 00 	mov    0x16fe1(%rip),%rax        # 419ff0 <__gmon_start__>
  40300f:	48 85 c0             	test   %rax,%rax
  403012:	74 02                	je     403016 <_init+0x16>
  403014:	ff d0                	callq  *%rax
  403016:	48 83 c4 08          	add    $0x8,%rsp
  40301a:	c3                   	retq   

Disassembly of section .plt:

0000000000403020 <.plt>:
  403020:	ff 35 e2 6f 01 00    	pushq  0x16fe2(%rip)        # 41a008 <_GLOBAL_OFFSET_TABLE_+0x8>
  403026:	f2 ff 25 e3 6f 01 00 	bnd jmpq *0x16fe3(%rip)        # 41a010 <_GLOBAL_OFFSET_TABLE_+0x10>
  40302d:	0f 1f 00             	nopl   (%rax)
  403030:	f3 0f 1e fa          	endbr64 
  403034:	68 00 00 00 00       	pushq  $0x0
  403039:	f2 e9 e1 ff ff ff    	bnd jmpq 403020 <.plt>
  40303f:	90                   	nop
  403040:	f3 0f 1e fa          	endbr64 
  403044:	68 01 00 00 00       	pushq  $0x1
  403049:	f2 e9 d1 ff ff ff    	bnd jmpq 403020 <.plt>
  40304f:	90                   	nop
  403050:	f3 0f 1e fa          	endbr64 
  403054:	68 02 00 00 00       	pushq  $0x2
  403059:	f2 e9 c1 ff ff ff    	bnd jmpq 403020 <.plt>
  40305f:	90                   	nop
  403060:	f3 0f 1e fa          	endbr64 
  403064:	68 03 00 00 00       	pushq  $0x3
  403069:	f2 e9 b1 ff ff ff    	bnd jmpq 403020 <.plt>
  40306f:	90                   	nop
  403070:	f3 0f 1e fa          	endbr64 
  403074:	68 04 00 00 00       	pushq  $0x4
  403079:	f2 e9 a1 ff ff ff    	bnd jmpq 403020 <.plt>
  40307f:	90                   	nop
  403080:	f3 0f 1e fa          	endbr64 
  403084:	68 05 00 00 00       	pushq  $0x5
  403089:	f2 e9 91 ff ff ff    	bnd jmpq 403020 <.plt>
  40308f:	90                   	nop
  403090:	f3 0f 1e fa          	endbr64 
  403094:	68 06 00 00 00       	pushq  $0x6
  403099:	f2 e9 81 ff ff ff    	bnd jmpq 403020 <.plt>
  40309f:	90                   	nop
  4030a0:	f3 0f 1e fa          	endbr64 
  4030a4:	68 07 00 00 00       	pushq  $0x7
  4030a9:	f2 e9 71 ff ff ff    	bnd jmpq 403020 <.plt>
  4030af:	90                   	nop
  4030b0:	f3 0f 1e fa          	endbr64 
  4030b4:	68 08 00 00 00       	pushq  $0x8
  4030b9:	f2 e9 61 ff ff ff    	bnd jmpq 403020 <.plt>
  4030bf:	90                   	nop
  4030c0:	f3 0f 1e fa          	endbr64 
  4030c4:	68 09 00 00 00       	pushq  $0x9
  4030c9:	f2 e9 51 ff ff ff    	bnd jmpq 403020 <.plt>
  4030cf:	90                   	nop
  4030d0:	f3 0f 1e fa          	endbr64 
  4030d4:	68 0a 00 00 00       	pushq  $0xa
  4030d9:	f2 e9 41 ff ff ff    	bnd jmpq 403020 <.plt>
  4030df:	90                   	nop
  4030e0:	f3 0f 1e fa          	endbr64 
  4030e4:	68 0b 00 00 00       	pushq  $0xb
  4030e9:	f2 e9 31 ff ff ff    	bnd jmpq 403020 <.plt>
  4030ef:	90                   	nop
  4030f0:	f3 0f 1e fa          	endbr64 
  4030f4:	68 0c 00 00 00       	pushq  $0xc
  4030f9:	f2 e9 21 ff ff ff    	bnd jmpq 403020 <.plt>
  4030ff:	90                   	nop
  403100:	f3 0f 1e fa          	endbr64 
  403104:	68 0d 00 00 00       	pushq  $0xd
  403109:	f2 e9 11 ff ff ff    	bnd jmpq 403020 <.plt>
  40310f:	90                   	nop
  403110:	f3 0f 1e fa          	endbr64 
  403114:	68 0e 00 00 00       	pushq  $0xe
  403119:	f2 e9 01 ff ff ff    	bnd jmpq 403020 <.plt>
  40311f:	90                   	nop
  403120:	f3 0f 1e fa          	endbr64 
  403124:	68 0f 00 00 00       	pushq  $0xf
  403129:	f2 e9 f1 fe ff ff    	bnd jmpq 403020 <.plt>
  40312f:	90                   	nop
  403130:	f3 0f 1e fa          	endbr64 
  403134:	68 10 00 00 00       	pushq  $0x10
  403139:	f2 e9 e1 fe ff ff    	bnd jmpq 403020 <.plt>
  40313f:	90                   	nop
  403140:	f3 0f 1e fa          	endbr64 
  403144:	68 11 00 00 00       	pushq  $0x11
  403149:	f2 e9 d1 fe ff ff    	bnd jmpq 403020 <.plt>
  40314f:	90                   	nop
  403150:	f3 0f 1e fa          	endbr64 
  403154:	68 12 00 00 00       	pushq  $0x12
  403159:	f2 e9 c1 fe ff ff    	bnd jmpq 403020 <.plt>
  40315f:	90                   	nop
  403160:	f3 0f 1e fa          	endbr64 
  403164:	68 13 00 00 00       	pushq  $0x13
  403169:	f2 e9 b1 fe ff ff    	bnd jmpq 403020 <.plt>
  40316f:	90                   	nop
  403170:	f3 0f 1e fa          	endbr64 
  403174:	68 14 00 00 00       	pushq  $0x14
  403179:	f2 e9 a1 fe ff ff    	bnd jmpq 403020 <.plt>
  40317f:	90                   	nop
  403180:	f3 0f 1e fa          	endbr64 
  403184:	68 15 00 00 00       	pushq  $0x15
  403189:	f2 e9 91 fe ff ff    	bnd jmpq 403020 <.plt>
  40318f:	90                   	nop
  403190:	f3 0f 1e fa          	endbr64 
  403194:	68 16 00 00 00       	pushq  $0x16
  403199:	f2 e9 81 fe ff ff    	bnd jmpq 403020 <.plt>
  40319f:	90                   	nop
  4031a0:	f3 0f 1e fa          	endbr64 
  4031a4:	68 17 00 00 00       	pushq  $0x17
  4031a9:	f2 e9 71 fe ff ff    	bnd jmpq 403020 <.plt>
  4031af:	90                   	nop
  4031b0:	f3 0f 1e fa          	endbr64 
  4031b4:	68 18 00 00 00       	pushq  $0x18
  4031b9:	f2 e9 61 fe ff ff    	bnd jmpq 403020 <.plt>
  4031bf:	90                   	nop
  4031c0:	f3 0f 1e fa          	endbr64 
  4031c4:	68 19 00 00 00       	pushq  $0x19
  4031c9:	f2 e9 51 fe ff ff    	bnd jmpq 403020 <.plt>
  4031cf:	90                   	nop
  4031d0:	f3 0f 1e fa          	endbr64 
  4031d4:	68 1a 00 00 00       	pushq  $0x1a
  4031d9:	f2 e9 41 fe ff ff    	bnd jmpq 403020 <.plt>
  4031df:	90                   	nop
  4031e0:	f3 0f 1e fa          	endbr64 
  4031e4:	68 1b 00 00 00       	pushq  $0x1b
  4031e9:	f2 e9 31 fe ff ff    	bnd jmpq 403020 <.plt>
  4031ef:	90                   	nop
  4031f0:	f3 0f 1e fa          	endbr64 
  4031f4:	68 1c 00 00 00       	pushq  $0x1c
  4031f9:	f2 e9 21 fe ff ff    	bnd jmpq 403020 <.plt>
  4031ff:	90                   	nop
  403200:	f3 0f 1e fa          	endbr64 
  403204:	68 1d 00 00 00       	pushq  $0x1d
  403209:	f2 e9 11 fe ff ff    	bnd jmpq 403020 <.plt>
  40320f:	90                   	nop
  403210:	f3 0f 1e fa          	endbr64 
  403214:	68 1e 00 00 00       	pushq  $0x1e
  403219:	f2 e9 01 fe ff ff    	bnd jmpq 403020 <.plt>
  40321f:	90                   	nop
  403220:	f3 0f 1e fa          	endbr64 
  403224:	68 1f 00 00 00       	pushq  $0x1f
  403229:	f2 e9 f1 fd ff ff    	bnd jmpq 403020 <.plt>
  40322f:	90                   	nop
  403230:	f3 0f 1e fa          	endbr64 
  403234:	68 20 00 00 00       	pushq  $0x20
  403239:	f2 e9 e1 fd ff ff    	bnd jmpq 403020 <.plt>
  40323f:	90                   	nop
  403240:	f3 0f 1e fa          	endbr64 
  403244:	68 21 00 00 00       	pushq  $0x21
  403249:	f2 e9 d1 fd ff ff    	bnd jmpq 403020 <.plt>
  40324f:	90                   	nop
  403250:	f3 0f 1e fa          	endbr64 
  403254:	68 22 00 00 00       	pushq  $0x22
  403259:	f2 e9 c1 fd ff ff    	bnd jmpq 403020 <.plt>
  40325f:	90                   	nop
  403260:	f3 0f 1e fa          	endbr64 
  403264:	68 23 00 00 00       	pushq  $0x23
  403269:	f2 e9 b1 fd ff ff    	bnd jmpq 403020 <.plt>
  40326f:	90                   	nop
  403270:	f3 0f 1e fa          	endbr64 
  403274:	68 24 00 00 00       	pushq  $0x24
  403279:	f2 e9 a1 fd ff ff    	bnd jmpq 403020 <.plt>
  40327f:	90                   	nop
  403280:	f3 0f 1e fa          	endbr64 
  403284:	68 25 00 00 00       	pushq  $0x25
  403289:	f2 e9 91 fd ff ff    	bnd jmpq 403020 <.plt>
  40328f:	90                   	nop
  403290:	f3 0f 1e fa          	endbr64 
  403294:	68 26 00 00 00       	pushq  $0x26
  403299:	f2 e9 81 fd ff ff    	bnd jmpq 403020 <.plt>
  40329f:	90                   	nop
  4032a0:	f3 0f 1e fa          	endbr64 
  4032a4:	68 27 00 00 00       	pushq  $0x27
  4032a9:	f2 e9 71 fd ff ff    	bnd jmpq 403020 <.plt>
  4032af:	90                   	nop
  4032b0:	f3 0f 1e fa          	endbr64 
  4032b4:	68 28 00 00 00       	pushq  $0x28
  4032b9:	f2 e9 61 fd ff ff    	bnd jmpq 403020 <.plt>
  4032bf:	90                   	nop
  4032c0:	f3 0f 1e fa          	endbr64 
  4032c4:	68 29 00 00 00       	pushq  $0x29
  4032c9:	f2 e9 51 fd ff ff    	bnd jmpq 403020 <.plt>
  4032cf:	90                   	nop
  4032d0:	f3 0f 1e fa          	endbr64 
  4032d4:	68 2a 00 00 00       	pushq  $0x2a
  4032d9:	f2 e9 41 fd ff ff    	bnd jmpq 403020 <.plt>
  4032df:	90                   	nop
  4032e0:	f3 0f 1e fa          	endbr64 
  4032e4:	68 2b 00 00 00       	pushq  $0x2b
  4032e9:	f2 e9 31 fd ff ff    	bnd jmpq 403020 <.plt>
  4032ef:	90                   	nop
  4032f0:	f3 0f 1e fa          	endbr64 
  4032f4:	68 2c 00 00 00       	pushq  $0x2c
  4032f9:	f2 e9 21 fd ff ff    	bnd jmpq 403020 <.plt>
  4032ff:	90                   	nop
  403300:	f3 0f 1e fa          	endbr64 
  403304:	68 2d 00 00 00       	pushq  $0x2d
  403309:	f2 e9 11 fd ff ff    	bnd jmpq 403020 <.plt>
  40330f:	90                   	nop
  403310:	f3 0f 1e fa          	endbr64 
  403314:	68 2e 00 00 00       	pushq  $0x2e
  403319:	f2 e9 01 fd ff ff    	bnd jmpq 403020 <.plt>
  40331f:	90                   	nop
  403320:	f3 0f 1e fa          	endbr64 
  403324:	68 2f 00 00 00       	pushq  $0x2f
  403329:	f2 e9 f1 fc ff ff    	bnd jmpq 403020 <.plt>
  40332f:	90                   	nop
  403330:	f3 0f 1e fa          	endbr64 
  403334:	68 30 00 00 00       	pushq  $0x30
  403339:	f2 e9 e1 fc ff ff    	bnd jmpq 403020 <.plt>
  40333f:	90                   	nop
  403340:	f3 0f 1e fa          	endbr64 
  403344:	68 31 00 00 00       	pushq  $0x31
  403349:	f2 e9 d1 fc ff ff    	bnd jmpq 403020 <.plt>
  40334f:	90                   	nop
  403350:	f3 0f 1e fa          	endbr64 
  403354:	68 32 00 00 00       	pushq  $0x32
  403359:	f2 e9 c1 fc ff ff    	bnd jmpq 403020 <.plt>
  40335f:	90                   	nop
  403360:	f3 0f 1e fa          	endbr64 
  403364:	68 33 00 00 00       	pushq  $0x33
  403369:	f2 e9 b1 fc ff ff    	bnd jmpq 403020 <.plt>
  40336f:	90                   	nop
  403370:	f3 0f 1e fa          	endbr64 
  403374:	68 34 00 00 00       	pushq  $0x34
  403379:	f2 e9 a1 fc ff ff    	bnd jmpq 403020 <.plt>
  40337f:	90                   	nop
  403380:	f3 0f 1e fa          	endbr64 
  403384:	68 35 00 00 00       	pushq  $0x35
  403389:	f2 e9 91 fc ff ff    	bnd jmpq 403020 <.plt>
  40338f:	90                   	nop
  403390:	f3 0f 1e fa          	endbr64 
  403394:	68 36 00 00 00       	pushq  $0x36
  403399:	f2 e9 81 fc ff ff    	bnd jmpq 403020 <.plt>
  40339f:	90                   	nop
  4033a0:	f3 0f 1e fa          	endbr64 
  4033a4:	68 37 00 00 00       	pushq  $0x37
  4033a9:	f2 e9 71 fc ff ff    	bnd jmpq 403020 <.plt>
  4033af:	90                   	nop
  4033b0:	f3 0f 1e fa          	endbr64 
  4033b4:	68 38 00 00 00       	pushq  $0x38
  4033b9:	f2 e9 61 fc ff ff    	bnd jmpq 403020 <.plt>
  4033bf:	90                   	nop
  4033c0:	f3 0f 1e fa          	endbr64 
  4033c4:	68 39 00 00 00       	pushq  $0x39
  4033c9:	f2 e9 51 fc ff ff    	bnd jmpq 403020 <.plt>
  4033cf:	90                   	nop
  4033d0:	f3 0f 1e fa          	endbr64 
  4033d4:	68 3a 00 00 00       	pushq  $0x3a
  4033d9:	f2 e9 41 fc ff ff    	bnd jmpq 403020 <.plt>
  4033df:	90                   	nop
  4033e0:	f3 0f 1e fa          	endbr64 
  4033e4:	68 3b 00 00 00       	pushq  $0x3b
  4033e9:	f2 e9 31 fc ff ff    	bnd jmpq 403020 <.plt>
  4033ef:	90                   	nop
  4033f0:	f3 0f 1e fa          	endbr64 
  4033f4:	68 3c 00 00 00       	pushq  $0x3c
  4033f9:	f2 e9 21 fc ff ff    	bnd jmpq 403020 <.plt>
  4033ff:	90                   	nop
  403400:	f3 0f 1e fa          	endbr64 
  403404:	68 3d 00 00 00       	pushq  $0x3d
  403409:	f2 e9 11 fc ff ff    	bnd jmpq 403020 <.plt>
  40340f:	90                   	nop
  403410:	f3 0f 1e fa          	endbr64 
  403414:	68 3e 00 00 00       	pushq  $0x3e
  403419:	f2 e9 01 fc ff ff    	bnd jmpq 403020 <.plt>
  40341f:	90                   	nop
  403420:	f3 0f 1e fa          	endbr64 
  403424:	68 3f 00 00 00       	pushq  $0x3f
  403429:	f2 e9 f1 fb ff ff    	bnd jmpq 403020 <.plt>
  40342f:	90                   	nop
  403430:	f3 0f 1e fa          	endbr64 
  403434:	68 40 00 00 00       	pushq  $0x40
  403439:	f2 e9 e1 fb ff ff    	bnd jmpq 403020 <.plt>
  40343f:	90                   	nop
  403440:	f3 0f 1e fa          	endbr64 
  403444:	68 41 00 00 00       	pushq  $0x41
  403449:	f2 e9 d1 fb ff ff    	bnd jmpq 403020 <.plt>
  40344f:	90                   	nop
  403450:	f3 0f 1e fa          	endbr64 
  403454:	68 42 00 00 00       	pushq  $0x42
  403459:	f2 e9 c1 fb ff ff    	bnd jmpq 403020 <.plt>
  40345f:	90                   	nop
  403460:	f3 0f 1e fa          	endbr64 
  403464:	68 43 00 00 00       	pushq  $0x43
  403469:	f2 e9 b1 fb ff ff    	bnd jmpq 403020 <.plt>
  40346f:	90                   	nop
  403470:	f3 0f 1e fa          	endbr64 
  403474:	68 44 00 00 00       	pushq  $0x44
  403479:	f2 e9 a1 fb ff ff    	bnd jmpq 403020 <.plt>
  40347f:	90                   	nop
  403480:	f3 0f 1e fa          	endbr64 
  403484:	68 45 00 00 00       	pushq  $0x45
  403489:	f2 e9 91 fb ff ff    	bnd jmpq 403020 <.plt>
  40348f:	90                   	nop
  403490:	f3 0f 1e fa          	endbr64 
  403494:	68 46 00 00 00       	pushq  $0x46
  403499:	f2 e9 81 fb ff ff    	bnd jmpq 403020 <.plt>
  40349f:	90                   	nop
  4034a0:	f3 0f 1e fa          	endbr64 
  4034a4:	68 47 00 00 00       	pushq  $0x47
  4034a9:	f2 e9 71 fb ff ff    	bnd jmpq 403020 <.plt>
  4034af:	90                   	nop
  4034b0:	f3 0f 1e fa          	endbr64 
  4034b4:	68 48 00 00 00       	pushq  $0x48
  4034b9:	f2 e9 61 fb ff ff    	bnd jmpq 403020 <.plt>
  4034bf:	90                   	nop
  4034c0:	f3 0f 1e fa          	endbr64 
  4034c4:	68 49 00 00 00       	pushq  $0x49
  4034c9:	f2 e9 51 fb ff ff    	bnd jmpq 403020 <.plt>
  4034cf:	90                   	nop
  4034d0:	f3 0f 1e fa          	endbr64 
  4034d4:	68 4a 00 00 00       	pushq  $0x4a
  4034d9:	f2 e9 41 fb ff ff    	bnd jmpq 403020 <.plt>
  4034df:	90                   	nop
  4034e0:	f3 0f 1e fa          	endbr64 
  4034e4:	68 4b 00 00 00       	pushq  $0x4b
  4034e9:	f2 e9 31 fb ff ff    	bnd jmpq 403020 <.plt>
  4034ef:	90                   	nop
  4034f0:	f3 0f 1e fa          	endbr64 
  4034f4:	68 4c 00 00 00       	pushq  $0x4c
  4034f9:	f2 e9 21 fb ff ff    	bnd jmpq 403020 <.plt>
  4034ff:	90                   	nop
  403500:	f3 0f 1e fa          	endbr64 
  403504:	68 4d 00 00 00       	pushq  $0x4d
  403509:	f2 e9 11 fb ff ff    	bnd jmpq 403020 <.plt>
  40350f:	90                   	nop
  403510:	f3 0f 1e fa          	endbr64 
  403514:	68 4e 00 00 00       	pushq  $0x4e
  403519:	f2 e9 01 fb ff ff    	bnd jmpq 403020 <.plt>
  40351f:	90                   	nop
  403520:	f3 0f 1e fa          	endbr64 
  403524:	68 4f 00 00 00       	pushq  $0x4f
  403529:	f2 e9 f1 fa ff ff    	bnd jmpq 403020 <.plt>
  40352f:	90                   	nop
  403530:	f3 0f 1e fa          	endbr64 
  403534:	68 50 00 00 00       	pushq  $0x50
  403539:	f2 e9 e1 fa ff ff    	bnd jmpq 403020 <.plt>
  40353f:	90                   	nop
  403540:	f3 0f 1e fa          	endbr64 
  403544:	68 51 00 00 00       	pushq  $0x51
  403549:	f2 e9 d1 fa ff ff    	bnd jmpq 403020 <.plt>
  40354f:	90                   	nop
  403550:	f3 0f 1e fa          	endbr64 
  403554:	68 52 00 00 00       	pushq  $0x52
  403559:	f2 e9 c1 fa ff ff    	bnd jmpq 403020 <.plt>
  40355f:	90                   	nop
  403560:	f3 0f 1e fa          	endbr64 
  403564:	68 53 00 00 00       	pushq  $0x53
  403569:	f2 e9 b1 fa ff ff    	bnd jmpq 403020 <.plt>
  40356f:	90                   	nop
  403570:	f3 0f 1e fa          	endbr64 
  403574:	68 54 00 00 00       	pushq  $0x54
  403579:	f2 e9 a1 fa ff ff    	bnd jmpq 403020 <.plt>
  40357f:	90                   	nop
  403580:	f3 0f 1e fa          	endbr64 
  403584:	68 55 00 00 00       	pushq  $0x55
  403589:	f2 e9 91 fa ff ff    	bnd jmpq 403020 <.plt>
  40358f:	90                   	nop
  403590:	f3 0f 1e fa          	endbr64 
  403594:	68 56 00 00 00       	pushq  $0x56
  403599:	f2 e9 81 fa ff ff    	bnd jmpq 403020 <.plt>
  40359f:	90                   	nop
  4035a0:	f3 0f 1e fa          	endbr64 
  4035a4:	68 57 00 00 00       	pushq  $0x57
  4035a9:	f2 e9 71 fa ff ff    	bnd jmpq 403020 <.plt>
  4035af:	90                   	nop
  4035b0:	f3 0f 1e fa          	endbr64 
  4035b4:	68 58 00 00 00       	pushq  $0x58
  4035b9:	f2 e9 61 fa ff ff    	bnd jmpq 403020 <.plt>
  4035bf:	90                   	nop
  4035c0:	f3 0f 1e fa          	endbr64 
  4035c4:	68 59 00 00 00       	pushq  $0x59
  4035c9:	f2 e9 51 fa ff ff    	bnd jmpq 403020 <.plt>
  4035cf:	90                   	nop
  4035d0:	f3 0f 1e fa          	endbr64 
  4035d4:	68 5a 00 00 00       	pushq  $0x5a
  4035d9:	f2 e9 41 fa ff ff    	bnd jmpq 403020 <.plt>
  4035df:	90                   	nop
  4035e0:	f3 0f 1e fa          	endbr64 
  4035e4:	68 5b 00 00 00       	pushq  $0x5b
  4035e9:	f2 e9 31 fa ff ff    	bnd jmpq 403020 <.plt>
  4035ef:	90                   	nop
  4035f0:	f3 0f 1e fa          	endbr64 
  4035f4:	68 5c 00 00 00       	pushq  $0x5c
  4035f9:	f2 e9 21 fa ff ff    	bnd jmpq 403020 <.plt>
  4035ff:	90                   	nop
  403600:	f3 0f 1e fa          	endbr64 
  403604:	68 5d 00 00 00       	pushq  $0x5d
  403609:	f2 e9 11 fa ff ff    	bnd jmpq 403020 <.plt>
  40360f:	90                   	nop
  403610:	f3 0f 1e fa          	endbr64 
  403614:	68 5e 00 00 00       	pushq  $0x5e
  403619:	f2 e9 01 fa ff ff    	bnd jmpq 403020 <.plt>
  40361f:	90                   	nop
  403620:	f3 0f 1e fa          	endbr64 
  403624:	68 5f 00 00 00       	pushq  $0x5f
  403629:	f2 e9 f1 f9 ff ff    	bnd jmpq 403020 <.plt>
  40362f:	90                   	nop
  403630:	f3 0f 1e fa          	endbr64 
  403634:	68 60 00 00 00       	pushq  $0x60
  403639:	f2 e9 e1 f9 ff ff    	bnd jmpq 403020 <.plt>
  40363f:	90                   	nop
  403640:	f3 0f 1e fa          	endbr64 
  403644:	68 61 00 00 00       	pushq  $0x61
  403649:	f2 e9 d1 f9 ff ff    	bnd jmpq 403020 <.plt>
  40364f:	90                   	nop
  403650:	f3 0f 1e fa          	endbr64 
  403654:	68 62 00 00 00       	pushq  $0x62
  403659:	f2 e9 c1 f9 ff ff    	bnd jmpq 403020 <.plt>
  40365f:	90                   	nop
  403660:	f3 0f 1e fa          	endbr64 
  403664:	68 63 00 00 00       	pushq  $0x63
  403669:	f2 e9 b1 f9 ff ff    	bnd jmpq 403020 <.plt>
  40366f:	90                   	nop
  403670:	f3 0f 1e fa          	endbr64 
  403674:	68 64 00 00 00       	pushq  $0x64
  403679:	f2 e9 a1 f9 ff ff    	bnd jmpq 403020 <.plt>
  40367f:	90                   	nop
  403680:	f3 0f 1e fa          	endbr64 
  403684:	68 65 00 00 00       	pushq  $0x65
  403689:	f2 e9 91 f9 ff ff    	bnd jmpq 403020 <.plt>
  40368f:	90                   	nop
  403690:	f3 0f 1e fa          	endbr64 
  403694:	68 66 00 00 00       	pushq  $0x66
  403699:	f2 e9 81 f9 ff ff    	bnd jmpq 403020 <.plt>
  40369f:	90                   	nop
  4036a0:	f3 0f 1e fa          	endbr64 
  4036a4:	68 67 00 00 00       	pushq  $0x67
  4036a9:	f2 e9 71 f9 ff ff    	bnd jmpq 403020 <.plt>
  4036af:	90                   	nop
  4036b0:	f3 0f 1e fa          	endbr64 
  4036b4:	68 68 00 00 00       	pushq  $0x68
  4036b9:	f2 e9 61 f9 ff ff    	bnd jmpq 403020 <.plt>
  4036bf:	90                   	nop
  4036c0:	f3 0f 1e fa          	endbr64 
  4036c4:	68 69 00 00 00       	pushq  $0x69
  4036c9:	f2 e9 51 f9 ff ff    	bnd jmpq 403020 <.plt>
  4036cf:	90                   	nop
  4036d0:	f3 0f 1e fa          	endbr64 
  4036d4:	68 6a 00 00 00       	pushq  $0x6a
  4036d9:	f2 e9 41 f9 ff ff    	bnd jmpq 403020 <.plt>
  4036df:	90                   	nop
  4036e0:	f3 0f 1e fa          	endbr64 
  4036e4:	68 6b 00 00 00       	pushq  $0x6b
  4036e9:	f2 e9 31 f9 ff ff    	bnd jmpq 403020 <.plt>
  4036ef:	90                   	nop

Disassembly of section .plt.sec:

00000000004036f0 <__printf_chk@plt>:
  4036f0:	f3 0f 1e fa          	endbr64 
  4036f4:	f2 ff 25 1d 69 01 00 	bnd jmpq *0x1691d(%rip)        # 41a018 <__printf_chk@GLIBC_2.3.4>
  4036fb:	0f 1f 44 00 00       	nopl   0x0(%rax,%rax,1)

0000000000403700 <_Znam@plt>:
  403700:	f3 0f 1e fa          	endbr64 
  403704:	f2 ff 25 15 69 01 00 	bnd jmpq *0x16915(%rip)        # 41a020 <_Znam@GLIBCXX_3.4>
  40370b:	0f 1f 44 00 00       	nopl   0x0(%rax,%rax,1)

0000000000403710 <GOMP_loop_end_nowait@plt>:
  403710:	f3 0f 1e fa          	endbr64 
  403714:	f2 ff 25 0d 69 01 00 	bnd jmpq *0x1690d(%rip)        # 41a028 <GOMP_loop_end_nowait@VERSION>
  40371b:	0f 1f 44 00 00       	nopl   0x0(%rax,%rax,1)

0000000000403720 <_ZNSo3putEc@plt>:
  403720:	f3 0f 1e fa          	endbr64 
  403724:	f2 ff 25 05 69 01 00 	bnd jmpq *0x16905(%rip)        # 41a030 <_ZNSo3putEc@GLIBCXX_3.4>
  40372b:	0f 1f 44 00 00       	nopl   0x0(%rax,%rax,1)

0000000000403730 <__errno_location@plt>:
  403730:	f3 0f 1e fa          	endbr64 
  403734:	f2 ff 25 fd 68 01 00 	bnd jmpq *0x168fd(%rip)        # 41a038 <__errno_location@GLIBC_2.2.5>
  40373b:	0f 1f 44 00 00       	nopl   0x0(%rax,%rax,1)

0000000000403740 <_ZNSt6chrono3_V212system_clock3nowEv@plt>:
  403740:	f3 0f 1e fa          	endbr64 
  403744:	f2 ff 25 f5 68 01 00 	bnd jmpq *0x168f5(%rip)        # 41a040 <_ZNSt6chrono3_V212system_clock3nowEv@GLIBCXX_3.4.19>
  40374b:	0f 1f 44 00 00       	nopl   0x0(%rax,%rax,1)

0000000000403750 <syscall@plt>:
  403750:	f3 0f 1e fa          	endbr64 
  403754:	f2 ff 25 ed 68 01 00 	bnd jmpq *0x168ed(%rip)        # 41a048 <syscall@GLIBC_2.2.5>
  40375b:	0f 1f 44 00 00       	nopl   0x0(%rax,%rax,1)

0000000000403760 <bind@plt>:
  403760:	f3 0f 1e fa          	endbr64 
  403764:	f2 ff 25 e5 68 01 00 	bnd jmpq *0x168e5(%rip)        # 41a050 <bind@GLIBC_2.2.5>
  40376b:	0f 1f 44 00 00       	nopl   0x0(%rax,%rax,1)

0000000000403770 <strstr@plt>:
  403770:	f3 0f 1e fa          	endbr64 
  403774:	f2 ff 25 dd 68 01 00 	bnd jmpq *0x168dd(%rip)        # 41a058 <strstr@GLIBC_2.2.5>
  40377b:	0f 1f 44 00 00       	nopl   0x0(%rax,%rax,1)

0000000000403780 <_ZNSt13basic_filebufIcSt11char_traitsIcEE5closeEv@plt>:
  403780:	f3 0f 1e fa          	endbr64 
  403784:	f2 ff 25 d5 68 01 00 	bnd jmpq *0x168d5(%rip)        # 41a060 <_ZNSt13basic_filebufIcSt11char_traitsIcEE5closeEv@GLIBCXX_3.4>
  40378b:	0f 1f 44 00 00       	nopl   0x0(%rax,%rax,1)

0000000000403790 <getopt@plt>:
  403790:	f3 0f 1e fa          	endbr64 
  403794:	f2 ff 25 cd 68 01 00 	bnd jmpq *0x168cd(%rip)        # 41a068 <getopt@GLIBC_2.2.5>
  40379b:	0f 1f 44 00 00       	nopl   0x0(%rax,%rax,1)

00000000004037a0 <_ZNKSt12__basic_fileIcE7is_openEv@plt>:
  4037a0:	f3 0f 1e fa          	endbr64 
  4037a4:	f2 ff 25 c5 68 01 00 	bnd jmpq *0x168c5(%rip)        # 41a070 <_ZNKSt12__basic_fileIcE7is_openEv@GLIBCXX_3.4>
  4037ab:	0f 1f 44 00 00       	nopl   0x0(%rax,%rax,1)

00000000004037b0 <socket@plt>:
  4037b0:	f3 0f 1e fa          	endbr64 
  4037b4:	f2 ff 25 bd 68 01 00 	bnd jmpq *0x168bd(%rip)        # 41a078 <socket@GLIBC_2.2.5>
  4037bb:	0f 1f 44 00 00       	nopl   0x0(%rax,%rax,1)

00000000004037c0 <_ZNSt14basic_ifstreamIcSt11char_traitsIcEED1Ev@plt>:
  4037c0:	f3 0f 1e fa          	endbr64 
  4037c4:	f2 ff 25 b5 68 01 00 	bnd jmpq *0x168b5(%rip)        # 41a080 <_ZNSt14basic_ifstreamIcSt11char_traitsIcEED1Ev@GLIBCXX_3.4>
  4037cb:	0f 1f 44 00 00       	nopl   0x0(%rax,%rax,1)

00000000004037d0 <fork@plt>:
  4037d0:	f3 0f 1e fa          	endbr64 
  4037d4:	f2 ff 25 ad 68 01 00 	bnd jmpq *0x168ad(%rip)        # 41a088 <fork@GLIBC_2.2.5>
  4037db:	0f 1f 44 00 00       	nopl   0x0(%rax,%rax,1)

00000000004037e0 <_ZNKSt7__cxx1112basic_stringIcSt11char_traitsIcESaIcEE7compareEPKc@plt>:
  4037e0:	f3 0f 1e fa          	endbr64 
  4037e4:	f2 ff 25 a5 68 01 00 	bnd jmpq *0x168a5(%rip)        # 41a090 <_ZNKSt7__cxx1112basic_stringIcSt11char_traitsIcESaIcEE7compareEPKc@GLIBCXX_3.4.21>
  4037eb:	0f 1f 44 00 00       	nopl   0x0(%rax,%rax,1)

00000000004037f0 <execlp@plt>:
  4037f0:	f3 0f 1e fa          	endbr64 
  4037f4:	f2 ff 25 9d 68 01 00 	bnd jmpq *0x1689d(%rip)        # 41a098 <execlp@GLIBC_2.2.5>
  4037fb:	0f 1f 44 00 00       	nopl   0x0(%rax,%rax,1)

0000000000403800 <_ZNSt8ios_baseC2Ev@plt>:
  403800:	f3 0f 1e fa          	endbr64 
  403804:	f2 ff 25 95 68 01 00 	bnd jmpq *0x16895(%rip)        # 41a0a0 <_ZNSt8ios_baseC2Ev@GLIBCXX_3.4>
  40380b:	0f 1f 44 00 00       	nopl   0x0(%rax,%rax,1)

0000000000403810 <_ZNSt7__cxx1112basic_stringIcSt11char_traitsIcESaIcEE9_M_appendEPKcm@plt>:
  403810:	f3 0f 1e fa          	endbr64 
  403814:	f2 ff 25 8d 68 01 00 	bnd jmpq *0x1688d(%rip)        # 41a0a8 <_ZNSt7__cxx1112basic_stringIcSt11char_traitsIcESaIcEE9_M_appendEPKcm@GLIBCXX_3.4.21>
  40381b:	0f 1f 44 00 00       	nopl   0x0(%rax,%rax,1)

0000000000403820 <recv@plt>:
  403820:	f3 0f 1e fa          	endbr64 
  403824:	f2 ff 25 85 68 01 00 	bnd jmpq *0x16885(%rip)        # 41a0b0 <recv@GLIBC_2.2.5>
  40382b:	0f 1f 44 00 00       	nopl   0x0(%rax,%rax,1)

0000000000403830 <_ZNSt8ios_baseD2Ev@plt>:
  403830:	f3 0f 1e fa          	endbr64 
  403834:	f2 ff 25 7d 68 01 00 	bnd jmpq *0x1687d(%rip)        # 41a0b8 <_ZNSt8ios_baseD2Ev@GLIBCXX_3.4>
  40383b:	0f 1f 44 00 00       	nopl   0x0(%rax,%rax,1)

0000000000403840 <_ZNSi4peekEv@plt>:
  403840:	f3 0f 1e fa          	endbr64 
  403844:	f2 ff 25 75 68 01 00 	bnd jmpq *0x16875(%rip)        # 41a0c0 <_ZNSi4peekEv@GLIBCXX_3.4>
  40384b:	0f 1f 44 00 00       	nopl   0x0(%rax,%rax,1)

0000000000403850 <__cxa_begin_catch@plt>:
  403850:	f3 0f 1e fa          	endbr64 
  403854:	f2 ff 25 6d 68 01 00 	bnd jmpq *0x1686d(%rip)        # 41a0c8 <__cxa_begin_catch@CXXABI_1.3>
  40385b:	0f 1f 44 00 00       	nopl   0x0(%rax,%rax,1)

0000000000403860 <strlen@plt>:
  403860:	f3 0f 1e fa          	endbr64 
  403864:	f2 ff 25 65 68 01 00 	bnd jmpq *0x16865(%rip)        # 41a0d0 <strlen@GLIBC_2.2.5>
  40386b:	0f 1f 44 00 00       	nopl   0x0(%rax,%rax,1)

0000000000403870 <_ZNSt7__cxx1119basic_istringstreamIcSt11char_traitsIcESaIcEED1Ev@plt>:
  403870:	f3 0f 1e fa          	endbr64 
  403874:	f2 ff 25 5d 68 01 00 	bnd jmpq *0x1685d(%rip)        # 41a0d8 <_ZNSt7__cxx1119basic_istringstreamIcSt11char_traitsIcESaIcEED1Ev@GLIBCXX_3.4.21>
  40387b:	0f 1f 44 00 00       	nopl   0x0(%rax,%rax,1)

0000000000403880 <send@plt>:
  403880:	f3 0f 1e fa          	endbr64 
  403884:	f2 ff 25 55 68 01 00 	bnd jmpq *0x16855(%rip)        # 41a0e0 <send@GLIBC_2.2.5>
  40388b:	0f 1f 44 00 00       	nopl   0x0(%rax,%rax,1)

0000000000403890 <_ZSt20__throw_length_errorPKc@plt>:
  403890:	f3 0f 1e fa          	endbr64 
  403894:	f2 ff 25 4d 68 01 00 	bnd jmpq *0x1684d(%rip)        # 41a0e8 <_ZSt20__throw_length_errorPKc@GLIBCXX_3.4>
  40389b:	0f 1f 44 00 00       	nopl   0x0(%rax,%rax,1)

00000000004038a0 <getrusage@plt>:
  4038a0:	f3 0f 1e fa          	endbr64 
  4038a4:	f2 ff 25 45 68 01 00 	bnd jmpq *0x16845(%rip)        # 41a0f0 <getrusage@GLIBC_2.2.5>
  4038ab:	0f 1f 44 00 00       	nopl   0x0(%rax,%rax,1)

00000000004038b0 <munmap@plt>:
  4038b0:	f3 0f 1e fa          	endbr64 
  4038b4:	f2 ff 25 3d 68 01 00 	bnd jmpq *0x1683d(%rip)        # 41a0f8 <munmap@GLIBC_2.2.5>
  4038bb:	0f 1f 44 00 00       	nopl   0x0(%rax,%rax,1)

00000000004038c0 <GOMP_loop_nonmonotonic_dynamic_start@plt>:
  4038c0:	f3 0f 1e fa          	endbr64 
  4038c4:	f2 ff 25 35 68 01 00 	bnd jmpq *0x16835(%rip)        # 41a100 <GOMP_loop_nonmonotonic_dynamic_start@VERSION>
  4038cb:	0f 1f 44 00 00       	nopl   0x0(%rax,%rax,1)

00000000004038d0 <_ZSt24__throw_invalid_argumentPKc@plt>:
  4038d0:	f3 0f 1e fa          	endbr64 
  4038d4:	f2 ff 25 2d 68 01 00 	bnd jmpq *0x1682d(%rip)        # 41a108 <_ZSt24__throw_invalid_argumentPKc@GLIBCXX_3.4>
  4038db:	0f 1f 44 00 00       	nopl   0x0(%rax,%rax,1)

00000000004038e0 <__snprintf_chk@plt>:
  4038e0:	f3 0f 1e fa          	endbr64 
  4038e4:	f2 ff 25 25 68 01 00 	bnd jmpq *0x16825(%rip)        # 41a110 <__snprintf_chk@GLIBC_2.3.4>
  4038eb:	0f 1f 44 00 00       	nopl   0x0(%rax,%rax,1)

00000000004038f0 <_ZNSirsERi@plt>:
  4038f0:	f3 0f 1e fa          	endbr64 
  4038f4:	f2 ff 25 1d 68 01 00 	bnd jmpq *0x1681d(%rip)        # 41a118 <_ZNSirsERi@GLIBCXX_3.4>
  4038fb:	0f 1f 44 00 00       	nopl   0x0(%rax,%rax,1)

0000000000403900 <_ZNSi6ignoreEli@plt>:
  403900:	f3 0f 1e fa          	endbr64 
  403904:	f2 ff 25 15 68 01 00 	bnd jmpq *0x16815(%rip)        # 41a120 <_ZNSi6ignoreEli@GLIBCXX_3.4>
  40390b:	0f 1f 44 00 00       	nopl   0x0(%rax,%rax,1)

0000000000403910 <_ZNSo5flushEv@plt>:
  403910:	f3 0f 1e fa          	endbr64 
  403914:	f2 ff 25 0d 68 01 00 	bnd jmpq *0x1680d(%rip)        # 41a128 <_ZNSo5flushEv@GLIBCXX_3.4>
  40391b:	0f 1f 44 00 00       	nopl   0x0(%rax,%rax,1)

0000000000403920 <_ZSt19__throw_logic_errorPKc@plt>:
  403920:	f3 0f 1e fa          	endbr64 
  403924:	f2 ff 25 05 68 01 00 	bnd jmpq *0x16805(%rip)        # 41a130 <_ZSt19__throw_logic_errorPKc@GLIBCXX_3.4>
  40392b:	0f 1f 44 00 00       	nopl   0x0(%rax,%rax,1)

0000000000403930 <strtod@plt>:
  403930:	f3 0f 1e fa          	endbr64 
  403934:	f2 ff 25 fd 67 01 00 	bnd jmpq *0x167fd(%rip)        # 41a138 <strtod@GLIBC_2.2.5>
  40393b:	0f 1f 44 00 00       	nopl   0x0(%rax,%rax,1)

0000000000403940 <__vsnprintf_chk@plt>:
  403940:	f3 0f 1e fa          	endbr64 
  403944:	f2 ff 25 f5 67 01 00 	bnd jmpq *0x167f5(%rip)        # 41a140 <__vsnprintf_chk@GLIBC_2.3.4>
  40394b:	0f 1f 44 00 00       	nopl   0x0(%rax,%rax,1)

0000000000403950 <memcpy@plt>:
  403950:	f3 0f 1e fa          	endbr64 
  403954:	f2 ff 25 ed 67 01 00 	bnd jmpq *0x167ed(%rip)        # 41a148 <memcpy@GLIBC_2.14>
  40395b:	0f 1f 44 00 00       	nopl   0x0(%rax,%rax,1)

0000000000403960 <perror@plt>:
  403960:	f3 0f 1e fa          	endbr64 
  403964:	f2 ff 25 e5 67 01 00 	bnd jmpq *0x167e5(%rip)        # 41a150 <perror@GLIBC_2.2.5>
  40396b:	0f 1f 44 00 00       	nopl   0x0(%rax,%rax,1)

0000000000403970 <_ZSt2wsIcSt11char_traitsIcEERSt13basic_istreamIT_T0_ES6_@plt>:
  403970:	f3 0f 1e fa          	endbr64 
  403974:	f2 ff 25 dd 67 01 00 	bnd jmpq *0x167dd(%rip)        # 41a158 <_ZSt2wsIcSt11char_traitsIcEERSt13basic_istreamIT_T0_ES6_@GLIBCXX_3.4>
  40397b:	0f 1f 44 00 00       	nopl   0x0(%rax,%rax,1)

0000000000403980 <system@plt>:
  403980:	f3 0f 1e fa          	endbr64 
  403984:	f2 ff 25 d5 67 01 00 	bnd jmpq *0x167d5(%rip)        # 41a160 <system@GLIBC_2.2.5>
  40398b:	0f 1f 44 00 00       	nopl   0x0(%rax,%rax,1)

0000000000403990 <__cxa_atexit@plt>:
  403990:	f3 0f 1e fa          	endbr64 
  403994:	f2 ff 25 cd 67 01 00 	bnd jmpq *0x167cd(%rip)        # 41a168 <__cxa_atexit@GLIBC_2.2.5>
  40399b:	0f 1f 44 00 00       	nopl   0x0(%rax,%rax,1)

00000000004039a0 <_ZNSt13basic_filebufIcSt11char_traitsIcEE4openEPKcSt13_Ios_Openmode@plt>:
  4039a0:	f3 0f 1e fa          	endbr64 
  4039a4:	f2 ff 25 c5 67 01 00 	bnd jmpq *0x167c5(%rip)        # 41a170 <_ZNSt13basic_filebufIcSt11char_traitsIcEE4openEPKcSt13_Ios_Openmode@GLIBCXX_3.4>
  4039ab:	0f 1f 44 00 00       	nopl   0x0(%rax,%rax,1)

00000000004039b0 <clock_gettime@plt>:
  4039b0:	f3 0f 1e fa          	endbr64 
  4039b4:	f2 ff 25 bd 67 01 00 	bnd jmpq *0x167bd(%rip)        # 41a178 <clock_gettime@GLIBC_2.17>
  4039bb:	0f 1f 44 00 00       	nopl   0x0(%rax,%rax,1)

00000000004039c0 <_ZdlPv@plt>:
  4039c0:	f3 0f 1e fa          	endbr64 
  4039c4:	f2 ff 25 b5 67 01 00 	bnd jmpq *0x167b5(%rip)        # 41a180 <_ZdlPv@GLIBCXX_3.4>
  4039cb:	0f 1f 44 00 00       	nopl   0x0(%rax,%rax,1)

00000000004039d0 <_ZNSo9_M_insertIlEERSoT_@plt>:
  4039d0:	f3 0f 1e fa          	endbr64 
  4039d4:	f2 ff 25 ad 67 01 00 	bnd jmpq *0x167ad(%rip)        # 41a188 <_ZNSo9_M_insertIlEERSoT_@GLIBCXX_3.4.9>
  4039db:	0f 1f 44 00 00       	nopl   0x0(%rax,%rax,1)

00000000004039e0 <__isoc99_sscanf@plt>:
  4039e0:	f3 0f 1e fa          	endbr64 
  4039e4:	f2 ff 25 a5 67 01 00 	bnd jmpq *0x167a5(%rip)        # 41a190 <__isoc99_sscanf@GLIBC_2.7>
  4039eb:	0f 1f 44 00 00       	nopl   0x0(%rax,%rax,1)

00000000004039f0 <fclose@plt>:
  4039f0:	f3 0f 1e fa          	endbr64 
  4039f4:	f2 ff 25 9d 67 01 00 	bnd jmpq *0x1679d(%rip)        # 41a198 <fclose@GLIBC_2.2.5>
  4039fb:	0f 1f 44 00 00       	nopl   0x0(%rax,%rax,1)

0000000000403a00 <_Znwm@plt>:
  403a00:	f3 0f 1e fa          	endbr64 
  403a04:	f2 ff 25 95 67 01 00 	bnd jmpq *0x16795(%rip)        # 41a1a0 <_Znwm@GLIBCXX_3.4>
  403a0b:	0f 1f 44 00 00       	nopl   0x0(%rax,%rax,1)

0000000000403a10 <_ZNSi10_M_extractIlEERSiRT_@plt>:
  403a10:	f3 0f 1e fa          	endbr64 
  403a14:	f2 ff 25 8d 67 01 00 	bnd jmpq *0x1678d(%rip)        # 41a1a8 <_ZNSi10_M_extractIlEERSiRT_@GLIBCXX_3.4.9>
  403a1b:	0f 1f 44 00 00       	nopl   0x0(%rax,%rax,1)

0000000000403a20 <_ZNSt13basic_filebufIcSt11char_traitsIcEEC1Ev@plt>:
  403a20:	f3 0f 1e fa          	endbr64 
  403a24:	f2 ff 25 85 67 01 00 	bnd jmpq *0x16785(%rip)        # 41a1b0 <_ZNSt13basic_filebufIcSt11char_traitsIcEEC1Ev@GLIBCXX_3.4>
  403a2b:	0f 1f 44 00 00       	nopl   0x0(%rax,%rax,1)

0000000000403a30 <GOMP_loop_nonmonotonic_dynamic_next@plt>:
  403a30:	f3 0f 1e fa          	endbr64 
  403a34:	f2 ff 25 7d 67 01 00 	bnd jmpq *0x1677d(%rip)        # 41a1b8 <GOMP_loop_nonmonotonic_dynamic_next@VERSION>
  403a3b:	0f 1f 44 00 00       	nopl   0x0(%rax,%rax,1)

0000000000403a40 <__stack_chk_fail@plt>:
  403a40:	f3 0f 1e fa          	endbr64 
  403a44:	f2 ff 25 75 67 01 00 	bnd jmpq *0x16775(%rip)        # 41a1c0 <__stack_chk_fail@GLIBC_2.4>
  403a4b:	0f 1f 44 00 00       	nopl   0x0(%rax,%rax,1)

0000000000403a50 <_ZSt16__ostream_insertIcSt11char_traitsIcEERSt13basic_ostreamIT_T0_ES6_PKS3_l@plt>:
  403a50:	f3 0f 1e fa          	endbr64 
  403a54:	f2 ff 25 6d 67 01 00 	bnd jmpq *0x1676d(%rip)        # 41a1c8 <_ZSt16__ostream_insertIcSt11char_traitsIcEERSt13basic_ostreamIT_T0_ES6_PKS3_l@GLIBCXX_3.4.9>
  403a5b:	0f 1f 44 00 00       	nopl   0x0(%rax,%rax,1)

0000000000403a60 <_ZNKSt5ctypeIcE13_M_widen_initEv@plt>:
  403a60:	f3 0f 1e fa          	endbr64 
  403a64:	f2 ff 25 65 67 01 00 	bnd jmpq *0x16765(%rip)        # 41a1d0 <_ZNKSt5ctypeIcE13_M_widen_initEv@GLIBCXX_3.4.11>
  403a6b:	0f 1f 44 00 00       	nopl   0x0(%rax,%rax,1)

0000000000403a70 <omp_get_thread_num@plt>:
  403a70:	f3 0f 1e fa          	endbr64 
  403a74:	f2 ff 25 5d 67 01 00 	bnd jmpq *0x1675d(%rip)        # 41a1d8 <omp_get_thread_num@VERSION>
  403a7b:	0f 1f 44 00 00       	nopl   0x0(%rax,%rax,1)

0000000000403a80 <_ZNSt7__cxx1112basic_stringIcSt11char_traitsIcESaIcEE12_M_constructEmc@plt>:
  403a80:	f3 0f 1e fa          	endbr64 
  403a84:	f2 ff 25 55 67 01 00 	bnd jmpq *0x16755(%rip)        # 41a1e0 <_ZNSt7__cxx1112basic_stringIcSt11char_traitsIcESaIcEE12_M_constructEmc@GLIBCXX_3.4.21>
  403a8b:	0f 1f 44 00 00       	nopl   0x0(%rax,%rax,1)

0000000000403a90 <fopen@plt>:
  403a90:	f3 0f 1e fa          	endbr64 
  403a94:	f2 ff 25 4d 67 01 00 	bnd jmpq *0x1674d(%rip)        # 41a1e8 <fopen@GLIBC_2.2.5>
  403a9b:	0f 1f 44 00 00       	nopl   0x0(%rax,%rax,1)

0000000000403aa0 <GOMP_barrier@plt>:
  403aa0:	f3 0f 1e fa          	endbr64 
  403aa4:	f2 ff 25 45 67 01 00 	bnd jmpq *0x16745(%rip)        # 41a1f0 <GOMP_barrier@VERSION>
  403aab:	0f 1f 44 00 00       	nopl   0x0(%rax,%rax,1)

0000000000403ab0 <madvise@plt>:
  403ab0:	f3 0f 1e fa          	endbr64 
  403ab4:	f2 ff 25 3d 67 01 00 	bnd jmpq *0x1673d(%rip)        # 41a1f8 <madvise@GLIBC_2.2.5>
  403abb:	0f 1f 44 00 00       	nopl   0x0(%rax,%rax,1)

0000000000403ac0 <exit@plt>:
  403ac0:	f3 0f 1e fa          	endbr64 
  403ac4:	f2 ff 25 35 67 01 00 	bnd jmpq *0x16735(%rip)        # 41a200 <exit@GLIBC_2.2.5>
  403acb:	0f 1f 44 00 00       	nopl   0x0(%rax,%rax,1)

0000000000403ad0 <getenv@plt>:
  403ad0:	f3 0f 1e fa          	endbr64 
  403ad4:	f2 ff 25 2d 67 01 00 	bnd jmpq *0x1672d(%rip)        # 41a208 <getenv@GLIBC_2.2.5>
  403adb:	0f 1f 44 00 00       	nopl   0x0(%rax,%rax,1)

0000000000403ae0 <_ZNSi4readEPcl@plt>:
  403ae0:	f3 0f 1e fa          	endbr64 
  403ae4:	f2 ff 25 25 67 01 00 	bnd jmpq *0x16725(%rip)        # 41a210 <_ZNSi4readEPcl@GLIBCXX_3.4>
  403aeb:	0f 1f 44 00 00       	nopl   0x0(%rax,%rax,1)

0000000000403af0 <_ZSt16__throw_bad_castv@plt>:
  403af0:	f3 0f 1e fa          	endbr64 
  403af4:	f2 ff 25 1d 67 01 00 	bnd jmpq *0x1671d(%rip)        # 41a218 <_ZSt16__throw_bad_castv@GLIBCXX_3.4>
  403afb:	0f 1f 44 00 00       	nopl   0x0(%rax,%rax,1)

0000000000403b00 <_ZStrsIcSt11char_traitsIcESaIcEERSt13basic_istreamIT_T0_ES7_RNSt7__cxx1112basic_stringIS4_S5_T1_EE@plt>:
  403b00:	f3 0f 1e fa          	endbr64 
  403b04:	f2 ff 25 15 67 01 00 	bnd jmpq *0x16715(%rip)        # 41a220 <_ZStrsIcSt11char_traitsIcESaIcEERSt13basic_istreamIT_T0_ES7_RNSt7__cxx1112basic_stringIS4_S5_T1_EE@GLIBCXX_3.4.21>
  403b0b:	0f 1f 44 00 00       	nopl   0x0(%rax,%rax,1)

0000000000403b10 <_ZdaPv@plt>:
  403b10:	f3 0f 1e fa          	endbr64 
  403b14:	f2 ff 25 0d 67 01 00 	bnd jmpq *0x1670d(%rip)        # 41a228 <_ZdaPv@GLIBCXX_3.4>
  403b1b:	0f 1f 44 00 00       	nopl   0x0(%rax,%rax,1)

0000000000403b20 <_ZNSt7__cxx1115basic_stringbufIcSt11char_traitsIcESaIcEE7_M_syncEPcmm@plt>:
  403b20:	f3 0f 1e fa          	endbr64 
  403b24:	f2 ff 25 05 67 01 00 	bnd jmpq *0x16705(%rip)        # 41a230 <_ZNSt7__cxx1115basic_stringbufIcSt11char_traitsIcESaIcEE7_M_syncEPcmm@GLIBCXX_3.4.21>
  403b2b:	0f 1f 44 00 00       	nopl   0x0(%rax,%rax,1)

0000000000403b30 <_ZStrsIcSt11char_traitsIcEERSt13basic_istreamIT_T0_ES6_RS3_@plt>:
  403b30:	f3 0f 1e fa          	endbr64 
  403b34:	f2 ff 25 fd 66 01 00 	bnd jmpq *0x166fd(%rip)        # 41a238 <_ZStrsIcSt11char_traitsIcEERSt13basic_istreamIT_T0_ES6_RS3_@GLIBCXX_3.4>
  403b3b:	0f 1f 44 00 00       	nopl   0x0(%rax,%rax,1)

0000000000403b40 <malloc@plt>:
  403b40:	f3 0f 1e fa          	endbr64 
  403b44:	f2 ff 25 f5 66 01 00 	bnd jmpq *0x166f5(%rip)        # 41a240 <malloc@GLIBC_2.2.5>
  403b4b:	0f 1f 44 00 00       	nopl   0x0(%rax,%rax,1)

0000000000403b50 <_ZNSt9basic_iosIcSt11char_traitsIcEE4initEPSt15basic_streambufIcS1_E@plt>:
  403b50:	f3 0f 1e fa          	endbr64 
  403b54:	f2 ff 25 ed 66 01 00 	bnd jmpq *0x166ed(%rip)        # 41a248 <_ZNSt9basic_iosIcSt11char_traitsIcEE4initEPSt15basic_streambufIcS1_E@GLIBCXX_3.4>
  403b5b:	0f 1f 44 00 00       	nopl   0x0(%rax,%rax,1)

0000000000403b60 <mlock@plt>:
  403b60:	f3 0f 1e fa          	endbr64 
  403b64:	f2 ff 25 e5 66 01 00 	bnd jmpq *0x166e5(%rip)        # 41a250 <mlock@GLIBC_2.2.5>
  403b6b:	0f 1f 44 00 00       	nopl   0x0(%rax,%rax,1)

0000000000403b70 <strtol@plt>:
  403b70:	f3 0f 1e fa          	endbr64 
  403b74:	f2 ff 25 dd 66 01 00 	bnd jmpq *0x166dd(%rip)        # 41a258 <strtol@GLIBC_2.2.5>
  403b7b:	0f 1f 44 00 00       	nopl   0x0(%rax,%rax,1)

0000000000403b80 <ioctl@plt>:
  403b80:	f3 0f 1e fa          	endbr64 
  403b84:	f2 ff 25 d5 66 01 00 	bnd jmpq *0x166d5(%rip)        # 41a260 <ioctl@GLIBC_2.2.5>
  403b8b:	0f 1f 44 00 00       	nopl   0x0(%rax,%rax,1)

0000000000403b90 <_ZNSt6localeD1Ev@plt>:
  403b90:	f3 0f 1e fa          	endbr64 
  403b94:	f2 ff 25 cd 66 01 00 	bnd jmpq *0x166cd(%rip)        # 41a268 <_ZNSt6localeD1Ev@GLIBCXX_3.4>
  403b9b:	0f 1f 44 00 00       	nopl   0x0(%rax,%rax,1)

0000000000403ba0 <__cxa_throw_bad_array_new_length@plt>:
  403ba0:	f3 0f 1e fa          	endbr64 
  403ba4:	f2 ff 25 c5 66 01 00 	bnd jmpq *0x166c5(%rip)        # 41a270 <__cxa_throw_bad_array_new_length@CXXABI_1.3.8>
  403bab:	0f 1f 44 00 00       	nopl   0x0(%rax,%rax,1)

0000000000403bb0 <read@plt>:
  403bb0:	f3 0f 1e fa          	endbr64 
  403bb4:	f2 ff 25 bd 66 01 00 	bnd jmpq *0x166bd(%rip)        # 41a278 <read@GLIBC_2.2.5>
  403bbb:	0f 1f 44 00 00       	nopl   0x0(%rax,%rax,1)

0000000000403bc0 <omp_get_num_threads@plt>:
  403bc0:	f3 0f 1e fa          	endbr64 
  403bc4:	f2 ff 25 b5 66 01 00 	bnd jmpq *0x166b5(%rip)        # 41a280 <omp_get_num_threads@VERSION>
  403bcb:	0f 1f 44 00 00       	nopl   0x0(%rax,%rax,1)

0000000000403bd0 <_ZSt20__throw_out_of_rangePKc@plt>:
  403bd0:	f3 0f 1e fa          	endbr64 
  403bd4:	f2 ff 25 ad 66 01 00 	bnd jmpq *0x166ad(%rip)        # 41a288 <_ZSt20__throw_out_of_rangePKc@GLIBCXX_3.4>
  403bdb:	0f 1f 44 00 00       	nopl   0x0(%rax,%rax,1)

0000000000403be0 <getpid@plt>:
  403be0:	f3 0f 1e fa          	endbr64 
  403be4:	f2 ff 25 a5 66 01 00 	bnd jmpq *0x166a5(%rip)        # 41a290 <getpid@GLIBC_2.2.5>
  403beb:	0f 1f 44 00 00       	nopl   0x0(%rax,%rax,1)

0000000000403bf0 <fread@plt>:
  403bf0:	f3 0f 1e fa          	endbr64 
  403bf4:	f2 ff 25 9d 66 01 00 	bnd jmpq *0x1669d(%rip)        # 41a298 <fread@GLIBC_2.2.5>
  403bfb:	0f 1f 44 00 00       	nopl   0x0(%rax,%rax,1)

0000000000403c00 <_ZSt24__throw_out_of_range_fmtPKcz@plt>:
  403c00:	f3 0f 1e fa          	endbr64 
  403c04:	f2 ff 25 95 66 01 00 	bnd jmpq *0x16695(%rip)        # 41a2a0 <_ZSt24__throw_out_of_range_fmtPKcz@GLIBCXX_3.4.20>
  403c0b:	0f 1f 44 00 00       	nopl   0x0(%rax,%rax,1)

0000000000403c10 <_ZNSt8ios_base4InitC1Ev@plt>:
  403c10:	f3 0f 1e fa          	endbr64 
  403c14:	f2 ff 25 8d 66 01 00 	bnd jmpq *0x1668d(%rip)        # 41a2a8 <_ZNSt8ios_base4InitC1Ev@GLIBCXX_3.4>
  403c1b:	0f 1f 44 00 00       	nopl   0x0(%rax,%rax,1)

0000000000403c20 <_ZNSt13basic_filebufIcSt11char_traitsIcEED1Ev@plt>:
  403c20:	f3 0f 1e fa          	endbr64 
  403c24:	f2 ff 25 85 66 01 00 	bnd jmpq *0x16685(%rip)        # 41a2b0 <_ZNSt13basic_filebufIcSt11char_traitsIcEED1Ev@GLIBCXX_3.4>
  403c2b:	0f 1f 44 00 00       	nopl   0x0(%rax,%rax,1)

0000000000403c30 <_ZNSt7__cxx1112basic_stringIcSt11char_traitsIcESaIcEE7reserveEm@plt>:
  403c30:	f3 0f 1e fa          	endbr64 
  403c34:	f2 ff 25 7d 66 01 00 	bnd jmpq *0x1667d(%rip)        # 41a2b8 <_ZNSt7__cxx1112basic_stringIcSt11char_traitsIcESaIcEE7reserveEm@GLIBCXX_3.4.21>
  403c3b:	0f 1f 44 00 00       	nopl   0x0(%rax,%rax,1)

0000000000403c40 <fgets@plt>:
  403c40:	f3 0f 1e fa          	endbr64 
  403c44:	f2 ff 25 75 66 01 00 	bnd jmpq *0x16675(%rip)        # 41a2c0 <fgets@GLIBC_2.2.5>
  403c4b:	0f 1f 44 00 00       	nopl   0x0(%rax,%rax,1)

0000000000403c50 <_ZNSo9_M_insertIdEERSoT_@plt>:
  403c50:	f3 0f 1e fa          	endbr64 
  403c54:	f2 ff 25 6d 66 01 00 	bnd jmpq *0x1666d(%rip)        # 41a2c8 <_ZNSo9_M_insertIdEERSoT_@GLIBCXX_3.4.9>
  403c5b:	0f 1f 44 00 00       	nopl   0x0(%rax,%rax,1)

0000000000403c60 <gettimeofday@plt>:
  403c60:	f3 0f 1e fa          	endbr64 
  403c64:	f2 ff 25 65 66 01 00 	bnd jmpq *0x16665(%rip)        # 41a2d0 <gettimeofday@GLIBC_2.2.5>
  403c6b:	0f 1f 44 00 00       	nopl   0x0(%rax,%rax,1)

0000000000403c70 <memmove@plt>:
  403c70:	f3 0f 1e fa          	endbr64 
  403c74:	f2 ff 25 5d 66 01 00 	bnd jmpq *0x1665d(%rip)        # 41a2d8 <memmove@GLIBC_2.2.5>
  403c7b:	0f 1f 44 00 00       	nopl   0x0(%rax,%rax,1)

0000000000403c80 <__cxa_end_catch@plt>:
  403c80:	f3 0f 1e fa          	endbr64 
  403c84:	f2 ff 25 55 66 01 00 	bnd jmpq *0x16655(%rip)        # 41a2e0 <__cxa_end_catch@CXXABI_1.3>
  403c8b:	0f 1f 44 00 00       	nopl   0x0(%rax,%rax,1)

0000000000403c90 <realloc@plt>:
  403c90:	f3 0f 1e fa          	endbr64 
  403c94:	f2 ff 25 4d 66 01 00 	bnd jmpq *0x1664d(%rip)        # 41a2e8 <realloc@GLIBC_2.2.5>
  403c9b:	0f 1f 44 00 00       	nopl   0x0(%rax,%rax,1)

0000000000403ca0 <__fprintf_chk@plt>:
  403ca0:	f3 0f 1e fa          	endbr64 
  403ca4:	f2 ff 25 45 66 01 00 	bnd jmpq *0x16645(%rip)        # 41a2f0 <__fprintf_chk@GLIBC_2.3.4>
  403cab:	0f 1f 44 00 00       	nopl   0x0(%rax,%rax,1)

0000000000403cb0 <_ZNSt7__cxx1119basic_istringstreamIcSt11char_traitsIcESaIcEEC1ERKNS_12basic_stringIcS2_S3_EESt13_Ios_Openmode@plt>:
  403cb0:	f3 0f 1e fa          	endbr64 
  403cb4:	f2 ff 25 3d 66 01 00 	bnd jmpq *0x1663d(%rip)        # 41a2f8 <_ZNSt7__cxx1119basic_istringstreamIcSt11char_traitsIcESaIcEEC1ERKNS_12basic_stringIcS2_S3_EESt13_Ios_Openmode@GLIBCXX_3.4.21>
  403cbb:	0f 1f 44 00 00       	nopl   0x0(%rax,%rax,1)

0000000000403cc0 <_ZNSt9basic_iosIcSt11char_traitsIcEE5clearESt12_Ios_Iostate@plt>:
  403cc0:	f3 0f 1e fa          	endbr64 
  403cc4:	f2 ff 25 35 66 01 00 	bnd jmpq *0x16635(%rip)        # 41a300 <_ZNSt9basic_iosIcSt11char_traitsIcEE5clearESt12_Ios_Iostate@GLIBCXX_3.4>
  403ccb:	0f 1f 44 00 00       	nopl   0x0(%rax,%rax,1)

0000000000403cd0 <_ZNSolsEi@plt>:
  403cd0:	f3 0f 1e fa          	endbr64 
  403cd4:	f2 ff 25 2d 66 01 00 	bnd jmpq *0x1662d(%rip)        # 41a308 <_ZNSolsEi@GLIBCXX_3.4>
  403cdb:	0f 1f 44 00 00       	nopl   0x0(%rax,%rax,1)

0000000000403ce0 <GOMP_parallel@plt>:
  403ce0:	f3 0f 1e fa          	endbr64 
  403ce4:	f2 ff 25 25 66 01 00 	bnd jmpq *0x16625(%rip)        # 41a310 <GOMP_parallel@VERSION>
  403ceb:	0f 1f 44 00 00       	nopl   0x0(%rax,%rax,1)

0000000000403cf0 <omp_get_max_threads@plt>:
  403cf0:	f3 0f 1e fa          	endbr64 
  403cf4:	f2 ff 25 1d 66 01 00 	bnd jmpq *0x1661d(%rip)        # 41a318 <omp_get_max_threads@VERSION>
  403cfb:	0f 1f 44 00 00       	nopl   0x0(%rax,%rax,1)

0000000000403d00 <_Unwind_Resume@plt>:
  403d00:	f3 0f 1e fa          	endbr64 
  403d04:	f2 ff 25 15 66 01 00 	bnd jmpq *0x16615(%rip)        # 41a320 <_Unwind_Resume@GCC_3.0>
  403d0b:	0f 1f 44 00 00       	nopl   0x0(%rax,%rax,1)

0000000000403d10 <mmap@plt>:
  403d10:	f3 0f 1e fa          	endbr64 
  403d14:	f2 ff 25 0d 66 01 00 	bnd jmpq *0x1660d(%rip)        # 41a328 <mmap@GLIBC_2.2.5>
  403d1b:	0f 1f 44 00 00       	nopl   0x0(%rax,%rax,1)

0000000000403d20 <_ZNSt7__cxx1112basic_stringIcSt11char_traitsIcESaIcEE9_M_createERmm@plt>:
  403d20:	f3 0f 1e fa          	endbr64 
  403d24:	f2 ff 25 05 66 01 00 	bnd jmpq *0x16605(%rip)        # 41a330 <_ZNSt7__cxx1112basic_stringIcSt11char_traitsIcESaIcEE9_M_createERmm@GLIBCXX_3.4.21>
  403d2b:	0f 1f 44 00 00       	nopl   0x0(%rax,%rax,1)

0000000000403d30 <__isoc99_fscanf@plt>:
  403d30:	f3 0f 1e fa          	endbr64 
  403d34:	f2 ff 25 fd 65 01 00 	bnd jmpq *0x165fd(%rip)        # 41a338 <__isoc99_fscanf@GLIBC_2.7>
  403d3b:	0f 1f 44 00 00       	nopl   0x0(%rax,%rax,1)

0000000000403d40 <_ZSt7getlineIcSt11char_traitsIcESaIcEERSt13basic_istreamIT_T0_ES7_RNSt7__cxx1112basic_stringIS4_S5_T1_EES4_@plt>:
  403d40:	f3 0f 1e fa          	endbr64 
  403d44:	f2 ff 25 f5 65 01 00 	bnd jmpq *0x165f5(%rip)        # 41a340 <_ZSt7getlineIcSt11char_traitsIcESaIcEERSt13basic_istreamIT_T0_ES7_RNSt7__cxx1112basic_stringIS4_S5_T1_EES4_@GLIBCXX_3.4.21>
  403d4b:	0f 1f 44 00 00       	nopl   0x0(%rax,%rax,1)

0000000000403d50 <_ZNSt12__basic_fileIcED1Ev@plt>:
  403d50:	f3 0f 1e fa          	endbr64 
  403d54:	f2 ff 25 ed 65 01 00 	bnd jmpq *0x165ed(%rip)        # 41a348 <_ZNSt12__basic_fileIcED1Ev@GLIBCXX_3.4>
  403d5b:	0f 1f 44 00 00       	nopl   0x0(%rax,%rax,1)

0000000000403d60 <munlock@plt>:
  403d60:	f3 0f 1e fa          	endbr64 
  403d64:	f2 ff 25 e5 65 01 00 	bnd jmpq *0x165e5(%rip)        # 41a350 <munlock@GLIBC_2.2.5>
  403d6b:	0f 1f 44 00 00       	nopl   0x0(%rax,%rax,1)

0000000000403d70 <fwrite@plt>:
  403d70:	f3 0f 1e fa          	endbr64 
  403d74:	f2 ff 25 dd 65 01 00 	bnd jmpq *0x165dd(%rip)        # 41a358 <fwrite@GLIBC_2.2.5>
  403d7b:	0f 1f 44 00 00       	nopl   0x0(%rax,%rax,1)

0000000000403d80 <close@plt>:
  403d80:	f3 0f 1e fa          	endbr64 
  403d84:	f2 ff 25 d5 65 01 00 	bnd jmpq *0x165d5(%rip)        # 41a360 <close@GLIBC_2.2.5>
  403d8b:	0f 1f 44 00 00       	nopl   0x0(%rax,%rax,1)

0000000000403d90 <_ZNKSt7__cxx1112basic_stringIcSt11char_traitsIcESaIcEE5rfindEcm@plt>:
  403d90:	f3 0f 1e fa          	endbr64 
  403d94:	f2 ff 25 cd 65 01 00 	bnd jmpq *0x165cd(%rip)        # 41a368 <_ZNKSt7__cxx1112basic_stringIcSt11char_traitsIcESaIcEE5rfindEcm@GLIBCXX_3.4.21>
  403d9b:	0f 1f 44 00 00       	nopl   0x0(%rax,%rax,1)

0000000000403da0 <_ZNSt6localeC1Ev@plt>:
  403da0:	f3 0f 1e fa          	endbr64 
  403da4:	f2 ff 25 c5 65 01 00 	bnd jmpq *0x165c5(%rip)        # 41a370 <_ZNSt6localeC1Ev@GLIBCXX_3.4>
  403dab:	0f 1f 44 00 00       	nopl   0x0(%rax,%rax,1)

Disassembly of section .text:

0000000000403db0 <_Z10PrintLabelRKNSt7__cxx1112basic_stringIcSt11char_traitsIcESaIcEEES6_.cold>:
_ZNKSt7__cxx1112basic_stringIcSt11char_traitsIcESaIcEE7_M_dataEv():
/usr/include/c++/10/bits/basic_string.h:195 (discriminator 1)
      _M_length(size_type __length)
      { _M_string_length = __length; }

      pointer
      _M_data() const
      { return _M_dataplus._M_p; }
  403db0:	48 8b 7c 24 10       	mov    0x10(%rsp),%rdi
_ZNSt7__cxx1112basic_stringIcSt11char_traitsIcESaIcEE10_M_disposeEv():
/usr/include/c++/10/bits/basic_string.h:239 (discriminator 1)
      _M_create(size_type&, size_type);

      void
      _M_dispose()
      {
	if (!_M_is_local())
  403db5:	48 39 df             	cmp    %rbx,%rdi
  403db8:	74 05                	je     403dbf <_Z10PrintLabelRKNSt7__cxx1112basic_stringIcSt11char_traitsIcESaIcEEES6_.cold+0xf>
_ZN9__gnu_cxx13new_allocatorIcE10deallocateEPcm():
/usr/include/c++/10/ext/new_allocator.h:139
# endif
			      std::align_val_t(alignof(_Tp)));
	    return;
	  }
#endif
	::operator delete(__p
  403dba:	e8 01 fc ff ff       	callq  4039c0 <_ZdlPv@plt>
_ZN9__gnu_cxx13new_allocatorIcED4Ev():
/usr/include/c++/10/ext/new_allocator.h:89
      ~new_allocator() _GLIBCXX_USE_NOEXCEPT { }
  403dbf:	48 89 ef             	mov    %rbp,%rdi
  403dc2:	e8 39 ff ff ff       	callq  403d00 <_Unwind_Resume@plt>

0000000000403dc7 <_Z9PrintTimeRKNSt7__cxx1112basic_stringIcSt11char_traitsIcESaIcEEEd.cold>:
_ZNKSt7__cxx1112basic_stringIcSt11char_traitsIcESaIcEE7_M_dataEv():
/usr/include/c++/10/bits/basic_string.h:195 (discriminator 1)
      { return _M_dataplus._M_p; }
  403dc7:	48 8b 7c 24 10       	mov    0x10(%rsp),%rdi
_ZNSt7__cxx1112basic_stringIcSt11char_traitsIcESaIcEE10_M_disposeEv():
/usr/include/c++/10/bits/basic_string.h:239 (discriminator 1)
	if (!_M_is_local())
  403dcc:	48 39 df             	cmp    %rbx,%rdi
  403dcf:	74 05                	je     403dd6 <_Z9PrintTimeRKNSt7__cxx1112basic_stringIcSt11char_traitsIcESaIcEEEd.cold+0xf>
_ZN9__gnu_cxx13new_allocatorIcE10deallocateEPcm():
/usr/include/c++/10/ext/new_allocator.h:139
	::operator delete(__p
  403dd1:	e8 ea fb ff ff       	callq  4039c0 <_ZdlPv@plt>
_ZN9__gnu_cxx13new_allocatorIcED4Ev():
/usr/include/c++/10/ext/new_allocator.h:89
      ~new_allocator() _GLIBCXX_USE_NOEXCEPT { }
  403dd6:	48 89 ef             	mov    %rbp,%rdi
  403dd9:	e8 22 ff ff ff       	callq  403d00 <_Unwind_Resume@plt>

0000000000403dde <_Z9PrintStepRKNSt7__cxx1112basic_stringIcSt11char_traitsIcESaIcEEEl.cold>:
_ZNKSt7__cxx1112basic_stringIcSt11char_traitsIcESaIcEE7_M_dataEv():
/usr/include/c++/10/bits/basic_string.h:195 (discriminator 1)
      { return _M_dataplus._M_p; }
  403dde:	48 8b 7c 24 10       	mov    0x10(%rsp),%rdi
_ZNSt7__cxx1112basic_stringIcSt11char_traitsIcESaIcEE10_M_disposeEv():
/usr/include/c++/10/bits/basic_string.h:239 (discriminator 1)
	if (!_M_is_local())
  403de3:	48 39 df             	cmp    %rbx,%rdi
  403de6:	74 05                	je     403ded <_Z9PrintStepRKNSt7__cxx1112basic_stringIcSt11char_traitsIcESaIcEEEl.cold+0xf>
_ZN9__gnu_cxx13new_allocatorIcE10deallocateEPcm():
/usr/include/c++/10/ext/new_allocator.h:139
	::operator delete(__p
  403de8:	e8 d3 fb ff ff       	callq  4039c0 <_ZdlPv@plt>
_ZN9__gnu_cxx13new_allocatorIcED4Ev():
/usr/include/c++/10/ext/new_allocator.h:89
      ~new_allocator() _GLIBCXX_USE_NOEXCEPT { }
  403ded:	48 89 ef             	mov    %rbp,%rdi
  403df0:	e8 0b ff ff ff       	callq  403d00 <_Unwind_Resume@plt>

0000000000403df5 <_Z9PrintStepidl.cold>:
_ZNKSt7__cxx1112basic_stringIcSt11char_traitsIcESaIcEE7_M_dataEv():
/usr/include/c++/10/bits/basic_string.h:195 (discriminator 1)
      { return _M_dataplus._M_p; }
  403df5:	48 8b 7c 24 10       	mov    0x10(%rsp),%rdi
_ZNSt7__cxx1112basic_stringIcSt11char_traitsIcESaIcEE10_M_disposeEv():
/usr/include/c++/10/bits/basic_string.h:239 (discriminator 1)
	if (!_M_is_local())
  403dfa:	48 39 ef             	cmp    %rbp,%rdi
  403dfd:	74 05                	je     403e04 <_Z9PrintStepidl.cold+0xf>
_ZN9__gnu_cxx13new_allocatorIcE10deallocateEPcm():
/usr/include/c++/10/ext/new_allocator.h:139
	::operator delete(__p
  403dff:	e8 bc fb ff ff       	callq  4039c0 <_ZdlPv@plt>
_ZN9__gnu_cxx13new_allocatorIcED4Ev():
/usr/include/c++/10/ext/new_allocator.h:89
      ~new_allocator() _GLIBCXX_USE_NOEXCEPT { }
  403e04:	4c 89 e7             	mov    %r12,%rdi
  403e07:	e8 f4 fe ff ff       	callq  403d00 <_Unwind_Resume@plt>

0000000000403e0c <_Z14PageRankPullGSRK8CSRGraphIiiLb1EEidb.cold>:
_ZN7pvectorIfEC4Em():
/home/aliha951/ipdps-artifact/gapbs-master/src/pvector.h:30
  typedef T_* iterator;

  pvector() : start_(nullptr), end_size_(nullptr), end_capacity_(nullptr) {}

  explicit pvector(size_t num_elements) {
    start_ = new T_[num_elements];
  403e0c:	e8 8f fd ff ff       	callq  403ba0 <__cxa_throw_bad_array_new_length@plt>
_ZNKSt7__cxx1112basic_stringIcSt11char_traitsIcESaIcEE7_M_dataEv():
/usr/include/c++/10/bits/basic_string.h:195
      { return _M_dataplus._M_p; }
  403e11:	48 8b bc 24 a0 00 00 	mov    0xa0(%rsp),%rdi
  403e18:	00 
_ZNSt7__cxx1112basic_stringIcSt11char_traitsIcESaIcEE10_M_disposeEv():
/usr/include/c++/10/bits/basic_string.h:239
	if (!_M_is_local())
  403e19:	48 3b 7c 24 38       	cmp    0x38(%rsp),%rdi
  403e1e:	74 05                	je     403e25 <_Z14PageRankPullGSRK8CSRGraphIiiLb1EEidb.cold+0x19>
_ZN9__gnu_cxx13new_allocatorIcE10deallocateEPcm():
/usr/include/c++/10/ext/new_allocator.h:139
	::operator delete(__p
  403e20:	e8 9b fb ff ff       	callq  4039c0 <_ZdlPv@plt>
_ZN7pvectorIfE16ReleaseResourcesEv():
/home/aliha951/ipdps-artifact/gapbs-master/src/pvector.h:73
    }
    return *this;
  }

  void ReleaseResources(){
    if (start_ != nullptr) {
  403e25:	48 8b 7c 24 50       	mov    0x50(%rsp),%rdi
  403e2a:	48 85 ff             	test   %rdi,%rdi
  403e2d:	74 05                	je     403e34 <_Z14PageRankPullGSRK8CSRGraphIiiLb1EEidb.cold+0x28>
/home/aliha951/ipdps-artifact/gapbs-master/src/pvector.h:74
      delete[] start_;
  403e2f:	e8 dc fc ff ff       	callq  403b10 <_ZdaPv@plt>
/home/aliha951/ipdps-artifact/gapbs-master/src/pvector.h:73
    if (start_ != nullptr) {
  403e34:	48 8b 44 24 48       	mov    0x48(%rsp),%rax
  403e39:	48 8b 38             	mov    (%rax),%rdi
  403e3c:	48 85 ff             	test   %rdi,%rdi
  403e3f:	74 05                	je     403e46 <_Z14PageRankPullGSRK8CSRGraphIiiLb1EEidb.cold+0x3a>
/home/aliha951/ipdps-artifact/gapbs-master/src/pvector.h:74
      delete[] start_;
  403e41:	e8 ca fc ff ff       	callq  403b10 <_ZdaPv@plt>
  403e46:	48 89 ef             	mov    %rbp,%rdi
  403e49:	e8 b2 fe ff ff       	callq  403d00 <_Unwind_Resume@plt>
_ZN7pvectorIfEC4Em():
/home/aliha951/ipdps-artifact/gapbs-master/src/pvector.h:30
    start_ = new T_[num_elements];
  403e4e:	e8 4d fd ff ff       	callq  403ba0 <__cxa_throw_bad_array_new_length@plt>
  403e53:	f3 0f 1e fa          	endbr64 
_ZN7pvectorIfE16ReleaseResourcesEv():
/home/aliha951/ipdps-artifact/gapbs-master/src/pvector.h:73
    if (start_ != nullptr) {
  403e57:	48 89 c5             	mov    %rax,%rbp
  403e5a:	eb d8                	jmp    403e34 <_Z14PageRankPullGSRK8CSRGraphIiiLb1EEidb.cold+0x28>

0000000000403e5c <_Z10PRVerifierRK8CSRGraphIiiLb1EERK7pvectorIfEd.cold>:
_ZN7pvectorIfEC4Em():
/home/aliha951/ipdps-artifact/gapbs-master/src/pvector.h:30
    start_ = new T_[num_elements];
  403e5c:	e8 3f fd ff ff       	callq  403ba0 <__cxa_throw_bad_array_new_length@plt>
_ZNKSt7__cxx1112basic_stringIcSt11char_traitsIcESaIcEE7_M_dataEv():
/usr/include/c++/10/bits/basic_string.h:195 (discriminator 3)
      { return _M_dataplus._M_p; }
  403e61:	48 8b 7c 24 40       	mov    0x40(%rsp),%rdi
_ZNSt7__cxx1112basic_stringIcSt11char_traitsIcESaIcEE10_M_disposeEv():
/usr/include/c++/10/bits/basic_string.h:239 (discriminator 3)
	if (!_M_is_local())
  403e66:	48 39 df             	cmp    %rbx,%rdi
  403e69:	74 05                	je     403e70 <_Z10PRVerifierRK8CSRGraphIiiLb1EERK7pvectorIfEd.cold+0x14>
_ZN9__gnu_cxx13new_allocatorIcE10deallocateEPcm():
/usr/include/c++/10/ext/new_allocator.h:139
  403e6b:	e8 50 fb ff ff       	callq  4039c0 <_ZdlPv@plt>
_ZN7pvectorIfE16ReleaseResourcesEv():
/home/aliha951/ipdps-artifact/gapbs-master/src/pvector.h:73
    if (start_ != nullptr) {
  403e70:	48 8b 7c 24 20       	mov    0x20(%rsp),%rdi
  403e75:	48 85 ff             	test   %rdi,%rdi
  403e78:	74 05                	je     403e7f <_Z10PRVerifierRK8CSRGraphIiiLb1EERK7pvectorIfEd.cold+0x23>
/home/aliha951/ipdps-artifact/gapbs-master/src/pvector.h:74
      delete[] start_;
  403e7a:	e8 91 fc ff ff       	callq  403b10 <_ZdaPv@plt>
  403e7f:	48 89 ef             	mov    %rbp,%rdi
  403e82:	e8 79 fe ff ff       	callq  403d00 <_Unwind_Resume@plt>

0000000000403e87 <_Z14PrintTopScoresRK8CSRGraphIiiLb1EERK7pvectorIfE.cold>:
_ZNSt6vectorISt4pairIfiESaIS1_EED4Ev():
/usr/include/c++/10/bits/stl_vector.h:680
       *  not touched in any way.  Managing the pointer is the user's
       *  responsibility.
       */
      ~vector() _GLIBCXX_NOEXCEPT
      {
	std::_Destroy(this->_M_impl._M_start, this->_M_impl._M_finish,
  403e87:	48 8b 7c 24 20       	mov    0x20(%rsp),%rdi
_ZNSt12_Vector_baseISt4pairIfiESaIS1_EE13_M_deallocateEPS1_m():
/usr/include/c++/10/bits/stl_vector.h:353
	if (__p)
  403e8c:	48 85 ff             	test   %rdi,%rdi
  403e8f:	74 05                	je     403e96 <_Z14PrintTopScoresRK8CSRGraphIiiLb1EERK7pvectorIfE.cold+0xf>
_ZN9__gnu_cxx13new_allocatorISt4pairIfiEE10deallocateEPS2_m():
/usr/include/c++/10/ext/new_allocator.h:139
  403e91:	e8 2a fb ff ff       	callq  4039c0 <_ZdlPv@plt>
_ZNSt6vectorISt4pairIifESaIS1_EED4Ev():
/usr/include/c++/10/bits/stl_vector.h:680
	std::_Destroy(this->_M_impl._M_start, this->_M_impl._M_finish,
  403e96:	48 8b 3c 24          	mov    (%rsp),%rdi
_ZNSt12_Vector_baseISt4pairIifESaIS1_EE13_M_deallocateEPS1_m():
/usr/include/c++/10/bits/stl_vector.h:353
	if (__p)
  403e9a:	48 85 ff             	test   %rdi,%rdi
  403e9d:	74 05                	je     403ea4 <_Z14PrintTopScoresRK8CSRGraphIiiLb1EERK7pvectorIfE.cold+0x1d>
_ZN9__gnu_cxx13new_allocatorISt4pairIifEE10deallocateEPS2_m():
/usr/include/c++/10/ext/new_allocator.h:139
  403e9f:	e8 1c fb ff ff       	callq  4039c0 <_ZdlPv@plt>
_ZN9__gnu_cxx13new_allocatorISt4pairIifEED4Ev():
/usr/include/c++/10/ext/new_allocator.h:89
      ~new_allocator() _GLIBCXX_USE_NOEXCEPT { }
  403ea4:	48 89 ef             	mov    %rbp,%rdi
  403ea7:	e8 54 fe ff ff       	callq  403d00 <_Unwind_Resume@plt>

0000000000403eac <main.cold>:
_ZZN9__gnu_cxx6__stoaIddcJEEET0_PFT_PKT1_PPS3_DpT2_EPKcS5_PmS9_EN11_Save_errnoD4Ev():
/usr/include/c++/10/ext/string_conversions.h:64

      _CharT* __endptr;

      struct _Save_errno {
	_Save_errno() : _M_errno(errno) { errno = 0; }
	~_Save_errno() { if (errno == 0) errno = _M_errno; }
  403eac:	83 7d 00 00          	cmpl   $0x0,0x0(%rbp)
  403eb0:	75 06                	jne    403eb8 <main.cold+0xc>
  403eb2:	8b 04 24             	mov    (%rsp),%eax
  403eb5:	89 45 00             	mov    %eax,0x0(%rbp)
_ZNKSt7__cxx1112basic_stringIcSt11char_traitsIcESaIcEE7_M_dataEv():
/usr/include/c++/10/bits/basic_string.h:195
      { return _M_dataplus._M_p; }
  403eb8:	48 8b bc 24 e0 00 00 	mov    0xe0(%rsp),%rdi
  403ebf:	00 
_ZNSt7__cxx1112basic_stringIcSt11char_traitsIcESaIcEE10_M_disposeEv():
/usr/include/c++/10/bits/basic_string.h:239
	if (!_M_is_local())
  403ec0:	48 39 df             	cmp    %rbx,%rdi
  403ec3:	74 05                	je     403eca <main.cold+0x1e>
_ZN9__gnu_cxx13new_allocatorIcE10deallocateEPcm():
/usr/include/c++/10/ext/new_allocator.h:139
	::operator delete(__p
  403ec5:	e8 f6 fa ff ff       	callq  4039c0 <_ZdlPv@plt>
_ZN5CLAppD4Ev():
/home/aliha951/ipdps-artifact/gapbs-master/src/command_line.h:140
  int batching_mode() const { return batching_mode_; }
};



class CLApp : public CLBase {
  403eca:	48 8b 7c 24 18       	mov    0x18(%rsp),%rdi
  403ecf:	48 8d 05 1a 5c 01 00 	lea    0x15c1a(%rip),%rax        # 419af0 <_ZTV5CLApp+0x10>
  403ed6:	48 89 84 24 00 01 00 	mov    %rax,0x100(%rsp)
  403edd:	00 
  403ede:	e8 cd 66 00 00       	callq  40a5b0 <_ZN6CLBaseD1Ev>
  403ee3:	4c 89 e7             	mov    %r12,%rdi
  403ee6:	e8 15 fe ff ff       	callq  403d00 <_Unwind_Resume@plt>
_ZNKSt7__cxx1112basic_stringIcSt11char_traitsIcESaIcEE7_M_dataEv():
/usr/include/c++/10/bits/basic_string.h:195
      { return _M_dataplus._M_p; }
  403eeb:	48 8b bc 24 e0 00 00 	mov    0xe0(%rsp),%rdi
  403ef2:	00 
_ZNSt7__cxx1112basic_stringIcSt11char_traitsIcESaIcEE10_M_disposeEv():
/usr/include/c++/10/bits/basic_string.h:239
	if (!_M_is_local())
  403ef3:	48 39 df             	cmp    %rbx,%rdi
  403ef6:	74 05                	je     403efd <main.cold+0x51>
_ZN9__gnu_cxx13new_allocatorIcE10deallocateEPcm():
/usr/include/c++/10/ext/new_allocator.h:139
  403ef8:	e8 c3 fa ff ff       	callq  4039c0 <_ZdlPv@plt>
_ZN7pvectorIfE16ReleaseResourcesEv():
/home/aliha951/ipdps-artifact/gapbs-master/src/pvector.h:73
    if (start_ != nullptr) {
  403efd:	48 8b 7c 24 60       	mov    0x60(%rsp),%rdi
  403f02:	48 85 ff             	test   %rdi,%rdi
  403f05:	74 05                	je     403f0c <main.cold+0x60>
/home/aliha951/ipdps-artifact/gapbs-master/src/pvector.h:74
      delete[] start_;
  403f07:	e8 04 fc ff ff       	callq  403b10 <_ZdaPv@plt>
  403f0c:	48 89 eb             	mov    %rbp,%rbx
_ZN8CSRGraphIiiLb1EED4Ev():
/home/aliha951/ipdps-artifact/gapbs-master/src/graph.h:166
      other.in_index_ = nullptr;
      other.in_neighbors_ = nullptr;
  }

  ~CSRGraph() {
    ReleaseResources();
  403f0f:	4c 89 f7             	mov    %r14,%rdi
  403f12:	49 89 dc             	mov    %rbx,%r12
  403f15:	e8 f6 6d 00 00       	callq  40ad10 <_ZN8CSRGraphIiiLb1EE16ReleaseResourcesEv>
  403f1a:	eb ae                	jmp    403eca <main.cold+0x1e>
_ZNKSt7__cxx1112basic_stringIcSt11char_traitsIcESaIcEE7_M_dataEv():
/usr/include/c++/10/bits/basic_string.h:195
      { return _M_dataplus._M_p; }
  403f1c:	48 8b bc 24 e0 00 00 	mov    0xe0(%rsp),%rdi
  403f23:	00 
_ZNSt7__cxx1112basic_stringIcSt11char_traitsIcESaIcEE10_M_disposeEv():
/usr/include/c++/10/bits/basic_string.h:239
	if (!_M_is_local())
  403f24:	48 39 df             	cmp    %rbx,%rdi
  403f27:	74 05                	je     403f2e <main.cold+0x82>
_ZN9__gnu_cxx13new_allocatorIcE10deallocateEPcm():
/usr/include/c++/10/ext/new_allocator.h:139
  403f29:	e8 92 fa ff ff       	callq  4039c0 <_ZdlPv@plt>
_ZNKSt7__cxx1112basic_stringIcSt11char_traitsIcESaIcEE7_M_dataEv():
/usr/include/c++/10/bits/basic_string.h:195
      { return _M_dataplus._M_p; }
  403f2e:	48 8b bc 24 c0 00 00 	mov    0xc0(%rsp),%rdi
  403f35:	00 
_ZNSt7__cxx1112basic_stringIcSt11char_traitsIcESaIcEE10_M_disposeEv():
/usr/include/c++/10/bits/basic_string.h:239
	if (!_M_is_local())
  403f36:	48 39 ef             	cmp    %rbp,%rdi
  403f39:	74 05                	je     403f40 <main.cold+0x94>
_ZN9__gnu_cxx13new_allocatorIcE10deallocateEPcm():
/usr/include/c++/10/ext/new_allocator.h:139
  403f3b:	e8 80 fa ff ff       	callq  4039c0 <_ZdlPv@plt>
_ZN9__gnu_cxx13new_allocatorIcED4Ev():
/usr/include/c++/10/ext/new_allocator.h:89
      ~new_allocator() _GLIBCXX_USE_NOEXCEPT { }
  403f40:	4c 89 e5             	mov    %r12,%rbp
  403f43:	eb b8                	jmp    403efd <main.cold+0x51>
_ZNKSt7__cxx1112basic_stringIcSt11char_traitsIcESaIcEE7_M_dataEv():
/usr/include/c++/10/bits/basic_string.h:195
      { return _M_dataplus._M_p; }
  403f45:	48 8b bc 24 e0 00 00 	mov    0xe0(%rsp),%rdi
  403f4c:	00 
_ZNSt7__cxx1112basic_stringIcSt11char_traitsIcESaIcEE10_M_disposeEv():
/usr/include/c++/10/bits/basic_string.h:239
	if (!_M_is_local())
  403f4d:	48 8d 84 24 f0 00 00 	lea    0xf0(%rsp),%rax
  403f54:	00 
  403f55:	48 39 c7             	cmp    %rax,%rdi
  403f58:	74 05                	je     403f5f <main.cold+0xb3>
_ZN9__gnu_cxx13new_allocatorIcE10deallocateEPcm():
/usr/include/c++/10/ext/new_allocator.h:139
	::operator delete(__p
  403f5a:	e8 61 fa ff ff       	callq  4039c0 <_ZdlPv@plt>
_ZN9__gnu_cxx13new_allocatorIcED4Ev():
/usr/include/c++/10/ext/new_allocator.h:89
      ~new_allocator() _GLIBCXX_USE_NOEXCEPT { }
  403f5f:	48 89 ef             	mov    %rbp,%rdi
  403f62:	e8 99 fd ff ff       	callq  403d00 <_Unwind_Resume@plt>
_ZNKSt7__cxx1112basic_stringIcSt11char_traitsIcESaIcEE7_M_dataEv():
/usr/include/c++/10/bits/basic_string.h:195
      { return _M_dataplus._M_p; }
  403f67:	48 8b bc 24 e0 00 00 	mov    0xe0(%rsp),%rdi
  403f6e:	00 
_ZNSt7__cxx1112basic_stringIcSt11char_traitsIcESaIcEE10_M_disposeEv():
/usr/include/c++/10/bits/basic_string.h:239
	if (!_M_is_local())
  403f6f:	48 39 df             	cmp    %rbx,%rdi
  403f72:	74 89                	je     403efd <main.cold+0x51>
_ZN9__gnu_cxx13new_allocatorIcE10deallocateEPcm():
/usr/include/c++/10/ext/new_allocator.h:139
	::operator delete(__p
  403f74:	e8 47 fa ff ff       	callq  4039c0 <_ZdlPv@plt>
_ZNSt7__cxx1112basic_stringIcSt11char_traitsIcESaIcEE10_M_destroyEm():
/usr/include/c++/10/bits/basic_string.h:245
	  _M_destroy(_M_allocated_capacity);
      }

      void
      _M_destroy(size_type __size) throw()
      { _Alloc_traits::deallocate(_M_get_allocator(), _M_data(), __size + 1); }
  403f79:	eb 82                	jmp    403efd <main.cold+0x51>
_ZNKSt7__cxx1112basic_stringIcSt11char_traitsIcESaIcEE7_M_dataEv():
/usr/include/c++/10/bits/basic_string.h:195
      { return _M_dataplus._M_p; }
  403f7b:	48 8b bc 24 e0 00 00 	mov    0xe0(%rsp),%rdi
  403f82:	00 
_ZNSt7__cxx1112basic_stringIcSt11char_traitsIcESaIcEE10_M_disposeEv():
/usr/include/c++/10/bits/basic_string.h:239
	if (!_M_is_local())
  403f83:	48 39 df             	cmp    %rbx,%rdi
  403f86:	74 05                	je     403f8d <main.cold+0xe1>
_ZN9__gnu_cxx13new_allocatorIcE10deallocateEPcm():
/usr/include/c++/10/ext/new_allocator.h:139
  403f88:	e8 33 fa ff ff       	callq  4039c0 <_ZdlPv@plt>
_ZN9__gnu_cxx13new_allocatorIcED4Ev():
/usr/include/c++/10/ext/new_allocator.h:89
      ~new_allocator() _GLIBCXX_USE_NOEXCEPT { }
  403f8d:	48 89 eb             	mov    %rbp,%rbx
  403f90:	e9 7a ff ff ff       	jmpq   403f0f <main.cold+0x63>
main.cold():
  403f95:	66 2e 0f 1f 84 00 00 	nopw   %cs:0x0(%rax,%rax,1)
  403f9c:	00 00 00 
  403f9f:	90                   	nop

0000000000403fa0 <main>:
main():
/home/aliha951/ipdps-artifact/gapbs-master/src/pr_batching.cc:107
  PrintTime("Total Error", error);
  return error < target_error;
}


int main(int argc, char* argv[]) {
  403fa0:	f3 0f 1e fa          	endbr64 
  403fa4:	41 57                	push   %r15
  403fa6:	41 56                	push   %r14
  403fa8:	41 55                	push   %r13
  403faa:	41 54                	push   %r12
  403fac:	49 89 f4             	mov    %rsi,%r12
  403faf:	55                   	push   %rbp
  403fb0:	89 fd                	mov    %edi,%ebp
  403fb2:	53                   	push   %rbx
  403fb3:	48 81 ec e8 02 00 00 	sub    $0x2e8,%rsp
  403fba:	64 48 8b 04 25 28 00 	mov    %fs:0x28,%rax
  403fc1:	00 00 
  403fc3:	48 89 84 24 d8 02 00 	mov    %rax,0x2d8(%rsp)
  403fca:	00 
  403fcb:	31 c0                	xor    %eax,%eax
/home/aliha951/ipdps-artifact/gapbs-master/src/pr_batching.cc:109
  initialize_perf_measurements();
  CLPageRank cli(argc, argv, "pagerank", 1e-4, 20);
  403fcd:	4c 8d ac 24 e0 00 00 	lea    0xe0(%rsp),%r13
  403fd4:	00 
_Z28initialize_perf_measurementsv():
/home/aliha951/ipdps-artifact/gapbs-master/src/profiling_utils.h:169

/* Setup counters before any threads are created by omp
 * Must be called at the begining of the program.
*/
void initialize_perf_measurements(){
  perf_ctrs = setup_counters();
  403fd5:	e8 f6 2f 00 00       	callq  406fd0 <_Z14setup_countersv>
main():
/home/aliha951/ipdps-artifact/gapbs-master/src/pr_batching.cc:109
  403fda:	48 8d 35 df 12 01 00 	lea    0x112df(%rip),%rsi        # 4152c0 <_IO_stdin_used+0x2c0>
  403fe1:	4c 89 ef             	mov    %r13,%rdi
_Z28initialize_perf_measurementsv():
/home/aliha951/ipdps-artifact/gapbs-master/src/profiling_utils.h:169
  403fe4:	48 89 05 25 b1 01 00 	mov    %rax,0x1b125(%rip)        # 41f110 <perf_ctrs>
  403feb:	48 89 15 26 b1 01 00 	mov    %rdx,0x1b126(%rip)        # 41f118 <perf_ctrs+0x8>
main():
/home/aliha951/ipdps-artifact/gapbs-master/src/pr_batching.cc:109
  403ff2:	e8 19 23 00 00       	callq  406310 <_ZNSt7__cxx1112basic_stringIcSt11char_traitsIcESaIcEEC2EPKcRKS3_.constprop.0>
  403ff7:	41 b8 14 00 00 00    	mov    $0x14,%r8d
  403ffd:	4c 89 e9             	mov    %r13,%rcx
  404000:	89 ee                	mov    %ebp,%esi
  404002:	48 8d 84 24 00 01 00 	lea    0x100(%rsp),%rax
  404009:	00 
  40400a:	f2 0f 10 05 7e 22 01 	movsd  0x1227e(%rip),%xmm0        # 416290 <_ZZNSt8__detail18__to_chars_10_implIjEEvPcjT_E8__digits+0x2f0>
  404011:	00 
  404012:	4c 89 e2             	mov    %r12,%rdx
  404015:	48 89 c7             	mov    %rax,%rdi
  404018:	48 89 44 24 18       	mov    %rax,0x18(%rsp)
  40401d:	e8 ee 8f 00 00       	callq  40d010 <_ZN10CLPageRankC1EiPPcNSt7__cxx1112basic_stringIcSt11char_traitsIcESaIcEEEdi>
_ZNKSt7__cxx1112basic_stringIcSt11char_traitsIcESaIcEE7_M_dataEv():
/usr/include/c++/10/bits/basic_string.h:195
      { return _M_dataplus._M_p; }
  404022:	48 8b bc 24 e0 00 00 	mov    0xe0(%rsp),%rdi
  404029:	00 
_ZNSt7__cxx1112basic_stringIcSt11char_traitsIcESaIcEE10_M_disposeEv():
/usr/include/c++/10/bits/basic_string.h:239
	if (!_M_is_local())
  40402a:	48 8d 9c 24 f0 00 00 	lea    0xf0(%rsp),%rbx
  404031:	00 
  404032:	48 39 df             	cmp    %rbx,%rdi
  404035:	74 05                	je     40403c <main+0x9c>
_ZN9__gnu_cxx13new_allocatorIcE10deallocateEPcm():
/usr/include/c++/10/ext/new_allocator.h:139
	::operator delete(__p
  404037:	e8 84 f9 ff ff       	callq  4039c0 <_ZdlPv@plt>
_ZNSt7__cxx1112basic_stringIcSt11char_traitsIcESaIcEEaSEOS4_():
/usr/include/c++/10/bits/basic_string.h:745
	    || _M_get_allocator() == __str._M_get_allocator())
	  {
	    // Just move the allocated pointer, our allocator can free it.
	    pointer __data = nullptr;
	    size_type __capacity;
	    if (!_M_is_local())
  40403c:	48 8d 84 24 88 01 00 	lea    0x188(%rsp),%rax
  404043:	00 
_ZN5CLApp9HandleArgEaPc():
/home/aliha951/ipdps-artifact/gapbs-master/src/command_line.h:165
    AddHelpLine('p', "", "partial execution", "false");
    AddHelpLine('z', "", "pin vertex array in memory", "false");
  }

  void HandleArg(signed char opt, char* opt_arg) override {
    switch (opt) {
  404044:	4c 8d 3d 61 1e 01 00 	lea    0x11e61(%rip),%r15        # 415eac <_IO_stdin_used+0xeac>
_ZNSt7__cxx1112basic_stringIcSt11char_traitsIcESaIcEEaSEOS4_():
/usr/include/c++/10/bits/basic_string.h:745
  40404b:	48 89 44 24 08       	mov    %rax,0x8(%rsp)
  404050:	4c 8d a4 24 80 00 00 	lea    0x80(%rsp),%r12
  404057:	00 
  404058:	0f 1f 84 00 00 00 00 	nopl   0x0(%rax,%rax,1)
  40405f:	00 
_ZN6CLBase9ParseArgsEv():
/home/aliha951/ipdps-artifact/gapbs-master/src/command_line.h:87
    while ((c_opt = getopt(argc_, argv_, get_args_.c_str())) != -1) {
  404060:	48 8b 94 24 38 01 00 	mov    0x138(%rsp),%rdx
  404067:	00 
  404068:	48 8b b4 24 10 01 00 	mov    0x110(%rsp),%rsi
  40406f:	00 
  404070:	8b bc 24 08 01 00 00 	mov    0x108(%rsp),%edi
  404077:	e8 14 f7 ff ff       	callq  403790 <getopt@plt>
  40407c:	3c ff                	cmp    $0xff,%al
  40407e:	0f 84 14 01 00 00    	je     404198 <main+0x1f8>
/home/aliha951/ipdps-artifact/gapbs-master/src/command_line.h:88
      HandleArg(c_opt, optarg);
  404084:	48 8b 2d 35 63 01 00 	mov    0x16335(%rip),%rbp        # 41a3c0 <optarg@@GLIBC_2.2.5>
_ZN10CLPageRank9HandleArgEaPc():
/home/aliha951/ipdps-artifact/gapbs-master/src/command_line.h:229
                std::to_string(max_iters_));
    AddHelpLine('t', "t", "use tolerance t", std::to_string(tolerance_));
  }

  void HandleArg(signed char opt, char* opt_arg) override {
    switch (opt) {
  40408b:	3c 69                	cmp    $0x69,%al
  40408d:	74 21                	je     4040b0 <main+0x110>
  40408f:	3c 74                	cmp    $0x74,%al
  404091:	74 3d                	je     4040d0 <main+0x130>
_ZN5CLApp9HandleArgEaPc():
/home/aliha951/ipdps-artifact/gapbs-master/src/command_line.h:165
    switch (opt) {
  404093:	8d 50 9f             	lea    -0x61(%rax),%edx
  404096:	80 fa 19             	cmp    $0x19,%dl
  404099:	0f 87 89 06 00 00    	ja     404728 <main+0x788>
  40409f:	0f b6 d2             	movzbl %dl,%edx
  4040a2:	49 63 14 97          	movslq (%r15,%rdx,4),%rdx
  4040a6:	4c 01 fa             	add    %r15,%rdx
  4040a9:	3e ff e2             	notrack jmpq *%rdx
  4040ac:	0f 1f 40 00          	nopl   0x0(%rax)
main():
/usr/include/stdlib.h:363

#ifdef __USE_EXTERN_INLINES
__extern_inline int
__NTH (atoi (const char *__nptr))
{
  return (int) strtol (__nptr, (char **) NULL, 10);
  4040b0:	ba 0a 00 00 00       	mov    $0xa,%edx
atoi():
/usr/include/stdlib.h:363
  4040b5:	31 f6                	xor    %esi,%esi
  4040b7:	48 89 ef             	mov    %rbp,%rdi
  4040ba:	e8 b1 fa ff ff       	callq  403b70 <strtol@plt>
  4040bf:	89 84 24 c4 01 00 00 	mov    %eax,0x1c4(%rsp)
_ZN10CLPageRank9HandleArgEaPc():
/home/aliha951/ipdps-artifact/gapbs-master/src/command_line.h:230
      case 'i': max_iters_ = atoi(opt_arg);            break;
  4040c6:	eb 98                	jmp    404060 <main+0xc0>
  4040c8:	0f 1f 84 00 00 00 00 	nopl   0x0(%rax,%rax,1)
  4040cf:	00 
_ZNSt7__cxx1112basic_stringIcSt11char_traitsIcESaIcEE12_Alloc_hiderC4EPcRKS3_():
/usr/include/c++/10/bits/basic_string.h:165
	: allocator_type(__a), _M_p(__dat) { }
  4040d0:	48 89 9c 24 e0 00 00 	mov    %rbx,0xe0(%rsp)
  4040d7:	00 
_ZNSt7__cxx1112basic_stringIcSt11char_traitsIcESaIcEEC4EPKcRKS3_():
/usr/include/c++/10/bits/basic_string.h:536
	const _CharT* __end = __s ? __s + traits_type::length(__s)
  4040d8:	48 85 ed             	test   %rbp,%rbp
  4040db:	0f 84 51 0a 00 00    	je     404b32 <main+0xb92>
_ZNSt11char_traitsIcE6lengthEPKc():
/usr/include/c++/10/bits/char_traits.h:399
      {
#if __cplusplus >= 201703L
	if (__constant_string_p(__s))
	  return __gnu_cxx::char_traits<char_type>::length(__s);
#endif
	return __builtin_strlen(__s);
  4040e1:	48 89 ef             	mov    %rbp,%rdi
  4040e4:	e8 77 f7 ff ff       	callq  403860 <strlen@plt>
_ZNSt7__cxx1112basic_stringIcSt11char_traitsIcESaIcEE12_M_constructIPKcEEvT_S8_St20forward_iterator_tag():
/usr/include/c++/10/bits/basic_string.tcc:215
	// NB: Not required, but considered best practice.
	if (__gnu_cxx::__is_null_pointer(__beg) && __beg != __end)
	  std::__throw_logic_error(__N("basic_string::"
				       "_M_construct null not valid"));

	size_type __dnew = static_cast<size_type>(std::distance(__beg, __end));
  4040e9:	48 89 84 24 80 00 00 	mov    %rax,0x80(%rsp)
  4040f0:	00 
_ZNSt11char_traitsIcE6lengthEPKc():
/usr/include/c++/10/bits/char_traits.h:399
  4040f1:	49 89 c6             	mov    %rax,%r14
_ZNSt7__cxx1112basic_stringIcSt11char_traitsIcESaIcEE12_M_constructIPKcEEvT_S8_St20forward_iterator_tag():
/usr/include/c++/10/bits/basic_string.tcc:217

	if (__dnew > size_type(_S_local_capacity))
  4040f4:	48 83 f8 0f          	cmp    $0xf,%rax
  4040f8:	0f 87 e2 05 00 00    	ja     4046e0 <main+0x740>
_ZNSt7__cxx1112basic_stringIcSt11char_traitsIcESaIcEE7_S_copyEPcPKcm():
/usr/include/c++/10/bits/basic_string.h:356
	if (__n == 1)
  4040fe:	48 83 f8 01          	cmp    $0x1,%rax
  404102:	0f 85 c0 05 00 00    	jne    4046c8 <main+0x728>
_ZNSt11char_traitsIcE6assignERcRKc():
/usr/include/c++/10/bits/char_traits.h:357
      { __c1 = __c2; }
  404108:	0f b6 55 00          	movzbl 0x0(%rbp),%edx
  40410c:	88 94 24 f0 00 00 00 	mov    %dl,0xf0(%rsp)
  404113:	48 89 da             	mov    %rbx,%rdx
_ZNSt7__cxx1112basic_stringIcSt11char_traitsIcESaIcEE9_M_lengthEm():
/usr/include/c++/10/bits/basic_string.h:191
      { _M_string_length = __length; }
  404116:	48 89 84 24 e8 00 00 	mov    %rax,0xe8(%rsp)
  40411d:	00 
_ZNSt11char_traitsIcE6assignERcRKc():
/usr/include/c++/10/bits/char_traits.h:357
  40411e:	c6 04 02 00          	movb   $0x0,(%rdx,%rax,1)
_ZNKSt7__cxx1112basic_stringIcSt11char_traitsIcESaIcEE7_M_dataEv():
/usr/include/c++/10/bits/basic_string.h:195
      { return _M_dataplus._M_p; }
  404122:	4c 8b b4 24 e0 00 00 	mov    0xe0(%rsp),%r14
  404129:	00 
_ZZN9__gnu_cxx6__stoaIddcJEEET0_PFT_PKT1_PPS3_DpT2_EPKcS5_PmS9_EN11_Save_errnoC4Ev():
/usr/include/c++/10/ext/string_conversions.h:63
	_Save_errno() : _M_errno(errno) { errno = 0; }
  40412a:	e8 01 f6 ff ff       	callq  403730 <__errno_location@plt>
_ZN9__gnu_cxx6__stoaIddcJEEET0_PFT_PKT1_PPS3_DpT2_EPKcS5_PmS9_():
/usr/include/c++/10/ext/string_conversions.h:80
	    return __val < _TRet(__numeric_traits<int>::__min)
	      || __val > _TRet(__numeric_traits<int>::__max);
	  }
      };

      const _TRet __tmp = __convf(__str, &__endptr, __base...);
  40412f:	4c 89 e6             	mov    %r12,%rsi
  404132:	4c 89 f7             	mov    %r14,%rdi
_ZZN9__gnu_cxx6__stoaIddcJEEET0_PFT_PKT1_PPS3_DpT2_EPKcS5_PmS9_EN11_Save_errnoC4Ev():
/usr/include/c++/10/ext/string_conversions.h:63
	_Save_errno() : _M_errno(errno) { errno = 0; }
  404135:	48 89 c5             	mov    %rax,%rbp
  404138:	8b 00                	mov    (%rax),%eax
  40413a:	c7 45 00 00 00 00 00 	movl   $0x0,0x0(%rbp)
  404141:	89 04 24             	mov    %eax,(%rsp)
_ZN9__gnu_cxx6__stoaIddcJEEET0_PFT_PKT1_PPS3_DpT2_EPKcS5_PmS9_():
/usr/include/c++/10/ext/string_conversions.h:80
      const _TRet __tmp = __convf(__str, &__endptr, __base...);
  404144:	e8 e7 f7 ff ff       	callq  403930 <strtod@plt>
/usr/include/c++/10/ext/string_conversions.h:82

      if (__endptr == __str)
  404149:	4c 3b b4 24 80 00 00 	cmp    0x80(%rsp),%r14
  404150:	00 
  404151:	0f 84 7b 09 00 00    	je     404ad2 <main+0xb32>
/usr/include/c++/10/ext/string_conversions.h:84
	std::__throw_invalid_argument(__name);
      else if (errno == ERANGE
  404157:	8b 45 00             	mov    0x0(%rbp),%eax
/usr/include/c++/10/ext/string_conversions.h:85
	  || _Range_chk::_S_chk(__tmp, std::is_same<_Ret, int>{}))
  40415a:	83 f8 22             	cmp    $0x22,%eax
  40415d:	0f 84 7b 09 00 00    	je     404ade <main+0xb3e>
_ZZN9__gnu_cxx6__stoaIddcJEEET0_PFT_PKT1_PPS3_DpT2_EPKcS5_PmS9_EN11_Save_errnoD4Ev():
/usr/include/c++/10/ext/string_conversions.h:64
	~_Save_errno() { if (errno == 0) errno = _M_errno; }
  404163:	85 c0                	test   %eax,%eax
  404165:	75 06                	jne    40416d <main+0x1cd>
  404167:	8b 04 24             	mov    (%rsp),%eax
  40416a:	89 45 00             	mov    %eax,0x0(%rbp)
_ZNKSt7__cxx1112basic_stringIcSt11char_traitsIcESaIcEE7_M_dataEv():
/usr/include/c++/10/bits/basic_string.h:195
  40416d:	48 8b bc 24 e0 00 00 	mov    0xe0(%rsp),%rdi
  404174:	00 
_ZN10CLPageRank9HandleArgEaPc():
/home/aliha951/ipdps-artifact/gapbs-master/src/command_line.h:231
      case 't': tolerance_ = std::stod(opt_arg);            break;
  404175:	f2 0f 11 84 24 c8 01 	movsd  %xmm0,0x1c8(%rsp)
  40417c:	00 00 
_ZNSt7__cxx1112basic_stringIcSt11char_traitsIcESaIcEE10_M_disposeEv():
/usr/include/c++/10/bits/basic_string.h:239
	if (!_M_is_local())
  40417e:	48 39 df             	cmp    %rbx,%rdi
  404181:	0f 84 d9 fe ff ff    	je     404060 <main+0xc0>
_ZN9__gnu_cxx13new_allocatorIcE10deallocateEPcm():
/usr/include/c++/10/ext/new_allocator.h:139
  404187:	e8 34 f8 ff ff       	callq  4039c0 <_ZdlPv@plt>
_ZN6CLBase9HandleArgEaPc():
/home/aliha951/ipdps-artifact/gapbs-master/src/command_line.h:114
  }
  40418c:	e9 cf fe ff ff       	jmpq   404060 <main+0xc0>
  404191:	0f 1f 80 00 00 00 00 	nopl   0x0(%rax)
_ZSteqIcSt11char_traitsIcESaIcEEbRKNSt7__cxx1112basic_stringIT_T0_T1_EEPKS5_():
/usr/include/c++/10/bits/basic_string.h:6199
   */
  template<typename _CharT, typename _Traits, typename _Alloc>
    inline bool
    operator==(const basic_string<_CharT, _Traits, _Alloc>& __lhs,
	       const _CharT* __rhs)
    { return __lhs.compare(__rhs) == 0; }
  404198:	48 8d bc 24 78 01 00 	lea    0x178(%rsp),%rdi
  40419f:	00 
  4041a0:	48 8d 35 a4 10 01 00 	lea    0x110a4(%rip),%rsi        # 41524b <_IO_stdin_used+0x24b>
  4041a7:	e8 34 f6 ff ff       	callq  4037e0 <_ZNKSt7__cxx1112basic_stringIcSt11char_traitsIcESaIcEE7compareEPKc@plt>
_ZN6CLBase9ParseArgsEv():
/home/aliha951/ipdps-artifact/gapbs-master/src/command_line.h:90
    if ((filename_ == "") && (scale_ == -1)) {
  4041ac:	85 c0                	test   %eax,%eax
  4041ae:	0f 84 93 05 00 00    	je     404747 <main+0x7a7>
/home/aliha951/ipdps-artifact/gapbs-master/src/command_line.h:94
    if (scale_ != -1)
  4041b4:	83 bc 24 70 01 00 00 	cmpl   $0xffffffff,0x170(%rsp)
  4041bb:	ff 
  4041bc:	0f 85 97 05 00 00    	jne    404759 <main+0x7b9>
_ZN11BuilderBaseIiiiLb1EEC4ERK6CLBase():
/home/aliha951/ipdps-artifact/gapbs-master/src/builder.h:50
  bool needs_weights_;
  bool in_place_ = false;
  int64_t num_nodes_ = -1;

 public:
  explicit BuilderBase(const CLBase &cli) : cli_(cli) {
  4041c2:	48 8b 44 24 18       	mov    0x18(%rsp),%rax
main():
/home/aliha951/ipdps-artifact/gapbs-master/src/pr_batching.cc:114
  if (!cli.ParseArgs())
    return -1;

  Builder b(cli);
  Graph g = b.MakeGraph();
  4041c7:	48 8d 74 24 40       	lea    0x40(%rsp),%rsi
  4041cc:	4c 8d b4 24 80 00 00 	lea    0x80(%rsp),%r14
  4041d3:	00 
_ZN11BuilderBaseIiiiLb1EEC4ERK6CLBase():
/home/aliha951/ipdps-artifact/gapbs-master/src/builder.h:50
  4041d4:	48 c7 44 24 50 ff ff 	movq   $0xffffffffffffffff,0x50(%rsp)
  4041db:	ff ff 
main():
/home/aliha951/ipdps-artifact/gapbs-master/src/pr_batching.cc:114
  4041dd:	4c 89 f7             	mov    %r14,%rdi
_ZN11BuilderBaseIiiiLb1EEC4ERK6CLBase():
/home/aliha951/ipdps-artifact/gapbs-master/src/builder.h:52
    symmetrize_ = cli_.symmetrize();
    needs_weights_ = !std::is_same<NodeID_, DestID_>::value;
  4041e0:	c6 44 24 49 00       	movb   $0x0,0x49(%rsp)
/home/aliha951/ipdps-artifact/gapbs-master/src/builder.h:50
  explicit BuilderBase(const CLBase &cli) : cli_(cli) {
  4041e5:	48 89 44 24 40       	mov    %rax,0x40(%rsp)
/home/aliha951/ipdps-artifact/gapbs-master/src/builder.h:51
    symmetrize_ = cli_.symmetrize();
  4041ea:	0f b6 84 24 98 01 00 	movzbl 0x198(%rsp),%eax
  4041f1:	00 
  4041f2:	88 44 24 48          	mov    %al,0x48(%rsp)
/home/aliha951/ipdps-artifact/gapbs-master/src/builder.h:53
    in_place_ = cli_.in_place();
  4041f6:	0f b6 84 24 9a 01 00 	movzbl 0x19a(%rsp),%eax
  4041fd:	00 
  4041fe:	88 44 24 4a          	mov    %al,0x4a(%rsp)
main():
/home/aliha951/ipdps-artifact/gapbs-master/src/pr_batching.cc:114
  404202:	e8 d9 e9 00 00       	callq  412be0 <_ZN11BuilderBaseIiiiLb1EE9MakeGraphEv>
/home/aliha951/ipdps-artifact/gapbs-master/src/pr_batching.cc:122
  };
  auto VerifierBound = [&cli] (const Graph &g, const pvector<ScoreT> &scores) {
    return PRVerifier(g, scores, cli.tolerance());
  };

  if(cli.batching()){
  404207:	80 bc 24 9b 01 00 00 	cmpb   $0x0,0x19b(%rsp)
  40420e:	00 
  40420f:	0f 84 aa 00 00 00    	je     4042bf <main+0x31f>
/home/aliha951/ipdps-artifact/gapbs-master/src/pr_batching.cc:123
    pagefault_queue_size = cli.queue_size();
  404215:	48 63 84 24 a0 01 00 	movslq 0x1a0(%rsp),%rax
  40421c:	00 
  40421d:	48 89 05 6c 61 01 00 	mov    %rax,0x1616c(%rip)        # 41a390 <pagefault_queue_size>
/home/aliha951/ipdps-artifact/gapbs-master/src/pr_batching.cc:124
    batching_mode = cli.batching_mode();
  404224:	8b 84 24 ac 01 00 00 	mov    0x1ac(%rsp),%eax
  40422b:	89 05 5b 61 01 00    	mov    %eax,0x1615b(%rip)        # 41a38c <batching_mode>
/home/aliha951/ipdps-artifact/gapbs-master/src/pr_batching.cc:125
    allocate_pf_status_array();
  404231:	e8 2a 6a 00 00       	callq  40ac60 <_Z24allocate_pf_status_arrayv>
_Z16prepare_pmadvisev():
/home/aliha951/ipdps-artifact/gapbs-master/src/libpfq_pr.h:287
  touch_pages(pf_status_array, 32*1024*sizeof(int));
}

// Get file descriptor required for process_madvise and store it in pidfd
inline void prepare_pmadvise(){
  if(batching_mode == P_MADVISE){
  404236:	83 3d 4f 61 01 00 01 	cmpl   $0x1,0x1614f(%rip)        # 41a38c <batching_mode>
  40423d:	0f 84 8e 06 00 00    	je     4048d1 <main+0x931>
_Z24register_pf_status_arrayv():
/home/aliha951/ipdps-artifact/gapbs-master/src/libpfq_pr.h:295
  }
}

// syscall to register the page fault status array with the kernel
inline void register_pf_status_array(){
  syscall(550,pf_status_array,32*1024);
  404243:	48 8b 35 36 ab 01 00 	mov    0x1ab36(%rip),%rsi        # 41ed80 <pf_status_array>
  40424a:	ba 00 80 00 00       	mov    $0x8000,%edx
  40424f:	bf 26 02 00 00       	mov    $0x226,%edi
  404254:	31 c0                	xor    %eax,%eax
  404256:	e8 f5 f4 ff ff       	callq  403750 <syscall@plt>
main():
/home/aliha951/ipdps-artifact/gapbs-master/src/pr_batching.cc:128
    prepare_pmadvise();
    register_pf_status_array();
    unsigned long *ips = (unsigned long *)malloc(1 * sizeof(unsigned long));
  40425b:	bf 08 00 00 00       	mov    $0x8,%edi
  404260:	e8 db f8 ff ff       	callq  403b40 <malloc@plt>
/home/aliha951/ipdps-artifact/gapbs-master/src/pr_batching.cc:129
    unsigned long *ret_ips = (unsigned long *)malloc(1 * sizeof(unsigned long));
  404265:	bf 08 00 00 00       	mov    $0x8,%edi
/home/aliha951/ipdps-artifact/gapbs-master/src/pr_batching.cc:128
    unsigned long *ips = (unsigned long *)malloc(1 * sizeof(unsigned long));
  40426a:	48 89 c5             	mov    %rax,%rbp
/home/aliha951/ipdps-artifact/gapbs-master/src/pr_batching.cc:129
    unsigned long *ret_ips = (unsigned long *)malloc(1 * sizeof(unsigned long));
  40426d:	e8 ce f8 ff ff       	callq  403b40 <malloc@plt>
/home/aliha951/ipdps-artifact/gapbs-master/src/pr_batching.cc:130
    ips[0] = 0x405d0a;  // t maker
  404272:	48 c7 45 00 0a 5d 40 	movq   $0x405d0a,0x0(%rbp)
  404279:	00 
_Z23register_ips_and_retipsPmS_i():
/home/aliha951/ipdps-artifact/gapbs-master/src/libpfq_pr.h:300
}

// syscall to register the special PCs (ips) and their return PCs (ret_ips) with the kernel
inline void register_ips_and_retips(unsigned long *ips, unsigned long *ret_ips, int size){
  syscall(548, ips, ret_ips, size);
  40427a:	b9 01 00 00 00       	mov    $0x1,%ecx
  40427f:	48 89 ee             	mov    %rbp,%rsi
main():
/home/aliha951/ipdps-artifact/gapbs-master/src/pr_batching.cc:131
    ret_ips[0] = 0x3;
  404282:	48 c7 00 03 00 00 00 	movq   $0x3,(%rax)
/home/aliha951/ipdps-artifact/gapbs-master/src/pr_batching.cc:129
    unsigned long *ret_ips = (unsigned long *)malloc(1 * sizeof(unsigned long));
  404289:	48 89 c2             	mov    %rax,%rdx
_Z23register_ips_and_retipsPmS_i():
/home/aliha951/ipdps-artifact/gapbs-master/src/libpfq_pr.h:300
  40428c:	bf 24 02 00 00       	mov    $0x224,%edi
  404291:	31 c0                	xor    %eax,%eax
  404293:	e8 b8 f4 ff ff       	callq  403750 <syscall@plt>
_Z11touch_pagesPVim():
/home/aliha951/ipdps-artifact/gapbs-master/src/libpfq_pr.h:267
    for (size_t i = 0; i < num_ints; i += 32) {
  404298:	48 8b 05 e1 aa 01 00 	mov    0x1aae1(%rip),%rax        # 41ed80 <pf_status_array>
  40429f:	48 8d 90 00 00 02 00 	lea    0x20000(%rax),%rdx
  4042a6:	66 2e 0f 1f 84 00 00 	nopw   %cs:0x0(%rax,%rax,1)
  4042ad:	00 00 00 
/home/aliha951/ipdps-artifact/gapbs-master/src/libpfq_pr.h:268
        address[i] = 0;
  4042b0:	c7 00 00 00 00 00    	movl   $0x0,(%rax)
/home/aliha951/ipdps-artifact/gapbs-master/src/libpfq_pr.h:267
    for (size_t i = 0; i < num_ints; i += 32) {
  4042b6:	48 83 e8 80          	sub    $0xffffffffffffff80,%rax
  4042ba:	48 39 d0             	cmp    %rdx,%rax
  4042bd:	75 f1                	jne    4042b0 <main+0x310>
main():
/home/aliha951/ipdps-artifact/gapbs-master/src/benchmark.h:107
template<typename GraphT_, typename GraphFunc, typename AnalysisFunc,
         typename VerifierFunc>
void BenchmarkKernel(const CLApp &cli, const GraphT_ &g,
                     GraphFunc kernel, AnalysisFunc stats,
                     VerifierFunc verify) {
  g.PrintStats();
  4042bf:	4c 89 f7             	mov    %r14,%rdi
BenchmarkKernel<CSRGraph<int>, main(int, char**)::<lambda(const Graph&)>, void (*)(const CSRGraph<int>&, const pvector<float>&), main(int, char**)::<lambda(const Graph&, const pvector<float>&)> >():
/home/aliha951/ipdps-artifact/gapbs-master/src/benchmark.h:107
  4042c2:	e8 a9 6a 00 00       	callq  40ad70 <_ZNK8CSRGraphIiiLb1EE10PrintStatsEv>
_Z16start_disk_statsPKc():
/home/aliha951/ipdps-artifact/gapbs-master/src/profiling_utils.h:300
	fprintf(f, "%d", pid);
	fclose(f);
}

inline void start_disk_stats(const char* result_file_name){
  pid_t pid = fork();
  4042c7:	e8 04 f5 ff ff       	callq  4037d0 <fork@plt>
/home/aliha951/ipdps-artifact/gapbs-master/src/profiling_utils.h:301
  if (pid < 0) {
  4042cc:	85 c0                	test   %eax,%eax
  4042ce:	0f 88 72 08 00 00    	js     404b46 <main+0xba6>
/home/aliha951/ipdps-artifact/gapbs-master/src/profiling_utils.h:304
    perror("fork failed");
    exit(EXIT_FAILURE);
  } else if (pid == 0) { // Child process
  4042d4:	0f 84 10 08 00 00    	je     404aea <main+0xb4a>
/home/aliha951/ipdps-artifact/gapbs-master/src/profiling_utils.h:312
    execlp("/home/aliha951/ipdps-gapbs/gather_diskstats.sh", "/home/aliha951/ipdps-gapbs/gather_diskstats.sh", result_file_name, NULL);
    perror("execlp failed");
    exit(EXIT_FAILURE);
  }
  // Parent process continues
  diskstat_pid = pid;
  4042da:	89 05 bc 60 01 00    	mov    %eax,0x160bc(%rip)        # 41a39c <diskstat_pid>
BenchmarkKernel<CSRGraph<int>, main(int, char**)::<lambda(const Graph&)>, void (*)(const CSRGraph<int>&, const pvector<float>&), main(int, char**)::<lambda(const Graph&, const pvector<float>&)> >():
/home/aliha951/ipdps-artifact/gapbs-master/src/benchmark.h:114
  
  // adding profiling markers and rusage counters for performance analysis
  long long user_instructions, kernel_instructions,
              user_time, kernel_time;
  start_disk_stats("disk.stats");
  start_taskstats();                    
  4042e0:	e8 0b 36 00 00       	callq  4078f0 <_Z15start_taskstatsv>
/home/aliha951/ipdps-artifact/gapbs-master/src/benchmark.h:115
  snapshot_proc_pid(BEGIN);
  4042e5:	31 ff                	xor    %edi,%edi
  4042e7:	e8 74 63 00 00       	callq  40a660 <_Z17snapshot_proc_pid13SnapshotPoint>
/home/aliha951/ipdps-artifact/gapbs-master/src/benchmark.h:116
  snapshot_proc_stat(BEGIN);
  4042ec:	31 ff                	xor    %edi,%edi
  4042ee:	e8 9d 66 00 00       	callq  40a990 <_Z18snapshot_proc_stat13SnapshotPoint>
/home/aliha951/ipdps-artifact/gapbs-master/src/benchmark.h:117
  start_counters(&perf_ctrs);
  4042f3:	48 8d 3d 16 ae 01 00 	lea    0x1ae16(%rip),%rdi        # 41f110 <perf_ctrs>
  4042fa:	e8 d1 2e 00 00       	callq  4071d0 <_Z14start_countersP13perf_counters>
/home/aliha951/ipdps-artifact/gapbs-master/src/benchmark.h:118
  trace_marker("BenchmarkKernel_Start");
  4042ff:	48 8d 3d fe 0f 01 00 	lea    0x10ffe(%rip),%rdi        # 415304 <_IO_stdin_used+0x304>
  404306:	e8 f5 2b 00 00       	callq  406f00 <_Z12trace_markerPKc>
/home/aliha951/ipdps-artifact/gapbs-master/src/benchmark.h:119
  start_time_stats();
  40430b:	e8 a0 29 00 00       	callq  406cb0 <_Z16start_time_statsv>
_Z19ompt_mark_roi_startv():
/home/aliha951/ipdps-artifact/gapbs-master/src/../omp_runtime_visualizer/include/runtime_visualizer_utils.h:52
  printf("[OMPT_annotation] Thread %d Annotation at %.3f ms: %s\n", 
         thread_id, timestamp / 1000.0, annotation);
}

inline void ompt_mark_roi_start() {
  ompt_annotate("ROI_START");
  404310:	48 8d 3d 03 10 01 00 	lea    0x11003(%rip),%rdi        # 41531a <_IO_stdin_used+0x31a>
  404317:	e8 74 38 00 00       	callq  407b90 <_Z13ompt_annotatePKc>
BenchmarkKernel<CSRGraph<int>, main(int, char**)::<lambda(const Graph&)>, void (*)(const CSRGraph<int>&, const pvector<float>&), main(int, char**)::<lambda(const Graph&, const pvector<float>&)> >():
/home/aliha951/ipdps-artifact/gapbs-master/src/benchmark.h:123
  ompt_mark_roi_start();

  Timer trial_timer;
  for (int iter=0; iter < cli.num_trials(); iter++) {
  40431c:	8b 8c 24 b4 01 00 00 	mov    0x1b4(%rsp),%ecx
  404323:	85 c9                	test   %ecx,%ecx
  404325:	0f 8e 98 05 00 00    	jle    4048c3 <main+0x923>
_ZNSt7__cxx1112basic_stringIcSt11char_traitsIcESaIcEE12_Alloc_hiderC4EPcRKS3_():
/usr/include/c++/10/bits/basic_string.h:165
	: allocator_type(__a), _M_p(__dat) { }
  40432b:	48 8d 84 24 c0 00 00 	lea    0xc0(%rsp),%rax
  404332:	00 
BenchmarkKernel<CSRGraph<int>, main(int, char**)::<lambda(const Graph&)>, void (*)(const CSRGraph<int>&, const pvector<float>&), main(int, char**)::<lambda(const Graph&, const pvector<float>&)> >():
/home/aliha951/ipdps-artifact/gapbs-master/src/benchmark.h:108
  double total_seconds = 0;
  404333:	66 0f ef e4          	pxor   %xmm4,%xmm4
/home/aliha951/ipdps-artifact/gapbs-master/src/benchmark.h:123
  for (int iter=0; iter < cli.num_trials(); iter++) {
  404337:	45 31 e4             	xor    %r12d,%r12d
_ZNSt7__cxx1112basic_stringIcSt11char_traitsIcESaIcEE12_Alloc_hiderC4EPcRKS3_():
/usr/include/c++/10/bits/basic_string.h:165
  40433a:	48 89 44 24 10       	mov    %rax,0x10(%rsp)
  40433f:	4c 8d 7c 24 60       	lea    0x60(%rsp),%r15
BenchmarkKernel<CSRGraph<int>, main(int, char**)::<lambda(const Graph&)>, void (*)(const CSRGraph<int>&, const pvector<float>&), main(int, char**)::<lambda(const Graph&, const pvector<float>&)> >():
/home/aliha951/ipdps-artifact/gapbs-master/src/benchmark.h:108
  double total_seconds = 0;
  404344:	f2 0f 11 24 24       	movsd  %xmm4,(%rsp)
  404349:	0f 1f 80 00 00 00 00 	nopl   0x0(%rax)
_ZN5Timer5StartEv():
/home/aliha951/ipdps-artifact/gapbs-master/src/timer.h:23
class Timer {
 public:
  Timer() {}

  void Start() {
    elapsed_time_ = start_time_ = std::chrono::high_resolution_clock::now();
  404350:	e8 eb f3 ff ff       	callq  403740 <_ZNSt6chrono3_V212system_clock3nowEv@plt>
main():
/home/aliha951/ipdps-artifact/gapbs-master/src/pr_batching.cc:116
    return PageRankPullGS(g, cli.max_iters(), cli.tolerance(), cli.logging_en());
  404355:	0f b6 8c 24 c1 01 00 	movzbl 0x1c1(%rsp),%ecx
  40435c:	00 
operator()():
/home/aliha951/ipdps-artifact/gapbs-master/src/pr_batching.cc:116
  40435d:	4c 89 f6             	mov    %r14,%rsi
  404360:	4c 89 ff             	mov    %r15,%rdi
  404363:	f2 0f 10 84 24 c8 01 	movsd  0x1c8(%rsp),%xmm0
  40436a:	00 00 
  40436c:	8b 94 24 c4 01 00 00 	mov    0x1c4(%rsp),%edx
_ZN5Timer5StartEv():
/home/aliha951/ipdps-artifact/gapbs-master/src/timer.h:23
  404373:	48 89 c5             	mov    %rax,%rbp
operator()():
/home/aliha951/ipdps-artifact/gapbs-master/src/pr_batching.cc:116
  404376:	e8 c5 3c 00 00       	callq  408040 <_Z14PageRankPullGSRK8CSRGraphIiiLb1EEidb>
_ZN5Timer4StopEv():
/home/aliha951/ipdps-artifact/gapbs-master/src/timer.h:27
  }

  void Stop() {
    elapsed_time_ = std::chrono::high_resolution_clock::now();
  40437b:	e8 c0 f3 ff ff       	callq  403740 <_ZNSt6chrono3_V212system_clock3nowEv@plt>
_ZNSt6chrono20__duration_cast_implINS_8durationIdSt5ratioILl1ELl1EEEES2_ILl1ELl1000000000EEdLb1ELb0EE6__castIlS5_EES4_RKNS1_IT_T0_EE():
/usr/include/c++/10/chrono:214
	  static constexpr _ToDur
	  __cast(const duration<_Rep, _Period>& __d)
	  {
	    typedef typename _ToDur::rep			__to_rep;
	    return _ToDur(static_cast<__to_rep>(
	      static_cast<_CR>(__d.count()) / static_cast<_CR>(_CF::den)));
  404380:	66 0f ef c0          	pxor   %xmm0,%xmm0
_ZNSt11char_traitsIcE4copyEPcPKcm():
/usr/include/c++/10/bits/char_traits.h:437
	  return __s1;
#ifdef __cpp_lib_is_constant_evaluated
	if (std::is_constant_evaluated())
	  return __gnu_cxx::char_traits<char_type>::copy(__s1, __s2, __n);
#endif
	return static_cast<char_type*>(__builtin_memcpy(__s1, __s2, __n));
  404384:	ba 6d 65 00 00       	mov    $0x656d,%edx
BenchmarkKernel<CSRGraph<int>, main(int, char**)::<lambda(const Graph&)>, void (*)(const CSRGraph<int>&, const pvector<float>&), main(int, char**)::<lambda(const Graph&, const pvector<float>&)> >():
/home/aliha951/ipdps-artifact/gapbs-master/src/benchmark.h:127
    trial_timer.Start();
    auto result = kernel(g);
    trial_timer.Stop();
    PrintTime("Trial Time", trial_timer.Seconds());
  404389:	4c 89 ef             	mov    %r13,%rdi
_ZNSt6chronomiIlSt5ratioILl1ELl1000000000EElS2_EENSt11common_typeIJNS_8durationIT_T0_EENS4_IT1_T2_EEEE4typeERKS7_RKSA_():
/usr/include/c++/10/chrono:614
		const duration<_Rep2, _Period2>& __rhs)
      {
	typedef duration<_Rep1, _Period1>			__dur1;
	typedef duration<_Rep2, _Period2>			__dur2;
	typedef typename common_type<__dur1,__dur2>::type	__cd;
	return __cd(__cd(__lhs).count() - __cd(__rhs).count());
  40438c:	48 29 e8             	sub    %rbp,%rax
_ZNSt7__cxx1112basic_stringIcSt11char_traitsIcESaIcEE12_Alloc_hiderC4EPcRKS3_():
/usr/include/c++/10/bits/basic_string.h:165
  40438f:	48 89 9c 24 e0 00 00 	mov    %rbx,0xe0(%rsp)
  404396:	00 
_ZNSt6chrono20__duration_cast_implINS_8durationIdSt5ratioILl1ELl1EEEES2_ILl1ELl1000000000EEdLb1ELb0EE6__castIlS5_EES4_RKNS1_IT_T0_EE():
/usr/include/c++/10/chrono:214
	      static_cast<_CR>(__d.count()) / static_cast<_CR>(_CF::den)));
  404397:	f2 48 0f 2a c0       	cvtsi2sd %rax,%xmm0
_ZNSt11char_traitsIcE4copyEPcPKcm():
/usr/include/c++/10/bits/char_traits.h:437
  40439c:	66 89 53 08          	mov    %dx,0x8(%rbx)
  4043a0:	48 b8 54 72 69 61 6c 	movabs $0x6954206c61697254,%rax
  4043a7:	20 54 69 
_ZNSt6chrono20__duration_cast_implINS_8durationIdSt5ratioILl1ELl1EEEES2_ILl1ELl1000000000EEdLb1ELb0EE6__castIlS5_EES4_RKNS1_IT_T0_EE():
/usr/include/c++/10/chrono:214
  4043aa:	f2 0f 5e 05 d6 1e 01 	divsd  0x11ed6(%rip),%xmm0        # 416288 <_ZZNSt8__detail18__to_chars_10_implIjEEvPcjT_E8__digits+0x2e8>
  4043b1:	00 
_ZNSt11char_traitsIcE4copyEPcPKcm():
/usr/include/c++/10/bits/char_traits.h:437
  4043b2:	48 89 03             	mov    %rax,(%rbx)
_ZNSt6chrono20__duration_cast_implINS_8durationIdSt5ratioILl1ELl1EEEES2_ILl1ELl1000000000EEdLb1ELb0EE6__castIlS5_EES4_RKNS1_IT_T0_EE():
/usr/include/c++/10/chrono:214
  4043b5:	f2 0f 11 44 24 08    	movsd  %xmm0,0x8(%rsp)
_ZNSt7__cxx1112basic_stringIcSt11char_traitsIcESaIcEE9_M_lengthEm():
/usr/include/c++/10/bits/basic_string.h:191
      { _M_string_length = __length; }
  4043bb:	48 c7 84 24 e8 00 00 	movq   $0xa,0xe8(%rsp)
  4043c2:	00 0a 00 00 00 
_ZNSt11char_traitsIcE6assignERcRKc():
/usr/include/c++/10/bits/char_traits.h:357
      { __c1 = __c2; }
  4043c7:	c6 84 24 fa 00 00 00 	movb   $0x0,0xfa(%rsp)
  4043ce:	00 
BenchmarkKernel<CSRGraph<int>, main(int, char**)::<lambda(const Graph&)>, void (*)(const CSRGraph<int>&, const pvector<float>&), main(int, char**)::<lambda(const Graph&, const pvector<float>&)> >():
/home/aliha951/ipdps-artifact/gapbs-master/src/benchmark.h:127
  4043cf:	e8 3c 22 00 00       	callq  406610 <_Z9PrintTimeRKNSt7__cxx1112basic_stringIcSt11char_traitsIcESaIcEEEd>
_ZNKSt7__cxx1112basic_stringIcSt11char_traitsIcESaIcEE7_M_dataEv():
/usr/include/c++/10/bits/basic_string.h:195
      { return _M_dataplus._M_p; }
  4043d4:	48 8b bc 24 e0 00 00 	mov    0xe0(%rsp),%rdi
  4043db:	00 
_ZNSt7__cxx1112basic_stringIcSt11char_traitsIcESaIcEE10_M_disposeEv():
/usr/include/c++/10/bits/basic_string.h:239
	if (!_M_is_local())
  4043dc:	48 39 df             	cmp    %rbx,%rdi
  4043df:	74 05                	je     4043e6 <main+0x446>
_ZN9__gnu_cxx13new_allocatorIcE10deallocateEPcm():
/usr/include/c++/10/ext/new_allocator.h:139
  4043e1:	e8 da f5 ff ff       	callq  4039c0 <_ZdlPv@plt>
BenchmarkKernel<CSRGraph<int>, main(int, char**)::<lambda(const Graph&)>, void (*)(const CSRGraph<int>&, const pvector<float>&), main(int, char**)::<lambda(const Graph&, const pvector<float>&)> >():
/home/aliha951/ipdps-artifact/gapbs-master/src/benchmark.h:128
    total_seconds += trial_timer.Seconds();
  4043e6:	f2 0f 10 0c 24       	movsd  (%rsp),%xmm1
  4043eb:	f2 0f 58 4c 24 08    	addsd  0x8(%rsp),%xmm1
/home/aliha951/ipdps-artifact/gapbs-master/src/benchmark.h:129
    if (cli.do_analysis() && (iter == (cli.num_trials()-1)))
  4043f1:	80 bc 24 b0 01 00 00 	cmpb   $0x0,0x1b0(%rsp)
  4043f8:	00 
/home/aliha951/ipdps-artifact/gapbs-master/src/benchmark.h:128
    total_seconds += trial_timer.Seconds();
  4043f9:	f2 0f 11 0c 24       	movsd  %xmm1,(%rsp)
/home/aliha951/ipdps-artifact/gapbs-master/src/benchmark.h:129
    if (cli.do_analysis() && (iter == (cli.num_trials()-1)))
  4043fe:	74 13                	je     404413 <main+0x473>
  404400:	8b 84 24 b4 01 00 00 	mov    0x1b4(%rsp),%eax
  404407:	83 e8 01             	sub    $0x1,%eax
  40440a:	44 39 e0             	cmp    %r12d,%eax
  40440d:	0f 84 ed 03 00 00    	je     404800 <main+0x860>
/home/aliha951/ipdps-artifact/gapbs-master/src/benchmark.h:131
      stats(g, result);
    if (cli.do_verify()) {
  404413:	80 bc 24 c0 01 00 00 	cmpb   $0x0,0x1c0(%rsp)
  40441a:	00 
  40441b:	0f 84 54 01 00 00    	je     404575 <main+0x5d5>
_ZN5Timer5StartEv():
/home/aliha951/ipdps-artifact/gapbs-master/src/timer.h:23
    elapsed_time_ = start_time_ = std::chrono::high_resolution_clock::now();
  404421:	e8 1a f3 ff ff       	callq  403740 <_ZNSt6chrono3_V212system_clock3nowEv@plt>
main():
/home/aliha951/ipdps-artifact/gapbs-master/src/pr_batching.cc:119
    return PRVerifier(g, scores, cli.tolerance());
  404426:	4c 89 fe             	mov    %r15,%rsi
operator()():
/home/aliha951/ipdps-artifact/gapbs-master/src/pr_batching.cc:119
  404429:	4c 89 f7             	mov    %r14,%rdi
  40442c:	f2 0f 10 84 24 c8 01 	movsd  0x1c8(%rsp),%xmm0
  404433:	00 00 
_ZN5Timer5StartEv():
/home/aliha951/ipdps-artifact/gapbs-master/src/timer.h:23
  404435:	48 89 44 24 08       	mov    %rax,0x8(%rsp)
operator()():
/home/aliha951/ipdps-artifact/gapbs-master/src/pr_batching.cc:119
  40443a:	e8 31 40 00 00       	callq  408470 <_Z10PRVerifierRK8CSRGraphIiiLb1EERK7pvectorIfEd>
BenchmarkKernel<CSRGraph<int>, main(int, char**)::<lambda(const Graph&)>, void (*)(const CSRGraph<int>&, const pvector<float>&), main(int, char**)::<lambda(const Graph&, const pvector<float>&)> >():
/home/aliha951/ipdps-artifact/gapbs-master/src/benchmark.h:133
      trial_timer.Start();
      PrintLabel("Verification",
  40443f:	3c 01                	cmp    $0x1,%al
  404441:	48 8b 74 24 10       	mov    0x10(%rsp),%rsi
  404446:	4c 89 ef             	mov    %r13,%rdi
_ZNSt7__cxx1112basic_stringIcSt11char_traitsIcESaIcEE12_Alloc_hiderC4EPcRKS3_():
/usr/include/c++/10/bits/basic_string.h:165
	: allocator_type(__a), _M_p(__dat) { }
  404449:	48 89 9c 24 e0 00 00 	mov    %rbx,0xe0(%rsp)
  404450:	00 
BenchmarkKernel<CSRGraph<int>, main(int, char**)::<lambda(const Graph&)>, void (*)(const CSRGraph<int>&, const pvector<float>&), main(int, char**)::<lambda(const Graph&, const pvector<float>&)> >():
/home/aliha951/ipdps-artifact/gapbs-master/src/benchmark.h:133
  404451:	19 c0                	sbb    %eax,%eax
_ZNSt11char_traitsIcE4copyEPcPKcm():
/usr/include/c++/10/bits/char_traits.h:437
	return static_cast<char_type*>(__builtin_memcpy(__s1, __s2, __n));
  404453:	c7 43 08 74 69 6f 6e 	movl   $0x6e6f6974,0x8(%rbx)
_ZNSt7__cxx1112basic_stringIcSt11char_traitsIcESaIcEE12_Alloc_hiderC4EPcRKS3_():
/usr/include/c++/10/bits/basic_string.h:165
  40445a:	48 8d ac 24 d0 00 00 	lea    0xd0(%rsp),%rbp
  404461:	00 
BenchmarkKernel<CSRGraph<int>, main(int, char**)::<lambda(const Graph&)>, void (*)(const CSRGraph<int>&, const pvector<float>&), main(int, char**)::<lambda(const Graph&, const pvector<float>&)> >():
/home/aliha951/ipdps-artifact/gapbs-master/src/benchmark.h:133
  404462:	25 f6 ff f5 f8       	and    $0xf8f5fff6,%eax
_ZNSt7__cxx1112basic_stringIcSt11char_traitsIcESaIcEE12_Alloc_hiderC4EPcRKS3_():
/usr/include/c++/10/bits/basic_string.h:165
  404467:	48 89 ac 24 c0 00 00 	mov    %rbp,0xc0(%rsp)
  40446e:	00 
BenchmarkKernel<CSRGraph<int>, main(int, char**)::<lambda(const Graph&)>, void (*)(const CSRGraph<int>&, const pvector<float>&), main(int, char**)::<lambda(const Graph&, const pvector<float>&)> >():
/home/aliha951/ipdps-artifact/gapbs-master/src/benchmark.h:133
  40446f:	05 50 41 53 53       	add    $0x53534150,%eax
_ZNSt11char_traitsIcE6assignERcRKc():
/usr/include/c++/10/bits/char_traits.h:357
      { __c1 = __c2; }
  404474:	c6 84 24 d4 00 00 00 	movb   $0x0,0xd4(%rsp)
  40447b:	00 
_ZNSt11char_traitsIcE4copyEPcPKcm():
/usr/include/c++/10/bits/char_traits.h:437
	return static_cast<char_type*>(__builtin_memcpy(__s1, __s2, __n));
  40447c:	89 84 24 d0 00 00 00 	mov    %eax,0xd0(%rsp)
  404483:	48 b8 56 65 72 69 66 	movabs $0x6163696669726556,%rax
  40448a:	69 63 61 
  40448d:	48 89 03             	mov    %rax,(%rbx)
_ZNSt7__cxx1112basic_stringIcSt11char_traitsIcESaIcEE9_M_lengthEm():
/usr/include/c++/10/bits/basic_string.h:191
      { _M_string_length = __length; }
  404490:	48 c7 84 24 c8 00 00 	movq   $0x4,0xc8(%rsp)
  404497:	00 04 00 00 00 
  40449c:	48 c7 84 24 e8 00 00 	movq   $0xc,0xe8(%rsp)
  4044a3:	00 0c 00 00 00 
_ZNSt11char_traitsIcE6assignERcRKc():
/usr/include/c++/10/bits/char_traits.h:357
      { __c1 = __c2; }
  4044a8:	c6 84 24 fc 00 00 00 	movb   $0x0,0xfc(%rsp)
  4044af:	00 
BenchmarkKernel<CSRGraph<int>, main(int, char**)::<lambda(const Graph&)>, void (*)(const CSRGraph<int>&, const pvector<float>&), main(int, char**)::<lambda(const Graph&, const pvector<float>&)> >():
/home/aliha951/ipdps-artifact/gapbs-master/src/benchmark.h:133
  4044b0:	e8 eb 1f 00 00       	callq  4064a0 <_Z10PrintLabelRKNSt7__cxx1112basic_stringIcSt11char_traitsIcESaIcEEES6_>
_ZNKSt7__cxx1112basic_stringIcSt11char_traitsIcESaIcEE7_M_dataEv():
/usr/include/c++/10/bits/basic_string.h:195
      { return _M_dataplus._M_p; }
  4044b5:	48 8b bc 24 e0 00 00 	mov    0xe0(%rsp),%rdi
  4044bc:	00 
_ZNSt7__cxx1112basic_stringIcSt11char_traitsIcESaIcEE10_M_disposeEv():
/usr/include/c++/10/bits/basic_string.h:239
	if (!_M_is_local())
  4044bd:	48 39 df             	cmp    %rbx,%rdi
  4044c0:	74 05                	je     4044c7 <main+0x527>
_ZN9__gnu_cxx13new_allocatorIcE10deallocateEPcm():
/usr/include/c++/10/ext/new_allocator.h:139
  4044c2:	e8 f9 f4 ff ff       	callq  4039c0 <_ZdlPv@plt>
_ZNKSt7__cxx1112basic_stringIcSt11char_traitsIcESaIcEE7_M_dataEv():
/usr/include/c++/10/bits/basic_string.h:195
      { return _M_dataplus._M_p; }
  4044c7:	48 8b bc 24 c0 00 00 	mov    0xc0(%rsp),%rdi
  4044ce:	00 
_ZNSt7__cxx1112basic_stringIcSt11char_traitsIcESaIcEE10_M_disposeEv():
/usr/include/c++/10/bits/basic_string.h:239
	if (!_M_is_local())
  4044cf:	48 39 ef             	cmp    %rbp,%rdi
  4044d2:	74 05                	je     4044d9 <main+0x539>
_ZN9__gnu_cxx13new_allocatorIcE10deallocateEPcm():
/usr/include/c++/10/ext/new_allocator.h:139
  4044d4:	e8 e7 f4 ff ff       	callq  4039c0 <_ZdlPv@plt>
_ZN5Timer4StopEv():
/home/aliha951/ipdps-artifact/gapbs-master/src/timer.h:27
    elapsed_time_ = std::chrono::high_resolution_clock::now();
  4044d9:	e8 62 f2 ff ff       	callq  403740 <_ZNSt6chrono3_V212system_clock3nowEv@plt>
_ZNSt6chrono20__duration_cast_implINS_8durationIdSt5ratioILl1ELl1EEEES2_ILl1ELl1000000000EEdLb1ELb0EE6__castIlS5_EES4_RKNS1_IT_T0_EE():
/usr/include/c++/10/chrono:214
  4044de:	66 0f ef c0          	pxor   %xmm0,%xmm0
_ZNSt6chronomiIlSt5ratioILl1ELl1000000000EElS2_EENSt11common_typeIJNS_8durationIT_T0_EENS4_IT1_T2_EEEE4typeERKS7_RKSA_():
/usr/include/c++/10/chrono:614
	return __cd(__cd(__lhs).count() - __cd(__rhs).count());
  4044e2:	48 2b 44 24 08       	sub    0x8(%rsp),%rax
_ZNSt7__cxx1112basic_stringIcSt11char_traitsIcESaIcEE12_M_constructIPKcEEvT_S8_St20forward_iterator_tag():
/usr/include/c++/10/bits/basic_string.tcc:219
	  {
	    _M_data(_M_create(__dnew, size_type(0)));
  4044e7:	31 d2                	xor    %edx,%edx
  4044e9:	48 8d 74 24 38       	lea    0x38(%rsp),%rsi
  4044ee:	4c 89 ef             	mov    %r13,%rdi
_ZNSt7__cxx1112basic_stringIcSt11char_traitsIcESaIcEE12_Alloc_hiderC4EPcRKS3_():
/usr/include/c++/10/bits/basic_string.h:165
	: allocator_type(__a), _M_p(__dat) { }
  4044f1:	48 89 9c 24 e0 00 00 	mov    %rbx,0xe0(%rsp)
  4044f8:	00 
_ZNSt7__cxx1112basic_stringIcSt11char_traitsIcESaIcEE12_M_constructIPKcEEvT_S8_St20forward_iterator_tag():
/usr/include/c++/10/bits/basic_string.tcc:215
	size_type __dnew = static_cast<size_type>(std::distance(__beg, __end));
  4044f9:	48 c7 44 24 38 11 00 	movq   $0x11,0x38(%rsp)
  404500:	00 00 
_ZNSt6chrono20__duration_cast_implINS_8durationIdSt5ratioILl1ELl1EEEES2_ILl1ELl1000000000EEdLb1ELb0EE6__castIlS5_EES4_RKNS1_IT_T0_EE():
/usr/include/c++/10/chrono:214
	      static_cast<_CR>(__d.count()) / static_cast<_CR>(_CF::den)));
  404502:	f2 48 0f 2a c0       	cvtsi2sd %rax,%xmm0
  404507:	f2 0f 5e 05 79 1d 01 	divsd  0x11d79(%rip),%xmm0        # 416288 <_ZZNSt8__detail18__to_chars_10_implIjEEvPcjT_E8__digits+0x2e8>
  40450e:	00 
  40450f:	66 48 0f 7e c5       	movq   %xmm0,%rbp
_ZNSt7__cxx1112basic_stringIcSt11char_traitsIcESaIcEE12_M_constructIPKcEEvT_S8_St20forward_iterator_tag():
/usr/include/c++/10/bits/basic_string.tcc:219
	    _M_data(_M_create(__dnew, size_type(0)));
  404514:	e8 07 f8 ff ff       	callq  403d20 <_ZNSt7__cxx1112basic_stringIcSt11char_traitsIcESaIcEE9_M_createERmm@plt>
_ZNSt7__cxx1112basic_stringIcSt11char_traitsIcESaIcEE11_M_capacityEm():
/usr/include/c++/10/bits/basic_string.h:219
      { _M_allocated_capacity = __capacity; }
  404519:	48 8b 54 24 38       	mov    0x38(%rsp),%rdx
_ZNSt11char_traitsIcE4copyEPcPKcm():
/usr/include/c++/10/bits/char_traits.h:437
	return static_cast<char_type*>(__builtin_memcpy(__s1, __s2, __n));
  40451e:	66 0f 6f 05 0a 1d 01 	movdqa 0x11d0a(%rip),%xmm0        # 416230 <_ZZNSt8__detail18__to_chars_10_implIjEEvPcjT_E8__digits+0x290>
  404525:	00 
_ZNSt7__cxx1112basic_stringIcSt11char_traitsIcESaIcEE7_M_dataEPc():
/usr/include/c++/10/bits/basic_string.h:187
      { _M_dataplus._M_p = __p; }
  404526:	48 89 84 24 e0 00 00 	mov    %rax,0xe0(%rsp)
  40452d:	00 
BenchmarkKernel<CSRGraph<int>, main(int, char**)::<lambda(const Graph&)>, void (*)(const CSRGraph<int>&, const pvector<float>&), main(int, char**)::<lambda(const Graph&, const pvector<float>&)> >():
/home/aliha951/ipdps-artifact/gapbs-master/src/benchmark.h:136
                 verify(std::ref(g), std::ref(result)) ? "PASS" : "FAIL");
      trial_timer.Stop();
      PrintTime("Verification Time", trial_timer.Seconds());
  40452e:	4c 89 ef             	mov    %r13,%rdi
_ZNSt7__cxx1112basic_stringIcSt11char_traitsIcESaIcEE11_M_capacityEm():
/usr/include/c++/10/bits/basic_string.h:219
      { _M_allocated_capacity = __capacity; }
  404531:	48 89 94 24 f0 00 00 	mov    %rdx,0xf0(%rsp)
  404538:	00 
_ZNSt11char_traitsIcE4copyEPcPKcm():
/usr/include/c++/10/bits/char_traits.h:437
  404539:	0f 11 00             	movups %xmm0,(%rax)
BenchmarkKernel<CSRGraph<int>, main(int, char**)::<lambda(const Graph&)>, void (*)(const CSRGraph<int>&, const pvector<float>&), main(int, char**)::<lambda(const Graph&, const pvector<float>&)> >():
/home/aliha951/ipdps-artifact/gapbs-master/src/benchmark.h:136
  40453c:	66 48 0f 6e c5       	movq   %rbp,%xmm0
_ZNSt11char_traitsIcE4copyEPcPKcm():
/usr/include/c++/10/bits/char_traits.h:437
  404541:	c6 40 10 65          	movb   $0x65,0x10(%rax)
_ZNSt7__cxx1112basic_stringIcSt11char_traitsIcESaIcEE12_M_constructIPKcEEvT_S8_St20forward_iterator_tag():
/usr/include/c++/10/bits/basic_string.tcc:232
	  {
	    _M_dispose();
	    __throw_exception_again;
	  }

	_M_set_length(__dnew);
  404545:	48 8b 44 24 38       	mov    0x38(%rsp),%rax
_ZNSt11char_traitsIcE6assignERcRKc():
/usr/include/c++/10/bits/char_traits.h:357
      { __c1 = __c2; }
  40454a:	48 8b 94 24 e0 00 00 	mov    0xe0(%rsp),%rdx
  404551:	00 
_ZNSt7__cxx1112basic_stringIcSt11char_traitsIcESaIcEE9_M_lengthEm():
/usr/include/c++/10/bits/basic_string.h:191
      { _M_string_length = __length; }
  404552:	48 89 84 24 e8 00 00 	mov    %rax,0xe8(%rsp)
  404559:	00 
_ZNSt11char_traitsIcE6assignERcRKc():
/usr/include/c++/10/bits/char_traits.h:357
  40455a:	c6 04 02 00          	movb   $0x0,(%rdx,%rax,1)
BenchmarkKernel<CSRGraph<int>, main(int, char**)::<lambda(const Graph&)>, void (*)(const CSRGraph<int>&, const pvector<float>&), main(int, char**)::<lambda(const Graph&, const pvector<float>&)> >():
/home/aliha951/ipdps-artifact/gapbs-master/src/benchmark.h:136
  40455e:	e8 ad 20 00 00       	callq  406610 <_Z9PrintTimeRKNSt7__cxx1112basic_stringIcSt11char_traitsIcESaIcEEEd>
_ZNKSt7__cxx1112basic_stringIcSt11char_traitsIcESaIcEE7_M_dataEv():
/usr/include/c++/10/bits/basic_string.h:195
      { return _M_dataplus._M_p; }
  404563:	48 8b bc 24 e0 00 00 	mov    0xe0(%rsp),%rdi
  40456a:	00 
_ZNSt7__cxx1112basic_stringIcSt11char_traitsIcESaIcEE10_M_disposeEv():
/usr/include/c++/10/bits/basic_string.h:239
	if (!_M_is_local())
  40456b:	48 39 df             	cmp    %rbx,%rdi
  40456e:	74 05                	je     404575 <main+0x5d5>
_ZN9__gnu_cxx13new_allocatorIcE10deallocateEPcm():
/usr/include/c++/10/ext/new_allocator.h:139
  404570:	e8 4b f4 ff ff       	callq  4039c0 <_ZdlPv@plt>
BenchmarkKernel<CSRGraph<int>, main(int, char**)::<lambda(const Graph&)>, void (*)(const CSRGraph<int>&, const pvector<float>&), main(int, char**)::<lambda(const Graph&, const pvector<float>&)> >():
/home/aliha951/ipdps-artifact/gapbs-master/src/benchmark.h:138
    }
    ompt_annotate("Trial End");
  404575:	48 8d 3d a8 0d 01 00 	lea    0x10da8(%rip),%rdi        # 415324 <_IO_stdin_used+0x324>
  40457c:	e8 0f 36 00 00       	callq  407b90 <_Z13ompt_annotatePKc>
_ZN7pvectorIfE16ReleaseResourcesEv():
/home/aliha951/ipdps-artifact/gapbs-master/src/pvector.h:73
    if (start_ != nullptr) {
  404581:	48 8b 7c 24 60       	mov    0x60(%rsp),%rdi
  404586:	48 85 ff             	test   %rdi,%rdi
  404589:	0f 84 51 02 00 00    	je     4047e0 <main+0x840>
/home/aliha951/ipdps-artifact/gapbs-master/src/pvector.h:74
      delete[] start_;
  40458f:	e8 7c f5 ff ff       	callq  403b10 <_ZdaPv@plt>
BenchmarkKernel<CSRGraph<int>, main(int, char**)::<lambda(const Graph&)>, void (*)(const CSRGraph<int>&, const pvector<float>&), main(int, char**)::<lambda(const Graph&, const pvector<float>&)> >():
/home/aliha951/ipdps-artifact/gapbs-master/src/benchmark.h:123
  for (int iter=0; iter < cli.num_trials(); iter++) {
  404594:	41 83 c4 01          	add    $0x1,%r12d
  404598:	44 3b a4 24 b4 01 00 	cmp    0x1b4(%rsp),%r12d
  40459f:	00 
  4045a0:	0f 8c aa fd ff ff    	jl     404350 <main+0x3b0>
_Z17ompt_mark_roi_endv():
/home/aliha951/ipdps-artifact/gapbs-master/src/../omp_runtime_visualizer/include/runtime_visualizer_utils.h:56
}

inline void ompt_mark_roi_end() {
  ompt_annotate("ROI_END");
  4045a6:	48 8d 3d 81 0d 01 00 	lea    0x10d81(%rip),%rdi        # 41532e <_IO_stdin_used+0x32e>
  4045ad:	e8 de 35 00 00       	callq  407b90 <_Z13ompt_annotatePKc>
BenchmarkKernel<CSRGraph<int>, main(int, char**)::<lambda(const Graph&)>, void (*)(const CSRGraph<int>&, const pvector<float>&), main(int, char**)::<lambda(const Graph&, const pvector<float>&)> >():
/home/aliha951/ipdps-artifact/gapbs-master/src/benchmark.h:143
  }
  
  // adding profiling markers and rusage counters for performance analysis
  ompt_mark_roi_end();
  stop_time_stats();
  4045b2:	e8 29 27 00 00       	callq  406ce0 <_Z15stop_time_statsv>
/home/aliha951/ipdps-artifact/gapbs-master/src/benchmark.h:144
  trace_marker("BenchmarkKernel_End");
  4045b7:	48 8d 3d 78 0d 01 00 	lea    0x10d78(%rip),%rdi        # 415336 <_IO_stdin_used+0x336>
  4045be:	e8 3d 29 00 00       	callq  406f00 <_Z12trace_markerPKc>
/home/aliha951/ipdps-artifact/gapbs-master/src/benchmark.h:145
  stop_counters(&perf_ctrs, &user_time, &kernel_time ,&user_instructions, &kernel_instructions);
  4045c3:	48 8d 4c 24 28       	lea    0x28(%rsp),%rcx
  4045c8:	48 8d 54 24 60       	lea    0x60(%rsp),%rdx
  4045cd:	48 8d 74 24 38       	lea    0x38(%rsp),%rsi
  4045d2:	4c 8d 44 24 30       	lea    0x30(%rsp),%r8
  4045d7:	48 8d 3d 32 ab 01 00 	lea    0x1ab32(%rip),%rdi        # 41f110 <perf_ctrs>
  4045de:	e8 7d 2d 00 00       	callq  407360 <_Z13stop_countersP13perf_countersPxS1_S1_S1_>
/home/aliha951/ipdps-artifact/gapbs-master/src/benchmark.h:146
  snapshot_proc_stat(END);
  4045e3:	bf 01 00 00 00       	mov    $0x1,%edi
  4045e8:	e8 a3 63 00 00       	callq  40a990 <_Z18snapshot_proc_stat13SnapshotPoint>
/home/aliha951/ipdps-artifact/gapbs-master/src/benchmark.h:147
  snapshot_proc_pid(END);
  4045ed:	bf 01 00 00 00       	mov    $0x1,%edi
  4045f2:	e8 69 60 00 00       	callq  40a660 <_Z17snapshot_proc_pid13SnapshotPoint>
/home/aliha951/ipdps-artifact/gapbs-master/src/benchmark.h:148
  stop_taskstats();
  4045f7:	e8 34 33 00 00       	callq  407930 <_Z14stop_taskstatsv>
_Z15stop_disk_statsv():
/home/aliha951/ipdps-artifact/gapbs-master/src/profiling_utils.h:316
}

inline void stop_disk_stats() {
  if (diskstat_pid > 0) {
  4045fc:	8b 05 9a 5d 01 00    	mov    0x15d9a(%rip),%eax        # 41a39c <diskstat_pid>
  404602:	85 c0                	test   %eax,%eax
  404604:	0f 8f 06 02 00 00    	jg     404810 <main+0x870>
BenchmarkKernel<CSRGraph<int>, main(int, char**)::<lambda(const Graph&)>, void (*)(const CSRGraph<int>&, const pvector<float>&), main(int, char**)::<lambda(const Graph&, const pvector<float>&)> >():
/home/aliha951/ipdps-artifact/gapbs-master/src/benchmark.h:150
  stop_disk_stats();
  cleanup_counters(&perf_ctrs);
  40460a:	48 8d 3d ff aa 01 00 	lea    0x1aaff(%rip),%rdi        # 41f110 <perf_ctrs>
  404611:	e8 8a 2f 00 00       	callq  4075a0 <_Z16cleanup_countersP13perf_counters>
/home/aliha951/ipdps-artifact/gapbs-master/src/benchmark.h:151
  measure_time_stats();
  404616:	e8 f5 26 00 00       	callq  406d10 <_Z18measure_time_statsv>
/home/aliha951/ipdps-artifact/gapbs-master/src/benchmark.h:153

  PrintTime("Average Time", total_seconds / cli.num_trials());
  40461b:	66 0f ef c0          	pxor   %xmm0,%xmm0
  40461f:	f2 0f 10 1c 24       	movsd  (%rsp),%xmm3
  404624:	48 8d 35 1f 0d 01 00 	lea    0x10d1f(%rip),%rsi        # 41534a <_IO_stdin_used+0x34a>
  40462b:	4c 89 ef             	mov    %r13,%rdi
  40462e:	f2 0f 2a 84 24 b4 01 	cvtsi2sdl 0x1b4(%rsp),%xmm0
  404635:	00 00 
  404637:	f2 0f 5e d8          	divsd  %xmm0,%xmm3
  40463b:	66 48 0f 7e dd       	movq   %xmm3,%rbp
  404640:	e8 cb 1c 00 00       	callq  406310 <_ZNSt7__cxx1112basic_stringIcSt11char_traitsIcESaIcEEC2EPKcRKS3_.constprop.0>
  404645:	66 48 0f 6e c5       	movq   %rbp,%xmm0
  40464a:	4c 89 ef             	mov    %r13,%rdi
  40464d:	e8 be 1f 00 00       	callq  406610 <_Z9PrintTimeRKNSt7__cxx1112basic_stringIcSt11char_traitsIcESaIcEEEd>
_ZNKSt7__cxx1112basic_stringIcSt11char_traitsIcESaIcEE7_M_dataEv():
/usr/include/c++/10/bits/basic_string.h:195
      { return _M_dataplus._M_p; }
  404652:	48 8b bc 24 e0 00 00 	mov    0xe0(%rsp),%rdi
  404659:	00 
_ZNSt7__cxx1112basic_stringIcSt11char_traitsIcESaIcEE10_M_disposeEv():
/usr/include/c++/10/bits/basic_string.h:239
	if (!_M_is_local())
  40465a:	48 39 df             	cmp    %rbx,%rdi
  40465d:	74 05                	je     404664 <main+0x6c4>
_ZN9__gnu_cxx13new_allocatorIcE10deallocateEPcm():
/usr/include/c++/10/ext/new_allocator.h:139
  40465f:	e8 5c f3 ff ff       	callq  4039c0 <_ZdlPv@plt>
main():
/home/aliha951/ipdps-artifact/gapbs-master/src/pr_batching.cc:140
    touch_ips(ips, ret_ips, 2);
  }

  BenchmarkKernel(cli, g, PRBound, PrintTopScores, VerifierBound);

  if(cli.batching()){
  404664:	80 bc 24 9b 01 00 00 	cmpb   $0x0,0x19b(%rsp)
  40466b:	00 
  40466c:	0f 85 e5 01 00 00    	jne    404857 <main+0x8b7>
_ZN8CSRGraphIiiLb1EED4Ev():
/home/aliha951/ipdps-artifact/gapbs-master/src/graph.h:166
  404672:	4c 89 f7             	mov    %r14,%rdi
main():
/home/aliha951/ipdps-artifact/gapbs-master/src/pr_batching.cc:143
    unregister_and_free_arrays();
  }
  return 0;
  404675:	45 31 e4             	xor    %r12d,%r12d
_ZN8CSRGraphIiiLb1EED4Ev():
/home/aliha951/ipdps-artifact/gapbs-master/src/graph.h:166
  404678:	e8 93 66 00 00       	callq  40ad10 <_ZN8CSRGraphIiiLb1EE16ReleaseResourcesEv>
_ZN5CLAppD4Ev():
/home/aliha951/ipdps-artifact/gapbs-master/src/command_line.h:140
class CLApp : public CLBase {
  40467d:	48 8b 7c 24 18       	mov    0x18(%rsp),%rdi
  404682:	48 8d 05 67 54 01 00 	lea    0x15467(%rip),%rax        # 419af0 <_ZTV5CLApp+0x10>
  404689:	48 89 84 24 00 01 00 	mov    %rax,0x100(%rsp)
  404690:	00 
  404691:	e8 1a 5f 00 00       	callq  40a5b0 <_ZN6CLBaseD1Ev>
main():
/home/aliha951/ipdps-artifact/gapbs-master/src/pr_batching.cc:144
}
  404696:	48 8b 84 24 d8 02 00 	mov    0x2d8(%rsp),%rax
  40469d:	00 
  40469e:	64 48 2b 04 25 28 00 	sub    %fs:0x28,%rax
  4046a5:	00 00 
  4046a7:	0f 85 80 04 00 00    	jne    404b2d <main+0xb8d>
  4046ad:	48 81 c4 e8 02 00 00 	add    $0x2e8,%rsp
  4046b4:	44 89 e0             	mov    %r12d,%eax
  4046b7:	5b                   	pop    %rbx
  4046b8:	5d                   	pop    %rbp
  4046b9:	41 5c                	pop    %r12
  4046bb:	41 5d                	pop    %r13
  4046bd:	41 5e                	pop    %r14
  4046bf:	41 5f                	pop    %r15
  4046c1:	c3                   	retq   
  4046c2:	66 0f 1f 44 00 00    	nopw   0x0(%rax,%rax,1)
_ZNSt11char_traitsIcE4copyEPcPKcm():
/usr/include/c++/10/bits/char_traits.h:431
	if (__n == 0)
  4046c8:	48 85 c0             	test   %rax,%rax
  4046cb:	0f 85 6d 04 00 00    	jne    404b3e <main+0xb9e>
  4046d1:	48 89 da             	mov    %rbx,%rdx
  4046d4:	e9 3d fa ff ff       	jmpq   404116 <main+0x176>
  4046d9:	0f 1f 80 00 00 00 00 	nopl   0x0(%rax)
_ZNSt7__cxx1112basic_stringIcSt11char_traitsIcESaIcEE12_M_constructIPKcEEvT_S8_St20forward_iterator_tag():
/usr/include/c++/10/bits/basic_string.tcc:219
	    _M_data(_M_create(__dnew, size_type(0)));
  4046e0:	31 d2                	xor    %edx,%edx
  4046e2:	4c 89 e6             	mov    %r12,%rsi
  4046e5:	4c 89 ef             	mov    %r13,%rdi
  4046e8:	e8 33 f6 ff ff       	callq  403d20 <_ZNSt7__cxx1112basic_stringIcSt11char_traitsIcESaIcEE9_M_createERmm@plt>
_ZNSt7__cxx1112basic_stringIcSt11char_traitsIcESaIcEE7_M_dataEPc():
/usr/include/c++/10/bits/basic_string.h:187
      { _M_dataplus._M_p = __p; }
  4046ed:	48 89 84 24 e0 00 00 	mov    %rax,0xe0(%rsp)
  4046f4:	00 
_ZNSt7__cxx1112basic_stringIcSt11char_traitsIcESaIcEE12_M_constructIPKcEEvT_S8_St20forward_iterator_tag():
/usr/include/c++/10/bits/basic_string.tcc:219
  4046f5:	48 89 c7             	mov    %rax,%rdi
_ZNSt7__cxx1112basic_stringIcSt11char_traitsIcESaIcEE11_M_capacityEm():
/usr/include/c++/10/bits/basic_string.h:219
      { _M_allocated_capacity = __capacity; }
  4046f8:	48 8b 84 24 80 00 00 	mov    0x80(%rsp),%rax
  4046ff:	00 
  404700:	48 89 84 24 f0 00 00 	mov    %rax,0xf0(%rsp)
  404707:	00 
_ZNSt11char_traitsIcE4copyEPcPKcm():
/usr/include/c++/10/bits/char_traits.h:437
	return static_cast<char_type*>(__builtin_memcpy(__s1, __s2, __n));
  404708:	4c 89 f2             	mov    %r14,%rdx
  40470b:	48 89 ee             	mov    %rbp,%rsi
  40470e:	e8 3d f2 ff ff       	callq  403950 <memcpy@plt>
_ZNSt7__cxx1112basic_stringIcSt11char_traitsIcESaIcEE12_M_constructIPKcEEvT_S8_St20forward_iterator_tag():
/usr/include/c++/10/bits/basic_string.tcc:232
	_M_set_length(__dnew);
  404713:	48 8b 84 24 80 00 00 	mov    0x80(%rsp),%rax
  40471a:	00 
_ZNKSt7__cxx1112basic_stringIcSt11char_traitsIcESaIcEE7_M_dataEv():
/usr/include/c++/10/bits/basic_string.h:195
      { return _M_dataplus._M_p; }
  40471b:	48 8b 94 24 e0 00 00 	mov    0xe0(%rsp),%rdx
  404722:	00 
_ZNSt11char_traitsIcE4copyEPcPKcm():
/usr/include/c++/10/bits/char_traits.h:437
  404723:	e9 ee f9 ff ff       	jmpq   404116 <main+0x176>
_ZN6CLBase9HandleArgEaPc():
/home/aliha951/ipdps-artifact/gapbs-master/src/command_line.h:100
    switch (opt) {
  404728:	83 e8 66             	sub    $0x66,%eax
  40472b:	3c 13                	cmp    $0x13,%al
  40472d:	0f 87 2d f9 ff ff    	ja     404060 <main+0xc0>
  404733:	48 8d 0d da 17 01 00 	lea    0x117da(%rip),%rcx        # 415f14 <_IO_stdin_used+0xf14>
  40473a:	0f b6 c0             	movzbl %al,%eax
  40473d:	48 63 04 81          	movslq (%rcx,%rax,4),%rax
  404741:	48 01 c8             	add    %rcx,%rax
  404744:	3e ff e0             	notrack jmpq *%rax
_ZN6CLBase9ParseArgsEv():
/home/aliha951/ipdps-artifact/gapbs-master/src/command_line.h:90
    if ((filename_ == "") && (scale_ == -1)) {
  404747:	44 8b a4 24 70 01 00 	mov    0x170(%rsp),%r12d
  40474e:	00 
  40474f:	41 83 fc ff          	cmp    $0xffffffff,%r12d
  404753:	0f 84 98 01 00 00    	je     4048f1 <main+0x951>
/home/aliha951/ipdps-artifact/gapbs-master/src/command_line.h:95
      symmetrize_ = true;
  404759:	c6 84 24 98 01 00 00 	movb   $0x1,0x198(%rsp)
  404760:	01 
/home/aliha951/ipdps-artifact/gapbs-master/src/command_line.h:92
      return false;
  404761:	e9 5c fa ff ff       	jmpq   4041c2 <main+0x222>
_ZN5CLApp9HandleArgEaPc():
/home/aliha951/ipdps-artifact/gapbs-master/src/command_line.h:174
      case 'z': pin_vertices_ = true;                 	break;
  404766:	c6 84 24 c3 01 00 00 	movb   $0x1,0x1c3(%rsp)
  40476d:	01 
  40476e:	e9 ed f8 ff ff       	jmpq   404060 <main+0xc0>
/home/aliha951/ipdps-artifact/gapbs-master/src/command_line.h:173
      case 'p': partial_execution_ = true;              break;
  404773:	c6 84 24 c2 01 00 00 	movb   $0x1,0x1c2(%rsp)
  40477a:	01 
  40477b:	e9 e0 f8 ff ff       	jmpq   404060 <main+0xc0>
main():
/usr/include/stdlib.h:363
  404780:	ba 0a 00 00 00       	mov    $0xa,%edx
atoi():
/usr/include/stdlib.h:363
  404785:	31 f6                	xor    %esi,%esi
  404787:	48 89 ef             	mov    %rbp,%rdi
  40478a:	e8 e1 f3 ff ff       	callq  403b70 <strtol@plt>
  40478f:	89 84 24 b4 01 00 00 	mov    %eax,0x1b4(%rsp)
_ZN5CLApp9HandleArgEaPc():
/home/aliha951/ipdps-artifact/gapbs-master/src/command_line.h:167
      case 'n': num_trials_ = atoi(opt_arg);            break;
  404796:	e9 c5 f8 ff ff       	jmpq   404060 <main+0xc0>
/home/aliha951/ipdps-artifact/gapbs-master/src/command_line.h:170
      case 'l': enable_logging_ = true;                 break;
  40479b:	c6 84 24 c1 01 00 00 	movb   $0x1,0x1c1(%rsp)
  4047a2:	01 
  4047a3:	e9 b8 f8 ff ff       	jmpq   404060 <main+0xc0>
/home/aliha951/ipdps-artifact/gapbs-master/src/command_line.h:166
      case 'a': do_analysis_ = true;                    break;
  4047a8:	c6 84 24 b0 01 00 00 	movb   $0x1,0x1b0(%rsp)
  4047af:	01 
  4047b0:	e9 ab f8 ff ff       	jmpq   404060 <main+0xc0>
/home/aliha951/ipdps-artifact/gapbs-master/src/command_line.h:169
      case 'v': do_verify_ = true;                      break;
  4047b5:	c6 84 24 c0 01 00 00 	movb   $0x1,0x1c0(%rsp)
  4047bc:	01 
  4047bd:	e9 9e f8 ff ff       	jmpq   404060 <main+0xc0>
main():
/usr/include/stdlib.h:368
}
__extern_inline long int
__NTH (atol (const char *__nptr))
{
  return strtol (__nptr, (char **) NULL, 10);
  4047c2:	ba 0a 00 00 00       	mov    $0xa,%edx
atol():
/usr/include/stdlib.h:368
  4047c7:	31 f6                	xor    %esi,%esi
  4047c9:	48 89 ef             	mov    %rbp,%rdi
  4047cc:	e8 9f f3 ff ff       	callq  403b70 <strtol@plt>
_ZN5CLApp9HandleArgEaPc():
/home/aliha951/ipdps-artifact/gapbs-master/src/command_line.h:168
      case 'r': start_vertex_ = atol(opt_arg);          break;
  4047d1:	48 89 84 24 b8 01 00 	mov    %rax,0x1b8(%rsp)
  4047d8:	00 
  4047d9:	e9 82 f8 ff ff       	jmpq   404060 <main+0xc0>
  4047de:	66 90                	xchg   %ax,%ax
BenchmarkKernel<CSRGraph<int>, main(int, char**)::<lambda(const Graph&)>, void (*)(const CSRGraph<int>&, const pvector<float>&), main(int, char**)::<lambda(const Graph&, const pvector<float>&)> >():
/home/aliha951/ipdps-artifact/gapbs-master/src/benchmark.h:123
  for (int iter=0; iter < cli.num_trials(); iter++) {
  4047e0:	41 83 c4 01          	add    $0x1,%r12d
  4047e4:	44 39 a4 24 b4 01 00 	cmp    %r12d,0x1b4(%rsp)
  4047eb:	00 
  4047ec:	0f 8f 5e fb ff ff    	jg     404350 <main+0x3b0>
  4047f2:	e9 af fd ff ff       	jmpq   4045a6 <main+0x606>
  4047f7:	66 0f 1f 84 00 00 00 	nopw   0x0(%rax,%rax,1)
  4047fe:	00 00 
/home/aliha951/ipdps-artifact/gapbs-master/src/benchmark.h:130
      stats(g, result);
  404800:	4c 89 fe             	mov    %r15,%rsi
  404803:	4c 89 f7             	mov    %r14,%rdi
  404806:	e8 a5 3e 00 00       	callq  4086b0 <_Z14PrintTopScoresRK8CSRGraphIiiLb1EERK7pvectorIfE>
  40480b:	e9 03 fc ff ff       	jmpq   404413 <main+0x473>
main():
/usr/include/x86_64-linux-gnu/bits/stdio2.h:67
# ifdef __va_arg_pack
__fortify_function int
__NTH (snprintf (char *__restrict __s, size_t __n,
		 const char *__restrict __fmt, ...))
{
  return __builtin___snprintf_chk (__s, __n, __USE_FORTIFY_LEVEL - 1,
  404810:	4c 8d 84 24 d0 01 00 	lea    0x1d0(%rsp),%r8
  404817:	00 
snprintf():
/usr/include/x86_64-linux-gnu/bits/stdio2.h:67
  404818:	48 8d 35 a9 0f 01 00 	lea    0x10fa9(%rip),%rsi        # 4157c8 <_IO_stdin_used+0x7c8>
  40481f:	b9 09 00 00 00       	mov    $0x9,%ecx
  404824:	4c 89 c7             	mov    %r8,%rdi
  404827:	f3 a5                	rep movsl %ds:(%rsi),%es:(%rdi)
_Z15stop_disk_statsv():
/home/aliha951/ipdps-artifact/gapbs-master/src/profiling_utils.h:319
    char command[256];
    snprintf(command, sizeof(command), "sudo pkill -f 'gather_diskstats.sh'");
    int ret = system(command);
  404829:	4c 89 c7             	mov    %r8,%rdi
  40482c:	e8 4f f1 ff ff       	callq  403980 <system@plt>
/home/aliha951/ipdps-artifact/gapbs-master/src/profiling_utils.h:320
    if (ret==-1)	std::cout << "could not stop diskstat gathering\n";
  404831:	83 c0 01             	add    $0x1,%eax
  404834:	0f 85 d0 fd ff ff    	jne    40460a <main+0x66a>
_ZStlsISt11char_traitsIcEERSt13basic_ostreamIcT_ES5_PKc():
/usr/include/c++/10/ostream:611
    operator<<(basic_ostream<char, _Traits>& __out, const char* __s)
    {
      if (!__s)
	__out.setstate(ios_base::badbit);
      else
	__ostream_insert(__out, __s,
  40483a:	ba 22 00 00 00       	mov    $0x22,%edx
  40483f:	48 8d 35 aa 0f 01 00 	lea    0x10faa(%rip),%rsi        # 4157f0 <_IO_stdin_used+0x7f0>
  404846:	48 8d 3d b3 5b 01 00 	lea    0x15bb3(%rip),%rdi        # 41a400 <_ZSt4cout@@GLIBCXX_3.4>
  40484d:	e8 fe f1 ff ff       	callq  403a50 <_ZSt16__ostream_insertIcSt11char_traitsIcEERSt13basic_ostreamIT_T0_ES6_PKS3_l@plt>
  404852:	e9 b3 fd ff ff       	jmpq   40460a <main+0x66a>
_Z26unregister_and_free_arraysv():
/home/aliha951/ipdps-artifact/gapbs-master/src/libpfq_pr.h:305
}

// syscall to unregister the page fault status array, as well as ips and ret_ips, and free the allocated memory
inline void unregister_and_free_arrays(){
  syscall(548, NULL, NULL, 0);
  404857:	31 c9                	xor    %ecx,%ecx
  404859:	31 d2                	xor    %edx,%edx
  40485b:	31 f6                	xor    %esi,%esi
  40485d:	bf 24 02 00 00       	mov    $0x224,%edi
  404862:	31 c0                	xor    %eax,%eax
  404864:	e8 e7 ee ff ff       	callq  403750 <syscall@plt>
/home/aliha951/ipdps-artifact/gapbs-master/src/libpfq_pr.h:306
  syscall(550, NULL, 0);
  404869:	31 d2                	xor    %edx,%edx
  40486b:	31 f6                	xor    %esi,%esi
  40486d:	bf 26 02 00 00       	mov    $0x226,%edi
  404872:	31 c0                	xor    %eax,%eax
  404874:	e8 d7 ee ff ff       	callq  403750 <syscall@plt>
/home/aliha951/ipdps-artifact/gapbs-master/src/libpfq_pr.h:307
  munlock(ptr, 32*1024*sizeof(int));
  404879:	48 8b 3d 08 a5 01 00 	mov    0x1a508(%rip),%rdi        # 41ed88 <ptr>
  404880:	be 00 00 02 00       	mov    $0x20000,%esi
  404885:	e8 d6 f4 ff ff       	callq  403d60 <munlock@plt>
/home/aliha951/ipdps-artifact/gapbs-master/src/libpfq_pr.h:308
  munmap(ptr, 32*1024*sizeof(int));
  40488a:	48 8b 3d f7 a4 01 00 	mov    0x1a4f7(%rip),%rdi        # 41ed88 <ptr>
  404891:	be 00 00 02 00       	mov    $0x20000,%esi
  404896:	e8 15 f0 ff ff       	callq  4038b0 <munmap@plt>
/home/aliha951/ipdps-artifact/gapbs-master/src/libpfq_pr.h:309
}
  40489b:	e9 d2 fd ff ff       	jmpq   404672 <main+0x6d2>
_ZN6CLBase9HandleArgEaPc():
/home/aliha951/ipdps-artifact/gapbs-master/src/command_line.h:106
      case 'u': uniform_ = true; scale_ = atoi(opt_arg);                break;
  4048a0:	c6 84 24 99 01 00 00 	movb   $0x1,0x199(%rsp)
  4048a7:	01 
main():
/usr/include/stdlib.h:363
  return (int) strtol (__nptr, (char **) NULL, 10);
  4048a8:	ba 0a 00 00 00       	mov    $0xa,%edx
atoi():
/usr/include/stdlib.h:363
  4048ad:	31 f6                	xor    %esi,%esi
  4048af:	48 89 ef             	mov    %rbp,%rdi
  4048b2:	e8 b9 f2 ff ff       	callq  403b70 <strtol@plt>
  4048b7:	89 84 24 70 01 00 00 	mov    %eax,0x170(%rsp)
_ZN6CLBase9HandleArgEaPc():
/home/aliha951/ipdps-artifact/gapbs-master/src/command_line.h:106
  4048be:	e9 9d f7 ff ff       	jmpq   404060 <main+0xc0>
BenchmarkKernel<CSRGraph<int>, main(int, char**)::<lambda(const Graph&)>, void (*)(const CSRGraph<int>&, const pvector<float>&), main(int, char**)::<lambda(const Graph&, const pvector<float>&)> >():
/home/aliha951/ipdps-artifact/gapbs-master/src/benchmark.h:108
  double total_seconds = 0;
  4048c3:	66 0f ef ed          	pxor   %xmm5,%xmm5
  4048c7:	f2 0f 11 2c 24       	movsd  %xmm5,(%rsp)
  4048cc:	e9 d5 fc ff ff       	jmpq   4045a6 <main+0x606>
_Z16prepare_pmadvisev():
/home/aliha951/ipdps-artifact/gapbs-master/src/libpfq_pr.h:288
    pid_t pid = getpid();
  4048d1:	e8 0a f3 ff ff       	callq  403be0 <getpid@plt>
/home/aliha951/ipdps-artifact/gapbs-master/src/libpfq_pr.h:289
    pidfd = syscall(SYS_pidfd_open, pid, 0); // this is necessary for process_madvise
  4048d6:	31 d2                	xor    %edx,%edx
  4048d8:	bf b2 01 00 00       	mov    $0x1b2,%edi
/home/aliha951/ipdps-artifact/gapbs-master/src/libpfq_pr.h:288
    pid_t pid = getpid();
  4048dd:	89 c6                	mov    %eax,%esi
/home/aliha951/ipdps-artifact/gapbs-master/src/libpfq_pr.h:289
    pidfd = syscall(SYS_pidfd_open, pid, 0); // this is necessary for process_madvise
  4048df:	31 c0                	xor    %eax,%eax
  4048e1:	e8 6a ee ff ff       	callq  403750 <syscall@plt>
  4048e6:	89 05 7c a4 01 00    	mov    %eax,0x1a47c(%rip)        # 41ed68 <pidfd>
/home/aliha951/ipdps-artifact/gapbs-master/src/libpfq_pr.h:291
}
  4048ec:	e9 52 f9 ff ff       	jmpq   404243 <main+0x2a3>
_ZStlsISt11char_traitsIcEERSt13basic_ostreamIcT_ES5_PKc():
/usr/include/c++/10/ostream:611
  4048f1:	ba 2b 00 00 00       	mov    $0x2b,%edx
  4048f6:	48 8d 35 6b 0e 01 00 	lea    0x10e6b(%rip),%rsi        # 415768 <_IO_stdin_used+0x768>
  4048fd:	48 8d 3d fc 5a 01 00 	lea    0x15afc(%rip),%rdi        # 41a400 <_ZSt4cout@@GLIBCXX_3.4>
  404904:	e8 47 f1 ff ff       	callq  403a50 <_ZSt16__ostream_insertIcSt11char_traitsIcEERSt13basic_ostreamIT_T0_ES6_PKS3_l@plt>
_ZNSolsEPFRSoS_E():
/usr/include/c++/10/ostream:113
	return __pf(*this);
  404909:	48 8d 3d f0 5a 01 00 	lea    0x15af0(%rip),%rdi        # 41a400 <_ZSt4cout@@GLIBCXX_3.4>
  404910:	e8 7b 19 00 00       	callq  406290 <_ZSt4endlIcSt11char_traitsIcEERSt13basic_ostreamIT_T0_ES6_.isra.0>
  404915:	e9 63 fd ff ff       	jmpq   40467d <main+0x6dd>
main():
/usr/include/stdlib.h:363
  40491a:	ba 0a 00 00 00       	mov    $0xa,%edx
atoi():
/usr/include/stdlib.h:363
  40491f:	31 f6                	xor    %esi,%esi
  404921:	48 89 ef             	mov    %rbp,%rdi
  404924:	e8 47 f2 ff ff       	callq  403b70 <strtol@plt>
_ZN6CLBase9HandleArgEaPc():
/home/aliha951/ipdps-artifact/gapbs-master/src/command_line.h:110
      case 'y': queue_size_ = (long unsigned int) atoi(opt_arg);        break;
  404929:	48 98                	cltq   
  40492b:	48 89 84 24 a0 01 00 	mov    %rax,0x1a0(%rsp)
  404932:	00 
  404933:	e9 28 f7 ff ff       	jmpq   404060 <main+0xc0>
main():
/usr/include/stdlib.h:363
  404938:	ba 0a 00 00 00       	mov    $0xa,%edx
atoi():
/usr/include/stdlib.h:363
  40493d:	31 f6                	xor    %esi,%esi
  40493f:	48 89 ef             	mov    %rbp,%rdi
  404942:	e8 29 f2 ff ff       	callq  403b70 <strtol@plt>
  404947:	89 84 24 74 01 00 00 	mov    %eax,0x174(%rsp)
_ZN6CLBase9HandleArgEaPc():
/home/aliha951/ipdps-artifact/gapbs-master/src/command_line.h:104
      case 'k': degree_ = atoi(opt_arg);                                break;
  40494e:	e9 0d f7 ff ff       	jmpq   404060 <main+0xc0>
/home/aliha951/ipdps-artifact/gapbs-master/src/command_line.h:107
      case 'm': in_place_ = true;                                       break;
  404953:	c6 84 24 9a 01 00 00 	movb   $0x1,0x19a(%rsp)
  40495a:	01 
  40495b:	e9 00 f7 ff ff       	jmpq   404060 <main+0xc0>
/home/aliha951/ipdps-artifact/gapbs-master/src/command_line.h:112
      case 'o': batching_mode_ = MADVISE;                               break;
  404960:	c7 84 24 ac 01 00 00 	movl   $0x2,0x1ac(%rsp)
  404967:	02 00 00 00 
  40496b:	e9 f0 f6 ff ff       	jmpq   404060 <main+0xc0>
/home/aliha951/ipdps-artifact/gapbs-master/src/command_line.h:109
      case 'q': batching_ = true;                                       break;
  404970:	c6 84 24 9b 01 00 00 	movb   $0x1,0x19b(%rsp)
  404977:	01 
  404978:	e9 e3 f6 ff ff       	jmpq   404060 <main+0xc0>
/home/aliha951/ipdps-artifact/gapbs-master/src/command_line.h:105
      case 's': symmetrize_ = true;                                     break;
  40497d:	c6 84 24 98 01 00 00 	movb   $0x1,0x198(%rsp)
  404984:	01 
  404985:	e9 d6 f6 ff ff       	jmpq   404060 <main+0xc0>
main():
/usr/include/stdlib.h:363
  40498a:	ba 0a 00 00 00       	mov    $0xa,%edx
atoi():
/usr/include/stdlib.h:363
  40498f:	31 f6                	xor    %esi,%esi
  404991:	48 89 ef             	mov    %rbp,%rdi
  404994:	e8 d7 f1 ff ff       	callq  403b70 <strtol@plt>
  404999:	89 84 24 a8 01 00 00 	mov    %eax,0x1a8(%rsp)
_ZN6CLBase9HandleArgEaPc():
/home/aliha951/ipdps-artifact/gapbs-master/src/command_line.h:111
      case 'x': readahead_size_ = atoi(opt_arg);                        break;
  4049a0:	e9 bb f6 ff ff       	jmpq   404060 <main+0xc0>
/home/aliha951/ipdps-artifact/gapbs-master/src/command_line.h:101
      case 'f': filename_ = std::string(opt_arg);                       break;
  4049a5:	48 89 ee             	mov    %rbp,%rsi
  4049a8:	4c 89 ef             	mov    %r13,%rdi
  4049ab:	e8 60 19 00 00       	callq  406310 <_ZNSt7__cxx1112basic_stringIcSt11char_traitsIcESaIcEEC2EPKcRKS3_.constprop.0>
_ZNKSt7__cxx1112basic_stringIcSt11char_traitsIcESaIcEE7_M_dataEv():
/usr/include/c++/10/bits/basic_string.h:195
  4049b0:	48 8b 84 24 e0 00 00 	mov    0xe0(%rsp),%rax
  4049b7:	00 
  4049b8:	48 8b bc 24 78 01 00 	mov    0x178(%rsp),%rdi
  4049bf:	00 
_ZNKSt7__cxx1112basic_stringIcSt11char_traitsIcESaIcEE4sizeEv():
/usr/include/c++/10/bits/basic_string.h:915
      { return _M_string_length; }
  4049c0:	48 8b 94 24 e8 00 00 	mov    0xe8(%rsp),%rdx
  4049c7:	00 
_ZNSt7__cxx1112basic_stringIcSt11char_traitsIcESaIcEEaSEOS4_():
/usr/include/c++/10/bits/basic_string.h:731
	if (__str._M_is_local())
  4049c8:	48 39 d8             	cmp    %rbx,%rax
  4049cb:	0f 84 89 00 00 00    	je     404a5a <main+0xaba>
/usr/include/c++/10/bits/basic_string.h:759
	    _M_capacity(__str._M_allocated_capacity);
  4049d1:	48 8b 8c 24 f0 00 00 	mov    0xf0(%rsp),%rcx
  4049d8:	00 
/usr/include/c++/10/bits/basic_string.h:745
	    if (!_M_is_local())
  4049d9:	48 3b 7c 24 08       	cmp    0x8(%rsp),%rdi
  4049de:	0f 84 a7 00 00 00    	je     404a8b <main+0xaeb>
_ZNSt7__cxx1112basic_stringIcSt11char_traitsIcESaIcEE9_M_lengthEm():
/usr/include/c++/10/bits/basic_string.h:191
      { _M_string_length = __length; }
  4049e4:	66 48 0f 6e c2       	movq   %rdx,%xmm0
  4049e9:	66 48 0f 6e f1       	movq   %rcx,%xmm6
_ZNSt7__cxx1112basic_stringIcSt11char_traitsIcESaIcEEaSEOS4_():
/usr/include/c++/10/bits/basic_string.h:751
		    __capacity = _M_allocated_capacity;
  4049ee:	48 8b b4 24 88 01 00 	mov    0x188(%rsp),%rsi
  4049f5:	00 
_ZNSt7__cxx1112basic_stringIcSt11char_traitsIcESaIcEE7_M_dataEPc():
/usr/include/c++/10/bits/basic_string.h:187
      { _M_dataplus._M_p = __p; }
  4049f6:	48 89 84 24 78 01 00 	mov    %rax,0x178(%rsp)
  4049fd:	00 
_ZNSt7__cxx1112basic_stringIcSt11char_traitsIcESaIcEE9_M_lengthEm():
/usr/include/c++/10/bits/basic_string.h:191
      { _M_string_length = __length; }
  4049fe:	66 0f 6c c6          	punpcklqdq %xmm6,%xmm0
  404a02:	0f 29 84 24 80 01 00 	movaps %xmm0,0x180(%rsp)
  404a09:	00 
_ZNSt7__cxx1112basic_stringIcSt11char_traitsIcESaIcEEaSEOS4_():
/usr/include/c++/10/bits/basic_string.h:760
	    if (__data)
  404a0a:	48 85 ff             	test   %rdi,%rdi
  404a0d:	0f 84 96 00 00 00    	je     404aa9 <main+0xb09>
_ZNSt7__cxx1112basic_stringIcSt11char_traitsIcESaIcEE7_M_dataEPc():
/usr/include/c++/10/bits/basic_string.h:187
      { _M_dataplus._M_p = __p; }
  404a13:	48 89 bc 24 e0 00 00 	mov    %rdi,0xe0(%rsp)
  404a1a:	00 
_ZNSt7__cxx1112basic_stringIcSt11char_traitsIcESaIcEE11_M_capacityEm():
/usr/include/c++/10/bits/basic_string.h:219
      { _M_allocated_capacity = __capacity; }
  404a1b:	48 89 b4 24 f0 00 00 	mov    %rsi,0xf0(%rsp)
  404a22:	00 
_ZNKSt7__cxx1112basic_stringIcSt11char_traitsIcESaIcEE7_M_dataEv():
/usr/include/c++/10/bits/basic_string.h:195
      { return _M_dataplus._M_p; }
  404a23:	48 8b 84 24 e0 00 00 	mov    0xe0(%rsp),%rax
  404a2a:	00 
_ZNSt7__cxx1112basic_stringIcSt11char_traitsIcESaIcEE9_M_lengthEm():
/usr/include/c++/10/bits/basic_string.h:191
      { _M_string_length = __length; }
  404a2b:	48 c7 84 24 e8 00 00 	movq   $0x0,0xe8(%rsp)
  404a32:	00 00 00 00 00 
_ZNSt11char_traitsIcE6assignERcRKc():
/usr/include/c++/10/bits/char_traits.h:357
      { __c1 = __c2; }
  404a37:	c6 00 00             	movb   $0x0,(%rax)
_ZNKSt7__cxx1112basic_stringIcSt11char_traitsIcESaIcEE7_M_dataEv():
/usr/include/c++/10/bits/basic_string.h:195
      { return _M_dataplus._M_p; }
  404a3a:	48 8b bc 24 e0 00 00 	mov    0xe0(%rsp),%rdi
  404a41:	00 
_ZNSt7__cxx1112basic_stringIcSt11char_traitsIcESaIcEE10_M_disposeEv():
/usr/include/c++/10/bits/basic_string.h:239
	if (!_M_is_local())
  404a42:	48 39 df             	cmp    %rbx,%rdi
  404a45:	0f 85 3c f7 ff ff    	jne    404187 <main+0x1e7>
  404a4b:	e9 10 f6 ff ff       	jmpq   404060 <main+0xc0>
_ZN6CLBase9HandleArgEaPc():
/home/aliha951/ipdps-artifact/gapbs-master/src/command_line.h:103
      case 'h': PrintUsage();                                           break;
  404a50:	48 8b 7c 24 18       	mov    0x18(%rsp),%rdi
  404a55:	e8 b6 51 00 00       	callq  409c10 <_ZN6CLBase10PrintUsageEv>
_ZNSt7__cxx1112basic_stringIcSt11char_traitsIcESaIcEEaSEOS4_():
/usr/include/c++/10/bits/basic_string.h:734
	    if (__str.size())
  404a5a:	48 85 d2             	test   %rdx,%rdx
  404a5d:	74 1e                	je     404a7d <main+0xadd>
_ZNSt7__cxx1112basic_stringIcSt11char_traitsIcESaIcEE7_S_copyEPcPKcm():
/usr/include/c++/10/bits/basic_string.h:356
	if (__n == 1)
  404a5f:	48 83 fa 01          	cmp    $0x1,%rdx
  404a63:	74 51                	je     404ab6 <main+0xb16>
_ZNSt11char_traitsIcE4copyEPcPKcm():
/usr/include/c++/10/bits/char_traits.h:437
	return static_cast<char_type*>(__builtin_memcpy(__s1, __s2, __n));
  404a65:	48 89 de             	mov    %rbx,%rsi
  404a68:	e8 e3 ee ff ff       	callq  403950 <memcpy@plt>
  404a6d:	48 8b bc 24 78 01 00 	mov    0x178(%rsp),%rdi
  404a74:	00 
  404a75:	48 8b 94 24 e8 00 00 	mov    0xe8(%rsp),%rdx
  404a7c:	00 
_ZNSt7__cxx1112basic_stringIcSt11char_traitsIcESaIcEE9_M_lengthEm():
/usr/include/c++/10/bits/basic_string.h:191
      { _M_string_length = __length; }
  404a7d:	48 89 94 24 80 01 00 	mov    %rdx,0x180(%rsp)
  404a84:	00 
_ZNSt11char_traitsIcE6assignERcRKc():
/usr/include/c++/10/bits/char_traits.h:357
      { __c1 = __c2; }
  404a85:	c6 04 17 00          	movb   $0x0,(%rdi,%rdx,1)
_ZNSt7__cxx1112basic_stringIcSt11char_traitsIcESaIcEE13_M_set_lengthEm():
/usr/include/c++/10/bits/basic_string.h:226
      }
  404a89:	eb 98                	jmp    404a23 <main+0xa83>
_ZNSt7__cxx1112basic_stringIcSt11char_traitsIcESaIcEE9_M_lengthEm():
/usr/include/c++/10/bits/basic_string.h:191
      { _M_string_length = __length; }
  404a8b:	66 48 0f 6e c2       	movq   %rdx,%xmm0
  404a90:	66 48 0f 6e f9       	movq   %rcx,%xmm7
_ZNSt7__cxx1112basic_stringIcSt11char_traitsIcESaIcEE7_M_dataEPc():
/usr/include/c++/10/bits/basic_string.h:187
      { _M_dataplus._M_p = __p; }
  404a95:	48 89 84 24 78 01 00 	mov    %rax,0x178(%rsp)
  404a9c:	00 
_ZNSt7__cxx1112basic_stringIcSt11char_traitsIcESaIcEE9_M_lengthEm():
/usr/include/c++/10/bits/basic_string.h:191
      { _M_string_length = __length; }
  404a9d:	66 0f 6c c7          	punpcklqdq %xmm7,%xmm0
  404aa1:	0f 29 84 24 80 01 00 	movaps %xmm0,0x180(%rsp)
  404aa8:	00 
_ZNSt7__cxx1112basic_stringIcSt11char_traitsIcESaIcEE7_M_dataEPc():
/usr/include/c++/10/bits/basic_string.h:187
      { _M_dataplus._M_p = __p; }
  404aa9:	48 89 9c 24 e0 00 00 	mov    %rbx,0xe0(%rsp)
  404ab0:	00 
  404ab1:	e9 6d ff ff ff       	jmpq   404a23 <main+0xa83>
_ZNSt11char_traitsIcE6assignERcRKc():
/usr/include/c++/10/bits/char_traits.h:357
  404ab6:	0f b6 84 24 f0 00 00 	movzbl 0xf0(%rsp),%eax
  404abd:	00 
  404abe:	88 07                	mov    %al,(%rdi)
  404ac0:	48 8b bc 24 78 01 00 	mov    0x178(%rsp),%rdi
  404ac7:	00 
  404ac8:	48 8b 94 24 e8 00 00 	mov    0xe8(%rsp),%rdx
  404acf:	00 
  404ad0:	eb ab                	jmp    404a7d <main+0xadd>
_ZN9__gnu_cxx6__stoaIddcJEEET0_PFT_PKT1_PPS3_DpT2_EPKcS5_PmS9_():
/usr/include/c++/10/ext/string_conversions.h:83
	std::__throw_invalid_argument(__name);
  404ad2:	48 8d 3d 8f 0d 01 00 	lea    0x10d8f(%rip),%rdi        # 415868 <_IO_stdin_used+0x868>
  404ad9:	e8 f2 ed ff ff       	callq  4038d0 <_ZSt24__throw_invalid_argumentPKc@plt>
/usr/include/c++/10/ext/string_conversions.h:86
	std::__throw_out_of_range(__name);
  404ade:	48 8d 3d 83 0d 01 00 	lea    0x10d83(%rip),%rdi        # 415868 <_IO_stdin_used+0x868>
  404ae5:	e8 e6 f0 ff ff       	callq  403bd0 <_ZSt20__throw_out_of_rangePKc@plt>
_Z16start_disk_statsPKc():
/home/aliha951/ipdps-artifact/gapbs-master/src/profiling_utils.h:306
	  move_to_cgroup(root_cgroup, getpid());
  404aea:	e8 f1 f0 ff ff       	callq  403be0 <getpid@plt>
  404aef:	48 8d 3d df 07 01 00 	lea    0x107df(%rip),%rdi        # 4152d5 <_IO_stdin_used+0x2d5>
  404af6:	89 c6                	mov    %eax,%esi
  404af8:	e8 d3 2a 00 00       	callq  4075d0 <_Z14move_to_cgroupPKci>
/home/aliha951/ipdps-artifact/gapbs-master/src/profiling_utils.h:307
    execlp("/home/aliha951/ipdps-gapbs/gather_diskstats.sh", "/home/aliha951/ipdps-gapbs/gather_diskstats.sh", result_file_name, NULL);
  404afd:	48 8d 35 94 0c 01 00 	lea    0x10c94(%rip),%rsi        # 415798 <_IO_stdin_used+0x798>
  404b04:	31 c9                	xor    %ecx,%ecx
  404b06:	48 8d 15 de 07 01 00 	lea    0x107de(%rip),%rdx        # 4152eb <_IO_stdin_used+0x2eb>
  404b0d:	31 c0                	xor    %eax,%eax
  404b0f:	48 89 f7             	mov    %rsi,%rdi
  404b12:	e8 d9 ec ff ff       	callq  4037f0 <execlp@plt>
/home/aliha951/ipdps-artifact/gapbs-master/src/profiling_utils.h:308
    perror("execlp failed");
  404b17:	48 8d 3d d8 07 01 00 	lea    0x107d8(%rip),%rdi        # 4152f6 <_IO_stdin_used+0x2f6>
  404b1e:	e8 3d ee ff ff       	callq  403960 <perror@plt>
/home/aliha951/ipdps-artifact/gapbs-master/src/profiling_utils.h:303
    exit(EXIT_FAILURE);
  404b23:	bf 01 00 00 00       	mov    $0x1,%edi
  404b28:	e8 93 ef ff ff       	callq  403ac0 <exit@plt>
main():
/home/aliha951/ipdps-artifact/gapbs-master/src/pr_batching.cc:144
  404b2d:	e8 0e ef ff ff       	callq  403a40 <__stack_chk_fail@plt>
_ZNSt7__cxx1112basic_stringIcSt11char_traitsIcESaIcEE12_M_constructIPKcEEvT_S8_St20forward_iterator_tag():
/usr/include/c++/10/bits/basic_string.tcc:212
	  std::__throw_logic_error(__N("basic_string::"
  404b32:	48 8d 3d 1f 08 01 00 	lea    0x1081f(%rip),%rdi        # 415358 <_IO_stdin_used+0x358>
  404b39:	e8 e2 ed ff ff       	callq  403920 <_ZSt19__throw_logic_errorPKc@plt>
_ZNKSt7__cxx1112basic_stringIcSt11char_traitsIcESaIcEE7_M_dataEv():
/usr/include/c++/10/bits/basic_string.h:195
      { return _M_dataplus._M_p; }
  404b3e:	48 89 df             	mov    %rbx,%rdi
  404b41:	e9 c2 fb ff ff       	jmpq   404708 <main+0x768>
_Z16start_disk_statsPKc():
/home/aliha951/ipdps-artifact/gapbs-master/src/profiling_utils.h:302
    perror("fork failed");
  404b46:	48 8d 3d 7c 07 01 00 	lea    0x1077c(%rip),%rdi        # 4152c9 <_IO_stdin_used+0x2c9>
  404b4d:	e8 0e ee ff ff       	callq  403960 <perror@plt>
  404b52:	eb cf                	jmp    404b23 <main+0xb83>
  404b54:	f3 0f 1e fa          	endbr64 
_ZZN9__gnu_cxx6__stoaIddcJEEET0_PFT_PKT1_PPS3_DpT2_EPKcS5_PmS9_EN11_Save_errnoD4Ev():
/usr/include/c++/10/ext/string_conversions.h:64
	~_Save_errno() { if (errno == 0) errno = _M_errno; }
  404b58:	49 89 c4             	mov    %rax,%r12
  404b5b:	e9 4c f3 ff ff       	jmpq   403eac <main.cold>
  404b60:	f3 0f 1e fa          	endbr64 
_ZN7pvectorIfE16ReleaseResourcesEv():
/home/aliha951/ipdps-artifact/gapbs-master/src/pvector.h:73
    if (start_ != nullptr) {
  404b64:	48 89 c5             	mov    %rax,%rbp
  404b67:	e9 91 f3 ff ff       	jmpq   403efd <main.cold+0x51>
  404b6c:	f3 0f 1e fa          	endbr64 
_ZNKSt7__cxx1112basic_stringIcSt11char_traitsIcESaIcEE7_M_dataEv():
/usr/include/c++/10/bits/basic_string.h:195
  404b70:	48 89 c5             	mov    %rax,%rbp
  404b73:	e9 cd f3 ff ff       	jmpq   403f45 <main.cold+0x99>
  404b78:	f3 0f 1e fa          	endbr64 
  404b7c:	48 89 c5             	mov    %rax,%rbp
  404b7f:	e9 e3 f3 ff ff       	jmpq   403f67 <main.cold+0xbb>
  404b84:	f3 0f 1e fa          	endbr64 
  404b88:	48 89 c3             	mov    %rax,%rbx
  404b8b:	e9 7f f3 ff ff       	jmpq   403f0f <main.cold+0x63>
  404b90:	f3 0f 1e fa          	endbr64 
  404b94:	49 89 c4             	mov    %rax,%r12
  404b97:	e9 80 f3 ff ff       	jmpq   403f1c <main.cold+0x70>
  404b9c:	f3 0f 1e fa          	endbr64 
_ZN5CLAppD4Ev():
/home/aliha951/ipdps-artifact/gapbs-master/src/command_line.h:140
class CLApp : public CLBase {
  404ba0:	49 89 c4             	mov    %rax,%r12
  404ba3:	e9 22 f3 ff ff       	jmpq   403eca <main.cold+0x1e>
  404ba8:	f3 0f 1e fa          	endbr64 
_ZNKSt7__cxx1112basic_stringIcSt11char_traitsIcESaIcEE7_M_dataEv():
/usr/include/c++/10/bits/basic_string.h:195
  404bac:	48 89 c5             	mov    %rax,%rbp
  404baf:	e9 c7 f3 ff ff       	jmpq   403f7b <main.cold+0xcf>
  404bb4:	f3 0f 1e fa          	endbr64 
  404bb8:	48 89 c5             	mov    %rax,%rbp
  404bbb:	e9 2b f3 ff ff       	jmpq   403eeb <main.cold+0x3f>

0000000000404bc0 <_GLOBAL__sub_I__Z10PrintLabelRKNSt7__cxx1112basic_stringIcSt11char_traitsIcESaIcEEES6_>:
_GLOBAL__sub_I__Z10PrintLabelRKNSt7__cxx1112basic_stringIcSt11char_traitsIcESaIcEEES6_():
/home/aliha951/ipdps-artifact/gapbs-master/src/pr_batching.cc:144
  404bc0:	f3 0f 1e fa          	endbr64 
  404bc4:	48 83 ec 08          	sub    $0x8,%rsp
/usr/include/c++/10/iostream:74
  extern wostream wclog;	/// Linked to standard error (buffered)
#endif
  ///@}

  // For construction of filebuffers for cout, cin, cerr, clog et. al.
  static ios_base::Init __ioinit;
  404bc8:	48 8d 3d a1 a6 01 00 	lea    0x1a6a1(%rip),%rdi        # 41f270 <_ZStL8__ioinit>
__static_initialization_and_destruction_0():
/usr/include/c++/10/iostream:74
  404bcf:	e8 3c f0 ff ff       	callq  403c10 <_ZNSt8ios_base4InitC1Ev@plt>
  404bd4:	48 8b 3d 1d 54 01 00 	mov    0x1541d(%rip),%rdi        # 419ff8 <_ZNSt8ios_base4InitD1Ev@GLIBCXX_3.4>
  404bdb:	48 8d 15 9e 57 01 00 	lea    0x1579e(%rip),%rdx        # 41a380 <__dso_handle>
  404be2:	48 8d 35 87 a6 01 00 	lea    0x1a687(%rip),%rsi        # 41f270 <_ZStL8__ioinit>
  404be9:	e8 a2 ed ff ff       	callq  403990 <__cxa_atexit@plt>
/home/aliha951/ipdps-artifact/gapbs-master/src/libpfq_pr.h:158
vector<state> curr_queue[NR_THREADS];
  404bee:	48 8d 05 6b 89 01 00 	lea    0x1896b(%rip),%rax        # 41d560 <curr_queue>
_ZNSt12_Vector_baseI5stateSaIS0_EE17_Vector_impl_dataC4Ev():
/usr/include/c++/10/bits/stl_vector.h:98
	: _M_start(), _M_finish(), _M_end_of_storage()
  404bf5:	66 0f ef c0          	pxor   %xmm0,%xmm0
  404bf9:	48 8d 90 00 18 00 00 	lea    0x1800(%rax),%rdx
  404c00:	0f 29 00             	movaps %xmm0,(%rax)
  404c03:	48 83 c0 30          	add    $0x30,%rax
  404c07:	0f 29 40 e0          	movaps %xmm0,-0x20(%rax)
  404c0b:	0f 29 40 f0          	movaps %xmm0,-0x10(%rax)
__static_initialization_and_destruction_0():
/home/aliha951/ipdps-artifact/gapbs-master/src/libpfq_pr.h:158
  404c0f:	48 39 d0             	cmp    %rdx,%rax
  404c12:	75 ec                	jne    404c00 <_GLOBAL__sub_I__Z10PrintLabelRKNSt7__cxx1112basic_stringIcSt11char_traitsIcESaIcEEES6_+0x40>
  404c14:	48 8d 15 65 57 01 00 	lea    0x15765(%rip),%rdx        # 41a380 <__dso_handle>
  404c1b:	31 f6                	xor    %esi,%esi
  404c1d:	48 8d 3d 1c 02 00 00 	lea    0x21c(%rip),%rdi        # 404e40 <__tcf_0>
  404c24:	e8 67 ed ff ff       	callq  403990 <__cxa_atexit@plt>
/home/aliha951/ipdps-artifact/gapbs-master/src/libpfq_pr.h:159
vector<state> shipped_queue[NR_THREADS];
  404c29:	48 8d 05 30 71 01 00 	lea    0x17130(%rip),%rax        # 41bd60 <shipped_queue>
_ZNSt12_Vector_baseI5stateSaIS0_EE17_Vector_impl_dataC4Ev():
/usr/include/c++/10/bits/stl_vector.h:98
  404c30:	66 0f ef c0          	pxor   %xmm0,%xmm0
  404c34:	48 8d 90 00 18 00 00 	lea    0x1800(%rax),%rdx
  404c3b:	0f 1f 44 00 00       	nopl   0x0(%rax,%rax,1)
  404c40:	0f 29 00             	movaps %xmm0,(%rax)
  404c43:	48 83 c0 30          	add    $0x30,%rax
  404c47:	0f 29 40 e0          	movaps %xmm0,-0x20(%rax)
  404c4b:	0f 29 40 f0          	movaps %xmm0,-0x10(%rax)
__static_initialization_and_destruction_0():
/home/aliha951/ipdps-artifact/gapbs-master/src/libpfq_pr.h:159
  404c4f:	48 39 d0             	cmp    %rdx,%rax
  404c52:	75 ec                	jne    404c40 <_GLOBAL__sub_I__Z10PrintLabelRKNSt7__cxx1112basic_stringIcSt11char_traitsIcESaIcEEES6_+0x80>
  404c54:	48 8d 15 25 57 01 00 	lea    0x15725(%rip),%rdx        # 41a380 <__dso_handle>
  404c5b:	31 f6                	xor    %esi,%esi
  404c5d:	48 8d 3d 8c 01 00 00 	lea    0x18c(%rip),%rdi        # 404df0 <__tcf_1>
  404c64:	e8 27 ed ff ff       	callq  403990 <__cxa_atexit@plt>
/home/aliha951/ipdps-artifact/gapbs-master/src/libpfq_pr.h:160
vector<state> ready_queue[NR_THREADS];
  404c69:	48 8d 05 f0 58 01 00 	lea    0x158f0(%rip),%rax        # 41a560 <ready_queue>
_ZNSt12_Vector_baseI5stateSaIS0_EE17_Vector_impl_dataC4Ev():
/usr/include/c++/10/bits/stl_vector.h:98
  404c70:	66 0f ef c0          	pxor   %xmm0,%xmm0
  404c74:	48 8d 90 00 18 00 00 	lea    0x1800(%rax),%rdx
  404c7b:	0f 1f 44 00 00       	nopl   0x0(%rax,%rax,1)
  404c80:	0f 29 00             	movaps %xmm0,(%rax)
  404c83:	48 83 c0 30          	add    $0x30,%rax
  404c87:	0f 29 40 e0          	movaps %xmm0,-0x20(%rax)
  404c8b:	0f 29 40 f0          	movaps %xmm0,-0x10(%rax)
__static_initialization_and_destruction_0():
/home/aliha951/ipdps-artifact/gapbs-master/src/libpfq_pr.h:160
  404c8f:	48 39 d0             	cmp    %rdx,%rax
  404c92:	75 ec                	jne    404c80 <_GLOBAL__sub_I__Z10PrintLabelRKNSt7__cxx1112basic_stringIcSt11char_traitsIcESaIcEEES6_+0xc0>
  404c94:	48 8d 15 e5 56 01 00 	lea    0x156e5(%rip),%rdx        # 41a380 <__dso_handle>
  404c9b:	31 f6                	xor    %esi,%esi
  404c9d:	48 8d 3d fc 00 00 00 	lea    0xfc(%rip),%rdi        # 404da0 <__tcf_2>
_GLOBAL__sub_I__Z10PrintLabelRKNSt7__cxx1112basic_stringIcSt11char_traitsIcESaIcEEES6_():
/home/aliha951/ipdps-artifact/gapbs-master/src/pr_batching.cc:144
  404ca4:	48 83 c4 08          	add    $0x8,%rsp
__static_initialization_and_destruction_0():
/home/aliha951/ipdps-artifact/gapbs-master/src/libpfq_pr.h:160
  404ca8:	e9 e3 ec ff ff       	jmpq   403990 <__cxa_atexit@plt>
_GLOBAL__sub_I__Z10PrintLabelRKNSt7__cxx1112basic_stringIcSt11char_traitsIcESaIcEEES6_():
  404cad:	0f 1f 00             	nopl   (%rax)

0000000000404cb0 <_start>:
_start():
  404cb0:	f3 0f 1e fa          	endbr64 
  404cb4:	31 ed                	xor    %ebp,%ebp
  404cb6:	49 89 d1             	mov    %rdx,%r9
  404cb9:	5e                   	pop    %rsi
  404cba:	48 89 e2             	mov    %rsp,%rdx
  404cbd:	48 83 e4 f0          	and    $0xfffffffffffffff0,%rsp
  404cc1:	50                   	push   %rax
  404cc2:	54                   	push   %rsp
  404cc3:	49 c7 c0 60 41 41 00 	mov    $0x414160,%r8
  404cca:	48 c7 c1 f0 40 41 00 	mov    $0x4140f0,%rcx
  404cd1:	48 c7 c7 a0 3f 40 00 	mov    $0x403fa0,%rdi
  404cd8:	ff 15 0a 53 01 00    	callq  *0x1530a(%rip)        # 419fe8 <__libc_start_main@GLIBC_2.2.5>
  404cde:	f4                   	hlt    
  404cdf:	90                   	nop

0000000000404ce0 <_dl_relocate_static_pie>:
_dl_relocate_static_pie():
  404ce0:	f3 0f 1e fa          	endbr64 
  404ce4:	c3                   	retq   
  404ce5:	66 2e 0f 1f 84 00 00 	nopw   %cs:0x0(%rax,%rax,1)
  404cec:	00 00 00 
  404cef:	90                   	nop

0000000000404cf0 <deregister_tm_clones>:
deregister_tm_clones():
  404cf0:	b8 a8 a3 41 00       	mov    $0x41a3a8,%eax
  404cf5:	48 3d a8 a3 41 00    	cmp    $0x41a3a8,%rax
  404cfb:	74 13                	je     404d10 <deregister_tm_clones+0x20>
  404cfd:	b8 00 00 00 00       	mov    $0x0,%eax
  404d02:	48 85 c0             	test   %rax,%rax
  404d05:	74 09                	je     404d10 <deregister_tm_clones+0x20>
  404d07:	bf a8 a3 41 00       	mov    $0x41a3a8,%edi
  404d0c:	ff e0                	jmpq   *%rax
  404d0e:	66 90                	xchg   %ax,%ax
  404d10:	c3                   	retq   
  404d11:	66 66 2e 0f 1f 84 00 	data16 nopw %cs:0x0(%rax,%rax,1)
  404d18:	00 00 00 00 
  404d1c:	0f 1f 40 00          	nopl   0x0(%rax)

0000000000404d20 <register_tm_clones>:
register_tm_clones():
  404d20:	be a8 a3 41 00       	mov    $0x41a3a8,%esi
  404d25:	48 81 ee a8 a3 41 00 	sub    $0x41a3a8,%rsi
  404d2c:	48 89 f0             	mov    %rsi,%rax
  404d2f:	48 c1 ee 3f          	shr    $0x3f,%rsi
  404d33:	48 c1 f8 03          	sar    $0x3,%rax
  404d37:	48 01 c6             	add    %rax,%rsi
  404d3a:	48 d1 fe             	sar    %rsi
  404d3d:	74 11                	je     404d50 <register_tm_clones+0x30>
  404d3f:	b8 00 00 00 00       	mov    $0x0,%eax
  404d44:	48 85 c0             	test   %rax,%rax
  404d47:	74 07                	je     404d50 <register_tm_clones+0x30>
  404d49:	bf a8 a3 41 00       	mov    $0x41a3a8,%edi
  404d4e:	ff e0                	jmpq   *%rax
  404d50:	c3                   	retq   
  404d51:	66 66 2e 0f 1f 84 00 	data16 nopw %cs:0x0(%rax,%rax,1)
  404d58:	00 00 00 00 
  404d5c:	0f 1f 40 00          	nopl   0x0(%rax)

0000000000404d60 <__do_global_dtors_aux>:
__do_global_dtors_aux():
  404d60:	f3 0f 1e fa          	endbr64 
  404d64:	80 3d bd 57 01 00 00 	cmpb   $0x0,0x157bd(%rip)        # 41a528 <completed.0>
  404d6b:	75 13                	jne    404d80 <__do_global_dtors_aux+0x20>
  404d6d:	55                   	push   %rbp
  404d6e:	48 89 e5             	mov    %rsp,%rbp
  404d71:	e8 7a ff ff ff       	callq  404cf0 <deregister_tm_clones>
  404d76:	c6 05 ab 57 01 00 01 	movb   $0x1,0x157ab(%rip)        # 41a528 <completed.0>
  404d7d:	5d                   	pop    %rbp
  404d7e:	c3                   	retq   
  404d7f:	90                   	nop
  404d80:	c3                   	retq   
  404d81:	66 66 2e 0f 1f 84 00 	data16 nopw %cs:0x0(%rax,%rax,1)
  404d88:	00 00 00 00 
  404d8c:	0f 1f 40 00          	nopl   0x0(%rax)

0000000000404d90 <frame_dummy>:
frame_dummy():
  404d90:	f3 0f 1e fa          	endbr64 
  404d94:	eb 8a                	jmp    404d20 <register_tm_clones>
  404d96:	66 2e 0f 1f 84 00 00 	nopw   %cs:0x0(%rax,%rax,1)
  404d9d:	00 00 00 

0000000000404da0 <__tcf_2>:
__tcf_2():
/home/aliha951/ipdps-artifact/gapbs-master/src/libpfq_pr.h:160
  404da0:	f3 0f 1e fa          	endbr64 
  404da4:	55                   	push   %rbp
  404da5:	53                   	push   %rbx
  404da6:	48 8d 1d 9b 6f 01 00 	lea    0x16f9b(%rip),%rbx        # 41bd48 <ready_queue+0x17e8>
  404dad:	48 8d ab 18 e8 ff ff 	lea    -0x17e8(%rbx),%rbp
  404db4:	48 83 ec 08          	sub    $0x8,%rsp
  404db8:	eb 17                	jmp    404dd1 <__tcf_2+0x31>
  404dba:	66 0f 1f 44 00 00    	nopw   0x0(%rax,%rax,1)
_ZN9__gnu_cxx13new_allocatorI5stateE10deallocateEPS1_m():
/usr/include/c++/10/ext/new_allocator.h:139
  404dc0:	e8 fb eb ff ff       	callq  4039c0 <_ZdlPv@plt>
__tcf_2():
/home/aliha951/ipdps-artifact/gapbs-master/src/libpfq_pr.h:160
  404dc5:	48 8d 43 e8          	lea    -0x18(%rbx),%rax
  404dc9:	48 39 eb             	cmp    %rbp,%rbx
  404dcc:	74 14                	je     404de2 <__tcf_2+0x42>
  404dce:	48 89 c3             	mov    %rax,%rbx
_ZNSt6vectorI5stateSaIS0_EED4Ev():
/usr/include/c++/10/bits/stl_vector.h:680 (discriminator 3)
	std::_Destroy(this->_M_impl._M_start, this->_M_impl._M_finish,
  404dd1:	48 8b 3b             	mov    (%rbx),%rdi
_ZNSt12_Vector_baseI5stateSaIS0_EE13_M_deallocateEPS0_m():
/usr/include/c++/10/bits/stl_vector.h:353 (discriminator 3)
	if (__p)
  404dd4:	48 85 ff             	test   %rdi,%rdi
  404dd7:	75 e7                	jne    404dc0 <__tcf_2+0x20>
__tcf_2():
/home/aliha951/ipdps-artifact/gapbs-master/src/libpfq_pr.h:160
  404dd9:	48 8d 43 e8          	lea    -0x18(%rbx),%rax
  404ddd:	48 39 eb             	cmp    %rbp,%rbx
  404de0:	75 ec                	jne    404dce <__tcf_2+0x2e>
  404de2:	48 83 c4 08          	add    $0x8,%rsp
  404de6:	5b                   	pop    %rbx
  404de7:	5d                   	pop    %rbp
  404de8:	c3                   	retq   
  404de9:	0f 1f 80 00 00 00 00 	nopl   0x0(%rax)

0000000000404df0 <__tcf_1>:
__tcf_1():
/home/aliha951/ipdps-artifact/gapbs-master/src/libpfq_pr.h:159
vector<state> shipped_queue[NR_THREADS];
  404df0:	f3 0f 1e fa          	endbr64 
  404df4:	55                   	push   %rbp
  404df5:	53                   	push   %rbx
  404df6:	48 8d 1d 4b 87 01 00 	lea    0x1874b(%rip),%rbx        # 41d548 <shipped_queue+0x17e8>
  404dfd:	48 8d ab 18 e8 ff ff 	lea    -0x17e8(%rbx),%rbp
  404e04:	48 83 ec 08          	sub    $0x8,%rsp
  404e08:	eb 17                	jmp    404e21 <__tcf_1+0x31>
  404e0a:	66 0f 1f 44 00 00    	nopw   0x0(%rax,%rax,1)
_ZN9__gnu_cxx13new_allocatorI5stateE10deallocateEPS1_m():
/usr/include/c++/10/ext/new_allocator.h:139
  404e10:	e8 ab eb ff ff       	callq  4039c0 <_ZdlPv@plt>
__tcf_1():
/home/aliha951/ipdps-artifact/gapbs-master/src/libpfq_pr.h:159
  404e15:	48 8d 43 e8          	lea    -0x18(%rbx),%rax
  404e19:	48 39 eb             	cmp    %rbp,%rbx
  404e1c:	74 14                	je     404e32 <__tcf_1+0x42>
  404e1e:	48 89 c3             	mov    %rax,%rbx
_ZNSt6vectorI5stateSaIS0_EED4Ev():
/usr/include/c++/10/bits/stl_vector.h:680 (discriminator 3)
	std::_Destroy(this->_M_impl._M_start, this->_M_impl._M_finish,
  404e21:	48 8b 3b             	mov    (%rbx),%rdi
_ZNSt12_Vector_baseI5stateSaIS0_EE13_M_deallocateEPS0_m():
/usr/include/c++/10/bits/stl_vector.h:353 (discriminator 3)
	if (__p)
  404e24:	48 85 ff             	test   %rdi,%rdi
  404e27:	75 e7                	jne    404e10 <__tcf_1+0x20>
__tcf_1():
/home/aliha951/ipdps-artifact/gapbs-master/src/libpfq_pr.h:159
  404e29:	48 8d 43 e8          	lea    -0x18(%rbx),%rax
  404e2d:	48 39 eb             	cmp    %rbp,%rbx
  404e30:	75 ec                	jne    404e1e <__tcf_1+0x2e>
  404e32:	48 83 c4 08          	add    $0x8,%rsp
  404e36:	5b                   	pop    %rbx
  404e37:	5d                   	pop    %rbp
  404e38:	c3                   	retq   
  404e39:	0f 1f 80 00 00 00 00 	nopl   0x0(%rax)

0000000000404e40 <__tcf_0>:
__tcf_0():
/home/aliha951/ipdps-artifact/gapbs-master/src/libpfq_pr.h:158
vector<state> curr_queue[NR_THREADS];
  404e40:	f3 0f 1e fa          	endbr64 
  404e44:	55                   	push   %rbp
  404e45:	53                   	push   %rbx
  404e46:	48 8d 1d fb 9e 01 00 	lea    0x19efb(%rip),%rbx        # 41ed48 <curr_queue+0x17e8>
  404e4d:	48 8d ab 18 e8 ff ff 	lea    -0x17e8(%rbx),%rbp
  404e54:	48 83 ec 08          	sub    $0x8,%rsp
  404e58:	eb 17                	jmp    404e71 <__tcf_0+0x31>
  404e5a:	66 0f 1f 44 00 00    	nopw   0x0(%rax,%rax,1)
_ZN9__gnu_cxx13new_allocatorI5stateE10deallocateEPS1_m():
/usr/include/c++/10/ext/new_allocator.h:139
  404e60:	e8 5b eb ff ff       	callq  4039c0 <_ZdlPv@plt>
__tcf_0():
/home/aliha951/ipdps-artifact/gapbs-master/src/libpfq_pr.h:158
  404e65:	48 8d 43 e8          	lea    -0x18(%rbx),%rax
  404e69:	48 39 eb             	cmp    %rbp,%rbx
  404e6c:	74 14                	je     404e82 <__tcf_0+0x42>
  404e6e:	48 89 c3             	mov    %rax,%rbx
_ZNSt6vectorI5stateSaIS0_EED4Ev():
/usr/include/c++/10/bits/stl_vector.h:680 (discriminator 3)
	std::_Destroy(this->_M_impl._M_start, this->_M_impl._M_finish,
  404e71:	48 8b 3b             	mov    (%rbx),%rdi
_ZNSt12_Vector_baseI5stateSaIS0_EE13_M_deallocateEPS0_m():
/usr/include/c++/10/bits/stl_vector.h:353 (discriminator 3)
	if (__p)
  404e74:	48 85 ff             	test   %rdi,%rdi
  404e77:	75 e7                	jne    404e60 <__tcf_0+0x20>
__tcf_0():
/home/aliha951/ipdps-artifact/gapbs-master/src/libpfq_pr.h:158
  404e79:	48 8d 43 e8          	lea    -0x18(%rbx),%rax
  404e7d:	48 39 eb             	cmp    %rbp,%rbx
  404e80:	75 ec                	jne    404e6e <__tcf_0+0x2e>
  404e82:	48 83 c4 08          	add    $0x8,%rsp
  404e86:	5b                   	pop    %rbx
  404e87:	5d                   	pop    %rbp
  404e88:	c3                   	retq   
  404e89:	0f 1f 80 00 00 00 00 	nopl   0x0(%rax)

0000000000404e90 <_ZL13get_family_idi>:
_ZL13get_family_idi():
/home/aliha951/ipdps-artifact/gapbs-master/src/taskstats_helper.h:30
	struct genlmsghdr g;
	char buf[512];
};

/* Ask generic netlink for the family id of TASKSTATS */
static int get_family_id(int sd) {
  404e90:	41 54                	push   %r12
/home/aliha951/ipdps-artifact/gapbs-master/src/taskstats_helper.h:32
	struct msgtemplate req = {0};
	struct msgtemplate ans = {0};
  404e92:	b9 42 00 00 00       	mov    $0x42,%ecx
/home/aliha951/ipdps-artifact/gapbs-master/src/taskstats_helper.h:30
static int get_family_id(int sd) {
  404e97:	55                   	push   %rbp
  404e98:	89 fd                	mov    %edi,%ebp
  404e9a:	48 81 ec 48 04 00 00 	sub    $0x448,%rsp
  404ea1:	64 48 8b 04 25 28 00 	mov    %fs:0x28,%rax
  404ea8:	00 00 
  404eaa:	48 89 84 24 38 04 00 	mov    %rax,0x438(%rsp)
  404eb1:	00 
  404eb2:	31 c0                	xor    %eax,%eax
/home/aliha951/ipdps-artifact/gapbs-master/src/taskstats_helper.h:32
	struct msgtemplate ans = {0};
  404eb4:	4c 8d a4 24 20 02 00 	lea    0x220(%rsp),%r12
  404ebb:	00 
  404ebc:	4c 89 e7             	mov    %r12,%rdi
  404ebf:	f3 48 ab             	rep stos %rax,%es:(%rdi)
/home/aliha951/ipdps-artifact/gapbs-master/src/taskstats_helper.h:31
	struct msgtemplate req = {0};
  404ec2:	b9 42 00 00 00       	mov    $0x42,%ecx
/home/aliha951/ipdps-artifact/gapbs-master/src/taskstats_helper.h:32
	struct msgtemplate ans = {0};
  404ec7:	c7 07 00 00 00 00    	movl   $0x0,(%rdi)
/home/aliha951/ipdps-artifact/gapbs-master/src/taskstats_helper.h:31
	struct msgtemplate req = {0};
  404ecd:	48 89 e7             	mov    %rsp,%rdi
  404ed0:	f3 48 ab             	rep stos %rax,%es:(%rdi)
/home/aliha951/ipdps-artifact/gapbs-master/src/taskstats_helper.h:36
	struct nlattr *na;
	int rep_len;

	req.n.nlmsg_len = NLMSG_LENGTH(GENL_HDRLEN);
  404ed3:	48 b8 14 00 00 00 10 	movabs $0x1001000000014,%rax
  404eda:	00 01 00 
  404edd:	48 89 04 24          	mov    %rax,(%rsp)
/home/aliha951/ipdps-artifact/gapbs-master/src/taskstats_helper.h:31
	struct msgtemplate req = {0};
  404ee1:	c7 07 00 00 00 00    	movl   $0x0,(%rdi)
/home/aliha951/ipdps-artifact/gapbs-master/src/taskstats_helper.h:40
	req.n.nlmsg_type = GENL_ID_CTRL;
	req.n.nlmsg_flags = NLM_F_REQUEST;
	req.n.nlmsg_seq = 0;
	req.n.nlmsg_pid = getpid();
  404ee7:	e8 f4 ec ff ff       	callq  403be0 <getpid@plt>
/usr/include/x86_64-linux-gnu/bits/string_fortified.h:34

__fortify_function void *
__NTH (memcpy (void *__restrict __dest, const void *__restrict __src,
	       size_t __len))
{
  return __builtin___memcpy_chk (__dest, __src, __len, __bos0 (__dest));
  404eec:	ba 53 00 00 00       	mov    $0x53,%edx
/home/aliha951/ipdps-artifact/gapbs-master/src/taskstats_helper.h:50
	na->nla_type = CTRL_ATTR_FAMILY_NAME;
	na->nla_len = NLA_HDRLEN + strlen(TASKSTATS_GENL_NAME) + 1;
	memcpy(NLA_DATA(na), TASKSTATS_GENL_NAME, strlen(TASKSTATS_GENL_NAME) + 1);
	req.n.nlmsg_len += NLMSG_ALIGN(na->nla_len);

	if (send(sd, &req, req.n.nlmsg_len, 0) < 0)
  404ef1:	31 c9                	xor    %ecx,%ecx
memcpy():
/usr/include/x86_64-linux-gnu/bits/string_fortified.h:34
  404ef3:	48 89 e6             	mov    %rsp,%rsi
_ZL13get_family_idi():
/home/aliha951/ipdps-artifact/gapbs-master/src/taskstats_helper.h:40
	req.n.nlmsg_pid = getpid();
  404ef6:	89 44 24 0c          	mov    %eax,0xc(%rsp)
/home/aliha951/ipdps-artifact/gapbs-master/src/taskstats_helper.h:41
	req.g.cmd = CTRL_CMD_GETFAMILY;
  404efa:	b8 03 01 00 00       	mov    $0x103,%eax
/home/aliha951/ipdps-artifact/gapbs-master/src/taskstats_helper.h:50
	if (send(sd, &req, req.n.nlmsg_len, 0) < 0)
  404eff:	89 ef                	mov    %ebp,%edi
/home/aliha951/ipdps-artifact/gapbs-master/src/taskstats_helper.h:41
	req.g.cmd = CTRL_CMD_GETFAMILY;
  404f01:	66 89 44 24 10       	mov    %ax,0x10(%rsp)
memcpy():
/usr/include/x86_64-linux-gnu/bits/string_fortified.h:34
  404f06:	48 b8 54 41 53 4b 53 	movabs $0x544154534b534154,%rax
  404f0d:	54 41 54 
  404f10:	48 89 44 24 18       	mov    %rax,0x18(%rsp)
_ZL13get_family_idi():
/home/aliha951/ipdps-artifact/gapbs-master/src/taskstats_helper.h:48
	req.n.nlmsg_len += NLMSG_ALIGN(na->nla_len);
  404f15:	8b 04 24             	mov    (%rsp),%eax
memcpy():
/usr/include/x86_64-linux-gnu/bits/string_fortified.h:34
  404f18:	66 89 54 24 20       	mov    %dx,0x20(%rsp)
_ZL13get_family_idi():
/home/aliha951/ipdps-artifact/gapbs-master/src/taskstats_helper.h:48
  404f1d:	8d 50 10             	lea    0x10(%rax),%edx
/home/aliha951/ipdps-artifact/gapbs-master/src/taskstats_helper.h:46
	na->nla_len = NLA_HDRLEN + strlen(TASKSTATS_GENL_NAME) + 1;
  404f20:	c7 44 24 14 0e 00 02 	movl   $0x2000e,0x14(%rsp)
  404f27:	00 
/home/aliha951/ipdps-artifact/gapbs-master/src/taskstats_helper.h:48
	req.n.nlmsg_len += NLMSG_ALIGN(na->nla_len);
  404f28:	89 14 24             	mov    %edx,(%rsp)
/home/aliha951/ipdps-artifact/gapbs-master/src/taskstats_helper.h:50
	if (send(sd, &req, req.n.nlmsg_len, 0) < 0)
  404f2b:	e8 50 e9 ff ff       	callq  403880 <send@plt>
  404f30:	48 85 c0             	test   %rax,%rax
  404f33:	78 6b                	js     404fa0 <_ZL13get_family_idi+0x110>
/usr/include/x86_64-linux-gnu/bits/socket2.h:44
	return __recv_chk (__fd, __buf, __n, __bos0 (__buf), __flags);

      if (__n > __bos0 (__buf))
	return __recv_chk_warn (__fd, __buf, __n, __bos0 (__buf), __flags);
    }
  return __recv_alias (__fd, __buf, __n, __flags);
  404f35:	31 c9                	xor    %ecx,%ecx
recv():
/usr/include/x86_64-linux-gnu/bits/socket2.h:44
  404f37:	ba 14 02 00 00       	mov    $0x214,%edx
  404f3c:	4c 89 e6             	mov    %r12,%rsi
  404f3f:	89 ef                	mov    %ebp,%edi
  404f41:	e8 da e8 ff ff       	callq  403820 <recv@plt>
_ZL13get_family_idi():
/home/aliha951/ipdps-artifact/gapbs-master/src/taskstats_helper.h:54
		return -1;

	rep_len = recv(sd, &ans, sizeof(ans), 0);
	if (rep_len < 0 || ans.n.nlmsg_type == NLMSG_ERROR)
  404f46:	85 c0                	test   %eax,%eax
  404f48:	78 56                	js     404fa0 <_ZL13get_family_idi+0x110>
/home/aliha951/ipdps-artifact/gapbs-master/src/taskstats_helper.h:54 (discriminator 1)
  404f4a:	66 83 bc 24 24 02 00 	cmpw   $0x2,0x224(%rsp)
  404f51:	00 02 
  404f53:	74 4b                	je     404fa0 <_ZL13get_family_idi+0x110>
/home/aliha951/ipdps-artifact/gapbs-master/src/taskstats_helper.h:59
		return -1;

	/* First attr is family name we sent, second should be ID */
	na = (struct nlattr *) GENLMSG_DATA(&ans.n);
	na = (struct nlattr *) ((char*)na + NLA_ALIGN(na->nla_len));
  404f55:	0f b7 84 24 34 02 00 	movzwl 0x234(%rsp),%eax
  404f5c:	00 
  404f5d:	83 c0 03             	add    $0x3,%eax
  404f60:	25 fc ff 01 00       	and    $0x1fffc,%eax
  404f65:	48 8d 84 04 34 02 00 	lea    0x234(%rsp,%rax,1),%rax
  404f6c:	00 
/home/aliha951/ipdps-artifact/gapbs-master/src/taskstats_helper.h:60
	if (na->nla_type == CTRL_ATTR_FAMILY_ID)
  404f6d:	66 83 78 02 01       	cmpw   $0x1,0x2(%rax)
  404f72:	75 2c                	jne    404fa0 <_ZL13get_family_idi+0x110>
/home/aliha951/ipdps-artifact/gapbs-master/src/taskstats_helper.h:61
		return *(__u16 *) NLA_DATA(na);
  404f74:	0f b7 40 04          	movzwl 0x4(%rax),%eax
/home/aliha951/ipdps-artifact/gapbs-master/src/taskstats_helper.h:63
	return -1;
}
  404f78:	48 8b b4 24 38 04 00 	mov    0x438(%rsp),%rsi
  404f7f:	00 
  404f80:	64 48 2b 34 25 28 00 	sub    %fs:0x28,%rsi
  404f87:	00 00 
  404f89:	75 1c                	jne    404fa7 <_ZL13get_family_idi+0x117>
  404f8b:	48 81 c4 48 04 00 00 	add    $0x448,%rsp
  404f92:	5d                   	pop    %rbp
  404f93:	41 5c                	pop    %r12
  404f95:	c3                   	retq   
  404f96:	66 2e 0f 1f 84 00 00 	nopw   %cs:0x0(%rax,%rax,1)
  404f9d:	00 00 00 
/home/aliha951/ipdps-artifact/gapbs-master/src/taskstats_helper.h:51
		return -1;
  404fa0:	b8 ff ff ff ff       	mov    $0xffffffff,%eax
  404fa5:	eb d1                	jmp    404f78 <_ZL13get_family_idi+0xe8>
/home/aliha951/ipdps-artifact/gapbs-master/src/taskstats_helper.h:63
}
  404fa7:	e8 94 ea ff ff       	callq  403a40 <__stack_chk_fail@plt>
  404fac:	0f 1f 40 00          	nopl   0x0(%rax)

0000000000404fb0 <_ZL21request_taskstats_pidiiiP9taskstatsPm>:
_ZL21request_taskstats_pidiiiP9taskstatsPm():
/home/aliha951/ipdps-artifact/gapbs-master/src/taskstats_helper.h:80
		return -1;
	}
	return sd;
}

static int request_taskstats_pid(int sd, int family_id, pid_t pid, struct taskstats *out_ts, size_t *out_len) {
  404fb0:	41 57                	push   %r15
  404fb2:	41 89 d7             	mov    %edx,%r15d
  404fb5:	41 56                	push   %r14
  404fb7:	41 55                	push   %r13
  404fb9:	41 89 fd             	mov    %edi,%r13d
  404fbc:	41 54                	push   %r12
  404fbe:	49 89 cc             	mov    %rcx,%r12
/home/aliha951/ipdps-artifact/gapbs-master/src/taskstats_helper.h:81
	struct msgtemplate req = {0};
  404fc1:	b9 42 00 00 00       	mov    $0x42,%ecx
/home/aliha951/ipdps-artifact/gapbs-master/src/taskstats_helper.h:80
static int request_taskstats_pid(int sd, int family_id, pid_t pid, struct taskstats *out_ts, size_t *out_len) {
  404fc6:	55                   	push   %rbp
/usr/include/x86_64-linux-gnu/bits/string_fortified.h:71
    {
      __warn_memset_zero_len ();
      return __dest;
    }
#endif
  return __builtin___memset_chk (__dest, __ch, __len, __bos0 (__dest));
  404fc7:	49 8d 6c 24 08       	lea    0x8(%r12),%rbp
/home/aliha951/ipdps-artifact/gapbs-master/src/taskstats_helper.h:80
  404fcc:	53                   	push   %rbx
  404fcd:	4c 89 c3             	mov    %r8,%rbx
  404fd0:	48 81 ec 48 04 00 00 	sub    $0x448,%rsp
  404fd7:	64 48 8b 04 25 28 00 	mov    %fs:0x28,%rax
  404fde:	00 00 
  404fe0:	48 89 84 24 38 04 00 	mov    %rax,0x438(%rsp)
  404fe7:	00 
  404fe8:	31 c0                	xor    %eax,%eax
/home/aliha951/ipdps-artifact/gapbs-master/src/taskstats_helper.h:81
	struct msgtemplate req = {0};
  404fea:	48 89 e7             	mov    %rsp,%rdi
/home/aliha951/ipdps-artifact/gapbs-master/src/taskstats_helper.h:85
	struct msgtemplate rep = {0};
	struct nlattr *na;

	*out_len = 0;
  404fed:	49 c7 00 00 00 00 00 	movq   $0x0,(%r8)
/home/aliha951/ipdps-artifact/gapbs-master/src/taskstats_helper.h:82
	struct msgtemplate rep = {0};
  404ff4:	4c 8d b4 24 20 02 00 	lea    0x220(%rsp),%r14
  404ffb:	00 
/home/aliha951/ipdps-artifact/gapbs-master/src/taskstats_helper.h:81
	struct msgtemplate req = {0};
  404ffc:	f3 48 ab             	rep stos %rax,%es:(%rdi)
/home/aliha951/ipdps-artifact/gapbs-master/src/taskstats_helper.h:82
	struct msgtemplate rep = {0};
  404fff:	b9 42 00 00 00       	mov    $0x42,%ecx
/home/aliha951/ipdps-artifact/gapbs-master/src/taskstats_helper.h:81
	struct msgtemplate req = {0};
  405004:	c7 07 00 00 00 00    	movl   $0x0,(%rdi)
/home/aliha951/ipdps-artifact/gapbs-master/src/taskstats_helper.h:82
	struct msgtemplate rep = {0};
  40500a:	4c 89 f7             	mov    %r14,%rdi
  40500d:	f3 48 ab             	rep stos %rax,%es:(%rdi)
memset():
/usr/include/x86_64-linux-gnu/bits/string_fortified.h:71
  405010:	4c 89 e1             	mov    %r12,%rcx
_ZL21request_taskstats_pidiiiP9taskstatsPm():
/home/aliha951/ipdps-artifact/gapbs-master/src/taskstats_helper.h:82
  405013:	c7 07 00 00 00 00    	movl   $0x0,(%rdi)
memset():
/usr/include/x86_64-linux-gnu/bits/string_fortified.h:71
  405019:	48 89 ef             	mov    %rbp,%rdi
  40501c:	48 83 e7 f8          	and    $0xfffffffffffffff8,%rdi
  405020:	49 c7 04 24 00 00 00 	movq   $0x0,(%r12)
  405027:	00 
  405028:	49 c7 84 24 a8 01 00 	movq   $0x0,0x1a8(%r12)
  40502f:	00 00 00 00 00 
  405034:	48 29 f9             	sub    %rdi,%rcx
  405037:	81 c1 b0 01 00 00    	add    $0x1b0,%ecx
  40503d:	c1 e9 03             	shr    $0x3,%ecx
  405040:	f3 48 ab             	rep stos %rax,%es:(%rdi)
_ZL21request_taskstats_pidiiiP9taskstatsPm():
/home/aliha951/ipdps-artifact/gapbs-master/src/taskstats_helper.h:90
	memset(out_ts, 0, sizeof(*out_ts));

	req.n.nlmsg_len = NLMSG_LENGTH(GENL_HDRLEN);
	req.n.nlmsg_type = family_id;
	req.n.nlmsg_flags = NLM_F_REQUEST;
  405043:	b8 01 00 00 00       	mov    $0x1,%eax
/home/aliha951/ipdps-artifact/gapbs-master/src/taskstats_helper.h:89
	req.n.nlmsg_type = family_id;
  405048:	66 89 74 24 04       	mov    %si,0x4(%rsp)
/home/aliha951/ipdps-artifact/gapbs-master/src/taskstats_helper.h:88
	req.n.nlmsg_len = NLMSG_LENGTH(GENL_HDRLEN);
  40504d:	c7 04 24 14 00 00 00 	movl   $0x14,(%rsp)
/home/aliha951/ipdps-artifact/gapbs-master/src/taskstats_helper.h:90
	req.n.nlmsg_flags = NLM_F_REQUEST;
  405054:	66 89 44 24 06       	mov    %ax,0x6(%rsp)
/home/aliha951/ipdps-artifact/gapbs-master/src/taskstats_helper.h:91
	req.n.nlmsg_seq = 1;
  405059:	c7 44 24 08 01 00 00 	movl   $0x1,0x8(%rsp)
  405060:	00 
/home/aliha951/ipdps-artifact/gapbs-master/src/taskstats_helper.h:92
	req.n.nlmsg_pid = getpid();
  405061:	e8 7a eb ff ff       	callq  403be0 <getpid@plt>
/home/aliha951/ipdps-artifact/gapbs-master/src/taskstats_helper.h:93
	req.g.cmd = TASKSTATS_CMD_GET;
  405066:	ba 01 0e 00 00       	mov    $0xe01,%edx
/home/aliha951/ipdps-artifact/gapbs-master/src/taskstats_helper.h:103
  na->nla_type = TASKSTATS_CMD_ATTR_TGID; // Use TGID to get stats for thread group (process) instead of single thread
	na->nla_len = NLA_HDRLEN + sizeof(pid);
	memcpy(NLA_DATA(na), &pid, sizeof(pid));
	req.n.nlmsg_len += NLMSG_ALIGN(na->nla_len);

	if (send(sd, &req, req.n.nlmsg_len, 0) < 0)
  40506b:	31 c9                	xor    %ecx,%ecx
  40506d:	48 89 e6             	mov    %rsp,%rsi
/home/aliha951/ipdps-artifact/gapbs-master/src/taskstats_helper.h:92
	req.n.nlmsg_pid = getpid();
  405070:	89 44 24 0c          	mov    %eax,0xc(%rsp)
/home/aliha951/ipdps-artifact/gapbs-master/src/taskstats_helper.h:101
	req.n.nlmsg_len += NLMSG_ALIGN(na->nla_len);
  405074:	8b 04 24             	mov    (%rsp),%eax
/home/aliha951/ipdps-artifact/gapbs-master/src/taskstats_helper.h:103
	if (send(sd, &req, req.n.nlmsg_len, 0) < 0)
  405077:	44 89 ef             	mov    %r13d,%edi
/home/aliha951/ipdps-artifact/gapbs-master/src/taskstats_helper.h:93
	req.g.cmd = TASKSTATS_CMD_GET;
  40507a:	66 89 54 24 10       	mov    %dx,0x10(%rsp)
/home/aliha951/ipdps-artifact/gapbs-master/src/taskstats_helper.h:101
	req.n.nlmsg_len += NLMSG_ALIGN(na->nla_len);
  40507f:	8d 50 08             	lea    0x8(%rax),%edx
/home/aliha951/ipdps-artifact/gapbs-master/src/taskstats_helper.h:99
	na->nla_len = NLA_HDRLEN + sizeof(pid);
  405082:	c7 44 24 14 08 00 02 	movl   $0x20008,0x14(%rsp)
  405089:	00 
/usr/include/x86_64-linux-gnu/bits/string_fortified.h:34
  return __builtin___memcpy_chk (__dest, __src, __len, __bos0 (__dest));
  40508a:	44 89 7c 24 18       	mov    %r15d,0x18(%rsp)
/home/aliha951/ipdps-artifact/gapbs-master/src/taskstats_helper.h:101
	req.n.nlmsg_len += NLMSG_ALIGN(na->nla_len);
  40508f:	89 14 24             	mov    %edx,(%rsp)
/home/aliha951/ipdps-artifact/gapbs-master/src/taskstats_helper.h:103
	if (send(sd, &req, req.n.nlmsg_len, 0) < 0)
  405092:	e8 e9 e7 ff ff       	callq  403880 <send@plt>
  405097:	48 85 c0             	test   %rax,%rax
  40509a:	0f 88 18 01 00 00    	js     4051b8 <_ZL21request_taskstats_pidiiiP9taskstatsPm+0x208>
/usr/include/x86_64-linux-gnu/bits/socket2.h:44
  4050a0:	31 c9                	xor    %ecx,%ecx
recv():
/usr/include/x86_64-linux-gnu/bits/socket2.h:44
  4050a2:	ba 14 02 00 00       	mov    $0x214,%edx
  4050a7:	4c 89 f6             	mov    %r14,%rsi
  4050aa:	44 89 ef             	mov    %r13d,%edi
  4050ad:	e8 6e e7 ff ff       	callq  403820 <recv@plt>
_ZL21request_taskstats_pidiiiP9taskstatsPm():
/home/aliha951/ipdps-artifact/gapbs-master/src/taskstats_helper.h:105
		return -1;
	if (recv(sd, &rep, sizeof(rep), 0) < 0)
  4050b2:	48 85 c0             	test   %rax,%rax
  4050b5:	0f 88 fd 00 00 00    	js     4051b8 <_ZL21request_taskstats_pidiiiP9taskstatsPm+0x208>
/home/aliha951/ipdps-artifact/gapbs-master/src/taskstats_helper.h:109
		return -1;

	na = (struct nlattr *) GENLMSG_DATA(&rep.n);
	int rem = rep.n.nlmsg_len - NLMSG_LENGTH(GENL_HDRLEN);
  4050bb:	8b 84 24 20 02 00 00 	mov    0x220(%rsp),%eax
  4050c2:	8d 70 ec             	lea    -0x14(%rax),%esi
/home/aliha951/ipdps-artifact/gapbs-master/src/taskstats_helper.h:110
	while (rem > 0 && na->nla_len >= NLA_HDRLEN && rem >= na->nla_len) {
  4050c5:	85 f6                	test   %esi,%esi
  4050c7:	0f 8e eb 00 00 00    	jle    4051b8 <_ZL21request_taskstats_pidiiiP9taskstatsPm+0x208>
/home/aliha951/ipdps-artifact/gapbs-master/src/taskstats_helper.h:108
	na = (struct nlattr *) GENLMSG_DATA(&rep.n);
  4050cd:	48 8d 8c 24 34 02 00 	lea    0x234(%rsp),%rcx
  4050d4:	00 
  4050d5:	eb 29                	jmp    405100 <_ZL21request_taskstats_pidiiiP9taskstatsPm+0x150>
  4050d7:	66 0f 1f 84 00 00 00 	nopw   0x0(%rax,%rax,1)
  4050de:	00 00 
/home/aliha951/ipdps-artifact/gapbs-master/src/taskstats_helper.h:126
				}
				int step2 = NLA_ALIGN(n2->nla_len);
				aggr_len -= step2;
				n2 = (struct nlattr *) ((char*)n2 + step2);
			}
		} else if (na->nla_type == TASKSTATS_TYPE_STATS) {
  4050e0:	66 83 f8 03          	cmp    $0x3,%ax
  4050e4:	0f 84 26 01 00 00    	je     405210 <_ZL21request_taskstats_pidiiiP9taskstatsPm+0x260>
/home/aliha951/ipdps-artifact/gapbs-master/src/taskstats_helper.h:133
			if (payload > sizeof(*out_ts)) payload = sizeof(*out_ts);
			memcpy(out_ts, NLA_DATA(na), payload);
			*out_len = payload;
			return 0;
		}
		int step = NLA_ALIGN(na->nla_len);
  4050ea:	83 c2 03             	add    $0x3,%edx
  4050ed:	83 e2 fc             	and    $0xfffffffc,%edx
/home/aliha951/ipdps-artifact/gapbs-master/src/taskstats_helper.h:134
		rem -= step;
  4050f0:	29 d6                	sub    %edx,%esi
/home/aliha951/ipdps-artifact/gapbs-master/src/taskstats_helper.h:135
		na = (struct nlattr *) ((char*)na + step);
  4050f2:	48 63 d2             	movslq %edx,%rdx
  4050f5:	48 01 d1             	add    %rdx,%rcx
/home/aliha951/ipdps-artifact/gapbs-master/src/taskstats_helper.h:110
	while (rem > 0 && na->nla_len >= NLA_HDRLEN && rem >= na->nla_len) {
  4050f8:	85 f6                	test   %esi,%esi
  4050fa:	0f 8e b8 00 00 00    	jle    4051b8 <_ZL21request_taskstats_pidiiiP9taskstatsPm+0x208>
/home/aliha951/ipdps-artifact/gapbs-master/src/taskstats_helper.h:110 (discriminator 1)
  405100:	0f b7 11             	movzwl (%rcx),%edx
  405103:	66 83 fa 03          	cmp    $0x3,%dx
  405107:	0f 86 ab 00 00 00    	jbe    4051b8 <_ZL21request_taskstats_pidiiiP9taskstatsPm+0x208>
/home/aliha951/ipdps-artifact/gapbs-master/src/taskstats_helper.h:110 (discriminator 2)
  40510d:	39 f2                	cmp    %esi,%edx
  40510f:	0f 8f a3 00 00 00    	jg     4051b8 <_ZL21request_taskstats_pidiiiP9taskstatsPm+0x208>
/home/aliha951/ipdps-artifact/gapbs-master/src/taskstats_helper.h:111
		if (na->nla_type == TASKSTATS_TYPE_AGGR_PID || na->nla_type == TASKSTATS_TYPE_AGGR_TGID) {
  405115:	0f b7 41 02          	movzwl 0x2(%rcx),%eax
  405119:	8d 78 fc             	lea    -0x4(%rax),%edi
  40511c:	66 83 ff 01          	cmp    $0x1,%di
  405120:	77 be                	ja     4050e0 <_ZL21request_taskstats_pidiiiP9taskstatsPm+0x130>
/home/aliha951/ipdps-artifact/gapbs-master/src/taskstats_helper.h:114
			while (aggr_len > 0 && n2->nla_len >= NLA_HDRLEN && aggr_len >= n2->nla_len) {
  405122:	41 89 d0             	mov    %edx,%r8d
/home/aliha951/ipdps-artifact/gapbs-master/src/taskstats_helper.h:113
			struct nlattr *n2 = (struct nlattr *) NLA_DATA(na);
  405125:	48 8d 79 04          	lea    0x4(%rcx),%rdi
/home/aliha951/ipdps-artifact/gapbs-master/src/taskstats_helper.h:114
			while (aggr_len > 0 && n2->nla_len >= NLA_HDRLEN && aggr_len >= n2->nla_len) {
  405129:	41 83 e8 04          	sub    $0x4,%r8d
  40512d:	75 1c                	jne    40514b <_ZL21request_taskstats_pidiiiP9taskstatsPm+0x19b>
  40512f:	eb b9                	jmp    4050ea <_ZL21request_taskstats_pidiiiP9taskstatsPm+0x13a>
  405131:	0f 1f 80 00 00 00 00 	nopl   0x0(%rax)
/home/aliha951/ipdps-artifact/gapbs-master/src/taskstats_helper.h:122
				int step2 = NLA_ALIGN(n2->nla_len);
  405138:	83 c0 03             	add    $0x3,%eax
  40513b:	83 e0 fc             	and    $0xfffffffc,%eax
/home/aliha951/ipdps-artifact/gapbs-master/src/taskstats_helper.h:123
				aggr_len -= step2;
  40513e:	41 29 c0             	sub    %eax,%r8d
/home/aliha951/ipdps-artifact/gapbs-master/src/taskstats_helper.h:124
				n2 = (struct nlattr *) ((char*)n2 + step2);
  405141:	48 98                	cltq   
  405143:	48 01 c7             	add    %rax,%rdi
/home/aliha951/ipdps-artifact/gapbs-master/src/taskstats_helper.h:114
			while (aggr_len > 0 && n2->nla_len >= NLA_HDRLEN && aggr_len >= n2->nla_len) {
  405146:	45 85 c0             	test   %r8d,%r8d
  405149:	7e 9f                	jle    4050ea <_ZL21request_taskstats_pidiiiP9taskstatsPm+0x13a>
/home/aliha951/ipdps-artifact/gapbs-master/src/taskstats_helper.h:114 (discriminator 1)
  40514b:	0f b7 07             	movzwl (%rdi),%eax
  40514e:	66 83 f8 03          	cmp    $0x3,%ax
  405152:	76 96                	jbe    4050ea <_ZL21request_taskstats_pidiiiP9taskstatsPm+0x13a>
/home/aliha951/ipdps-artifact/gapbs-master/src/taskstats_helper.h:114 (discriminator 2)
  405154:	44 39 c0             	cmp    %r8d,%eax
  405157:	7f 91                	jg     4050ea <_ZL21request_taskstats_pidiiiP9taskstatsPm+0x13a>
/home/aliha951/ipdps-artifact/gapbs-master/src/taskstats_helper.h:115
				if (n2->nla_type == TASKSTATS_TYPE_STATS) {
  405159:	66 83 7f 02 03       	cmpw   $0x3,0x2(%rdi)
  40515e:	75 d8                	jne    405138 <_ZL21request_taskstats_pidiiiP9taskstatsPm+0x188>
/home/aliha951/ipdps-artifact/gapbs-master/src/taskstats_helper.h:116
					size_t payload = n2->nla_len - NLA_HDRLEN;
  405160:	83 e8 04             	sub    $0x4,%eax
  405163:	ba b0 01 00 00       	mov    $0x1b0,%edx
/home/aliha951/ipdps-artifact/gapbs-master/src/taskstats_helper.h:118
					memcpy(out_ts, NLA_DATA(n2), payload);
  405168:	48 8d 77 04          	lea    0x4(%rdi),%rsi
/home/aliha951/ipdps-artifact/gapbs-master/src/taskstats_helper.h:116
					size_t payload = n2->nla_len - NLA_HDRLEN;
  40516c:	48 98                	cltq   
/home/aliha951/ipdps-artifact/gapbs-master/src/taskstats_helper.h:117
					if (payload > sizeof(*out_ts)) payload = sizeof(*out_ts);
  40516e:	48 3d b0 01 00 00    	cmp    $0x1b0,%rax
  405174:	48 0f 47 c2          	cmova  %rdx,%rax
/usr/include/x86_64-linux-gnu/bits/string_fortified.h:34
  405178:	83 f8 08             	cmp    $0x8,%eax
memcpy():
/usr/include/x86_64-linux-gnu/bits/string_fortified.h:34
  40517b:	72 6b                	jb     4051e8 <_ZL21request_taskstats_pidiiiP9taskstatsPm+0x238>
  40517d:	48 8b 57 04          	mov    0x4(%rdi),%rdx
_ZL21request_taskstats_pidiiiP9taskstatsPm():
/usr/include/x86_64-linux-gnu/bits/string_fortified.h:34
  405181:	49 89 14 24          	mov    %rdx,(%r12)
memcpy():
/usr/include/x86_64-linux-gnu/bits/string_fortified.h:34
  405185:	89 c2                	mov    %eax,%edx
  405187:	48 89 ef             	mov    %rbp,%rdi
  40518a:	48 8b 4c 16 f8       	mov    -0x8(%rsi,%rdx,1),%rcx
  40518f:	48 83 e7 f8          	and    $0xfffffffffffffff8,%rdi
  405193:	49 89 4c 14 f8       	mov    %rcx,-0x8(%r12,%rdx,1)
  405198:	49 29 fc             	sub    %rdi,%r12
  40519b:	4c 29 e6             	sub    %r12,%rsi
  40519e:	41 01 c4             	add    %eax,%r12d
  4051a1:	41 c1 ec 03          	shr    $0x3,%r12d
  4051a5:	44 89 e1             	mov    %r12d,%ecx
  4051a8:	f3 48 a5             	rep movsq %ds:(%rsi),%es:(%rdi)
_ZL21request_taskstats_pidiiiP9taskstatsPm():
/home/aliha951/ipdps-artifact/gapbs-master/src/taskstats_helper.h:130
			*out_len = payload;
  4051ab:	48 89 03             	mov    %rax,(%rbx)
/home/aliha951/ipdps-artifact/gapbs-master/src/taskstats_helper.h:131
			return 0;
  4051ae:	31 c0                	xor    %eax,%eax
  4051b0:	eb 0b                	jmp    4051bd <_ZL21request_taskstats_pidiiiP9taskstatsPm+0x20d>
  4051b2:	66 0f 1f 44 00 00    	nopw   0x0(%rax,%rax,1)
/home/aliha951/ipdps-artifact/gapbs-master/src/taskstats_helper.h:104
		return -1;
  4051b8:	b8 ff ff ff ff       	mov    $0xffffffff,%eax
/home/aliha951/ipdps-artifact/gapbs-master/src/taskstats_helper.h:138
	}
	return -1; /* Not found */
}
  4051bd:	48 8b 9c 24 38 04 00 	mov    0x438(%rsp),%rbx
  4051c4:	00 
  4051c5:	64 48 2b 1c 25 28 00 	sub    %fs:0x28,%rbx
  4051cc:	00 00 
  4051ce:	75 7c                	jne    40524c <_ZL21request_taskstats_pidiiiP9taskstatsPm+0x29c>
  4051d0:	48 81 c4 48 04 00 00 	add    $0x448,%rsp
  4051d7:	5b                   	pop    %rbx
  4051d8:	5d                   	pop    %rbp
  4051d9:	41 5c                	pop    %r12
  4051db:	41 5d                	pop    %r13
  4051dd:	41 5e                	pop    %r14
  4051df:	41 5f                	pop    %r15
  4051e1:	c3                   	retq   
  4051e2:	66 0f 1f 44 00 00    	nopw   0x0(%rax,%rax,1)
memcpy():
/usr/include/x86_64-linux-gnu/bits/string_fortified.h:34
  4051e8:	a8 04                	test   $0x4,%al
  4051ea:	75 4a                	jne    405236 <_ZL21request_taskstats_pidiiiP9taskstatsPm+0x286>
  4051ec:	85 c0                	test   %eax,%eax
  4051ee:	74 bb                	je     4051ab <_ZL21request_taskstats_pidiiiP9taskstatsPm+0x1fb>
  4051f0:	0f b6 16             	movzbl (%rsi),%edx
  4051f3:	41 88 14 24          	mov    %dl,(%r12)
  4051f7:	a8 02                	test   $0x2,%al
  4051f9:	74 b0                	je     4051ab <_ZL21request_taskstats_pidiiiP9taskstatsPm+0x1fb>
  4051fb:	89 c2                	mov    %eax,%edx
  4051fd:	0f b7 4c 16 fe       	movzwl -0x2(%rsi,%rdx,1),%ecx
  405202:	66 41 89 4c 14 fe    	mov    %cx,-0x2(%r12,%rdx,1)
  405208:	eb a1                	jmp    4051ab <_ZL21request_taskstats_pidiiiP9taskstatsPm+0x1fb>
  40520a:	66 0f 1f 44 00 00    	nopw   0x0(%rax,%rax,1)
_ZL21request_taskstats_pidiiiP9taskstatsPm():
/home/aliha951/ipdps-artifact/gapbs-master/src/taskstats_helper.h:127
			size_t payload = na->nla_len - NLA_HDRLEN;
  405210:	8d 42 fc             	lea    -0x4(%rdx),%eax
  405213:	ba b0 01 00 00       	mov    $0x1b0,%edx
/home/aliha951/ipdps-artifact/gapbs-master/src/taskstats_helper.h:129
			memcpy(out_ts, NLA_DATA(na), payload);
  405218:	48 8d 71 04          	lea    0x4(%rcx),%rsi
/home/aliha951/ipdps-artifact/gapbs-master/src/taskstats_helper.h:127
			size_t payload = na->nla_len - NLA_HDRLEN;
  40521c:	48 98                	cltq   
/home/aliha951/ipdps-artifact/gapbs-master/src/taskstats_helper.h:128
			if (payload > sizeof(*out_ts)) payload = sizeof(*out_ts);
  40521e:	48 3d b0 01 00 00    	cmp    $0x1b0,%rax
  405224:	48 0f 47 c2          	cmova  %rdx,%rax
memcpy():
/usr/include/x86_64-linux-gnu/bits/string_fortified.h:34
  405228:	83 f8 08             	cmp    $0x8,%eax
  40522b:	72 bb                	jb     4051e8 <_ZL21request_taskstats_pidiiiP9taskstatsPm+0x238>
  40522d:	48 8b 51 04          	mov    0x4(%rcx),%rdx
  405231:	e9 4b ff ff ff       	jmpq   405181 <_ZL21request_taskstats_pidiiiP9taskstatsPm+0x1d1>
  405236:	8b 16                	mov    (%rsi),%edx
  405238:	41 89 14 24          	mov    %edx,(%r12)
  40523c:	89 c2                	mov    %eax,%edx
  40523e:	8b 4c 16 fc          	mov    -0x4(%rsi,%rdx,1),%ecx
  405242:	41 89 4c 14 fc       	mov    %ecx,-0x4(%r12,%rdx,1)
  405247:	e9 5f ff ff ff       	jmpq   4051ab <_ZL21request_taskstats_pidiiiP9taskstatsPm+0x1fb>
_ZL21request_taskstats_pidiiiP9taskstatsPm():
/home/aliha951/ipdps-artifact/gapbs-master/src/taskstats_helper.h:138
}
  40524c:	e8 ef e7 ff ff       	callq  403a40 <__stack_chk_fail@plt>
  405251:	66 66 2e 0f 1f 84 00 	data16 nopw %cs:0x0(%rax,%rax,1)
  405258:	00 00 00 00 
  40525c:	0f 1f 40 00          	nopl   0x0(%rax)

0000000000405260 <_Z12clear_queuesPFvR5stateE._omp_fn.1>:
_Z12clear_queuesPFvR5stateE._omp_fn.1():
/home/aliha951/ipdps-artifact/gapbs-master/src/libpfq_pr.h:215
  #pragma omp parallel for
  405260:	f3 0f 1e fa          	endbr64 
  405264:	41 56                	push   %r14
  405266:	41 55                	push   %r13
  405268:	41 54                	push   %r12
  40526a:	55                   	push   %rbp
  40526b:	48 89 fd             	mov    %rdi,%rbp
  40526e:	53                   	push   %rbx
  40526f:	e8 4c e9 ff ff       	callq  403bc0 <omp_get_num_threads@plt>
  405274:	89 c3                	mov    %eax,%ebx
  405276:	e8 f5 e7 ff ff       	callq  403a70 <omp_get_thread_num@plt>
  40527b:	89 c1                	mov    %eax,%ecx
  40527d:	8b 45 08             	mov    0x8(%rbp),%eax
  405280:	99                   	cltd   
  405281:	f7 fb                	idiv   %ebx
  405283:	39 d1                	cmp    %edx,%ecx
  405285:	0f 8c c0 00 00 00    	jl     40534b <_Z12clear_queuesPFvR5stateE._omp_fn.1+0xeb>
  40528b:	0f af c8             	imul   %eax,%ecx
  40528e:	01 ca                	add    %ecx,%edx
  405290:	8d 0c 10             	lea    (%rax,%rdx,1),%ecx
  405293:	39 ca                	cmp    %ecx,%edx
  405295:	0f 8d a7 00 00 00    	jge    405342 <_Z12clear_queuesPFvR5stateE._omp_fn.1+0xe2>
  40529b:	48 63 d2             	movslq %edx,%rdx
  40529e:	83 e8 01             	sub    $0x1,%eax
  4052a1:	48 8b 6d 00          	mov    0x0(%rbp),%rbp
  4052a5:	4c 8d 25 b4 6a 01 00 	lea    0x16ab4(%rip),%r12        # 41bd60 <shipped_queue>
  4052ac:	4c 8d 2c 52          	lea    (%rdx,%rdx,2),%r13
  4052b0:	48 01 c2             	add    %rax,%rdx
  4052b3:	48 8d 0d a6 82 01 00 	lea    0x182a6(%rip),%rcx        # 41d560 <curr_queue>
  4052ba:	49 c1 e5 03          	shl    $0x3,%r13
  4052be:	48 8d 14 52          	lea    (%rdx,%rdx,2),%rdx
  4052c2:	48 8d 05 af 6a 01 00 	lea    0x16aaf(%rip),%rax        # 41bd78 <shipped_queue+0x18>
  4052c9:	4d 01 ec             	add    %r13,%r12
  4052cc:	4c 8d 34 d0          	lea    (%rax,%rdx,8),%r14
  4052d0:	49 01 cd             	add    %rcx,%r13
  4052d3:	0f 1f 44 00 00       	nopl   0x0(%rax,%rax,1)
_ZN9__gnu_cxx17__normal_iteratorIP5stateSt6vectorIS1_SaIS1_EEEC4ERKS2_():
/usr/include/c++/10/bits/stl_iterator.h:996 (discriminator 5)
      _GLIBCXX_CONSTEXPR __normal_iterator() _GLIBCXX_NOEXCEPT
      : _M_current(_Iterator()) { }

      explicit _GLIBCXX20_CONSTEXPR
      __normal_iterator(const _Iterator& __i) _GLIBCXX_NOEXCEPT
      : _M_current(__i) { }
  4052d8:	49 8b 1c 24          	mov    (%r12),%rbx
_Z12resume_queueRSt6vectorI5stateSaIS0_EEPFvRS0_E():
/home/aliha951/ipdps-artifact/gapbs-master/src/libpfq_pr.h:198 (discriminator 5)
  for (auto rq_it = queue.begin(); rq_it != queue.end(); ++rq_it)
  4052dc:	49 3b 5c 24 08       	cmp    0x8(%r12),%rbx
  4052e1:	74 15                	je     4052f8 <_Z12clear_queuesPFvR5stateE._omp_fn.1+0x98>
  4052e3:	0f 1f 44 00 00       	nopl   0x0(%rax,%rax,1)
/home/aliha951/ipdps-artifact/gapbs-master/src/libpfq_pr.h:200
    func(*rq_it);
  4052e8:	48 89 df             	mov    %rbx,%rdi
/home/aliha951/ipdps-artifact/gapbs-master/src/libpfq_pr.h:198
  for (auto rq_it = queue.begin(); rq_it != queue.end(); ++rq_it)
  4052eb:	48 83 c3 10          	add    $0x10,%rbx
/home/aliha951/ipdps-artifact/gapbs-master/src/libpfq_pr.h:200
    func(*rq_it);
  4052ef:	ff d5                	callq  *%rbp
/home/aliha951/ipdps-artifact/gapbs-master/src/libpfq_pr.h:198
  for (auto rq_it = queue.begin(); rq_it != queue.end(); ++rq_it)
  4052f1:	49 39 5c 24 08       	cmp    %rbx,0x8(%r12)
  4052f6:	75 f0                	jne    4052e8 <_Z12clear_queuesPFvR5stateE._omp_fn.1+0x88>
_ZN9__gnu_cxx17__normal_iteratorIP5stateSt6vectorIS1_SaIS1_EEEC4ERKS2_():
/usr/include/c++/10/bits/stl_iterator.h:996
  4052f8:	49 8b 5d 00          	mov    0x0(%r13),%rbx
_Z12resume_queueRSt6vectorI5stateSaIS0_EEPFvRS0_E():
/home/aliha951/ipdps-artifact/gapbs-master/src/libpfq_pr.h:198
  4052fc:	49 3b 5d 08          	cmp    0x8(%r13),%rbx
  405300:	74 15                	je     405317 <_Z12clear_queuesPFvR5stateE._omp_fn.1+0xb7>
  405302:	66 0f 1f 44 00 00    	nopw   0x0(%rax,%rax,1)
/home/aliha951/ipdps-artifact/gapbs-master/src/libpfq_pr.h:200
    func(*rq_it);
  405308:	48 89 df             	mov    %rbx,%rdi
/home/aliha951/ipdps-artifact/gapbs-master/src/libpfq_pr.h:198
  for (auto rq_it = queue.begin(); rq_it != queue.end(); ++rq_it)
  40530b:	48 83 c3 10          	add    $0x10,%rbx
/home/aliha951/ipdps-artifact/gapbs-master/src/libpfq_pr.h:200
    func(*rq_it);
  40530f:	ff d5                	callq  *%rbp
/home/aliha951/ipdps-artifact/gapbs-master/src/libpfq_pr.h:198
  for (auto rq_it = queue.begin(); rq_it != queue.end(); ++rq_it)
  405311:	49 39 5d 08          	cmp    %rbx,0x8(%r13)
  405315:	75 f1                	jne    405308 <_Z12clear_queuesPFvR5stateE._omp_fn.1+0xa8>
_ZNSt6vectorI5stateSaIS0_EE5clearEv():
/usr/include/c++/10/bits/stl_vector.h:1499
       *  pointed-to memory is not touched in any way.  Managing the pointer is
       *  the user's responsibility.
       */
      void
      clear() _GLIBCXX_NOEXCEPT
      { _M_erase_at_end(this->_M_impl._M_start); }
  405317:	49 8b 45 00          	mov    0x0(%r13),%rax
_ZNSt6vectorI5stateSaIS0_EE15_M_erase_at_endEPS0_():
/usr/include/c++/10/bits/stl_vector.h:1794
      // Called by erase(q1,q2), clear(), resize(), _M_fill_assign,
      // _M_assign_aux.
      void
      _M_erase_at_end(pointer __pos) _GLIBCXX_NOEXCEPT
      {
	if (size_type __n = this->_M_impl._M_finish - __pos)
  40531b:	49 3b 45 08          	cmp    0x8(%r13),%rax
  40531f:	74 04                	je     405325 <_Z12clear_queuesPFvR5stateE._omp_fn.1+0xc5>
/usr/include/c++/10/bits/stl_vector.h:1798
	  {
	    std::_Destroy(__pos, this->_M_impl._M_finish,
			  _M_get_Tp_allocator());
	    this->_M_impl._M_finish = __pos;
  405321:	49 89 45 08          	mov    %rax,0x8(%r13)
_ZNSt6vectorI5stateSaIS0_EE5clearEv():
/usr/include/c++/10/bits/stl_vector.h:1499
      { _M_erase_at_end(this->_M_impl._M_start); }
  405325:	49 8b 04 24          	mov    (%r12),%rax
_ZNSt6vectorI5stateSaIS0_EE15_M_erase_at_endEPS0_():
/usr/include/c++/10/bits/stl_vector.h:1794
	if (size_type __n = this->_M_impl._M_finish - __pos)
  405329:	49 3b 44 24 08       	cmp    0x8(%r12),%rax
  40532e:	74 05                	je     405335 <_Z12clear_queuesPFvR5stateE._omp_fn.1+0xd5>
/usr/include/c++/10/bits/stl_vector.h:1798
	    this->_M_impl._M_finish = __pos;
  405330:	49 89 44 24 08       	mov    %rax,0x8(%r12)
  405335:	49 83 c4 18          	add    $0x18,%r12
  405339:	49 83 c5 18          	add    $0x18,%r13
  40533d:	4d 39 f4             	cmp    %r14,%r12
  405340:	75 96                	jne    4052d8 <_Z12clear_queuesPFvR5stateE._omp_fn.1+0x78>
_Z12clear_queuesPFvR5stateE._omp_fn.1():
/home/aliha951/ipdps-artifact/gapbs-master/src/libpfq_pr.h:215
  #pragma omp parallel for
  405342:	5b                   	pop    %rbx
  405343:	5d                   	pop    %rbp
  405344:	41 5c                	pop    %r12
  405346:	41 5d                	pop    %r13
  405348:	41 5e                	pop    %r14
  40534a:	c3                   	retq   
  40534b:	83 c0 01             	add    $0x1,%eax
  40534e:	31 d2                	xor    %edx,%edx
  405350:	e9 36 ff ff ff       	jmpq   40528b <_Z12clear_queuesPFvR5stateE._omp_fn.1+0x2b>
  405355:	66 66 2e 0f 1f 84 00 	data16 nopw %cs:0x0(%rax,%rax,1)
  40535c:	00 00 00 00 

0000000000405360 <_Z14PageRankPullGSRK8CSRGraphIiiLb1EEidb._omp_fn.0>:
_Z14PageRankPullGSRK8CSRGraphIiiLb1EEidb._omp_fn.0():
/home/aliha951/ipdps-artifact/gapbs-master/src/pr_batching.cc:40
  #pragma omp parallel for
  405360:	f3 0f 1e fa          	endbr64 
  405364:	41 54                	push   %r12
  405366:	55                   	push   %rbp
  405367:	53                   	push   %rbx
  405368:	48 89 fb             	mov    %rdi,%rbx
/home/aliha951/ipdps-artifact/gapbs-master/src/pr_batching.cc:41
  for (NodeID n=0; n < g.num_nodes(); n++)
  40536b:	4c 8b 27             	mov    (%rdi),%r12
_ZNK8CSRGraphIiiLb1EE9num_nodesEv():
/home/aliha951/ipdps-artifact/gapbs-master/src/graph.h:193

  bool directed() const {
    return directed_;
  }

  int64_t num_nodes() const {
  40536e:	e8 4d e8 ff ff       	callq  403bc0 <omp_get_num_threads@plt>
  405373:	89 c5                	mov    %eax,%ebp
  405375:	e8 f6 e6 ff ff       	callq  403a70 <omp_get_thread_num@plt>
  40537a:	89 c1                	mov    %eax,%ecx
_Z14PageRankPullGSRK8CSRGraphIiiLb1EEidb._omp_fn.0():
/home/aliha951/ipdps-artifact/gapbs-master/src/pr_batching.cc:41
  40537c:	49 8b 44 24 08       	mov    0x8(%r12),%rax
  405381:	99                   	cltd   
  405382:	f7 fd                	idiv   %ebp
  405384:	39 d1                	cmp    %edx,%ecx
  405386:	7c 58                	jl     4053e0 <_Z14PageRankPullGSRK8CSRGraphIiiLb1EEidb._omp_fn.0+0x80>
  405388:	0f af c8             	imul   %eax,%ecx
  40538b:	01 ca                	add    %ecx,%edx
  40538d:	01 d0                	add    %edx,%eax
  40538f:	39 c2                	cmp    %eax,%edx
  405391:	7d 47                	jge    4053da <_Z14PageRankPullGSRK8CSRGraphIiiLb1EEidb._omp_fn.0+0x7a>
_ZN7pvectorIfEixEm():
/home/aliha951/ipdps-artifact/gapbs-master/src/pvector.h:116
    reserve(num_elements);
    end_size_ = start_ + num_elements;
  }

  T_& operator[](size_t n) {
    return start_[n];
  405393:	48 8b 4b 08          	mov    0x8(%rbx),%rcx
_Z14PageRankPullGSRK8CSRGraphIiiLb1EEidb._omp_fn.0():
/home/aliha951/ipdps-artifact/gapbs-master/src/pr_batching.cc:40
  #pragma omp parallel for
  405397:	f3 0f 10 53 10       	movss  0x10(%rbx),%xmm2
  40539c:	48 63 d2             	movslq %edx,%rdx
_ZNK8CSRGraphIiiLb1EE10out_degreeEi():
/home/aliha951/ipdps-artifact/gapbs-master/src/graph.h:206
  int64_t num_edges_directed() const {
    return directed_ ? num_edges_ : 2*num_edges_;
  }

  int64_t out_degree(NodeID_ v) const {
    return out_index_[v+1] - out_index_[v];
  40539f:	49 8b 74 24 18       	mov    0x18(%r12),%rsi
_ZN7pvectorIfEixEm():
/home/aliha951/ipdps-artifact/gapbs-master/src/pvector.h:116
  4053a4:	48 8b 39             	mov    (%rcx),%rdi
  4053a7:	66 0f 1f 84 00 00 00 	nopw   0x0(%rax,%rax,1)
  4053ae:	00 00 
_ZNK8CSRGraphIiiLb1EE10out_degreeEi():
/home/aliha951/ipdps-artifact/gapbs-master/src/graph.h:206 (discriminator 1)
  4053b0:	48 8b 4c d6 08       	mov    0x8(%rsi,%rdx,8),%rcx
  4053b5:	48 2b 0c d6          	sub    (%rsi,%rdx,8),%rcx
_Z14PageRankPullGSRK8CSRGraphIiiLb1EEidb._omp_fn.0():
/home/aliha951/ipdps-artifact/gapbs-master/src/pr_batching.cc:42 (discriminator 1)
    outgoing_contrib[n] = init_score / g.out_degree(n);
  4053b9:	66 0f ef c9          	pxor   %xmm1,%xmm1
  4053bd:	0f 28 c2             	movaps %xmm2,%xmm0
_ZNK8CSRGraphIiiLb1EE10out_degreeEi():
/home/aliha951/ipdps-artifact/gapbs-master/src/graph.h:206 (discriminator 1)
  4053c0:	48 c1 f9 02          	sar    $0x2,%rcx
_Z14PageRankPullGSRK8CSRGraphIiiLb1EEidb._omp_fn.0():
/home/aliha951/ipdps-artifact/gapbs-master/src/pr_batching.cc:42 (discriminator 1)
  4053c4:	f3 48 0f 2a c9       	cvtsi2ss %rcx,%xmm1
  4053c9:	f3 0f 5e c1          	divss  %xmm1,%xmm0
  4053cd:	f3 0f 11 04 97       	movss  %xmm0,(%rdi,%rdx,4)
  4053d2:	48 83 c2 01          	add    $0x1,%rdx
  4053d6:	39 d0                	cmp    %edx,%eax
  4053d8:	7f d6                	jg     4053b0 <_Z14PageRankPullGSRK8CSRGraphIiiLb1EEidb._omp_fn.0+0x50>
/home/aliha951/ipdps-artifact/gapbs-master/src/pr_batching.cc:40
  #pragma omp parallel for
  4053da:	5b                   	pop    %rbx
  4053db:	5d                   	pop    %rbp
  4053dc:	41 5c                	pop    %r12
  4053de:	c3                   	retq   
  4053df:	90                   	nop
  4053e0:	83 c0 01             	add    $0x1,%eax
/home/aliha951/ipdps-artifact/gapbs-master/src/pr_batching.cc:41
  for (NodeID n=0; n < g.num_nodes(); n++)
  4053e3:	31 d2                	xor    %edx,%edx
  4053e5:	eb a1                	jmp    405388 <_Z14PageRankPullGSRK8CSRGraphIiiLb1EEidb._omp_fn.0+0x28>
  4053e7:	66 0f 1f 84 00 00 00 	nopw   0x0(%rax,%rax,1)
  4053ee:	00 00 

00000000004053f0 <_ZN7pvectorIfE4fillEf._omp_fn.0>:
_ZN7pvectorIfE4fillEf._omp_fn.0():
/home/aliha951/ipdps-artifact/gapbs-master/src/pvector.h:133
    *end_size_ = val;
    end_size_++;
  }

  void fill(T_ init_val) {
    #pragma omp parallel for
  4053f0:	f3 0f 1e fa          	endbr64 
  4053f4:	41 55                	push   %r13
  4053f6:	41 54                	push   %r12
  4053f8:	55                   	push   %rbp
  4053f9:	53                   	push   %rbx
  4053fa:	48 83 ec 08          	sub    $0x8,%rsp
  4053fe:	48 8b 07             	mov    (%rdi),%rax
/home/aliha951/ipdps-artifact/gapbs-master/src/pvector.h:134
    for (T_* ptr=start_; ptr < end_size_; ptr++)
  405401:	48 8b 28             	mov    (%rax),%rbp
  405404:	4c 8b 68 08          	mov    0x8(%rax),%r13
  405408:	4c 39 ed             	cmp    %r13,%rbp
  40540b:	0f 83 e3 00 00 00    	jae    4054f4 <_ZN7pvectorIfE4fillEf._omp_fn.0+0x104>
  405411:	49 89 fc             	mov    %rdi,%r12
  405414:	e8 a7 e7 ff ff       	callq  403bc0 <omp_get_num_threads@plt>
  405419:	48 63 d8             	movslq %eax,%rbx
  40541c:	e8 4f e6 ff ff       	callq  403a70 <omp_get_thread_num@plt>
  405421:	48 63 c8             	movslq %eax,%rcx
  405424:	49 8d 45 03          	lea    0x3(%r13),%rax
  405428:	48 29 e8             	sub    %rbp,%rax
  40542b:	48 89 c2             	mov    %rax,%rdx
  40542e:	48 8d 40 03          	lea    0x3(%rax),%rax
  405432:	48 0f 49 c2          	cmovns %rdx,%rax
  405436:	48 c1 f8 02          	sar    $0x2,%rax
  40543a:	48 99                	cqto   
  40543c:	48 f7 fb             	idiv   %rbx
  40543f:	48 39 d1             	cmp    %rdx,%rcx
  405442:	0f 8c b8 00 00 00    	jl     405500 <_ZN7pvectorIfE4fillEf._omp_fn.0+0x110>
  405448:	48 0f af c8          	imul   %rax,%rcx
  40544c:	48 01 ca             	add    %rcx,%rdx
  40544f:	48 01 d0             	add    %rdx,%rax
  405452:	48 39 c2             	cmp    %rax,%rdx
  405455:	0f 8d 99 00 00 00    	jge    4054f4 <_ZN7pvectorIfE4fillEf._omp_fn.0+0x104>
  40545b:	48 c1 e2 02          	shl    $0x2,%rdx
  40545f:	48 c1 e0 02          	shl    $0x2,%rax
/home/aliha951/ipdps-artifact/gapbs-master/src/pvector.h:133
    #pragma omp parallel for
  405463:	f3 41 0f 10 4c 24 08 	movss  0x8(%r12),%xmm1
  40546a:	48 8d 74 15 00       	lea    0x0(%rbp,%rdx,1),%rsi
  40546f:	48 01 c5             	add    %rax,%rbp
  405472:	48 29 d0             	sub    %rdx,%rax
  405475:	48 83 e8 01          	sub    $0x1,%rax
  405479:	48 8d 7e 01          	lea    0x1(%rsi),%rdi
  40547d:	48 89 f1             	mov    %rsi,%rcx
  405480:	48 89 c2             	mov    %rax,%rdx
  405483:	48 c1 ea 02          	shr    $0x2,%rdx
  405487:	48 83 c2 01          	add    $0x1,%rdx
  40548b:	48 39 fd             	cmp    %rdi,%rbp
  40548e:	bf 01 00 00 00       	mov    $0x1,%edi
  405493:	48 0f 42 d7          	cmovb  %rdi,%rdx
  405497:	72 3b                	jb     4054d4 <_ZN7pvectorIfE4fillEf._omp_fn.0+0xe4>
  405499:	48 83 f8 0b          	cmp    $0xb,%rax
  40549d:	76 35                	jbe    4054d4 <_ZN7pvectorIfE4fillEf._omp_fn.0+0xe4>
  40549f:	48 89 d0             	mov    %rdx,%rax
  4054a2:	0f 28 c1             	movaps %xmm1,%xmm0
  4054a5:	48 c1 e8 02          	shr    $0x2,%rax
  4054a9:	0f c6 c0 00          	shufps $0x0,%xmm0,%xmm0
  4054ad:	48 c1 e0 04          	shl    $0x4,%rax
  4054b1:	48 01 f0             	add    %rsi,%rax
  4054b4:	0f 1f 40 00          	nopl   0x0(%rax)
/home/aliha951/ipdps-artifact/gapbs-master/src/pvector.h:135 (discriminator 1)
      *ptr = init_val;
  4054b8:	0f 11 01             	movups %xmm0,(%rcx)
  4054bb:	48 83 c1 10          	add    $0x10,%rcx
  4054bf:	48 39 c1             	cmp    %rax,%rcx
  4054c2:	75 f4                	jne    4054b8 <_ZN7pvectorIfE4fillEf._omp_fn.0+0xc8>
  4054c4:	48 89 d0             	mov    %rdx,%rax
  4054c7:	48 83 e0 fc          	and    $0xfffffffffffffffc,%rax
  4054cb:	48 8d 34 86          	lea    (%rsi,%rax,4),%rsi
  4054cf:	48 39 c2             	cmp    %rax,%rdx
  4054d2:	74 20                	je     4054f4 <_ZN7pvectorIfE4fillEf._omp_fn.0+0x104>
  4054d4:	48 8d 46 04          	lea    0x4(%rsi),%rax
/home/aliha951/ipdps-artifact/gapbs-master/src/pvector.h:135
  4054d8:	f3 0f 11 0e          	movss  %xmm1,(%rsi)
  4054dc:	48 39 c5             	cmp    %rax,%rbp
  4054df:	76 13                	jbe    4054f4 <_ZN7pvectorIfE4fillEf._omp_fn.0+0x104>
  4054e1:	48 8d 46 08          	lea    0x8(%rsi),%rax
  4054e5:	f3 0f 11 4e 04       	movss  %xmm1,0x4(%rsi)
  4054ea:	48 39 c5             	cmp    %rax,%rbp
  4054ed:	76 05                	jbe    4054f4 <_ZN7pvectorIfE4fillEf._omp_fn.0+0x104>
  4054ef:	f3 0f 11 4e 08       	movss  %xmm1,0x8(%rsi)
/home/aliha951/ipdps-artifact/gapbs-master/src/pvector.h:133
    #pragma omp parallel for
  4054f4:	48 83 c4 08          	add    $0x8,%rsp
  4054f8:	5b                   	pop    %rbx
  4054f9:	5d                   	pop    %rbp
  4054fa:	41 5c                	pop    %r12
  4054fc:	41 5d                	pop    %r13
  4054fe:	c3                   	retq   
  4054ff:	90                   	nop
  405500:	48 83 c0 01          	add    $0x1,%rax
/home/aliha951/ipdps-artifact/gapbs-master/src/pvector.h:134
    for (T_* ptr=start_; ptr < end_size_; ptr++)
  405504:	31 d2                	xor    %edx,%edx
  405506:	e9 3d ff ff ff       	jmpq   405448 <_ZN7pvectorIfE4fillEf._omp_fn.0+0x58>
  40550b:	0f 1f 44 00 00       	nopl   0x0(%rax,%rax,1)

0000000000405510 <_ZN8CSRGraphIiiLb1EE8GenIndexERK7pvectorIlEPi._omp_fn.0>:
_ZN8CSRGraphIiiLb1EE8GenIndexERK7pvectorIlEPi._omp_fn.0():
/home/aliha951/ipdps-artifact/gapbs-master/src/graph.h:245
  }

  static DestID_** GenIndex(const pvector<SGOffset> &offsets, DestID_* neighs) {
    NodeID_ length = offsets.size();
    DestID_** index = new DestID_*[length];
    #pragma omp parallel for
  405510:	f3 0f 1e fa          	endbr64 
  405514:	55                   	push   %rbp
  405515:	53                   	push   %rbx
  405516:	48 89 fb             	mov    %rdi,%rbx
  405519:	48 83 ec 08          	sub    $0x8,%rsp
  40551d:	e8 9e e6 ff ff       	callq  403bc0 <omp_get_num_threads@plt>
  405522:	89 c5                	mov    %eax,%ebp
  405524:	e8 47 e5 ff ff       	callq  403a70 <omp_get_thread_num@plt>
  405529:	89 c1                	mov    %eax,%ecx
  40552b:	8b 43 18             	mov    0x18(%rbx),%eax
  40552e:	99                   	cltd   
  40552f:	f7 fd                	idiv   %ebp
  405531:	39 d1                	cmp    %edx,%ecx
  405533:	7c 43                	jl     405578 <_ZN8CSRGraphIiiLb1EE8GenIndexERK7pvectorIlEPi._omp_fn.0+0x68>
  405535:	0f af c8             	imul   %eax,%ecx
  405538:	01 ca                	add    %ecx,%edx
  40553a:	01 d0                	add    %edx,%eax
  40553c:	39 c2                	cmp    %eax,%edx
  40553e:	7d 2c                	jge    40556c <_ZN8CSRGraphIiiLb1EE8GenIndexERK7pvectorIlEPi._omp_fn.0+0x5c>
_ZNK7pvectorIlEixEm():
/home/aliha951/ipdps-artifact/gapbs-master/src/pvector.h:120
    return start_[n];
  405540:	48 8b 0b             	mov    (%rbx),%rcx
_ZN8CSRGraphIiiLb1EE8GenIndexERK7pvectorIlEPi._omp_fn.0():
/home/aliha951/ipdps-artifact/gapbs-master/src/graph.h:245
  405543:	4c 8b 43 10          	mov    0x10(%rbx),%r8
  405547:	48 63 d2             	movslq %edx,%rdx
  40554a:	48 8b 7b 08          	mov    0x8(%rbx),%rdi
_ZNK7pvectorIlEixEm():
/home/aliha951/ipdps-artifact/gapbs-master/src/pvector.h:120
  40554e:	48 8b 31             	mov    (%rcx),%rsi
  405551:	0f 1f 80 00 00 00 00 	nopl   0x0(%rax)
_ZN8CSRGraphIiiLb1EE8GenIndexERK7pvectorIlEPi._omp_fn.0():
/home/aliha951/ipdps-artifact/gapbs-master/src/graph.h:247 (discriminator 1)
    for (NodeID_ n=0; n < length; n++)
      index[n] = neighs + offsets[n];
  405558:	48 8b 0c d6          	mov    (%rsi,%rdx,8),%rcx
  40555c:	48 8d 0c 8f          	lea    (%rdi,%rcx,4),%rcx
  405560:	49 89 0c d0          	mov    %rcx,(%r8,%rdx,8)
  405564:	48 83 c2 01          	add    $0x1,%rdx
  405568:	39 d0                	cmp    %edx,%eax
  40556a:	7f ec                	jg     405558 <_ZN8CSRGraphIiiLb1EE8GenIndexERK7pvectorIlEPi._omp_fn.0+0x48>
/home/aliha951/ipdps-artifact/gapbs-master/src/graph.h:245
    #pragma omp parallel for
  40556c:	48 83 c4 08          	add    $0x8,%rsp
  405570:	5b                   	pop    %rbx
  405571:	5d                   	pop    %rbp
  405572:	c3                   	retq   
  405573:	0f 1f 44 00 00       	nopl   0x0(%rax,%rax,1)
  405578:	83 c0 01             	add    $0x1,%eax
  40557b:	31 d2                	xor    %edx,%edx
  40557d:	eb b6                	jmp    405535 <_ZN8CSRGraphIiiLb1EE8GenIndexERK7pvectorIlEPi._omp_fn.0+0x25>
  40557f:	90                   	nop

0000000000405580 <_ZN7pvectorI8EdgePairIiiEE7reserveEm._omp_fn.0>:
_ZN7pvectorI8EdgePairIiiEE7reserveEm._omp_fn.0():
/home/aliha951/ipdps-artifact/gapbs-master/src/pvector.h:86
      #pragma omp parallel for
  405580:	f3 0f 1e fa          	endbr64 
  405584:	41 55                	push   %r13
  405586:	41 54                	push   %r12
  405588:	55                   	push   %rbp
  405589:	53                   	push   %rbx
  40558a:	48 83 ec 08          	sub    $0x8,%rsp
  40558e:	48 8b 07             	mov    (%rdi),%rax
_ZNK7pvectorI8EdgePairIiiEE4sizeEv():
/home/aliha951/ipdps-artifact/gapbs-master/src/pvector.h:143
  size_t capacity() const {
    return end_capacity_ - start_;
  }

  size_t size() const {
    return end_size_ - start_;
  405591:	4c 8b 20             	mov    (%rax),%r12
  405594:	48 8b 40 08          	mov    0x8(%rax),%rax
  405598:	4c 29 e0             	sub    %r12,%rax
  40559b:	48 c1 f8 03          	sar    $0x3,%rax
  40559f:	74 50                	je     4055f1 <_ZN7pvectorI8EdgePairIiiEE7reserveEm._omp_fn.0+0x71>
  4055a1:	49 89 fd             	mov    %rdi,%r13
  4055a4:	48 89 c3             	mov    %rax,%rbx
  4055a7:	e8 14 e6 ff ff       	callq  403bc0 <omp_get_num_threads@plt>
  4055ac:	89 c5                	mov    %eax,%ebp
  4055ae:	e8 bd e4 ff ff       	callq  403a70 <omp_get_thread_num@plt>
  4055b3:	48 63 f5             	movslq %ebp,%rsi
  4055b6:	31 d2                	xor    %edx,%edx
  4055b8:	48 63 c8             	movslq %eax,%rcx
  4055bb:	48 89 d8             	mov    %rbx,%rax
  4055be:	48 f7 f6             	div    %rsi
  4055c1:	48 39 d1             	cmp    %rdx,%rcx
  4055c4:	72 3a                	jb     405600 <_ZN7pvectorI8EdgePairIiiEE7reserveEm._omp_fn.0+0x80>
  4055c6:	48 0f af c8          	imul   %rax,%rcx
  4055ca:	48 01 ca             	add    %rcx,%rdx
  4055cd:	48 01 d0             	add    %rdx,%rax
  4055d0:	48 39 c2             	cmp    %rax,%rdx
  4055d3:	73 1c                	jae    4055f1 <_ZN7pvectorI8EdgePairIiiEE7reserveEm._omp_fn.0+0x71>
_ZN7pvectorI8EdgePairIiiEE7reserveEm._omp_fn.0():
/home/aliha951/ipdps-artifact/gapbs-master/src/pvector.h:86
      #pragma omp parallel for
  4055d5:	49 8b 75 08          	mov    0x8(%r13),%rsi
  4055d9:	0f 1f 80 00 00 00 00 	nopl   0x0(%rax)
/home/aliha951/ipdps-artifact/gapbs-master/src/pvector.h:88 (discriminator 1)
        new_range[i] = start_[i];
  4055e0:	49 8b 0c d4          	mov    (%r12,%rdx,8),%rcx
  4055e4:	48 89 0c d6          	mov    %rcx,(%rsi,%rdx,8)
  4055e8:	48 83 c2 01          	add    $0x1,%rdx
  4055ec:	48 39 d0             	cmp    %rdx,%rax
  4055ef:	75 ef                	jne    4055e0 <_ZN7pvectorI8EdgePairIiiEE7reserveEm._omp_fn.0+0x60>
/home/aliha951/ipdps-artifact/gapbs-master/src/pvector.h:86
      #pragma omp parallel for
  4055f1:	48 83 c4 08          	add    $0x8,%rsp
  4055f5:	5b                   	pop    %rbx
  4055f6:	5d                   	pop    %rbp
  4055f7:	41 5c                	pop    %r12
  4055f9:	41 5d                	pop    %r13
  4055fb:	c3                   	retq   
  4055fc:	0f 1f 40 00          	nopl   0x0(%rax)
  405600:	48 83 c0 01          	add    $0x1,%rax
_ZNK7pvectorI8EdgePairIiiEE4sizeEv():
/home/aliha951/ipdps-artifact/gapbs-master/src/pvector.h:143
    return end_size_ - start_;
  405604:	31 d2                	xor    %edx,%edx
  405606:	eb be                	jmp    4055c6 <_ZN7pvectorI8EdgePairIiiEE7reserveEm._omp_fn.0+0x46>
_ZN7pvectorI8EdgePairIiiEE7reserveEm._omp_fn.0():
/home/aliha951/ipdps-artifact/gapbs-master/src/pvector.h:143
  405608:	0f 1f 84 00 00 00 00 	nopl   0x0(%rax,%rax,1)
  40560f:	00 

0000000000405610 <_ZN11BuilderBaseIiiiLb1EE12CountDegreesERK7pvectorI8EdgePairIiiEEb._omp_fn.0>:
_ZN11BuilderBaseIiiiLb1EE12CountDegreesERK7pvectorI8EdgePairIiiEEb._omp_fn.0():
/home/aliha951/ipdps-artifact/gapbs-master/src/builder.h:82
    return max_seen;
  }

  pvector<NodeID_> CountDegrees(const EdgeList &el, bool transpose) {
    pvector<NodeID_> degrees(num_nodes_, 0);
    #pragma omp parallel for
  405610:	f3 0f 1e fa          	endbr64 
  405614:	41 55                	push   %r13
  405616:	41 54                	push   %r12
  405618:	55                   	push   %rbp
  405619:	53                   	push   %rbx
  40561a:	48 83 ec 08          	sub    $0x8,%rsp
/home/aliha951/ipdps-artifact/gapbs-master/src/builder.h:83
    for (auto it = el.begin(); it < el.end(); it++) {
  40561e:	48 8b 47 08          	mov    0x8(%rdi),%rax
_ZNK7pvectorI8EdgePairIiiEE5beginEv():
/home/aliha951/ipdps-artifact/gapbs-master/src/pvector.h:147
  }

  iterator begin() const {
    return start_;
  405622:	4c 8b 20             	mov    (%rax),%r12
_ZNK7pvectorI8EdgePairIiiEE3endEv():
/home/aliha951/ipdps-artifact/gapbs-master/src/pvector.h:151
  }

  iterator end() const {
    return end_size_;
  405625:	4c 8b 68 08          	mov    0x8(%rax),%r13
  405629:	4d 39 e5             	cmp    %r12,%r13
  40562c:	0f 86 8a 00 00 00    	jbe    4056bc <_ZN11BuilderBaseIiiiLb1EE12CountDegreesERK7pvectorI8EdgePairIiiEEb._omp_fn.0+0xac>
  405632:	48 89 fb             	mov    %rdi,%rbx
  405635:	e8 86 e5 ff ff       	callq  403bc0 <omp_get_num_threads@plt>
  40563a:	48 63 e8             	movslq %eax,%rbp
  40563d:	e8 2e e4 ff ff       	callq  403a70 <omp_get_thread_num@plt>
  405642:	48 63 c8             	movslq %eax,%rcx
  405645:	49 8d 45 07          	lea    0x7(%r13),%rax
  405649:	4c 29 e0             	sub    %r12,%rax
  40564c:	48 89 c2             	mov    %rax,%rdx
  40564f:	48 8d 40 07          	lea    0x7(%rax),%rax
  405653:	48 0f 49 c2          	cmovns %rdx,%rax
  405657:	48 c1 f8 03          	sar    $0x3,%rax
  40565b:	48 99                	cqto   
  40565d:	48 f7 fd             	idiv   %rbp
  405660:	48 39 d1             	cmp    %rdx,%rcx
  405663:	7c 6b                	jl     4056d0 <_ZN11BuilderBaseIiiiLb1EE12CountDegreesERK7pvectorI8EdgePairIiiEEb._omp_fn.0+0xc0>
  405665:	48 0f af c8          	imul   %rax,%rcx
  405669:	48 01 ca             	add    %rcx,%rdx
  40566c:	48 01 d0             	add    %rdx,%rax
  40566f:	48 39 c2             	cmp    %rax,%rdx
  405672:	7d 48                	jge    4056bc <_ZN11BuilderBaseIiiiLb1EE12CountDegreesERK7pvectorI8EdgePairIiiEEb._omp_fn.0+0xac>
  405674:	80 7b 18 00          	cmpb   $0x0,0x18(%rbx)
_ZN11BuilderBaseIiiiLb1EE12CountDegreesERK7pvectorI8EdgePairIiiEEb._omp_fn.0():
/home/aliha951/ipdps-artifact/gapbs-master/src/builder.h:82
    #pragma omp parallel for
  405678:	48 8b 3b             	mov    (%rbx),%rdi
  40567b:	49 8d 14 d4          	lea    (%r12,%rdx,8),%rdx
  40567f:	4d 8d 04 c4          	lea    (%r12,%rax,8),%r8
  405683:	75 53                	jne    4056d8 <_ZN11BuilderBaseIiiiLb1EE12CountDegreesERK7pvectorI8EdgePairIiiEEb._omp_fn.0+0xc8>
  405685:	0f 1f 00             	nopl   (%rax)
_ZN7pvectorIiEixEm():
/home/aliha951/ipdps-artifact/gapbs-master/src/pvector.h:116
    return start_[n];
  405688:	48 8b 4b 10          	mov    0x10(%rbx),%rcx
_ZN11BuilderBaseIiiiLb1EE12CountDegreesERK7pvectorI8EdgePairIiiEEb._omp_fn.0():
/home/aliha951/ipdps-artifact/gapbs-master/src/builder.h:84
      Edge e = *it;
  40568c:	48 63 42 04          	movslq 0x4(%rdx),%rax
/home/aliha951/ipdps-artifact/gapbs-master/src/builder.h:86
      if (symmetrize_ || (!symmetrize_ && !transpose))
        fetch_and_add(degrees[e.u], 1);
  405690:	48 63 32             	movslq (%rdx),%rsi
_Z13fetch_and_addIiiET_RS0_T0_():
/home/aliha951/ipdps-artifact/gapbs-master/src/platform_atomics.h:26

    // gcc/clang/icc instrinsics

    template<typename T, typename U>
    T fetch_and_add(T &x, U inc) {
      return __sync_fetch_and_add(&x, inc);
  405693:	48 8b 09             	mov    (%rcx),%rcx
  405696:	f0 83 04 b1 01       	lock addl $0x1,(%rcx,%rsi,4)
_ZN11BuilderBaseIiiiLb1EE12CountDegreesERK7pvectorI8EdgePairIiiEEb._omp_fn.0():
/home/aliha951/ipdps-artifact/gapbs-master/src/builder.h:87
      if ((symmetrize_ && !in_place_) || (!symmetrize_ && transpose))
  40569b:	80 7f 08 00          	cmpb   $0x0,0x8(%rdi)
  40569f:	74 12                	je     4056b3 <_ZN11BuilderBaseIiiiLb1EE12CountDegreesERK7pvectorI8EdgePairIiiEEb._omp_fn.0+0xa3>
  4056a1:	80 7f 0a 00          	cmpb   $0x0,0xa(%rdi)
  4056a5:	75 0c                	jne    4056b3 <_ZN11BuilderBaseIiiiLb1EE12CountDegreesERK7pvectorI8EdgePairIiiEEb._omp_fn.0+0xa3>
_ZN7pvectorIiEixEm():
/home/aliha951/ipdps-artifact/gapbs-master/src/pvector.h:116
  4056a7:	48 8b 4b 10          	mov    0x10(%rbx),%rcx
_Z13fetch_and_addIiiET_RS0_T0_():
/home/aliha951/ipdps-artifact/gapbs-master/src/platform_atomics.h:26
  4056ab:	48 8b 09             	mov    (%rcx),%rcx
  4056ae:	f0 83 04 81 01       	lock addl $0x1,(%rcx,%rax,4)
  4056b3:	48 83 c2 08          	add    $0x8,%rdx
  4056b7:	49 39 d0             	cmp    %rdx,%r8
  4056ba:	77 cc                	ja     405688 <_ZN11BuilderBaseIiiiLb1EE12CountDegreesERK7pvectorI8EdgePairIiiEEb._omp_fn.0+0x78>
_ZN11BuilderBaseIiiiLb1EE12CountDegreesERK7pvectorI8EdgePairIiiEEb._omp_fn.0():
/home/aliha951/ipdps-artifact/gapbs-master/src/builder.h:82
    #pragma omp parallel for
  4056bc:	48 83 c4 08          	add    $0x8,%rsp
  4056c0:	5b                   	pop    %rbx
  4056c1:	5d                   	pop    %rbp
  4056c2:	41 5c                	pop    %r12
  4056c4:	41 5d                	pop    %r13
  4056c6:	c3                   	retq   
  4056c7:	66 0f 1f 84 00 00 00 	nopw   0x0(%rax,%rax,1)
  4056ce:	00 00 
  4056d0:	48 83 c0 01          	add    $0x1,%rax
_ZNK7pvectorI8EdgePairIiiEE3endEv():
/home/aliha951/ipdps-artifact/gapbs-master/src/pvector.h:151
    return end_size_;
  4056d4:	31 d2                	xor    %edx,%edx
  4056d6:	eb 8d                	jmp    405665 <_ZN11BuilderBaseIiiiLb1EE12CountDegreesERK7pvectorI8EdgePairIiiEEb._omp_fn.0+0x55>
_ZN11BuilderBaseIiiiLb1EE12CountDegreesERK7pvectorI8EdgePairIiiEEb._omp_fn.0():
/home/aliha951/ipdps-artifact/gapbs-master/src/builder.h:85
      if (symmetrize_ || (!symmetrize_ && !transpose))
  4056d8:	80 7f 08 00          	cmpb   $0x0,0x8(%rdi)
/home/aliha951/ipdps-artifact/gapbs-master/src/builder.h:84
      Edge e = *it;
  4056dc:	48 63 42 04          	movslq 0x4(%rdx),%rax
/home/aliha951/ipdps-artifact/gapbs-master/src/builder.h:85
      if (symmetrize_ || (!symmetrize_ && !transpose))
  4056e0:	74 1b                	je     4056fd <_ZN11BuilderBaseIiiiLb1EE12CountDegreesERK7pvectorI8EdgePairIiiEEb._omp_fn.0+0xed>
_ZN7pvectorIiEixEm():
/home/aliha951/ipdps-artifact/gapbs-master/src/pvector.h:116
    return start_[n];
  4056e2:	48 8b 4b 10          	mov    0x10(%rbx),%rcx
_ZN11BuilderBaseIiiiLb1EE12CountDegreesERK7pvectorI8EdgePairIiiEEb._omp_fn.0():
/home/aliha951/ipdps-artifact/gapbs-master/src/builder.h:86
        fetch_and_add(degrees[e.u], 1);
  4056e6:	48 63 32             	movslq (%rdx),%rsi
_Z13fetch_and_addIiiET_RS0_T0_():
/home/aliha951/ipdps-artifact/gapbs-master/src/platform_atomics.h:26
  4056e9:	48 8b 09             	mov    (%rcx),%rcx
  4056ec:	f0 83 04 b1 01       	lock addl $0x1,(%rcx,%rsi,4)
_ZN11BuilderBaseIiiiLb1EE12CountDegreesERK7pvectorI8EdgePairIiiEEb._omp_fn.0():
/home/aliha951/ipdps-artifact/gapbs-master/src/builder.h:87
      if ((symmetrize_ && !in_place_) || (!symmetrize_ && transpose))
  4056f1:	80 7f 08 00          	cmpb   $0x0,0x8(%rdi)
  4056f5:	74 06                	je     4056fd <_ZN11BuilderBaseIiiiLb1EE12CountDegreesERK7pvectorI8EdgePairIiiEEb._omp_fn.0+0xed>
/home/aliha951/ipdps-artifact/gapbs-master/src/builder.h:87 (discriminator 1)
  4056f7:	80 7f 0a 00          	cmpb   $0x0,0xa(%rdi)
  4056fb:	75 0c                	jne    405709 <_ZN11BuilderBaseIiiiLb1EE12CountDegreesERK7pvectorI8EdgePairIiiEEb._omp_fn.0+0xf9>
_ZN7pvectorIiEixEm():
/home/aliha951/ipdps-artifact/gapbs-master/src/pvector.h:116
  4056fd:	48 8b 4b 10          	mov    0x10(%rbx),%rcx
_Z13fetch_and_addIiiET_RS0_T0_():
/home/aliha951/ipdps-artifact/gapbs-master/src/platform_atomics.h:26
  405701:	48 8b 09             	mov    (%rcx),%rcx
  405704:	f0 83 04 81 01       	lock addl $0x1,(%rcx,%rax,4)
  405709:	48 83 c2 08          	add    $0x8,%rdx
  40570d:	49 39 d0             	cmp    %rdx,%r8
  405710:	77 c6                	ja     4056d8 <_ZN11BuilderBaseIiiiLb1EE12CountDegreesERK7pvectorI8EdgePairIiiEEb._omp_fn.0+0xc8>
  405712:	eb a8                	jmp    4056bc <_ZN11BuilderBaseIiiiLb1EE12CountDegreesERK7pvectorI8EdgePairIiiEEb._omp_fn.0+0xac>
_ZN11BuilderBaseIiiiLb1EE12CountDegreesERK7pvectorI8EdgePairIiiEEb._omp_fn.0():
/home/aliha951/ipdps-artifact/gapbs-master/src/platform_atomics.h:26
  405714:	66 66 2e 0f 1f 84 00 	data16 nopw %cs:0x0(%rax,%rax,1)
  40571b:	00 00 00 00 
  40571f:	90                   	nop

0000000000405720 <_ZN11BuilderBaseIiiiLb1EE17ParallelPrefixSumERK7pvectorIiE._omp_fn.0>:
_ZN11BuilderBaseIiiiLb1EE17ParallelPrefixSumERK7pvectorIiE._omp_fn.0():
/home/aliha951/ipdps-artifact/gapbs-master/src/builder.h:110
  static
  pvector<SGOffset> ParallelPrefixSum(const pvector<NodeID_> &degrees) {
    const size_t block_size = 1<<20;
    const size_t num_blocks = (degrees.size() + block_size - 1) / block_size;
    pvector<SGOffset> local_sums(num_blocks);
    #pragma omp parallel for
  405720:	f3 0f 1e fa          	endbr64 
  405724:	41 54                	push   %r12
  405726:	55                   	push   %rbp
  405727:	53                   	push   %rbx
  405728:	48 8b 5f 08          	mov    0x8(%rdi),%rbx
  40572c:	48 85 db             	test   %rbx,%rbx
  40572f:	0f 84 4d 01 00 00    	je     405882 <_ZN11BuilderBaseIiiiLb1EE17ParallelPrefixSumERK7pvectorIiE._omp_fn.0+0x162>
  405735:	49 89 fc             	mov    %rdi,%r12
  405738:	e8 83 e4 ff ff       	callq  403bc0 <omp_get_num_threads@plt>
  40573d:	89 c5                	mov    %eax,%ebp
  40573f:	e8 2c e3 ff ff       	callq  403a70 <omp_get_thread_num@plt>
  405744:	48 63 cd             	movslq %ebp,%rcx
  405747:	31 d2                	xor    %edx,%edx
  405749:	48 63 f0             	movslq %eax,%rsi
  40574c:	48 89 d8             	mov    %rbx,%rax
  40574f:	48 f7 f1             	div    %rcx
  405752:	48 39 d6             	cmp    %rdx,%rsi
  405755:	0f 82 3d 01 00 00    	jb     405898 <_ZN11BuilderBaseIiiiLb1EE17ParallelPrefixSumERK7pvectorIiE._omp_fn.0+0x178>
  40575b:	48 0f af f0          	imul   %rax,%rsi
  40575f:	48 01 d6             	add    %rdx,%rsi
  405762:	48 01 f0             	add    %rsi,%rax
  405765:	48 39 c6             	cmp    %rax,%rsi
  405768:	0f 83 14 01 00 00    	jae    405882 <_ZN11BuilderBaseIiiiLb1EE17ParallelPrefixSumERK7pvectorIiE._omp_fn.0+0x162>
/home/aliha951/ipdps-artifact/gapbs-master/src/builder.h:113
    for (size_t block=0; block < num_blocks; block++) {
      SGOffset lsum = 0;
      size_t block_end = std::min((block + 1) * block_size, degrees.size());
  40576e:	49 8b 14 24          	mov    (%r12),%rdx
  405772:	49 89 f0             	mov    %rsi,%r8
/home/aliha951/ipdps-artifact/gapbs-master/src/builder.h:115
      for (size_t i=block * block_size; i < block_end; i++)
        lsum += degrees[i];
  405775:	66 0f ef e4          	pxor   %xmm4,%xmm4
  405779:	49 c1 e0 14          	shl    $0x14,%r8
_ZNK7pvectorIiE4sizeEv():
/home/aliha951/ipdps-artifact/gapbs-master/src/pvector.h:143
    return end_size_ - start_;
  40577d:	4c 8b 1a             	mov    (%rdx),%r11
  405780:	4c 8b 52 08          	mov    0x8(%rdx),%r10
_ZN7pvectorIlEixEm():
/home/aliha951/ipdps-artifact/gapbs-master/src/pvector.h:116
    return start_[n];
  405784:	49 8b 54 24 10       	mov    0x10(%r12),%rdx
_ZNK7pvectorIiE4sizeEv():
/home/aliha951/ipdps-artifact/gapbs-master/src/pvector.h:143
    return end_size_ - start_;
  405789:	4d 29 da             	sub    %r11,%r10
_ZN7pvectorIlEixEm():
/home/aliha951/ipdps-artifact/gapbs-master/src/pvector.h:116
    return start_[n];
  40578c:	48 8b 12             	mov    (%rdx),%rdx
_ZNK7pvectorIiE4sizeEv():
/home/aliha951/ipdps-artifact/gapbs-master/src/pvector.h:143
    return end_size_ - start_;
  40578f:	49 c1 fa 02          	sar    $0x2,%r10
  405793:	4c 8d 0c f2          	lea    (%rdx,%rsi,8),%r9
  405797:	48 c1 e6 16          	shl    $0x16,%rsi
  40579b:	48 8d 2c c2          	lea    (%rdx,%rax,8),%rbp
  40579f:	4c 01 de             	add    %r11,%rsi
  4057a2:	66 0f 1f 44 00 00    	nopw   0x0(%rax,%rax,1)
/home/aliha951/ipdps-artifact/gapbs-master/src/pvector.h:142
  size_t size() const {
  4057a8:	4c 89 c1             	mov    %r8,%rcx
_ZN11BuilderBaseIiiiLb1EE17ParallelPrefixSumERK7pvectorIiE._omp_fn.0():
/home/aliha951/ipdps-artifact/gapbs-master/src/builder.h:113
      size_t block_end = std::min((block + 1) * block_size, degrees.size());
  4057ab:	49 81 c0 00 00 10 00 	add    $0x100000,%r8
  4057b2:	4c 89 d3             	mov    %r10,%rbx
  4057b5:	4d 39 d0             	cmp    %r10,%r8
  4057b8:	49 0f 46 d8          	cmovbe %r8,%rbx
/home/aliha951/ipdps-artifact/gapbs-master/src/builder.h:114
      for (size_t i=block * block_size; i < block_end; i++)
  4057bc:	48 39 cb             	cmp    %rcx,%rbx
  4057bf:	0f 86 cb 00 00 00    	jbe    405890 <_ZN11BuilderBaseIiiiLb1EE17ParallelPrefixSumERK7pvectorIiE._omp_fn.0+0x170>
  4057c5:	48 89 df             	mov    %rbx,%rdi
  4057c8:	48 29 cf             	sub    %rcx,%rdi
  4057cb:	48 8d 47 ff          	lea    -0x1(%rdi),%rax
  4057cf:	48 83 f8 02          	cmp    $0x2,%rax
  4057d3:	0f 86 bb 00 00 00    	jbe    405894 <_ZN11BuilderBaseIiiiLb1EE17ParallelPrefixSumERK7pvectorIiE._omp_fn.0+0x174>
  4057d9:	48 89 fa             	mov    %rdi,%rdx
  4057dc:	48 89 f0             	mov    %rsi,%rax
  4057df:	66 0f ef c9          	pxor   %xmm1,%xmm1
  4057e3:	48 c1 ea 02          	shr    $0x2,%rdx
  4057e7:	48 c1 e2 04          	shl    $0x4,%rdx
  4057eb:	48 01 f2             	add    %rsi,%rdx
  4057ee:	66 90                	xchg   %ax,%ax
/home/aliha951/ipdps-artifact/gapbs-master/src/builder.h:115 (discriminator 2)
        lsum += degrees[i];
  4057f0:	f3 0f 6f 00          	movdqu (%rax),%xmm0
  4057f4:	66 0f 6f d4          	movdqa %xmm4,%xmm2
  4057f8:	48 83 c0 10          	add    $0x10,%rax
  4057fc:	66 0f 66 d0          	pcmpgtd %xmm0,%xmm2
  405800:	66 0f 6f d8          	movdqa %xmm0,%xmm3
  405804:	66 0f 62 da          	punpckldq %xmm2,%xmm3
  405808:	66 0f 6a c2          	punpckhdq %xmm2,%xmm0
  40580c:	66 0f d4 cb          	paddq  %xmm3,%xmm1
  405810:	66 0f d4 c8          	paddq  %xmm0,%xmm1
/home/aliha951/ipdps-artifact/gapbs-master/src/builder.h:114 (discriminator 2)
      for (size_t i=block * block_size; i < block_end; i++)
  405814:	48 39 d0             	cmp    %rdx,%rax
  405817:	75 d7                	jne    4057f0 <_ZN11BuilderBaseIiiiLb1EE17ParallelPrefixSumERK7pvectorIiE._omp_fn.0+0xd0>
  405819:	66 0f 6f c1          	movdqa %xmm1,%xmm0
  40581d:	48 89 fa             	mov    %rdi,%rdx
  405820:	66 0f 73 d8 08       	psrldq $0x8,%xmm0
  405825:	48 83 e2 fc          	and    $0xfffffffffffffffc,%rdx
  405829:	66 0f d4 c1          	paddq  %xmm1,%xmm0
  40582d:	48 01 d1             	add    %rdx,%rcx
  405830:	66 48 0f 7e c0       	movq   %xmm0,%rax
  405835:	48 39 fa             	cmp    %rdi,%rdx
  405838:	74 31                	je     40586b <_ZN11BuilderBaseIiiiLb1EE17ParallelPrefixSumERK7pvectorIiE._omp_fn.0+0x14b>
/home/aliha951/ipdps-artifact/gapbs-master/src/builder.h:115
        lsum += degrees[i];
  40583a:	49 63 3c 8b          	movslq (%r11,%rcx,4),%rdi
_ZNK7pvectorIiEixEm():
/home/aliha951/ipdps-artifact/gapbs-master/src/pvector.h:120
    return start_[n];
  40583e:	48 8d 14 8d 00 00 00 	lea    0x0(,%rcx,4),%rdx
  405845:	00 
_ZN11BuilderBaseIiiiLb1EE17ParallelPrefixSumERK7pvectorIiE._omp_fn.0():
/home/aliha951/ipdps-artifact/gapbs-master/src/builder.h:115
  405846:	48 01 f8             	add    %rdi,%rax
/home/aliha951/ipdps-artifact/gapbs-master/src/builder.h:114
      for (size_t i=block * block_size; i < block_end; i++)
  405849:	48 8d 79 01          	lea    0x1(%rcx),%rdi
  40584d:	48 39 df             	cmp    %rbx,%rdi
  405850:	73 19                	jae    40586b <_ZN11BuilderBaseIiiiLb1EE17ParallelPrefixSumERK7pvectorIiE._omp_fn.0+0x14b>
/home/aliha951/ipdps-artifact/gapbs-master/src/builder.h:115
        lsum += degrees[i];
  405852:	49 63 7c 13 04       	movslq 0x4(%r11,%rdx,1),%rdi
/home/aliha951/ipdps-artifact/gapbs-master/src/builder.h:114
      for (size_t i=block * block_size; i < block_end; i++)
  405857:	48 83 c1 02          	add    $0x2,%rcx
/home/aliha951/ipdps-artifact/gapbs-master/src/builder.h:115
        lsum += degrees[i];
  40585b:	48 01 f8             	add    %rdi,%rax
/home/aliha951/ipdps-artifact/gapbs-master/src/builder.h:114
      for (size_t i=block * block_size; i < block_end; i++)
  40585e:	48 39 cb             	cmp    %rcx,%rbx
  405861:	76 08                	jbe    40586b <_ZN11BuilderBaseIiiiLb1EE17ParallelPrefixSumERK7pvectorIiE._omp_fn.0+0x14b>
/home/aliha951/ipdps-artifact/gapbs-master/src/builder.h:115
        lsum += degrees[i];
  405863:	49 63 54 13 08       	movslq 0x8(%r11,%rdx,1),%rdx
  405868:	48 01 d0             	add    %rdx,%rax
/home/aliha951/ipdps-artifact/gapbs-master/src/builder.h:116
      local_sums[block] = lsum;
  40586b:	49 89 01             	mov    %rax,(%r9)
  40586e:	49 83 c1 08          	add    $0x8,%r9
  405872:	48 81 c6 00 00 40 00 	add    $0x400000,%rsi
  405879:	49 39 e9             	cmp    %rbp,%r9
  40587c:	0f 85 26 ff ff ff    	jne    4057a8 <_ZN11BuilderBaseIiiiLb1EE17ParallelPrefixSumERK7pvectorIiE._omp_fn.0+0x88>
/home/aliha951/ipdps-artifact/gapbs-master/src/builder.h:110
    #pragma omp parallel for
  405882:	5b                   	pop    %rbx
  405883:	5d                   	pop    %rbp
  405884:	41 5c                	pop    %r12
  405886:	c3                   	retq   
  405887:	66 0f 1f 84 00 00 00 	nopw   0x0(%rax,%rax,1)
  40588e:	00 00 
/home/aliha951/ipdps-artifact/gapbs-master/src/builder.h:112
      SGOffset lsum = 0;
  405890:	31 c0                	xor    %eax,%eax
  405892:	eb d7                	jmp    40586b <_ZN11BuilderBaseIiiiLb1EE17ParallelPrefixSumERK7pvectorIiE._omp_fn.0+0x14b>
  405894:	31 c0                	xor    %eax,%eax
  405896:	eb a2                	jmp    40583a <_ZN11BuilderBaseIiiiLb1EE17ParallelPrefixSumERK7pvectorIiE._omp_fn.0+0x11a>
  405898:	48 83 c0 01          	add    $0x1,%rax
/home/aliha951/ipdps-artifact/gapbs-master/src/builder.h:110
    #pragma omp parallel for
  40589c:	31 d2                	xor    %edx,%edx
  40589e:	e9 b8 fe ff ff       	jmpq   40575b <_ZN11BuilderBaseIiiiLb1EE17ParallelPrefixSumERK7pvectorIiE._omp_fn.0+0x3b>
  4058a3:	66 66 2e 0f 1f 84 00 	data16 nopw %cs:0x0(%rax,%rax,1)
  4058aa:	00 00 00 00 
  4058ae:	66 90                	xchg   %ax,%ax

00000000004058b0 <_ZN11BuilderBaseIiiiLb1EE17ParallelPrefixSumERK7pvectorIiE._omp_fn.1>:
_ZN11BuilderBaseIiiiLb1EE17ParallelPrefixSumERK7pvectorIiE._omp_fn.1():
/home/aliha951/ipdps-artifact/gapbs-master/src/builder.h:126
      bulk_prefix[block] = total;
      total += local_sums[block];
    }
    bulk_prefix[num_blocks] = total;
    pvector<SGOffset> prefix(degrees.size() + 1);
    #pragma omp parallel for
  4058b0:	f3 0f 1e fa          	endbr64 
  4058b4:	41 54                	push   %r12
  4058b6:	55                   	push   %rbp
  4058b7:	53                   	push   %rbx
  4058b8:	48 8b 5f 10          	mov    0x10(%rdi),%rbx
  4058bc:	48 85 db             	test   %rbx,%rbx
  4058bf:	0f 84 98 00 00 00    	je     40595d <_ZN11BuilderBaseIiiiLb1EE17ParallelPrefixSumERK7pvectorIiE._omp_fn.1+0xad>
  4058c5:	48 89 fd             	mov    %rdi,%rbp
  4058c8:	e8 f3 e2 ff ff       	callq  403bc0 <omp_get_num_threads@plt>
  4058cd:	41 89 c4             	mov    %eax,%r12d
  4058d0:	e8 9b e1 ff ff       	callq  403a70 <omp_get_thread_num@plt>
  4058d5:	49 63 cc             	movslq %r12d,%rcx
  4058d8:	31 d2                	xor    %edx,%edx
  4058da:	4c 63 c8             	movslq %eax,%r9
  4058dd:	48 89 d8             	mov    %rbx,%rax
  4058e0:	48 f7 f1             	div    %rcx
  4058e3:	49 39 d1             	cmp    %rdx,%r9
  4058e6:	72 7a                	jb     405962 <_ZN11BuilderBaseIiiiLb1EE17ParallelPrefixSumERK7pvectorIiE._omp_fn.1+0xb2>
  4058e8:	4c 0f af c8          	imul   %rax,%r9
  4058ec:	49 01 d1             	add    %rdx,%r9
  4058ef:	4c 01 c8             	add    %r9,%rax
  4058f2:	49 39 c1             	cmp    %rax,%r9
  4058f5:	73 66                	jae    40595d <_ZN11BuilderBaseIiiiLb1EE17ParallelPrefixSumERK7pvectorIiE._omp_fn.1+0xad>
/home/aliha951/ipdps-artifact/gapbs-master/src/builder.h:129
    for (size_t block=0; block < num_blocks; block++) {
      SGOffset local_total = bulk_prefix[block];
      size_t block_end = std::min((block + 1) * block_size, degrees.size());
  4058f7:	48 8b 4d 00          	mov    0x0(%rbp),%rcx
_ZN7pvectorIlEixEm():
/home/aliha951/ipdps-artifact/gapbs-master/src/pvector.h:116
    return start_[n];
  4058fb:	48 8b 55 18          	mov    0x18(%rbp),%rdx
_ZN11BuilderBaseIiiiLb1EE17ParallelPrefixSumERK7pvectorIiE._omp_fn.1():
/home/aliha951/ipdps-artifact/gapbs-master/src/builder.h:131
      for (size_t i=block * block_size; i < block_end; i++) {
        prefix[i] = local_total;
  4058ff:	48 8b 6d 08          	mov    0x8(%rbp),%rbp
_ZNK7pvectorIiE4sizeEv():
/home/aliha951/ipdps-artifact/gapbs-master/src/pvector.h:143
    return end_size_ - start_;
  405903:	4c 8b 01             	mov    (%rcx),%r8
  405906:	4c 8b 59 08          	mov    0x8(%rcx),%r11
_ZN7pvectorIlEixEm():
/home/aliha951/ipdps-artifact/gapbs-master/src/pvector.h:116
    return start_[n];
  40590a:	48 8b 12             	mov    (%rdx),%rdx
_ZNK7pvectorIiE4sizeEv():
/home/aliha951/ipdps-artifact/gapbs-master/src/pvector.h:143
    return end_size_ - start_;
  40590d:	4d 29 c3             	sub    %r8,%r11
  405910:	4e 8d 14 ca          	lea    (%rdx,%r9,8),%r10
  405914:	49 c1 fb 02          	sar    $0x2,%r11
  405918:	49 c1 e1 14          	shl    $0x14,%r9
  40591c:	48 8d 1c c2          	lea    (%rdx,%rax,8),%rbx
_ZN7pvectorIlEixEm():
/home/aliha951/ipdps-artifact/gapbs-master/src/pvector.h:115
  T_& operator[](size_t n) {
  405920:	4c 89 c8             	mov    %r9,%rax
_ZN11BuilderBaseIiiiLb1EE17ParallelPrefixSumERK7pvectorIiE._omp_fn.1():
/home/aliha951/ipdps-artifact/gapbs-master/src/builder.h:129
      size_t block_end = std::min((block + 1) * block_size, degrees.size());
  405923:	49 81 c1 00 00 10 00 	add    $0x100000,%r9
  40592a:	4c 89 de             	mov    %r11,%rsi
/home/aliha951/ipdps-artifact/gapbs-master/src/builder.h:128
      SGOffset local_total = bulk_prefix[block];
  40592d:	49 8b 12             	mov    (%r10),%rdx
_ZNK7pvectorIiE4sizeEv():
/home/aliha951/ipdps-artifact/gapbs-master/src/pvector.h:142
  size_t size() const {
  405930:	4d 39 d9             	cmp    %r11,%r9
  405933:	49 0f 46 f1          	cmovbe %r9,%rsi
_ZN11BuilderBaseIiiiLb1EE17ParallelPrefixSumERK7pvectorIiE._omp_fn.1():
/home/aliha951/ipdps-artifact/gapbs-master/src/builder.h:130
      for (size_t i=block * block_size; i < block_end; i++) {
  405937:	48 39 c6             	cmp    %rax,%rsi
  40593a:	76 18                	jbe    405954 <_ZN11BuilderBaseIiiiLb1EE17ParallelPrefixSumERK7pvectorIiE._omp_fn.1+0xa4>
_ZN7pvectorIlEixEm():
/home/aliha951/ipdps-artifact/gapbs-master/src/pvector.h:116
    return start_[n];
  40593c:	48 8b 7d 00          	mov    0x0(%rbp),%rdi
_ZN11BuilderBaseIiiiLb1EE17ParallelPrefixSumERK7pvectorIiE._omp_fn.1():
/home/aliha951/ipdps-artifact/gapbs-master/src/builder.h:132 (discriminator 2)
        local_total += degrees[i];
  405940:	49 63 0c 80          	movslq (%r8,%rax,4),%rcx
/home/aliha951/ipdps-artifact/gapbs-master/src/builder.h:131 (discriminator 2)
        prefix[i] = local_total;
  405944:	48 89 14 c7          	mov    %rdx,(%rdi,%rax,8)
/home/aliha951/ipdps-artifact/gapbs-master/src/builder.h:130 (discriminator 2)
      for (size_t i=block * block_size; i < block_end; i++) {
  405948:	48 83 c0 01          	add    $0x1,%rax
/home/aliha951/ipdps-artifact/gapbs-master/src/builder.h:132 (discriminator 2)
        local_total += degrees[i];
  40594c:	48 01 ca             	add    %rcx,%rdx
/home/aliha951/ipdps-artifact/gapbs-master/src/builder.h:130 (discriminator 2)
      for (size_t i=block * block_size; i < block_end; i++) {
  40594f:	48 39 c6             	cmp    %rax,%rsi
  405952:	75 ec                	jne    405940 <_ZN11BuilderBaseIiiiLb1EE17ParallelPrefixSumERK7pvectorIiE._omp_fn.1+0x90>
  405954:	49 83 c2 08          	add    $0x8,%r10
  405958:	49 39 da             	cmp    %rbx,%r10
  40595b:	75 c3                	jne    405920 <_ZN11BuilderBaseIiiiLb1EE17ParallelPrefixSumERK7pvectorIiE._omp_fn.1+0x70>
/home/aliha951/ipdps-artifact/gapbs-master/src/builder.h:126
    #pragma omp parallel for
  40595d:	5b                   	pop    %rbx
  40595e:	5d                   	pop    %rbp
  40595f:	41 5c                	pop    %r12
  405961:	c3                   	retq   
  405962:	48 83 c0 01          	add    $0x1,%rax
  405966:	31 d2                	xor    %edx,%edx
  405968:	e9 7b ff ff ff       	jmpq   4058e8 <_ZN11BuilderBaseIiiiLb1EE17ParallelPrefixSumERK7pvectorIiE._omp_fn.1+0x38>
  40596d:	0f 1f 00             	nopl   (%rax)

0000000000405970 <_ZN7pvectorIiE4fillEi._omp_fn.0>:
_ZN7pvectorIiE4fillEi._omp_fn.0():
/home/aliha951/ipdps-artifact/gapbs-master/src/pvector.h:133
    #pragma omp parallel for
  405970:	f3 0f 1e fa          	endbr64 
  405974:	41 55                	push   %r13
  405976:	41 54                	push   %r12
  405978:	55                   	push   %rbp
  405979:	53                   	push   %rbx
  40597a:	48 83 ec 08          	sub    $0x8,%rsp
  40597e:	48 8b 07             	mov    (%rdi),%rax
/home/aliha951/ipdps-artifact/gapbs-master/src/pvector.h:134
    for (T_* ptr=start_; ptr < end_size_; ptr++)
  405981:	48 8b 28             	mov    (%rax),%rbp
  405984:	4c 8b 68 08          	mov    0x8(%rax),%r13
  405988:	4c 39 ed             	cmp    %r13,%rbp
  40598b:	0f 83 dd 00 00 00    	jae    405a6e <_ZN7pvectorIiE4fillEi._omp_fn.0+0xfe>
  405991:	49 89 fc             	mov    %rdi,%r12
  405994:	e8 27 e2 ff ff       	callq  403bc0 <omp_get_num_threads@plt>
  405999:	48 63 d8             	movslq %eax,%rbx
  40599c:	e8 cf e0 ff ff       	callq  403a70 <omp_get_thread_num@plt>
  4059a1:	48 63 c8             	movslq %eax,%rcx
  4059a4:	49 8d 45 03          	lea    0x3(%r13),%rax
  4059a8:	48 29 e8             	sub    %rbp,%rax
  4059ab:	48 89 c2             	mov    %rax,%rdx
  4059ae:	48 8d 40 03          	lea    0x3(%rax),%rax
  4059b2:	48 0f 49 c2          	cmovns %rdx,%rax
  4059b6:	48 c1 f8 02          	sar    $0x2,%rax
  4059ba:	48 99                	cqto   
  4059bc:	48 f7 fb             	idiv   %rbx
  4059bf:	48 39 d1             	cmp    %rdx,%rcx
  4059c2:	0f 8c b8 00 00 00    	jl     405a80 <_ZN7pvectorIiE4fillEi._omp_fn.0+0x110>
  4059c8:	48 0f af c8          	imul   %rax,%rcx
  4059cc:	48 01 ca             	add    %rcx,%rdx
  4059cf:	48 01 d0             	add    %rdx,%rax
  4059d2:	48 39 c2             	cmp    %rax,%rdx
  4059d5:	0f 8d 93 00 00 00    	jge    405a6e <_ZN7pvectorIiE4fillEi._omp_fn.0+0xfe>
  4059db:	48 c1 e2 02          	shl    $0x2,%rdx
  4059df:	48 c1 e0 02          	shl    $0x2,%rax
/home/aliha951/ipdps-artifact/gapbs-master/src/pvector.h:133
    #pragma omp parallel for
  4059e3:	41 8b 7c 24 08       	mov    0x8(%r12),%edi
  4059e8:	48 8d 74 15 00       	lea    0x0(%rbp,%rdx,1),%rsi
  4059ed:	48 01 c5             	add    %rax,%rbp
  4059f0:	48 29 d0             	sub    %rdx,%rax
  4059f3:	48 83 e8 01          	sub    $0x1,%rax
  4059f7:	4c 8d 46 01          	lea    0x1(%rsi),%r8
  4059fb:	48 89 f1             	mov    %rsi,%rcx
  4059fe:	48 89 c2             	mov    %rax,%rdx
  405a01:	48 c1 ea 02          	shr    $0x2,%rdx
  405a05:	48 83 c2 01          	add    $0x1,%rdx
  405a09:	4c 39 c5             	cmp    %r8,%rbp
  405a0c:	41 b8 01 00 00 00    	mov    $0x1,%r8d
  405a12:	49 0f 42 d0          	cmovb  %r8,%rdx
  405a16:	72 3c                	jb     405a54 <_ZN7pvectorIiE4fillEi._omp_fn.0+0xe4>
  405a18:	48 83 f8 0b          	cmp    $0xb,%rax
  405a1c:	76 36                	jbe    405a54 <_ZN7pvectorIiE4fillEi._omp_fn.0+0xe4>
  405a1e:	48 89 d0             	mov    %rdx,%rax
  405a21:	66 0f 6e cf          	movd   %edi,%xmm1
  405a25:	48 c1 e8 02          	shr    $0x2,%rax
  405a29:	66 0f 70 c1 00       	pshufd $0x0,%xmm1,%xmm0
  405a2e:	48 c1 e0 04          	shl    $0x4,%rax
  405a32:	48 01 f0             	add    %rsi,%rax
  405a35:	0f 1f 00             	nopl   (%rax)
/home/aliha951/ipdps-artifact/gapbs-master/src/pvector.h:135 (discriminator 1)
      *ptr = init_val;
  405a38:	0f 11 01             	movups %xmm0,(%rcx)
  405a3b:	48 83 c1 10          	add    $0x10,%rcx
  405a3f:	48 39 c1             	cmp    %rax,%rcx
  405a42:	75 f4                	jne    405a38 <_ZN7pvectorIiE4fillEi._omp_fn.0+0xc8>
  405a44:	48 89 d0             	mov    %rdx,%rax
  405a47:	48 83 e0 fc          	and    $0xfffffffffffffffc,%rax
  405a4b:	48 8d 34 86          	lea    (%rsi,%rax,4),%rsi
  405a4f:	48 39 c2             	cmp    %rax,%rdx
  405a52:	74 1a                	je     405a6e <_ZN7pvectorIiE4fillEi._omp_fn.0+0xfe>
  405a54:	48 8d 46 04          	lea    0x4(%rsi),%rax
/home/aliha951/ipdps-artifact/gapbs-master/src/pvector.h:135
  405a58:	89 3e                	mov    %edi,(%rsi)
  405a5a:	48 39 c5             	cmp    %rax,%rbp
  405a5d:	76 0f                	jbe    405a6e <_ZN7pvectorIiE4fillEi._omp_fn.0+0xfe>
  405a5f:	48 8d 46 08          	lea    0x8(%rsi),%rax
  405a63:	89 7e 04             	mov    %edi,0x4(%rsi)
  405a66:	48 39 c5             	cmp    %rax,%rbp
  405a69:	76 03                	jbe    405a6e <_ZN7pvectorIiE4fillEi._omp_fn.0+0xfe>
  405a6b:	89 7e 08             	mov    %edi,0x8(%rsi)
/home/aliha951/ipdps-artifact/gapbs-master/src/pvector.h:133
    #pragma omp parallel for
  405a6e:	48 83 c4 08          	add    $0x8,%rsp
  405a72:	5b                   	pop    %rbx
  405a73:	5d                   	pop    %rbp
  405a74:	41 5c                	pop    %r12
  405a76:	41 5d                	pop    %r13
  405a78:	c3                   	retq   
  405a79:	0f 1f 80 00 00 00 00 	nopl   0x0(%rax)
  405a80:	48 83 c0 01          	add    $0x1,%rax
/home/aliha951/ipdps-artifact/gapbs-master/src/pvector.h:134
    for (T_* ptr=start_; ptr < end_size_; ptr++)
  405a84:	31 d2                	xor    %edx,%edx
  405a86:	e9 3d ff ff ff       	jmpq   4059c8 <_ZN7pvectorIiE4fillEi._omp_fn.0+0x58>
  405a8b:	0f 1f 44 00 00       	nopl   0x0(%rax,%rax,1)

0000000000405a90 <_ZN11BuilderBaseIiiiLb1EE7MakeCSRERK7pvectorI8EdgePairIiiEEbPPPiS8_._omp_fn.0>:
_ZN11BuilderBaseIiiiLb1EE7MakeCSRERK7pvectorI8EdgePairIiiEEbPPPiS8_._omp_fn.0():
/home/aliha951/ipdps-artifact/gapbs-master/src/builder.h:306
               DestID_** neighs) {
    pvector<NodeID_> degrees = CountDegrees(el, transpose);
    pvector<SGOffset> offsets = ParallelPrefixSum(degrees);
    *neighs = new DestID_[offsets[num_nodes_]];
    *index = CSRGraph<NodeID_, DestID_>::GenIndex(offsets, *neighs);
    #pragma omp parallel for
  405a90:	f3 0f 1e fa          	endbr64 
  405a94:	41 55                	push   %r13
  405a96:	41 54                	push   %r12
  405a98:	55                   	push   %rbp
  405a99:	53                   	push   %rbx
  405a9a:	48 83 ec 08          	sub    $0x8,%rsp
/home/aliha951/ipdps-artifact/gapbs-master/src/builder.h:307
    for (auto it = el.begin(); it < el.end(); it++) {
  405a9e:	48 8b 47 08          	mov    0x8(%rdi),%rax
_ZNK7pvectorI8EdgePairIiiEE5beginEv():
/home/aliha951/ipdps-artifact/gapbs-master/src/pvector.h:147
    return start_;
  405aa2:	4c 8b 20             	mov    (%rax),%r12
_ZNK7pvectorI8EdgePairIiiEE3endEv():
/home/aliha951/ipdps-artifact/gapbs-master/src/pvector.h:151
    return end_size_;
  405aa5:	4c 8b 68 08          	mov    0x8(%rax),%r13
  405aa9:	4d 39 e5             	cmp    %r12,%r13
  405aac:	0f 86 c5 00 00 00    	jbe    405b77 <_ZN11BuilderBaseIiiiLb1EE7MakeCSRERK7pvectorI8EdgePairIiiEEbPPPiS8_._omp_fn.0+0xe7>
  405ab2:	48 89 fb             	mov    %rdi,%rbx
  405ab5:	e8 06 e1 ff ff       	callq  403bc0 <omp_get_num_threads@plt>
  405aba:	48 63 e8             	movslq %eax,%rbp
  405abd:	e8 ae df ff ff       	callq  403a70 <omp_get_thread_num@plt>
  405ac2:	48 63 c8             	movslq %eax,%rcx
  405ac5:	49 8d 45 07          	lea    0x7(%r13),%rax
  405ac9:	4c 29 e0             	sub    %r12,%rax
  405acc:	48 89 c2             	mov    %rax,%rdx
  405acf:	48 8d 40 07          	lea    0x7(%rax),%rax
  405ad3:	48 0f 49 c2          	cmovns %rdx,%rax
  405ad7:	48 c1 f8 03          	sar    $0x3,%rax
  405adb:	48 99                	cqto   
  405add:	48 f7 fd             	idiv   %rbp
  405ae0:	48 39 d1             	cmp    %rdx,%rcx
