
../sssp:     file format elf64-x86-64


Disassembly of section .init:

0000000000403000 <_init>:
_init():
  403000:	f3 0f 1e fa          	endbr64 
  403004:	48 83 ec 08          	sub    $0x8,%rsp
  403008:	48 8b 05 e1 6f 01 00 	mov    0x16fe1(%rip),%rax        # 419ff0 <__gmon_start__>
  40300f:	48 85 c0             	test   %rax,%rax
  403012:	74 02                	je     403016 <_init+0x16>
  403014:	ff d0                	callq  *%rax
  403016:	48 83 c4 08          	add    $0x8,%rsp
  40301a:	c3                   	retq   

Disassembly of section .plt:

0000000000403020 <.plt>:
  403020:	ff 35 e2 6f 01 00    	pushq  0x16fe2(%rip)        # 41a008 <_GLOBAL_OFFSET_TABLE_+0x8>
  403026:	f2 ff 25 e3 6f 01 00 	bnd jmpq *0x16fe3(%rip)        # 41a010 <_GLOBAL_OFFSET_TABLE_+0x10>
  40302d:	0f 1f 00             	nopl   (%rax)
  403030:	f3 0f 1e fa          	endbr64 
  403034:	68 00 00 00 00       	pushq  $0x0
  403039:	f2 e9 e1 ff ff ff    	bnd jmpq 403020 <.plt>
  40303f:	90                   	nop
  403040:	f3 0f 1e fa          	endbr64 
  403044:	68 01 00 00 00       	pushq  $0x1
  403049:	f2 e9 d1 ff ff ff    	bnd jmpq 403020 <.plt>
  40304f:	90                   	nop
  403050:	f3 0f 1e fa          	endbr64 
  403054:	68 02 00 00 00       	pushq  $0x2
  403059:	f2 e9 c1 ff ff ff    	bnd jmpq 403020 <.plt>
  40305f:	90                   	nop
  403060:	f3 0f 1e fa          	endbr64 
  403064:	68 03 00 00 00       	pushq  $0x3
  403069:	f2 e9 b1 ff ff ff    	bnd jmpq 403020 <.plt>
  40306f:	90                   	nop
  403070:	f3 0f 1e fa          	endbr64 
  403074:	68 04 00 00 00       	pushq  $0x4
  403079:	f2 e9 a1 ff ff ff    	bnd jmpq 403020 <.plt>
  40307f:	90                   	nop
  403080:	f3 0f 1e fa          	endbr64 
  403084:	68 05 00 00 00       	pushq  $0x5
  403089:	f2 e9 91 ff ff ff    	bnd jmpq 403020 <.plt>
  40308f:	90                   	nop
  403090:	f3 0f 1e fa          	endbr64 
  403094:	68 06 00 00 00       	pushq  $0x6
  403099:	f2 e9 81 ff ff ff    	bnd jmpq 403020 <.plt>
  40309f:	90                   	nop
  4030a0:	f3 0f 1e fa          	endbr64 
  4030a4:	68 07 00 00 00       	pushq  $0x7
  4030a9:	f2 e9 71 ff ff ff    	bnd jmpq 403020 <.plt>
  4030af:	90                   	nop
  4030b0:	f3 0f 1e fa          	endbr64 
  4030b4:	68 08 00 00 00       	pushq  $0x8
  4030b9:	f2 e9 61 ff ff ff    	bnd jmpq 403020 <.plt>
  4030bf:	90                   	nop
  4030c0:	f3 0f 1e fa          	endbr64 
  4030c4:	68 09 00 00 00       	pushq  $0x9
  4030c9:	f2 e9 51 ff ff ff    	bnd jmpq 403020 <.plt>
  4030cf:	90                   	nop
  4030d0:	f3 0f 1e fa          	endbr64 
  4030d4:	68 0a 00 00 00       	pushq  $0xa
  4030d9:	f2 e9 41 ff ff ff    	bnd jmpq 403020 <.plt>
  4030df:	90                   	nop
  4030e0:	f3 0f 1e fa          	endbr64 
  4030e4:	68 0b 00 00 00       	pushq  $0xb
  4030e9:	f2 e9 31 ff ff ff    	bnd jmpq 403020 <.plt>
  4030ef:	90                   	nop
  4030f0:	f3 0f 1e fa          	endbr64 
  4030f4:	68 0c 00 00 00       	pushq  $0xc
  4030f9:	f2 e9 21 ff ff ff    	bnd jmpq 403020 <.plt>
  4030ff:	90                   	nop
  403100:	f3 0f 1e fa          	endbr64 
  403104:	68 0d 00 00 00       	pushq  $0xd
  403109:	f2 e9 11 ff ff ff    	bnd jmpq 403020 <.plt>
  40310f:	90                   	nop
  403110:	f3 0f 1e fa          	endbr64 
  403114:	68 0e 00 00 00       	pushq  $0xe
  403119:	f2 e9 01 ff ff ff    	bnd jmpq 403020 <.plt>
  40311f:	90                   	nop
  403120:	f3 0f 1e fa          	endbr64 
  403124:	68 0f 00 00 00       	pushq  $0xf
  403129:	f2 e9 f1 fe ff ff    	bnd jmpq 403020 <.plt>
  40312f:	90                   	nop
  403130:	f3 0f 1e fa          	endbr64 
  403134:	68 10 00 00 00       	pushq  $0x10
  403139:	f2 e9 e1 fe ff ff    	bnd jmpq 403020 <.plt>
  40313f:	90                   	nop
  403140:	f3 0f 1e fa          	endbr64 
  403144:	68 11 00 00 00       	pushq  $0x11
  403149:	f2 e9 d1 fe ff ff    	bnd jmpq 403020 <.plt>
  40314f:	90                   	nop
  403150:	f3 0f 1e fa          	endbr64 
  403154:	68 12 00 00 00       	pushq  $0x12
  403159:	f2 e9 c1 fe ff ff    	bnd jmpq 403020 <.plt>
  40315f:	90                   	nop
  403160:	f3 0f 1e fa          	endbr64 
  403164:	68 13 00 00 00       	pushq  $0x13
  403169:	f2 e9 b1 fe ff ff    	bnd jmpq 403020 <.plt>
  40316f:	90                   	nop
  403170:	f3 0f 1e fa          	endbr64 
  403174:	68 14 00 00 00       	pushq  $0x14
  403179:	f2 e9 a1 fe ff ff    	bnd jmpq 403020 <.plt>
  40317f:	90                   	nop
  403180:	f3 0f 1e fa          	endbr64 
  403184:	68 15 00 00 00       	pushq  $0x15
  403189:	f2 e9 91 fe ff ff    	bnd jmpq 403020 <.plt>
  40318f:	90                   	nop
  403190:	f3 0f 1e fa          	endbr64 
  403194:	68 16 00 00 00       	pushq  $0x16
  403199:	f2 e9 81 fe ff ff    	bnd jmpq 403020 <.plt>
  40319f:	90                   	nop
  4031a0:	f3 0f 1e fa          	endbr64 
  4031a4:	68 17 00 00 00       	pushq  $0x17
  4031a9:	f2 e9 71 fe ff ff    	bnd jmpq 403020 <.plt>
  4031af:	90                   	nop
  4031b0:	f3 0f 1e fa          	endbr64 
  4031b4:	68 18 00 00 00       	pushq  $0x18
  4031b9:	f2 e9 61 fe ff ff    	bnd jmpq 403020 <.plt>
  4031bf:	90                   	nop
  4031c0:	f3 0f 1e fa          	endbr64 
  4031c4:	68 19 00 00 00       	pushq  $0x19
  4031c9:	f2 e9 51 fe ff ff    	bnd jmpq 403020 <.plt>
  4031cf:	90                   	nop
  4031d0:	f3 0f 1e fa          	endbr64 
  4031d4:	68 1a 00 00 00       	pushq  $0x1a
  4031d9:	f2 e9 41 fe ff ff    	bnd jmpq 403020 <.plt>
  4031df:	90                   	nop
  4031e0:	f3 0f 1e fa          	endbr64 
  4031e4:	68 1b 00 00 00       	pushq  $0x1b
  4031e9:	f2 e9 31 fe ff ff    	bnd jmpq 403020 <.plt>
  4031ef:	90                   	nop
  4031f0:	f3 0f 1e fa          	endbr64 
  4031f4:	68 1c 00 00 00       	pushq  $0x1c
  4031f9:	f2 e9 21 fe ff ff    	bnd jmpq 403020 <.plt>
  4031ff:	90                   	nop
  403200:	f3 0f 1e fa          	endbr64 
  403204:	68 1d 00 00 00       	pushq  $0x1d
  403209:	f2 e9 11 fe ff ff    	bnd jmpq 403020 <.plt>
  40320f:	90                   	nop
  403210:	f3 0f 1e fa          	endbr64 
  403214:	68 1e 00 00 00       	pushq  $0x1e
  403219:	f2 e9 01 fe ff ff    	bnd jmpq 403020 <.plt>
  40321f:	90                   	nop
  403220:	f3 0f 1e fa          	endbr64 
  403224:	68 1f 00 00 00       	pushq  $0x1f
  403229:	f2 e9 f1 fd ff ff    	bnd jmpq 403020 <.plt>
  40322f:	90                   	nop
  403230:	f3 0f 1e fa          	endbr64 
  403234:	68 20 00 00 00       	pushq  $0x20
  403239:	f2 e9 e1 fd ff ff    	bnd jmpq 403020 <.plt>
  40323f:	90                   	nop
  403240:	f3 0f 1e fa          	endbr64 
  403244:	68 21 00 00 00       	pushq  $0x21
  403249:	f2 e9 d1 fd ff ff    	bnd jmpq 403020 <.plt>
  40324f:	90                   	nop
  403250:	f3 0f 1e fa          	endbr64 
  403254:	68 22 00 00 00       	pushq  $0x22
  403259:	f2 e9 c1 fd ff ff    	bnd jmpq 403020 <.plt>
  40325f:	90                   	nop
  403260:	f3 0f 1e fa          	endbr64 
  403264:	68 23 00 00 00       	pushq  $0x23
  403269:	f2 e9 b1 fd ff ff    	bnd jmpq 403020 <.plt>
  40326f:	90                   	nop
  403270:	f3 0f 1e fa          	endbr64 
  403274:	68 24 00 00 00       	pushq  $0x24
  403279:	f2 e9 a1 fd ff ff    	bnd jmpq 403020 <.plt>
  40327f:	90                   	nop
  403280:	f3 0f 1e fa          	endbr64 
  403284:	68 25 00 00 00       	pushq  $0x25
  403289:	f2 e9 91 fd ff ff    	bnd jmpq 403020 <.plt>
  40328f:	90                   	nop
  403290:	f3 0f 1e fa          	endbr64 
  403294:	68 26 00 00 00       	pushq  $0x26
  403299:	f2 e9 81 fd ff ff    	bnd jmpq 403020 <.plt>
  40329f:	90                   	nop
  4032a0:	f3 0f 1e fa          	endbr64 
  4032a4:	68 27 00 00 00       	pushq  $0x27
  4032a9:	f2 e9 71 fd ff ff    	bnd jmpq 403020 <.plt>
  4032af:	90                   	nop
  4032b0:	f3 0f 1e fa          	endbr64 
  4032b4:	68 28 00 00 00       	pushq  $0x28
  4032b9:	f2 e9 61 fd ff ff    	bnd jmpq 403020 <.plt>
  4032bf:	90                   	nop
  4032c0:	f3 0f 1e fa          	endbr64 
  4032c4:	68 29 00 00 00       	pushq  $0x29
  4032c9:	f2 e9 51 fd ff ff    	bnd jmpq 403020 <.plt>
  4032cf:	90                   	nop
  4032d0:	f3 0f 1e fa          	endbr64 
  4032d4:	68 2a 00 00 00       	pushq  $0x2a
  4032d9:	f2 e9 41 fd ff ff    	bnd jmpq 403020 <.plt>
  4032df:	90                   	nop
  4032e0:	f3 0f 1e fa          	endbr64 
  4032e4:	68 2b 00 00 00       	pushq  $0x2b
  4032e9:	f2 e9 31 fd ff ff    	bnd jmpq 403020 <.plt>
  4032ef:	90                   	nop
  4032f0:	f3 0f 1e fa          	endbr64 
  4032f4:	68 2c 00 00 00       	pushq  $0x2c
  4032f9:	f2 e9 21 fd ff ff    	bnd jmpq 403020 <.plt>
  4032ff:	90                   	nop
  403300:	f3 0f 1e fa          	endbr64 
  403304:	68 2d 00 00 00       	pushq  $0x2d
  403309:	f2 e9 11 fd ff ff    	bnd jmpq 403020 <.plt>
  40330f:	90                   	nop
  403310:	f3 0f 1e fa          	endbr64 
  403314:	68 2e 00 00 00       	pushq  $0x2e
  403319:	f2 e9 01 fd ff ff    	bnd jmpq 403020 <.plt>
  40331f:	90                   	nop
  403320:	f3 0f 1e fa          	endbr64 
  403324:	68 2f 00 00 00       	pushq  $0x2f
  403329:	f2 e9 f1 fc ff ff    	bnd jmpq 403020 <.plt>
  40332f:	90                   	nop
  403330:	f3 0f 1e fa          	endbr64 
  403334:	68 30 00 00 00       	pushq  $0x30
  403339:	f2 e9 e1 fc ff ff    	bnd jmpq 403020 <.plt>
  40333f:	90                   	nop
  403340:	f3 0f 1e fa          	endbr64 
  403344:	68 31 00 00 00       	pushq  $0x31
  403349:	f2 e9 d1 fc ff ff    	bnd jmpq 403020 <.plt>
  40334f:	90                   	nop
  403350:	f3 0f 1e fa          	endbr64 
  403354:	68 32 00 00 00       	pushq  $0x32
  403359:	f2 e9 c1 fc ff ff    	bnd jmpq 403020 <.plt>
  40335f:	90                   	nop
  403360:	f3 0f 1e fa          	endbr64 
  403364:	68 33 00 00 00       	pushq  $0x33
  403369:	f2 e9 b1 fc ff ff    	bnd jmpq 403020 <.plt>
  40336f:	90                   	nop
  403370:	f3 0f 1e fa          	endbr64 
  403374:	68 34 00 00 00       	pushq  $0x34
  403379:	f2 e9 a1 fc ff ff    	bnd jmpq 403020 <.plt>
  40337f:	90                   	nop
  403380:	f3 0f 1e fa          	endbr64 
  403384:	68 35 00 00 00       	pushq  $0x35
  403389:	f2 e9 91 fc ff ff    	bnd jmpq 403020 <.plt>
  40338f:	90                   	nop
  403390:	f3 0f 1e fa          	endbr64 
  403394:	68 36 00 00 00       	pushq  $0x36
  403399:	f2 e9 81 fc ff ff    	bnd jmpq 403020 <.plt>
  40339f:	90                   	nop
  4033a0:	f3 0f 1e fa          	endbr64 
  4033a4:	68 37 00 00 00       	pushq  $0x37
  4033a9:	f2 e9 71 fc ff ff    	bnd jmpq 403020 <.plt>
  4033af:	90                   	nop
  4033b0:	f3 0f 1e fa          	endbr64 
  4033b4:	68 38 00 00 00       	pushq  $0x38
  4033b9:	f2 e9 61 fc ff ff    	bnd jmpq 403020 <.plt>
  4033bf:	90                   	nop
  4033c0:	f3 0f 1e fa          	endbr64 
  4033c4:	68 39 00 00 00       	pushq  $0x39
  4033c9:	f2 e9 51 fc ff ff    	bnd jmpq 403020 <.plt>
  4033cf:	90                   	nop
  4033d0:	f3 0f 1e fa          	endbr64 
  4033d4:	68 3a 00 00 00       	pushq  $0x3a
  4033d9:	f2 e9 41 fc ff ff    	bnd jmpq 403020 <.plt>
  4033df:	90                   	nop
  4033e0:	f3 0f 1e fa          	endbr64 
  4033e4:	68 3b 00 00 00       	pushq  $0x3b
  4033e9:	f2 e9 31 fc ff ff    	bnd jmpq 403020 <.plt>
  4033ef:	90                   	nop
  4033f0:	f3 0f 1e fa          	endbr64 
  4033f4:	68 3c 00 00 00       	pushq  $0x3c
  4033f9:	f2 e9 21 fc ff ff    	bnd jmpq 403020 <.plt>
  4033ff:	90                   	nop
  403400:	f3 0f 1e fa          	endbr64 
  403404:	68 3d 00 00 00       	pushq  $0x3d
  403409:	f2 e9 11 fc ff ff    	bnd jmpq 403020 <.plt>
  40340f:	90                   	nop
  403410:	f3 0f 1e fa          	endbr64 
  403414:	68 3e 00 00 00       	pushq  $0x3e
  403419:	f2 e9 01 fc ff ff    	bnd jmpq 403020 <.plt>
  40341f:	90                   	nop
  403420:	f3 0f 1e fa          	endbr64 
  403424:	68 3f 00 00 00       	pushq  $0x3f
  403429:	f2 e9 f1 fb ff ff    	bnd jmpq 403020 <.plt>
  40342f:	90                   	nop
  403430:	f3 0f 1e fa          	endbr64 
  403434:	68 40 00 00 00       	pushq  $0x40
  403439:	f2 e9 e1 fb ff ff    	bnd jmpq 403020 <.plt>
  40343f:	90                   	nop
  403440:	f3 0f 1e fa          	endbr64 
  403444:	68 41 00 00 00       	pushq  $0x41
  403449:	f2 e9 d1 fb ff ff    	bnd jmpq 403020 <.plt>
  40344f:	90                   	nop
  403450:	f3 0f 1e fa          	endbr64 
  403454:	68 42 00 00 00       	pushq  $0x42
  403459:	f2 e9 c1 fb ff ff    	bnd jmpq 403020 <.plt>
  40345f:	90                   	nop
  403460:	f3 0f 1e fa          	endbr64 
  403464:	68 43 00 00 00       	pushq  $0x43
  403469:	f2 e9 b1 fb ff ff    	bnd jmpq 403020 <.plt>
  40346f:	90                   	nop
  403470:	f3 0f 1e fa          	endbr64 
  403474:	68 44 00 00 00       	pushq  $0x44
  403479:	f2 e9 a1 fb ff ff    	bnd jmpq 403020 <.plt>
  40347f:	90                   	nop
  403480:	f3 0f 1e fa          	endbr64 
  403484:	68 45 00 00 00       	pushq  $0x45
  403489:	f2 e9 91 fb ff ff    	bnd jmpq 403020 <.plt>
  40348f:	90                   	nop
  403490:	f3 0f 1e fa          	endbr64 
  403494:	68 46 00 00 00       	pushq  $0x46
  403499:	f2 e9 81 fb ff ff    	bnd jmpq 403020 <.plt>
  40349f:	90                   	nop
  4034a0:	f3 0f 1e fa          	endbr64 
  4034a4:	68 47 00 00 00       	pushq  $0x47
  4034a9:	f2 e9 71 fb ff ff    	bnd jmpq 403020 <.plt>
  4034af:	90                   	nop
  4034b0:	f3 0f 1e fa          	endbr64 
  4034b4:	68 48 00 00 00       	pushq  $0x48
  4034b9:	f2 e9 61 fb ff ff    	bnd jmpq 403020 <.plt>
  4034bf:	90                   	nop
  4034c0:	f3 0f 1e fa          	endbr64 
  4034c4:	68 49 00 00 00       	pushq  $0x49
  4034c9:	f2 e9 51 fb ff ff    	bnd jmpq 403020 <.plt>
  4034cf:	90                   	nop
  4034d0:	f3 0f 1e fa          	endbr64 
  4034d4:	68 4a 00 00 00       	pushq  $0x4a
  4034d9:	f2 e9 41 fb ff ff    	bnd jmpq 403020 <.plt>
  4034df:	90                   	nop
  4034e0:	f3 0f 1e fa          	endbr64 
  4034e4:	68 4b 00 00 00       	pushq  $0x4b
  4034e9:	f2 e9 31 fb ff ff    	bnd jmpq 403020 <.plt>
  4034ef:	90                   	nop
  4034f0:	f3 0f 1e fa          	endbr64 
  4034f4:	68 4c 00 00 00       	pushq  $0x4c
  4034f9:	f2 e9 21 fb ff ff    	bnd jmpq 403020 <.plt>
  4034ff:	90                   	nop
  403500:	f3 0f 1e fa          	endbr64 
  403504:	68 4d 00 00 00       	pushq  $0x4d
  403509:	f2 e9 11 fb ff ff    	bnd jmpq 403020 <.plt>
  40350f:	90                   	nop
  403510:	f3 0f 1e fa          	endbr64 
  403514:	68 4e 00 00 00       	pushq  $0x4e
  403519:	f2 e9 01 fb ff ff    	bnd jmpq 403020 <.plt>
  40351f:	90                   	nop
  403520:	f3 0f 1e fa          	endbr64 
  403524:	68 4f 00 00 00       	pushq  $0x4f
  403529:	f2 e9 f1 fa ff ff    	bnd jmpq 403020 <.plt>
  40352f:	90                   	nop
  403530:	f3 0f 1e fa          	endbr64 
  403534:	68 50 00 00 00       	pushq  $0x50
  403539:	f2 e9 e1 fa ff ff    	bnd jmpq 403020 <.plt>
  40353f:	90                   	nop
  403540:	f3 0f 1e fa          	endbr64 
  403544:	68 51 00 00 00       	pushq  $0x51
  403549:	f2 e9 d1 fa ff ff    	bnd jmpq 403020 <.plt>
  40354f:	90                   	nop
  403550:	f3 0f 1e fa          	endbr64 
  403554:	68 52 00 00 00       	pushq  $0x52
  403559:	f2 e9 c1 fa ff ff    	bnd jmpq 403020 <.plt>
  40355f:	90                   	nop
  403560:	f3 0f 1e fa          	endbr64 
  403564:	68 53 00 00 00       	pushq  $0x53
  403569:	f2 e9 b1 fa ff ff    	bnd jmpq 403020 <.plt>
  40356f:	90                   	nop
  403570:	f3 0f 1e fa          	endbr64 
  403574:	68 54 00 00 00       	pushq  $0x54
  403579:	f2 e9 a1 fa ff ff    	bnd jmpq 403020 <.plt>
  40357f:	90                   	nop
  403580:	f3 0f 1e fa          	endbr64 
  403584:	68 55 00 00 00       	pushq  $0x55
  403589:	f2 e9 91 fa ff ff    	bnd jmpq 403020 <.plt>
  40358f:	90                   	nop
  403590:	f3 0f 1e fa          	endbr64 
  403594:	68 56 00 00 00       	pushq  $0x56
  403599:	f2 e9 81 fa ff ff    	bnd jmpq 403020 <.plt>
  40359f:	90                   	nop
  4035a0:	f3 0f 1e fa          	endbr64 
  4035a4:	68 57 00 00 00       	pushq  $0x57
  4035a9:	f2 e9 71 fa ff ff    	bnd jmpq 403020 <.plt>
  4035af:	90                   	nop
  4035b0:	f3 0f 1e fa          	endbr64 
  4035b4:	68 58 00 00 00       	pushq  $0x58
  4035b9:	f2 e9 61 fa ff ff    	bnd jmpq 403020 <.plt>
  4035bf:	90                   	nop
  4035c0:	f3 0f 1e fa          	endbr64 
  4035c4:	68 59 00 00 00       	pushq  $0x59
  4035c9:	f2 e9 51 fa ff ff    	bnd jmpq 403020 <.plt>
  4035cf:	90                   	nop
  4035d0:	f3 0f 1e fa          	endbr64 
  4035d4:	68 5a 00 00 00       	pushq  $0x5a
  4035d9:	f2 e9 41 fa ff ff    	bnd jmpq 403020 <.plt>
  4035df:	90                   	nop
  4035e0:	f3 0f 1e fa          	endbr64 
  4035e4:	68 5b 00 00 00       	pushq  $0x5b
  4035e9:	f2 e9 31 fa ff ff    	bnd jmpq 403020 <.plt>
  4035ef:	90                   	nop
  4035f0:	f3 0f 1e fa          	endbr64 
  4035f4:	68 5c 00 00 00       	pushq  $0x5c
  4035f9:	f2 e9 21 fa ff ff    	bnd jmpq 403020 <.plt>
  4035ff:	90                   	nop
  403600:	f3 0f 1e fa          	endbr64 
  403604:	68 5d 00 00 00       	pushq  $0x5d
  403609:	f2 e9 11 fa ff ff    	bnd jmpq 403020 <.plt>
  40360f:	90                   	nop
  403610:	f3 0f 1e fa          	endbr64 
  403614:	68 5e 00 00 00       	pushq  $0x5e
  403619:	f2 e9 01 fa ff ff    	bnd jmpq 403020 <.plt>
  40361f:	90                   	nop
  403620:	f3 0f 1e fa          	endbr64 
  403624:	68 5f 00 00 00       	pushq  $0x5f
  403629:	f2 e9 f1 f9 ff ff    	bnd jmpq 403020 <.plt>
  40362f:	90                   	nop
  403630:	f3 0f 1e fa          	endbr64 
  403634:	68 60 00 00 00       	pushq  $0x60
  403639:	f2 e9 e1 f9 ff ff    	bnd jmpq 403020 <.plt>
  40363f:	90                   	nop
  403640:	f3 0f 1e fa          	endbr64 
  403644:	68 61 00 00 00       	pushq  $0x61
  403649:	f2 e9 d1 f9 ff ff    	bnd jmpq 403020 <.plt>
  40364f:	90                   	nop
  403650:	f3 0f 1e fa          	endbr64 
  403654:	68 62 00 00 00       	pushq  $0x62
  403659:	f2 e9 c1 f9 ff ff    	bnd jmpq 403020 <.plt>
  40365f:	90                   	nop
  403660:	f3 0f 1e fa          	endbr64 
  403664:	68 63 00 00 00       	pushq  $0x63
  403669:	f2 e9 b1 f9 ff ff    	bnd jmpq 403020 <.plt>
  40366f:	90                   	nop
  403670:	f3 0f 1e fa          	endbr64 
  403674:	68 64 00 00 00       	pushq  $0x64
  403679:	f2 e9 a1 f9 ff ff    	bnd jmpq 403020 <.plt>
  40367f:	90                   	nop

Disassembly of section .plt.sec:

0000000000403680 <__printf_chk@plt>:
  403680:	f3 0f 1e fa          	endbr64 
  403684:	f2 ff 25 8d 69 01 00 	bnd jmpq *0x1698d(%rip)        # 41a018 <__printf_chk@GLIBC_2.3.4>
  40368b:	0f 1f 44 00 00       	nopl   0x0(%rax,%rax,1)

0000000000403690 <_Znam@plt>:
  403690:	f3 0f 1e fa          	endbr64 
  403694:	f2 ff 25 85 69 01 00 	bnd jmpq *0x16985(%rip)        # 41a020 <_Znam@GLIBCXX_3.4>
  40369b:	0f 1f 44 00 00       	nopl   0x0(%rax,%rax,1)

00000000004036a0 <GOMP_loop_end_nowait@plt>:
  4036a0:	f3 0f 1e fa          	endbr64 
  4036a4:	f2 ff 25 7d 69 01 00 	bnd jmpq *0x1697d(%rip)        # 41a028 <GOMP_loop_end_nowait@VERSION>
  4036ab:	0f 1f 44 00 00       	nopl   0x0(%rax,%rax,1)

00000000004036b0 <_ZNSo3putEc@plt>:
  4036b0:	f3 0f 1e fa          	endbr64 
  4036b4:	f2 ff 25 75 69 01 00 	bnd jmpq *0x16975(%rip)        # 41a030 <_ZNSo3putEc@GLIBCXX_3.4>
  4036bb:	0f 1f 44 00 00       	nopl   0x0(%rax,%rax,1)

00000000004036c0 <_ZNSt6chrono3_V212system_clock3nowEv@plt>:
  4036c0:	f3 0f 1e fa          	endbr64 
  4036c4:	f2 ff 25 6d 69 01 00 	bnd jmpq *0x1696d(%rip)        # 41a038 <_ZNSt6chrono3_V212system_clock3nowEv@GLIBCXX_3.4.19>
  4036cb:	0f 1f 44 00 00       	nopl   0x0(%rax,%rax,1)

00000000004036d0 <syscall@plt>:
  4036d0:	f3 0f 1e fa          	endbr64 
  4036d4:	f2 ff 25 65 69 01 00 	bnd jmpq *0x16965(%rip)        # 41a040 <syscall@GLIBC_2.2.5>
  4036db:	0f 1f 44 00 00       	nopl   0x0(%rax,%rax,1)

00000000004036e0 <bind@plt>:
  4036e0:	f3 0f 1e fa          	endbr64 
  4036e4:	f2 ff 25 5d 69 01 00 	bnd jmpq *0x1695d(%rip)        # 41a048 <bind@GLIBC_2.2.5>
  4036eb:	0f 1f 44 00 00       	nopl   0x0(%rax,%rax,1)

00000000004036f0 <GOMP_loop_ull_nonmonotonic_dynamic_start@plt>:
  4036f0:	f3 0f 1e fa          	endbr64 
  4036f4:	f2 ff 25 55 69 01 00 	bnd jmpq *0x16955(%rip)        # 41a050 <GOMP_loop_ull_nonmonotonic_dynamic_start@VERSION>
  4036fb:	0f 1f 44 00 00       	nopl   0x0(%rax,%rax,1)

0000000000403700 <GOMP_single_start@plt>:
  403700:	f3 0f 1e fa          	endbr64 
  403704:	f2 ff 25 4d 69 01 00 	bnd jmpq *0x1694d(%rip)        # 41a058 <GOMP_single_start@VERSION>
  40370b:	0f 1f 44 00 00       	nopl   0x0(%rax,%rax,1)

0000000000403710 <strstr@plt>:
  403710:	f3 0f 1e fa          	endbr64 
  403714:	f2 ff 25 45 69 01 00 	bnd jmpq *0x16945(%rip)        # 41a060 <strstr@GLIBC_2.2.5>
  40371b:	0f 1f 44 00 00       	nopl   0x0(%rax,%rax,1)

0000000000403720 <_ZNSt13basic_filebufIcSt11char_traitsIcEE5closeEv@plt>:
  403720:	f3 0f 1e fa          	endbr64 
  403724:	f2 ff 25 3d 69 01 00 	bnd jmpq *0x1693d(%rip)        # 41a068 <_ZNSt13basic_filebufIcSt11char_traitsIcEE5closeEv@GLIBCXX_3.4>
  40372b:	0f 1f 44 00 00       	nopl   0x0(%rax,%rax,1)

0000000000403730 <getopt@plt>:
  403730:	f3 0f 1e fa          	endbr64 
  403734:	f2 ff 25 35 69 01 00 	bnd jmpq *0x16935(%rip)        # 41a070 <getopt@GLIBC_2.2.5>
  40373b:	0f 1f 44 00 00       	nopl   0x0(%rax,%rax,1)

0000000000403740 <_ZNKSt12__basic_fileIcE7is_openEv@plt>:
  403740:	f3 0f 1e fa          	endbr64 
  403744:	f2 ff 25 2d 69 01 00 	bnd jmpq *0x1692d(%rip)        # 41a078 <_ZNKSt12__basic_fileIcE7is_openEv@GLIBCXX_3.4>
  40374b:	0f 1f 44 00 00       	nopl   0x0(%rax,%rax,1)

0000000000403750 <socket@plt>:
  403750:	f3 0f 1e fa          	endbr64 
  403754:	f2 ff 25 25 69 01 00 	bnd jmpq *0x16925(%rip)        # 41a080 <socket@GLIBC_2.2.5>
  40375b:	0f 1f 44 00 00       	nopl   0x0(%rax,%rax,1)

0000000000403760 <_ZNSt14basic_ifstreamIcSt11char_traitsIcEED1Ev@plt>:
  403760:	f3 0f 1e fa          	endbr64 
  403764:	f2 ff 25 1d 69 01 00 	bnd jmpq *0x1691d(%rip)        # 41a088 <_ZNSt14basic_ifstreamIcSt11char_traitsIcEED1Ev@GLIBCXX_3.4>
  40376b:	0f 1f 44 00 00       	nopl   0x0(%rax,%rax,1)

0000000000403770 <fork@plt>:
  403770:	f3 0f 1e fa          	endbr64 
  403774:	f2 ff 25 15 69 01 00 	bnd jmpq *0x16915(%rip)        # 41a090 <fork@GLIBC_2.2.5>
  40377b:	0f 1f 44 00 00       	nopl   0x0(%rax,%rax,1)

0000000000403780 <_ZSt9terminatev@plt>:
  403780:	f3 0f 1e fa          	endbr64 
  403784:	f2 ff 25 0d 69 01 00 	bnd jmpq *0x1690d(%rip)        # 41a098 <_ZSt9terminatev@GLIBCXX_3.4>
  40378b:	0f 1f 44 00 00       	nopl   0x0(%rax,%rax,1)

0000000000403790 <_ZNKSt7__cxx1112basic_stringIcSt11char_traitsIcESaIcEE7compareEPKc@plt>:
  403790:	f3 0f 1e fa          	endbr64 
  403794:	f2 ff 25 05 69 01 00 	bnd jmpq *0x16905(%rip)        # 41a0a0 <_ZNKSt7__cxx1112basic_stringIcSt11char_traitsIcESaIcEE7compareEPKc@GLIBCXX_3.4.21>
  40379b:	0f 1f 44 00 00       	nopl   0x0(%rax,%rax,1)

00000000004037a0 <execlp@plt>:
  4037a0:	f3 0f 1e fa          	endbr64 
  4037a4:	f2 ff 25 fd 68 01 00 	bnd jmpq *0x168fd(%rip)        # 41a0a8 <execlp@GLIBC_2.2.5>
  4037ab:	0f 1f 44 00 00       	nopl   0x0(%rax,%rax,1)

00000000004037b0 <_ZNSt8ios_baseC2Ev@plt>:
  4037b0:	f3 0f 1e fa          	endbr64 
  4037b4:	f2 ff 25 f5 68 01 00 	bnd jmpq *0x168f5(%rip)        # 41a0b0 <_ZNSt8ios_baseC2Ev@GLIBCXX_3.4>
  4037bb:	0f 1f 44 00 00       	nopl   0x0(%rax,%rax,1)

00000000004037c0 <_ZNSt7__cxx1112basic_stringIcSt11char_traitsIcESaIcEE9_M_appendEPKcm@plt>:
  4037c0:	f3 0f 1e fa          	endbr64 
  4037c4:	f2 ff 25 ed 68 01 00 	bnd jmpq *0x168ed(%rip)        # 41a0b8 <_ZNSt7__cxx1112basic_stringIcSt11char_traitsIcESaIcEE9_M_appendEPKcm@GLIBCXX_3.4.21>
  4037cb:	0f 1f 44 00 00       	nopl   0x0(%rax,%rax,1)

00000000004037d0 <recv@plt>:
  4037d0:	f3 0f 1e fa          	endbr64 
  4037d4:	f2 ff 25 e5 68 01 00 	bnd jmpq *0x168e5(%rip)        # 41a0c0 <recv@GLIBC_2.2.5>
  4037db:	0f 1f 44 00 00       	nopl   0x0(%rax,%rax,1)

00000000004037e0 <_ZNSt8ios_baseD2Ev@plt>:
  4037e0:	f3 0f 1e fa          	endbr64 
  4037e4:	f2 ff 25 dd 68 01 00 	bnd jmpq *0x168dd(%rip)        # 41a0c8 <_ZNSt8ios_baseD2Ev@GLIBCXX_3.4>
  4037eb:	0f 1f 44 00 00       	nopl   0x0(%rax,%rax,1)

00000000004037f0 <_ZNSi4peekEv@plt>:
  4037f0:	f3 0f 1e fa          	endbr64 
  4037f4:	f2 ff 25 d5 68 01 00 	bnd jmpq *0x168d5(%rip)        # 41a0d0 <_ZNSi4peekEv@GLIBCXX_3.4>
  4037fb:	0f 1f 44 00 00       	nopl   0x0(%rax,%rax,1)

0000000000403800 <__cxa_begin_catch@plt>:
  403800:	f3 0f 1e fa          	endbr64 
  403804:	f2 ff 25 cd 68 01 00 	bnd jmpq *0x168cd(%rip)        # 41a0d8 <__cxa_begin_catch@CXXABI_1.3>
  40380b:	0f 1f 44 00 00       	nopl   0x0(%rax,%rax,1)

0000000000403810 <strlen@plt>:
  403810:	f3 0f 1e fa          	endbr64 
  403814:	f2 ff 25 c5 68 01 00 	bnd jmpq *0x168c5(%rip)        # 41a0e0 <strlen@GLIBC_2.2.5>
  40381b:	0f 1f 44 00 00       	nopl   0x0(%rax,%rax,1)

0000000000403820 <_ZNSt7__cxx1119basic_istringstreamIcSt11char_traitsIcESaIcEED1Ev@plt>:
  403820:	f3 0f 1e fa          	endbr64 
  403824:	f2 ff 25 bd 68 01 00 	bnd jmpq *0x168bd(%rip)        # 41a0e8 <_ZNSt7__cxx1119basic_istringstreamIcSt11char_traitsIcESaIcEED1Ev@GLIBCXX_3.4.21>
  40382b:	0f 1f 44 00 00       	nopl   0x0(%rax,%rax,1)

0000000000403830 <send@plt>:
  403830:	f3 0f 1e fa          	endbr64 
  403834:	f2 ff 25 b5 68 01 00 	bnd jmpq *0x168b5(%rip)        # 41a0f0 <send@GLIBC_2.2.5>
  40383b:	0f 1f 44 00 00       	nopl   0x0(%rax,%rax,1)

0000000000403840 <GOMP_critical_end@plt>:
  403840:	f3 0f 1e fa          	endbr64 
  403844:	f2 ff 25 ad 68 01 00 	bnd jmpq *0x168ad(%rip)        # 41a0f8 <GOMP_critical_end@VERSION>
  40384b:	0f 1f 44 00 00       	nopl   0x0(%rax,%rax,1)

0000000000403850 <_ZSt20__throw_length_errorPKc@plt>:
  403850:	f3 0f 1e fa          	endbr64 
  403854:	f2 ff 25 a5 68 01 00 	bnd jmpq *0x168a5(%rip)        # 41a100 <_ZSt20__throw_length_errorPKc@GLIBCXX_3.4>
  40385b:	0f 1f 44 00 00       	nopl   0x0(%rax,%rax,1)

0000000000403860 <memset@plt>:
  403860:	f3 0f 1e fa          	endbr64 
  403864:	f2 ff 25 9d 68 01 00 	bnd jmpq *0x1689d(%rip)        # 41a108 <memset@GLIBC_2.2.5>
  40386b:	0f 1f 44 00 00       	nopl   0x0(%rax,%rax,1)

0000000000403870 <getrusage@plt>:
  403870:	f3 0f 1e fa          	endbr64 
  403874:	f2 ff 25 95 68 01 00 	bnd jmpq *0x16895(%rip)        # 41a110 <getrusage@GLIBC_2.2.5>
  40387b:	0f 1f 44 00 00       	nopl   0x0(%rax,%rax,1)

0000000000403880 <__snprintf_chk@plt>:
  403880:	f3 0f 1e fa          	endbr64 
  403884:	f2 ff 25 8d 68 01 00 	bnd jmpq *0x1688d(%rip)        # 41a118 <__snprintf_chk@GLIBC_2.3.4>
  40388b:	0f 1f 44 00 00       	nopl   0x0(%rax,%rax,1)

0000000000403890 <_ZNSirsERi@plt>:
  403890:	f3 0f 1e fa          	endbr64 
  403894:	f2 ff 25 85 68 01 00 	bnd jmpq *0x16885(%rip)        # 41a120 <_ZNSirsERi@GLIBCXX_3.4>
  40389b:	0f 1f 44 00 00       	nopl   0x0(%rax,%rax,1)

00000000004038a0 <_ZNSi6ignoreEli@plt>:
  4038a0:	f3 0f 1e fa          	endbr64 
  4038a4:	f2 ff 25 7d 68 01 00 	bnd jmpq *0x1687d(%rip)        # 41a128 <_ZNSi6ignoreEli@GLIBCXX_3.4>
  4038ab:	0f 1f 44 00 00       	nopl   0x0(%rax,%rax,1)

00000000004038b0 <_ZNSo9_M_insertImEERSoT_@plt>:
  4038b0:	f3 0f 1e fa          	endbr64 
  4038b4:	f2 ff 25 75 68 01 00 	bnd jmpq *0x16875(%rip)        # 41a130 <_ZNSo9_M_insertImEERSoT_@GLIBCXX_3.4.9>
  4038bb:	0f 1f 44 00 00       	nopl   0x0(%rax,%rax,1)

00000000004038c0 <_ZNSo5flushEv@plt>:
  4038c0:	f3 0f 1e fa          	endbr64 
  4038c4:	f2 ff 25 6d 68 01 00 	bnd jmpq *0x1686d(%rip)        # 41a138 <_ZNSo5flushEv@GLIBCXX_3.4>
  4038cb:	0f 1f 44 00 00       	nopl   0x0(%rax,%rax,1)

00000000004038d0 <_ZSt19__throw_logic_errorPKc@plt>:
  4038d0:	f3 0f 1e fa          	endbr64 
  4038d4:	f2 ff 25 65 68 01 00 	bnd jmpq *0x16865(%rip)        # 41a140 <_ZSt19__throw_logic_errorPKc@GLIBCXX_3.4>
  4038db:	0f 1f 44 00 00       	nopl   0x0(%rax,%rax,1)

00000000004038e0 <memcpy@plt>:
  4038e0:	f3 0f 1e fa          	endbr64 
  4038e4:	f2 ff 25 5d 68 01 00 	bnd jmpq *0x1685d(%rip)        # 41a148 <memcpy@GLIBC_2.14>
  4038eb:	0f 1f 44 00 00       	nopl   0x0(%rax,%rax,1)

00000000004038f0 <perror@plt>:
  4038f0:	f3 0f 1e fa          	endbr64 
  4038f4:	f2 ff 25 55 68 01 00 	bnd jmpq *0x16855(%rip)        # 41a150 <perror@GLIBC_2.2.5>
  4038fb:	0f 1f 44 00 00       	nopl   0x0(%rax,%rax,1)

0000000000403900 <_ZSt2wsIcSt11char_traitsIcEERSt13basic_istreamIT_T0_ES6_@plt>:
  403900:	f3 0f 1e fa          	endbr64 
  403904:	f2 ff 25 4d 68 01 00 	bnd jmpq *0x1684d(%rip)        # 41a158 <_ZSt2wsIcSt11char_traitsIcEERSt13basic_istreamIT_T0_ES6_@GLIBCXX_3.4>
  40390b:	0f 1f 44 00 00       	nopl   0x0(%rax,%rax,1)

0000000000403910 <system@plt>:
  403910:	f3 0f 1e fa          	endbr64 
  403914:	f2 ff 25 45 68 01 00 	bnd jmpq *0x16845(%rip)        # 41a160 <system@GLIBC_2.2.5>
  40391b:	0f 1f 44 00 00       	nopl   0x0(%rax,%rax,1)

0000000000403920 <__cxa_atexit@plt>:
  403920:	f3 0f 1e fa          	endbr64 
  403924:	f2 ff 25 3d 68 01 00 	bnd jmpq *0x1683d(%rip)        # 41a168 <__cxa_atexit@GLIBC_2.2.5>
  40392b:	0f 1f 44 00 00       	nopl   0x0(%rax,%rax,1)

0000000000403930 <_ZNSt13basic_filebufIcSt11char_traitsIcEE4openEPKcSt13_Ios_Openmode@plt>:
  403930:	f3 0f 1e fa          	endbr64 
  403934:	f2 ff 25 35 68 01 00 	bnd jmpq *0x16835(%rip)        # 41a170 <_ZNSt13basic_filebufIcSt11char_traitsIcEE4openEPKcSt13_Ios_Openmode@GLIBCXX_3.4>
  40393b:	0f 1f 44 00 00       	nopl   0x0(%rax,%rax,1)

0000000000403940 <clock_gettime@plt>:
  403940:	f3 0f 1e fa          	endbr64 
  403944:	f2 ff 25 2d 68 01 00 	bnd jmpq *0x1682d(%rip)        # 41a178 <clock_gettime@GLIBC_2.17>
  40394b:	0f 1f 44 00 00       	nopl   0x0(%rax,%rax,1)

0000000000403950 <_ZdlPv@plt>:
  403950:	f3 0f 1e fa          	endbr64 
  403954:	f2 ff 25 25 68 01 00 	bnd jmpq *0x16825(%rip)        # 41a180 <_ZdlPv@GLIBCXX_3.4>
  40395b:	0f 1f 44 00 00       	nopl   0x0(%rax,%rax,1)

0000000000403960 <_ZNSo9_M_insertIlEERSoT_@plt>:
  403960:	f3 0f 1e fa          	endbr64 
  403964:	f2 ff 25 1d 68 01 00 	bnd jmpq *0x1681d(%rip)        # 41a188 <_ZNSo9_M_insertIlEERSoT_@GLIBCXX_3.4.9>
  40396b:	0f 1f 44 00 00       	nopl   0x0(%rax,%rax,1)

0000000000403970 <__isoc99_sscanf@plt>:
  403970:	f3 0f 1e fa          	endbr64 
  403974:	f2 ff 25 15 68 01 00 	bnd jmpq *0x16815(%rip)        # 41a190 <__isoc99_sscanf@GLIBC_2.7>
  40397b:	0f 1f 44 00 00       	nopl   0x0(%rax,%rax,1)

0000000000403980 <fclose@plt>:
  403980:	f3 0f 1e fa          	endbr64 
  403984:	f2 ff 25 0d 68 01 00 	bnd jmpq *0x1680d(%rip)        # 41a198 <fclose@GLIBC_2.2.5>
  40398b:	0f 1f 44 00 00       	nopl   0x0(%rax,%rax,1)

0000000000403990 <_Znwm@plt>:
  403990:	f3 0f 1e fa          	endbr64 
  403994:	f2 ff 25 05 68 01 00 	bnd jmpq *0x16805(%rip)        # 41a1a0 <_Znwm@GLIBCXX_3.4>
  40399b:	0f 1f 44 00 00       	nopl   0x0(%rax,%rax,1)

00000000004039a0 <_ZNSi10_M_extractIlEERSiRT_@plt>:
  4039a0:	f3 0f 1e fa          	endbr64 
  4039a4:	f2 ff 25 fd 67 01 00 	bnd jmpq *0x167fd(%rip)        # 41a1a8 <_ZNSi10_M_extractIlEERSiRT_@GLIBCXX_3.4.9>
  4039ab:	0f 1f 44 00 00       	nopl   0x0(%rax,%rax,1)

00000000004039b0 <_ZNSt13basic_filebufIcSt11char_traitsIcEEC1Ev@plt>:
  4039b0:	f3 0f 1e fa          	endbr64 
  4039b4:	f2 ff 25 f5 67 01 00 	bnd jmpq *0x167f5(%rip)        # 41a1b0 <_ZNSt13basic_filebufIcSt11char_traitsIcEEC1Ev@GLIBCXX_3.4>
  4039bb:	0f 1f 44 00 00       	nopl   0x0(%rax,%rax,1)

00000000004039c0 <__stack_chk_fail@plt>:
  4039c0:	f3 0f 1e fa          	endbr64 
  4039c4:	f2 ff 25 ed 67 01 00 	bnd jmpq *0x167ed(%rip)        # 41a1b8 <__stack_chk_fail@GLIBC_2.4>
  4039cb:	0f 1f 44 00 00       	nopl   0x0(%rax,%rax,1)

00000000004039d0 <_ZSt16__ostream_insertIcSt11char_traitsIcEERSt13basic_ostreamIT_T0_ES6_PKS3_l@plt>:
  4039d0:	f3 0f 1e fa          	endbr64 
  4039d4:	f2 ff 25 e5 67 01 00 	bnd jmpq *0x167e5(%rip)        # 41a1c0 <_ZSt16__ostream_insertIcSt11char_traitsIcEERSt13basic_ostreamIT_T0_ES6_PKS3_l@GLIBCXX_3.4.9>
  4039db:	0f 1f 44 00 00       	nopl   0x0(%rax,%rax,1)

00000000004039e0 <_ZNKSt5ctypeIcE13_M_widen_initEv@plt>:
  4039e0:	f3 0f 1e fa          	endbr64 
  4039e4:	f2 ff 25 dd 67 01 00 	bnd jmpq *0x167dd(%rip)        # 41a1c8 <_ZNKSt5ctypeIcE13_M_widen_initEv@GLIBCXX_3.4.11>
  4039eb:	0f 1f 44 00 00       	nopl   0x0(%rax,%rax,1)

00000000004039f0 <omp_get_thread_num@plt>:
  4039f0:	f3 0f 1e fa          	endbr64 
  4039f4:	f2 ff 25 d5 67 01 00 	bnd jmpq *0x167d5(%rip)        # 41a1d0 <omp_get_thread_num@VERSION>
  4039fb:	0f 1f 44 00 00       	nopl   0x0(%rax,%rax,1)

0000000000403a00 <_ZNSt7__cxx1112basic_stringIcSt11char_traitsIcESaIcEE12_M_constructEmc@plt>:
  403a00:	f3 0f 1e fa          	endbr64 
  403a04:	f2 ff 25 cd 67 01 00 	bnd jmpq *0x167cd(%rip)        # 41a1d8 <_ZNSt7__cxx1112basic_stringIcSt11char_traitsIcESaIcEE12_M_constructEmc@GLIBCXX_3.4.21>
  403a0b:	0f 1f 44 00 00       	nopl   0x0(%rax,%rax,1)

0000000000403a10 <fopen@plt>:
  403a10:	f3 0f 1e fa          	endbr64 
  403a14:	f2 ff 25 c5 67 01 00 	bnd jmpq *0x167c5(%rip)        # 41a1e0 <fopen@GLIBC_2.2.5>
  403a1b:	0f 1f 44 00 00       	nopl   0x0(%rax,%rax,1)

0000000000403a20 <GOMP_barrier@plt>:
  403a20:	f3 0f 1e fa          	endbr64 
  403a24:	f2 ff 25 bd 67 01 00 	bnd jmpq *0x167bd(%rip)        # 41a1e8 <GOMP_barrier@VERSION>
  403a2b:	0f 1f 44 00 00       	nopl   0x0(%rax,%rax,1)

0000000000403a30 <exit@plt>:
  403a30:	f3 0f 1e fa          	endbr64 
  403a34:	f2 ff 25 b5 67 01 00 	bnd jmpq *0x167b5(%rip)        # 41a1f0 <exit@GLIBC_2.2.5>
  403a3b:	0f 1f 44 00 00       	nopl   0x0(%rax,%rax,1)

0000000000403a40 <getenv@plt>:
  403a40:	f3 0f 1e fa          	endbr64 
  403a44:	f2 ff 25 ad 67 01 00 	bnd jmpq *0x167ad(%rip)        # 41a1f8 <getenv@GLIBC_2.2.5>
  403a4b:	0f 1f 44 00 00       	nopl   0x0(%rax,%rax,1)

0000000000403a50 <_ZNSi4readEPcl@plt>:
  403a50:	f3 0f 1e fa          	endbr64 
  403a54:	f2 ff 25 a5 67 01 00 	bnd jmpq *0x167a5(%rip)        # 41a200 <_ZNSi4readEPcl@GLIBCXX_3.4>
  403a5b:	0f 1f 44 00 00       	nopl   0x0(%rax,%rax,1)

0000000000403a60 <_ZSt16__throw_bad_castv@plt>:
  403a60:	f3 0f 1e fa          	endbr64 
  403a64:	f2 ff 25 9d 67 01 00 	bnd jmpq *0x1679d(%rip)        # 41a208 <_ZSt16__throw_bad_castv@GLIBCXX_3.4>
  403a6b:	0f 1f 44 00 00       	nopl   0x0(%rax,%rax,1)

0000000000403a70 <_ZStrsIcSt11char_traitsIcESaIcEERSt13basic_istreamIT_T0_ES7_RNSt7__cxx1112basic_stringIS4_S5_T1_EE@plt>:
  403a70:	f3 0f 1e fa          	endbr64 
  403a74:	f2 ff 25 95 67 01 00 	bnd jmpq *0x16795(%rip)        # 41a210 <_ZStrsIcSt11char_traitsIcESaIcEERSt13basic_istreamIT_T0_ES7_RNSt7__cxx1112basic_stringIS4_S5_T1_EE@GLIBCXX_3.4.21>
  403a7b:	0f 1f 44 00 00       	nopl   0x0(%rax,%rax,1)

0000000000403a80 <_ZdaPv@plt>:
  403a80:	f3 0f 1e fa          	endbr64 
  403a84:	f2 ff 25 8d 67 01 00 	bnd jmpq *0x1678d(%rip)        # 41a218 <_ZdaPv@GLIBCXX_3.4>
  403a8b:	0f 1f 44 00 00       	nopl   0x0(%rax,%rax,1)

0000000000403a90 <_ZNSt7__cxx1115basic_stringbufIcSt11char_traitsIcESaIcEE7_M_syncEPcmm@plt>:
  403a90:	f3 0f 1e fa          	endbr64 
  403a94:	f2 ff 25 85 67 01 00 	bnd jmpq *0x16785(%rip)        # 41a220 <_ZNSt7__cxx1115basic_stringbufIcSt11char_traitsIcESaIcEE7_M_syncEPcmm@GLIBCXX_3.4.21>
  403a9b:	0f 1f 44 00 00       	nopl   0x0(%rax,%rax,1)

0000000000403aa0 <_ZStrsIcSt11char_traitsIcEERSt13basic_istreamIT_T0_ES6_RS3_@plt>:
  403aa0:	f3 0f 1e fa          	endbr64 
  403aa4:	f2 ff 25 7d 67 01 00 	bnd jmpq *0x1677d(%rip)        # 41a228 <_ZStrsIcSt11char_traitsIcEERSt13basic_istreamIT_T0_ES6_RS3_@GLIBCXX_3.4>
  403aab:	0f 1f 44 00 00       	nopl   0x0(%rax,%rax,1)

0000000000403ab0 <_ZNSt9basic_iosIcSt11char_traitsIcEE4initEPSt15basic_streambufIcS1_E@plt>:
  403ab0:	f3 0f 1e fa          	endbr64 
  403ab4:	f2 ff 25 75 67 01 00 	bnd jmpq *0x16775(%rip)        # 41a230 <_ZNSt9basic_iosIcSt11char_traitsIcEE4initEPSt15basic_streambufIcS1_E@GLIBCXX_3.4>
  403abb:	0f 1f 44 00 00       	nopl   0x0(%rax,%rax,1)

0000000000403ac0 <strtol@plt>:
  403ac0:	f3 0f 1e fa          	endbr64 
  403ac4:	f2 ff 25 6d 67 01 00 	bnd jmpq *0x1676d(%rip)        # 41a238 <strtol@GLIBC_2.2.5>
  403acb:	0f 1f 44 00 00       	nopl   0x0(%rax,%rax,1)

0000000000403ad0 <ioctl@plt>:
  403ad0:	f3 0f 1e fa          	endbr64 
  403ad4:	f2 ff 25 65 67 01 00 	bnd jmpq *0x16765(%rip)        # 41a240 <ioctl@GLIBC_2.2.5>
  403adb:	0f 1f 44 00 00       	nopl   0x0(%rax,%rax,1)

0000000000403ae0 <_ZNSt6localeD1Ev@plt>:
  403ae0:	f3 0f 1e fa          	endbr64 
  403ae4:	f2 ff 25 5d 67 01 00 	bnd jmpq *0x1675d(%rip)        # 41a248 <_ZNSt6localeD1Ev@GLIBCXX_3.4>
  403aeb:	0f 1f 44 00 00       	nopl   0x0(%rax,%rax,1)

0000000000403af0 <__cxa_throw_bad_array_new_length@plt>:
  403af0:	f3 0f 1e fa          	endbr64 
  403af4:	f2 ff 25 55 67 01 00 	bnd jmpq *0x16755(%rip)        # 41a250 <__cxa_throw_bad_array_new_length@CXXABI_1.3.8>
  403afb:	0f 1f 44 00 00       	nopl   0x0(%rax,%rax,1)

0000000000403b00 <read@plt>:
  403b00:	f3 0f 1e fa          	endbr64 
  403b04:	f2 ff 25 4d 67 01 00 	bnd jmpq *0x1674d(%rip)        # 41a258 <read@GLIBC_2.2.5>
  403b0b:	0f 1f 44 00 00       	nopl   0x0(%rax,%rax,1)

0000000000403b10 <omp_get_num_threads@plt>:
  403b10:	f3 0f 1e fa          	endbr64 
  403b14:	f2 ff 25 45 67 01 00 	bnd jmpq *0x16745(%rip)        # 41a260 <omp_get_num_threads@VERSION>
  403b1b:	0f 1f 44 00 00       	nopl   0x0(%rax,%rax,1)

0000000000403b20 <getpid@plt>:
  403b20:	f3 0f 1e fa          	endbr64 
  403b24:	f2 ff 25 3d 67 01 00 	bnd jmpq *0x1673d(%rip)        # 41a268 <getpid@GLIBC_2.2.5>
  403b2b:	0f 1f 44 00 00       	nopl   0x0(%rax,%rax,1)

0000000000403b30 <fread@plt>:
  403b30:	f3 0f 1e fa          	endbr64 
  403b34:	f2 ff 25 35 67 01 00 	bnd jmpq *0x16735(%rip)        # 41a270 <fread@GLIBC_2.2.5>
  403b3b:	0f 1f 44 00 00       	nopl   0x0(%rax,%rax,1)

0000000000403b40 <_ZSt24__throw_out_of_range_fmtPKcz@plt>:
  403b40:	f3 0f 1e fa          	endbr64 
  403b44:	f2 ff 25 2d 67 01 00 	bnd jmpq *0x1672d(%rip)        # 41a278 <_ZSt24__throw_out_of_range_fmtPKcz@GLIBCXX_3.4.20>
  403b4b:	0f 1f 44 00 00       	nopl   0x0(%rax,%rax,1)

0000000000403b50 <_ZNSt8ios_base4InitC1Ev@plt>:
  403b50:	f3 0f 1e fa          	endbr64 
  403b54:	f2 ff 25 25 67 01 00 	bnd jmpq *0x16725(%rip)        # 41a280 <_ZNSt8ios_base4InitC1Ev@GLIBCXX_3.4>
  403b5b:	0f 1f 44 00 00       	nopl   0x0(%rax,%rax,1)

0000000000403b60 <_ZNSt13basic_filebufIcSt11char_traitsIcEED1Ev@plt>:
  403b60:	f3 0f 1e fa          	endbr64 
  403b64:	f2 ff 25 1d 67 01 00 	bnd jmpq *0x1671d(%rip)        # 41a288 <_ZNSt13basic_filebufIcSt11char_traitsIcEED1Ev@GLIBCXX_3.4>
  403b6b:	0f 1f 44 00 00       	nopl   0x0(%rax,%rax,1)

0000000000403b70 <_ZNSt7__cxx1112basic_stringIcSt11char_traitsIcESaIcEE7reserveEm@plt>:
  403b70:	f3 0f 1e fa          	endbr64 
  403b74:	f2 ff 25 15 67 01 00 	bnd jmpq *0x16715(%rip)        # 41a290 <_ZNSt7__cxx1112basic_stringIcSt11char_traitsIcESaIcEE7reserveEm@GLIBCXX_3.4.21>
  403b7b:	0f 1f 44 00 00       	nopl   0x0(%rax,%rax,1)

0000000000403b80 <fgets@plt>:
  403b80:	f3 0f 1e fa          	endbr64 
  403b84:	f2 ff 25 0d 67 01 00 	bnd jmpq *0x1670d(%rip)        # 41a298 <fgets@GLIBC_2.2.5>
  403b8b:	0f 1f 44 00 00       	nopl   0x0(%rax,%rax,1)

0000000000403b90 <GOMP_critical_start@plt>:
  403b90:	f3 0f 1e fa          	endbr64 
  403b94:	f2 ff 25 05 67 01 00 	bnd jmpq *0x16705(%rip)        # 41a2a0 <GOMP_critical_start@VERSION>
  403b9b:	0f 1f 44 00 00       	nopl   0x0(%rax,%rax,1)

0000000000403ba0 <gettimeofday@plt>:
  403ba0:	f3 0f 1e fa          	endbr64 
  403ba4:	f2 ff 25 fd 66 01 00 	bnd jmpq *0x166fd(%rip)        # 41a2a8 <gettimeofday@GLIBC_2.2.5>
  403bab:	0f 1f 44 00 00       	nopl   0x0(%rax,%rax,1)

0000000000403bb0 <memmove@plt>:
  403bb0:	f3 0f 1e fa          	endbr64 
  403bb4:	f2 ff 25 f5 66 01 00 	bnd jmpq *0x166f5(%rip)        # 41a2b0 <memmove@GLIBC_2.2.5>
  403bbb:	0f 1f 44 00 00       	nopl   0x0(%rax,%rax,1)

0000000000403bc0 <__cxa_end_catch@plt>:
  403bc0:	f3 0f 1e fa          	endbr64 
  403bc4:	f2 ff 25 ed 66 01 00 	bnd jmpq *0x166ed(%rip)        # 41a2b8 <__cxa_end_catch@CXXABI_1.3>
  403bcb:	0f 1f 44 00 00       	nopl   0x0(%rax,%rax,1)

0000000000403bd0 <realloc@plt>:
  403bd0:	f3 0f 1e fa          	endbr64 
  403bd4:	f2 ff 25 e5 66 01 00 	bnd jmpq *0x166e5(%rip)        # 41a2c0 <realloc@GLIBC_2.2.5>
  403bdb:	0f 1f 44 00 00       	nopl   0x0(%rax,%rax,1)

0000000000403be0 <__fprintf_chk@plt>:
  403be0:	f3 0f 1e fa          	endbr64 
  403be4:	f2 ff 25 dd 66 01 00 	bnd jmpq *0x166dd(%rip)        # 41a2c8 <__fprintf_chk@GLIBC_2.3.4>
  403beb:	0f 1f 44 00 00       	nopl   0x0(%rax,%rax,1)

0000000000403bf0 <_ZNSt7__cxx1119basic_istringstreamIcSt11char_traitsIcESaIcEEC1ERKNS_12basic_stringIcS2_S3_EESt13_Ios_Openmode@plt>:
  403bf0:	f3 0f 1e fa          	endbr64 
  403bf4:	f2 ff 25 d5 66 01 00 	bnd jmpq *0x166d5(%rip)        # 41a2d0 <_ZNSt7__cxx1119basic_istringstreamIcSt11char_traitsIcESaIcEEC1ERKNS_12basic_stringIcS2_S3_EESt13_Ios_Openmode@GLIBCXX_3.4.21>
  403bfb:	0f 1f 44 00 00       	nopl   0x0(%rax,%rax,1)

0000000000403c00 <_ZNSt9basic_iosIcSt11char_traitsIcEE5clearESt12_Ios_Iostate@plt>:
  403c00:	f3 0f 1e fa          	endbr64 
  403c04:	f2 ff 25 cd 66 01 00 	bnd jmpq *0x166cd(%rip)        # 41a2d8 <_ZNSt9basic_iosIcSt11char_traitsIcEE5clearESt12_Ios_Iostate@GLIBCXX_3.4>
  403c0b:	0f 1f 44 00 00       	nopl   0x0(%rax,%rax,1)

0000000000403c10 <_ZNSolsEi@plt>:
  403c10:	f3 0f 1e fa          	endbr64 
  403c14:	f2 ff 25 c5 66 01 00 	bnd jmpq *0x166c5(%rip)        # 41a2e0 <_ZNSolsEi@GLIBCXX_3.4>
  403c1b:	0f 1f 44 00 00       	nopl   0x0(%rax,%rax,1)

0000000000403c20 <GOMP_parallel@plt>:
  403c20:	f3 0f 1e fa          	endbr64 
  403c24:	f2 ff 25 bd 66 01 00 	bnd jmpq *0x166bd(%rip)        # 41a2e8 <GOMP_parallel@VERSION>
  403c2b:	0f 1f 44 00 00       	nopl   0x0(%rax,%rax,1)

0000000000403c30 <GOMP_loop_ull_nonmonotonic_dynamic_next@plt>:
  403c30:	f3 0f 1e fa          	endbr64 
  403c34:	f2 ff 25 b5 66 01 00 	bnd jmpq *0x166b5(%rip)        # 41a2f0 <GOMP_loop_ull_nonmonotonic_dynamic_next@VERSION>
  403c3b:	0f 1f 44 00 00       	nopl   0x0(%rax,%rax,1)

0000000000403c40 <_Unwind_Resume@plt>:
  403c40:	f3 0f 1e fa          	endbr64 
  403c44:	f2 ff 25 ad 66 01 00 	bnd jmpq *0x166ad(%rip)        # 41a2f8 <_Unwind_Resume@GCC_3.0>
  403c4b:	0f 1f 44 00 00       	nopl   0x0(%rax,%rax,1)

0000000000403c50 <_ZNSt7__cxx1112basic_stringIcSt11char_traitsIcESaIcEE9_M_createERmm@plt>:
  403c50:	f3 0f 1e fa          	endbr64 
  403c54:	f2 ff 25 a5 66 01 00 	bnd jmpq *0x166a5(%rip)        # 41a300 <_ZNSt7__cxx1112basic_stringIcSt11char_traitsIcESaIcEE9_M_createERmm@GLIBCXX_3.4.21>
  403c5b:	0f 1f 44 00 00       	nopl   0x0(%rax,%rax,1)

0000000000403c60 <__isoc99_fscanf@plt>:
  403c60:	f3 0f 1e fa          	endbr64 
  403c64:	f2 ff 25 9d 66 01 00 	bnd jmpq *0x1669d(%rip)        # 41a308 <__isoc99_fscanf@GLIBC_2.7>
  403c6b:	0f 1f 44 00 00       	nopl   0x0(%rax,%rax,1)

0000000000403c70 <_ZSt7getlineIcSt11char_traitsIcESaIcEERSt13basic_istreamIT_T0_ES7_RNSt7__cxx1112basic_stringIS4_S5_T1_EES4_@plt>:
  403c70:	f3 0f 1e fa          	endbr64 
  403c74:	f2 ff 25 95 66 01 00 	bnd jmpq *0x16695(%rip)        # 41a310 <_ZSt7getlineIcSt11char_traitsIcESaIcEERSt13basic_istreamIT_T0_ES7_RNSt7__cxx1112basic_stringIS4_S5_T1_EES4_@GLIBCXX_3.4.21>
  403c7b:	0f 1f 44 00 00       	nopl   0x0(%rax,%rax,1)

0000000000403c80 <_ZNSt12__basic_fileIcED1Ev@plt>:
  403c80:	f3 0f 1e fa          	endbr64 
  403c84:	f2 ff 25 8d 66 01 00 	bnd jmpq *0x1668d(%rip)        # 41a318 <_ZNSt12__basic_fileIcED1Ev@GLIBCXX_3.4>
  403c8b:	0f 1f 44 00 00       	nopl   0x0(%rax,%rax,1)

0000000000403c90 <fwrite@plt>:
  403c90:	f3 0f 1e fa          	endbr64 
  403c94:	f2 ff 25 85 66 01 00 	bnd jmpq *0x16685(%rip)        # 41a320 <fwrite@GLIBC_2.2.5>
  403c9b:	0f 1f 44 00 00       	nopl   0x0(%rax,%rax,1)

0000000000403ca0 <close@plt>:
  403ca0:	f3 0f 1e fa          	endbr64 
  403ca4:	f2 ff 25 7d 66 01 00 	bnd jmpq *0x1667d(%rip)        # 41a328 <close@GLIBC_2.2.5>
  403cab:	0f 1f 44 00 00       	nopl   0x0(%rax,%rax,1)

0000000000403cb0 <_ZNKSt7__cxx1112basic_stringIcSt11char_traitsIcESaIcEE5rfindEcm@plt>:
  403cb0:	f3 0f 1e fa          	endbr64 
  403cb4:	f2 ff 25 75 66 01 00 	bnd jmpq *0x16675(%rip)        # 41a330 <_ZNKSt7__cxx1112basic_stringIcSt11char_traitsIcESaIcEE5rfindEcm@GLIBCXX_3.4.21>
  403cbb:	0f 1f 44 00 00       	nopl   0x0(%rax,%rax,1)

0000000000403cc0 <_ZNSt6localeC1Ev@plt>:
  403cc0:	f3 0f 1e fa          	endbr64 
  403cc4:	f2 ff 25 6d 66 01 00 	bnd jmpq *0x1666d(%rip)        # 41a338 <_ZNSt6localeC1Ev@GLIBCXX_3.4>
  403ccb:	0f 1f 44 00 00       	nopl   0x0(%rax,%rax,1)

Disassembly of section .text:

0000000000403cd0 <_Z10PrintLabelRKNSt7__cxx1112basic_stringIcSt11char_traitsIcESaIcEEES6_.cold>:
_ZNKSt7__cxx1112basic_stringIcSt11char_traitsIcESaIcEE7_M_dataEv():
/usr/include/c++/10/bits/basic_string.h:195 (discriminator 1)
      _M_length(size_type __length)
      { _M_string_length = __length; }

      pointer
      _M_data() const
      { return _M_dataplus._M_p; }
  403cd0:	48 8b 7c 24 10       	mov    0x10(%rsp),%rdi
_ZNSt7__cxx1112basic_stringIcSt11char_traitsIcESaIcEE10_M_disposeEv():
/usr/include/c++/10/bits/basic_string.h:239 (discriminator 1)
      _M_create(size_type&, size_type);

      void
      _M_dispose()
      {
	if (!_M_is_local())
  403cd5:	48 39 df             	cmp    %rbx,%rdi
  403cd8:	74 05                	je     403cdf <_Z10PrintLabelRKNSt7__cxx1112basic_stringIcSt11char_traitsIcESaIcEEES6_.cold+0xf>
_ZN9__gnu_cxx13new_allocatorIcE10deallocateEPcm():
/usr/include/c++/10/ext/new_allocator.h:139
# endif
			      std::align_val_t(alignof(_Tp)));
	    return;
	  }
#endif
	::operator delete(__p
  403cda:	e8 71 fc ff ff       	callq  403950 <_ZdlPv@plt>
_ZN9__gnu_cxx13new_allocatorIcED4Ev():
/usr/include/c++/10/ext/new_allocator.h:89
      ~new_allocator() _GLIBCXX_USE_NOEXCEPT { }
  403cdf:	48 89 ef             	mov    %rbp,%rdi
  403ce2:	e8 59 ff ff ff       	callq  403c40 <_Unwind_Resume@plt>

0000000000403ce7 <_Z9PrintTimeRKNSt7__cxx1112basic_stringIcSt11char_traitsIcESaIcEEEd.cold>:
_ZNKSt7__cxx1112basic_stringIcSt11char_traitsIcESaIcEE7_M_dataEv():
/usr/include/c++/10/bits/basic_string.h:195 (discriminator 1)
      { return _M_dataplus._M_p; }
  403ce7:	48 8b 7c 24 10       	mov    0x10(%rsp),%rdi
_ZNSt7__cxx1112basic_stringIcSt11char_traitsIcESaIcEE10_M_disposeEv():
/usr/include/c++/10/bits/basic_string.h:239 (discriminator 1)
	if (!_M_is_local())
  403cec:	48 39 df             	cmp    %rbx,%rdi
  403cef:	74 05                	je     403cf6 <_Z9PrintTimeRKNSt7__cxx1112basic_stringIcSt11char_traitsIcESaIcEEEd.cold+0xf>
_ZN9__gnu_cxx13new_allocatorIcE10deallocateEPcm():
/usr/include/c++/10/ext/new_allocator.h:139
	::operator delete(__p
  403cf1:	e8 5a fc ff ff       	callq  403950 <_ZdlPv@plt>
_ZN9__gnu_cxx13new_allocatorIcED4Ev():
/usr/include/c++/10/ext/new_allocator.h:89
      ~new_allocator() _GLIBCXX_USE_NOEXCEPT { }
  403cf6:	48 89 ef             	mov    %rbp,%rdi
  403cf9:	e8 42 ff ff ff       	callq  403c40 <_Unwind_Resume@plt>

0000000000403cfe <_Z9PrintStepRKNSt7__cxx1112basic_stringIcSt11char_traitsIcESaIcEEEl.cold>:
_ZNKSt7__cxx1112basic_stringIcSt11char_traitsIcESaIcEE7_M_dataEv():
/usr/include/c++/10/bits/basic_string.h:195 (discriminator 1)
      { return _M_dataplus._M_p; }
  403cfe:	48 8b 7c 24 10       	mov    0x10(%rsp),%rdi
_ZNSt7__cxx1112basic_stringIcSt11char_traitsIcESaIcEE10_M_disposeEv():
/usr/include/c++/10/bits/basic_string.h:239 (discriminator 1)
	if (!_M_is_local())
  403d03:	48 39 df             	cmp    %rbx,%rdi
  403d06:	74 05                	je     403d0d <_Z9PrintStepRKNSt7__cxx1112basic_stringIcSt11char_traitsIcESaIcEEEl.cold+0xf>
_ZN9__gnu_cxx13new_allocatorIcE10deallocateEPcm():
/usr/include/c++/10/ext/new_allocator.h:139
	::operator delete(__p
  403d08:	e8 43 fc ff ff       	callq  403950 <_ZdlPv@plt>
_ZN9__gnu_cxx13new_allocatorIcED4Ev():
/usr/include/c++/10/ext/new_allocator.h:89
      ~new_allocator() _GLIBCXX_USE_NOEXCEPT { }
  403d0d:	48 89 ef             	mov    %rbp,%rdi
  403d10:	e8 2b ff ff ff       	callq  403c40 <_Unwind_Resume@plt>

0000000000403d15 <_Z9PrintStepidl.cold>:
_ZNKSt7__cxx1112basic_stringIcSt11char_traitsIcESaIcEE7_M_dataEv():
/usr/include/c++/10/bits/basic_string.h:195 (discriminator 1)
      { return _M_dataplus._M_p; }
  403d15:	48 8b 7c 24 10       	mov    0x10(%rsp),%rdi
_ZNSt7__cxx1112basic_stringIcSt11char_traitsIcESaIcEE10_M_disposeEv():
/usr/include/c++/10/bits/basic_string.h:239 (discriminator 1)
	if (!_M_is_local())
  403d1a:	48 39 ef             	cmp    %rbp,%rdi
  403d1d:	74 05                	je     403d24 <_Z9PrintStepidl.cold+0xf>
_ZN9__gnu_cxx13new_allocatorIcE10deallocateEPcm():
/usr/include/c++/10/ext/new_allocator.h:139
	::operator delete(__p
  403d1f:	e8 2c fc ff ff       	callq  403950 <_ZdlPv@plt>
_ZN9__gnu_cxx13new_allocatorIcED4Ev():
/usr/include/c++/10/ext/new_allocator.h:89
      ~new_allocator() _GLIBCXX_USE_NOEXCEPT { }
  403d24:	4c 89 e7             	mov    %r12,%rdi
  403d27:	e8 14 ff ff ff       	callq  403c40 <_Unwind_Resume@plt>

0000000000403d2c <_Z9DeltaStepRK8CSRGraphIi10NodeWeightIiiELb1EEiib.cold>:
_ZN7pvectorIiEC4Em():
/home/aliha951/ipdps-artifact/gapbs-master/src/pvector.h:30
  typedef T_* iterator;

  pvector() : start_(nullptr), end_size_(nullptr), end_capacity_(nullptr) {}

  explicit pvector(size_t num_elements) {
    start_ = new T_[num_elements];
  403d2c:	e8 bf fd ff ff       	callq  403af0 <__cxa_throw_bad_array_new_length@plt>
  403d31:	e8 ba fd ff ff       	callq  403af0 <__cxa_throw_bad_array_new_length@plt>
  403d36:	f3 0f 1e fa          	endbr64 
_ZN7pvectorIiE16ReleaseResourcesEv():
/home/aliha951/ipdps-artifact/gapbs-master/src/pvector.h:73
    }
    return *this;
  }

  void ReleaseResources(){
    if (start_ != nullptr) {
  403d3a:	49 8b 3c 24          	mov    (%r12),%rdi
  403d3e:	48 89 c5             	mov    %rax,%rbp
  403d41:	48 85 ff             	test   %rdi,%rdi
  403d44:	74 05                	je     403d4b <_Z9DeltaStepRK8CSRGraphIi10NodeWeightIiiELb1EEiib.cold+0x1f>
/home/aliha951/ipdps-artifact/gapbs-master/src/pvector.h:74
      delete[] start_;
  403d46:	e8 35 fd ff ff       	callq  403a80 <_ZdaPv@plt>
  403d4b:	48 89 ef             	mov    %rbp,%rdi
  403d4e:	e8 ed fe ff ff       	callq  403c40 <_Unwind_Resume@plt>

0000000000403d53 <_Z9DeltaStepRK8CSRGraphIi10NodeWeightIiiELb1EEiib._omp_fn.0.cold>:
_Z9DeltaStepRK8CSRGraphIi10NodeWeightIiiELb1EEiib._omp_fn.0.cold():
/home/aliha951/ipdps-artifact/gapbs-master/src/sssp.cc:98
  // two element arrays for double buffering curr=iter&1, next=(iter+1)&1
  size_t shared_indexes[2] = {0, kMaxBin};
  size_t frontier_tails[2] = {1, 0};
  frontier[0] = source;
  t.Start();
  #pragma omp parallel
  403d53:	e8 28 fa ff ff       	callq  403780 <_ZSt9terminatev@plt>
_Z9DeltaStepRK8CSRGraphIi10NodeWeightIiiELb1EEiib._omp_fn.0():
/home/aliha951/ipdps-artifact/gapbs-master/src/sssp.cc:98
  403d58:	e8 23 fa ff ff       	callq  403780 <_ZSt9terminatev@plt>

0000000000403d5d <_Z12SSSPVerifierRK8CSRGraphIi10NodeWeightIiiELb1EEiRK7pvectorIiE.cold>:
_ZN7pvectorIiEC4Em():
/home/aliha951/ipdps-artifact/gapbs-master/src/pvector.h:30
    start_ = new T_[num_elements];
  403d5d:	e8 8e fd ff ff       	callq  403af0 <__cxa_throw_bad_array_new_length@plt>
_ZNSt6vectorISt4pairIiiESaIS1_EED4Ev():
/usr/include/c++/10/bits/stl_vector.h:680
       *  not touched in any way.  Managing the pointer is the user's
       *  responsibility.
       */
      ~vector() _GLIBCXX_NOEXCEPT
      {
	std::_Destroy(this->_M_impl._M_start, this->_M_impl._M_finish,
  403d62:	48 8b 7c 24 60       	mov    0x60(%rsp),%rdi
_ZNSt12_Vector_baseISt4pairIiiESaIS1_EE13_M_deallocateEPS1_m():
/usr/include/c++/10/bits/stl_vector.h:353
	if (__p)
  403d67:	48 85 ff             	test   %rdi,%rdi
  403d6a:	74 05                	je     403d71 <_Z12SSSPVerifierRK8CSRGraphIi10NodeWeightIiiELb1EEiRK7pvectorIiE.cold+0x14>
_ZN9__gnu_cxx13new_allocatorISt4pairIiiEE10deallocateEPS2_m():
/usr/include/c++/10/ext/new_allocator.h:139
	::operator delete(__p
  403d6c:	e8 df fb ff ff       	callq  403950 <_ZdlPv@plt>
_ZN7pvectorIiE16ReleaseResourcesEv():
/home/aliha951/ipdps-artifact/gapbs-master/src/pvector.h:73
    if (start_ != nullptr) {
  403d71:	48 8b 7c 24 40       	mov    0x40(%rsp),%rdi
  403d76:	48 85 ff             	test   %rdi,%rdi
  403d79:	74 05                	je     403d80 <_Z12SSSPVerifierRK8CSRGraphIi10NodeWeightIiiELb1EEiRK7pvectorIiE.cold+0x23>
/home/aliha951/ipdps-artifact/gapbs-master/src/pvector.h:74
      delete[] start_;
  403d7b:	e8 00 fd ff ff       	callq  403a80 <_ZdaPv@plt>
  403d80:	48 89 ef             	mov    %rbp,%rdi
  403d83:	e8 b8 fe ff ff       	callq  403c40 <_Unwind_Resume@plt>

0000000000403d88 <main.cold>:
_ZNKSt7__cxx1112basic_stringIcSt11char_traitsIcESaIcEE7_M_dataEv():
/usr/include/c++/10/bits/basic_string.h:195
      { return _M_dataplus._M_p; }
  403d88:	48 8b bc 24 00 01 00 	mov    0x100(%rsp),%rdi
  403d8f:	00 
_ZNSt7__cxx1112basic_stringIcSt11char_traitsIcESaIcEE10_M_disposeEv():
/usr/include/c++/10/bits/basic_string.h:239
	if (!_M_is_local())
  403d90:	4c 39 ef             	cmp    %r13,%rdi
  403d93:	74 05                	je     403d9a <main.cold+0x12>
_ZN9__gnu_cxx13new_allocatorIcE10deallocateEPcm():
/usr/include/c++/10/ext/new_allocator.h:139
  403d95:	e8 b6 fb ff ff       	callq  403950 <_ZdlPv@plt>
_ZNKSt7__cxx1112basic_stringIcSt11char_traitsIcESaIcEE7_M_dataEv():
/usr/include/c++/10/bits/basic_string.h:195
      { return _M_dataplus._M_p; }
  403d9a:	48 8b bc 24 e0 00 00 	mov    0xe0(%rsp),%rdi
  403da1:	00 
_ZNSt7__cxx1112basic_stringIcSt11char_traitsIcESaIcEE10_M_disposeEv():
/usr/include/c++/10/bits/basic_string.h:239
	if (!_M_is_local())
  403da2:	4c 39 ff             	cmp    %r15,%rdi
  403da5:	74 05                	je     403dac <main.cold+0x24>
_ZN9__gnu_cxx13new_allocatorIcE10deallocateEPcm():
/usr/include/c++/10/ext/new_allocator.h:139
  403da7:	e8 a4 fb ff ff       	callq  403950 <_ZdlPv@plt>
_ZN7pvectorIiE16ReleaseResourcesEv():
/home/aliha951/ipdps-artifact/gapbs-master/src/pvector.h:73
    if (start_ != nullptr) {
  403dac:	48 8b bc 24 80 00 00 	mov    0x80(%rsp),%rdi
  403db3:	00 
  403db4:	48 85 ff             	test   %rdi,%rdi
  403db7:	75 6f                	jne    403e28 <main.cold+0xa0>
_ZN8CSRGraphIi10NodeWeightIiiELb1EED4Ev():
/home/aliha951/ipdps-artifact/gapbs-master/src/graph.h:166
      other.in_index_ = nullptr;
      other.in_neighbors_ = nullptr;
  }

  ~CSRGraph() {
    ReleaseResources();
  403db9:	48 8b 7c 24 20       	mov    0x20(%rsp),%rdi
  403dbe:	e8 0d 6c 00 00       	callq  40a9d0 <_ZN8CSRGraphIi10NodeWeightIiiELb1EE16ReleaseResourcesEv>
_ZN5CLAppD4Ev():
/home/aliha951/ipdps-artifact/gapbs-master/src/command_line.h:140
  int batching_mode() const { return batching_mode_; }
};



class CLApp : public CLBase {
  403dc3:	48 8b 7c 24 38       	mov    0x38(%rsp),%rdi
  403dc8:	48 8d 05 29 5d 01 00 	lea    0x15d29(%rip),%rax        # 419af8 <_ZTV5CLApp+0x10>
  403dcf:	48 89 84 24 20 01 00 	mov    %rax,0x120(%rsp)
  403dd6:	00 
  403dd7:	e8 54 5f 00 00       	callq  409d30 <_ZN6CLBaseD1Ev>
  403ddc:	48 89 df             	mov    %rbx,%rdi
  403ddf:	e8 5c fe ff ff       	callq  403c40 <_Unwind_Resume@plt>
_ZNKSt7__cxx1112basic_stringIcSt11char_traitsIcESaIcEE7_M_dataEv():
/usr/include/c++/10/bits/basic_string.h:195
      { return _M_dataplus._M_p; }
  403de4:	48 8b bc 24 00 01 00 	mov    0x100(%rsp),%rdi
  403deb:	00 
_ZNSt7__cxx1112basic_stringIcSt11char_traitsIcESaIcEE10_M_disposeEv():
/usr/include/c++/10/bits/basic_string.h:239
	if (!_M_is_local())
  403dec:	48 8d 84 24 10 01 00 	lea    0x110(%rsp),%rax
  403df3:	00 
  403df4:	48 39 c7             	cmp    %rax,%rdi
  403df7:	74 c0                	je     403db9 <main.cold+0x31>
_ZN9__gnu_cxx13new_allocatorIcE10deallocateEPcm():
/usr/include/c++/10/ext/new_allocator.h:139
  403df9:	e8 52 fb ff ff       	callq  403950 <_ZdlPv@plt>
_ZNSt7__cxx1112basic_stringIcSt11char_traitsIcESaIcEE10_M_destroyEm():
/usr/include/c++/10/bits/basic_string.h:245
	  _M_destroy(_M_allocated_capacity);
      }

      void
      _M_destroy(size_type __size) throw()
      { _Alloc_traits::deallocate(_M_get_allocator(), _M_data(), __size + 1); }
  403dfe:	eb b9                	jmp    403db9 <main.cold+0x31>
_ZNKSt7__cxx1112basic_stringIcSt11char_traitsIcESaIcEE7_M_dataEv():
/usr/include/c++/10/bits/basic_string.h:195
      { return _M_dataplus._M_p; }
  403e00:	48 8b bc 24 00 01 00 	mov    0x100(%rsp),%rdi
  403e07:	00 
_ZNSt7__cxx1112basic_stringIcSt11char_traitsIcESaIcEE10_M_disposeEv():
/usr/include/c++/10/bits/basic_string.h:239
	if (!_M_is_local())
  403e08:	4c 39 ef             	cmp    %r13,%rdi
  403e0b:	74 9f                	je     403dac <main.cold+0x24>
_ZN9__gnu_cxx13new_allocatorIcE10deallocateEPcm():
/usr/include/c++/10/ext/new_allocator.h:139
  403e0d:	e8 3e fb ff ff       	callq  403950 <_ZdlPv@plt>
_ZNSt7__cxx1112basic_stringIcSt11char_traitsIcESaIcEE10_M_destroyEm():
/usr/include/c++/10/bits/basic_string.h:245
      { _Alloc_traits::deallocate(_M_get_allocator(), _M_data(), __size + 1); }
  403e12:	eb 98                	jmp    403dac <main.cold+0x24>
_ZNKSt7__cxx1112basic_stringIcSt11char_traitsIcESaIcEE7_M_dataEv():
/usr/include/c++/10/bits/basic_string.h:195
      { return _M_dataplus._M_p; }
  403e14:	48 8b bc 24 00 01 00 	mov    0x100(%rsp),%rdi
  403e1b:	00 
_ZNSt7__cxx1112basic_stringIcSt11char_traitsIcESaIcEE10_M_disposeEv():
/usr/include/c++/10/bits/basic_string.h:239
	if (!_M_is_local())
  403e1c:	4c 39 ef             	cmp    %r13,%rdi
  403e1f:	74 8b                	je     403dac <main.cold+0x24>
_ZN9__gnu_cxx13new_allocatorIcE10deallocateEPcm():
/usr/include/c++/10/ext/new_allocator.h:139
  403e21:	e8 2a fb ff ff       	callq  403950 <_ZdlPv@plt>
_ZNSt7__cxx1112basic_stringIcSt11char_traitsIcESaIcEE10_M_destroyEm():
/usr/include/c++/10/bits/basic_string.h:245
      { _Alloc_traits::deallocate(_M_get_allocator(), _M_data(), __size + 1); }
  403e26:	eb 84                	jmp    403dac <main.cold+0x24>
_ZN7pvectorIiE16ReleaseResourcesEv():
/home/aliha951/ipdps-artifact/gapbs-master/src/pvector.h:74
      delete[] start_;
  403e28:	e8 53 fc ff ff       	callq  403a80 <_ZdaPv@plt>
  403e2d:	eb 8a                	jmp    403db9 <main.cold+0x31>
_ZNKSt7__cxx1112basic_stringIcSt11char_traitsIcESaIcEE7_M_dataEv():
/usr/include/c++/10/bits/basic_string.h:195
      { return _M_dataplus._M_p; }
  403e2f:	48 8b bc 24 e0 0b 00 	mov    0xbe0(%rsp),%rdi
  403e36:	00 
_ZNSt7__cxx1112basic_stringIcSt11char_traitsIcESaIcEE10_M_disposeEv():
/usr/include/c++/10/bits/basic_string.h:239
	if (!_M_is_local())
  403e37:	48 8d 84 24 f0 0b 00 	lea    0xbf0(%rsp),%rax
  403e3e:	00 
  403e3f:	48 39 c7             	cmp    %rax,%rdi
  403e42:	74 05                	je     403e49 <main.cold+0xc1>
_ZN9__gnu_cxx13new_allocatorIcE10deallocateEPcm():
/usr/include/c++/10/ext/new_allocator.h:139
  403e44:	e8 07 fb ff ff       	callq  403950 <_ZdlPv@plt>
_ZN9__gnu_cxx13new_allocatorIcED4Ev():
/usr/include/c++/10/ext/new_allocator.h:89
      ~new_allocator() _GLIBCXX_USE_NOEXCEPT { }
  403e49:	48 89 ef             	mov    %rbp,%rdi
  403e4c:	e8 ef fd ff ff       	callq  403c40 <_Unwind_Resume@plt>
main.cold():
  403e51:	66 2e 0f 1f 84 00 00 	nopw   %cs:0x0(%rax,%rax,1)
  403e58:	00 00 00 
  403e5b:	0f 1f 44 00 00       	nopl   0x0(%rax,%rax,1)

0000000000403e60 <main>:
main():
/home/aliha951/ipdps-artifact/gapbs-master/src/sssp.cc:197
  }
  return all_ok;
}


int main(int argc, char* argv[]) {
  403e60:	f3 0f 1e fa          	endbr64 
  403e64:	41 57                	push   %r15
  403e66:	41 56                	push   %r14
  403e68:	41 55                	push   %r13
  403e6a:	41 54                	push   %r12
  403e6c:	55                   	push   %rbp
  403e6d:	53                   	push   %rbx
  403e6e:	48 81 ec 00 10 00 00 	sub    $0x1000,%rsp
  403e75:	48 83 0c 24 00       	orq    $0x0,(%rsp)
  403e7a:	48 81 ec e8 06 00 00 	sub    $0x6e8,%rsp
  403e81:	64 48 8b 04 25 28 00 	mov    %fs:0x28,%rax
  403e88:	00 00 
  403e8a:	48 89 84 24 d8 16 00 	mov    %rax,0x16d8(%rsp)
  403e91:	00 
  403e92:	31 c0                	xor    %eax,%eax
/home/aliha951/ipdps-artifact/gapbs-master/src/sssp.cc:199
  initialize_perf_measurements();
  CLDelta<WeightT> cli(argc, argv, "single-source shortest-path");
  403e94:	48 8d ac 24 e0 0b 00 	lea    0xbe0(%rsp),%rbp
  403e9b:	00 
/home/aliha951/ipdps-artifact/gapbs-master/src/sssp.cc:197
int main(int argc, char* argv[]) {
  403e9c:	41 89 fc             	mov    %edi,%r12d
  403e9f:	49 89 f5             	mov    %rsi,%r13
_Z28initialize_perf_measurementsv():
/home/aliha951/ipdps-artifact/gapbs-master/src/profiling_utils.h:169

/* Setup counters before any threads are created by omp
 * Must be called at the begining of the program.
*/
void initialize_perf_measurements(){
  perf_ctrs = setup_counters();
  403ea2:	e8 79 2e 00 00       	callq  406d20 <_Z14setup_countersv>
main():
/home/aliha951/ipdps-artifact/gapbs-master/src/sssp.cc:199
  CLDelta<WeightT> cli(argc, argv, "single-source shortest-path");
  403ea7:	48 8d 35 43 14 01 00 	lea    0x11443(%rip),%rsi        # 4152f1 <_IO_stdin_used+0x2f1>
  403eae:	48 89 ef             	mov    %rbp,%rdi
_Z28initialize_perf_measurementsv():
/home/aliha951/ipdps-artifact/gapbs-master/src/profiling_utils.h:169
  403eb1:	48 89 05 d8 69 01 00 	mov    %rax,0x169d8(%rip)        # 41a890 <perf_ctrs>
  403eb8:	48 89 15 d9 69 01 00 	mov    %rdx,0x169d9(%rip)        # 41a898 <perf_ctrs+0x8>
main():
/home/aliha951/ipdps-artifact/gapbs-master/src/sssp.cc:199
  403ebf:	e8 9c 21 00 00       	callq  406060 <_ZNSt7__cxx1112basic_stringIcSt11char_traitsIcESaIcEEC2EPKcRKS3_.constprop.0>
  403ec4:	48 89 e9             	mov    %rbp,%rcx
  403ec7:	4c 89 ea             	mov    %r13,%rdx
  403eca:	44 89 e6             	mov    %r12d,%esi
  403ecd:	48 8d 84 24 20 01 00 	lea    0x120(%rsp),%rax
  403ed4:	00 
  403ed5:	48 89 c7             	mov    %rax,%rdi
  403ed8:	48 89 44 24 38       	mov    %rax,0x38(%rsp)
  403edd:	e8 0e 8d 00 00       	callq  40cbf0 <_ZN7CLDeltaIiEC1EiPPcNSt7__cxx1112basic_stringIcSt11char_traitsIcESaIcEEE>
_ZNKSt7__cxx1112basic_stringIcSt11char_traitsIcESaIcEE7_M_dataEv():
/usr/include/c++/10/bits/basic_string.h:195
      { return _M_dataplus._M_p; }
  403ee2:	48 8b bc 24 e0 0b 00 	mov    0xbe0(%rsp),%rdi
  403ee9:	00 
_ZNSt7__cxx1112basic_stringIcSt11char_traitsIcESaIcEE10_M_disposeEv():
/usr/include/c++/10/bits/basic_string.h:239
	if (!_M_is_local())
  403eea:	4c 8d a4 24 f0 0b 00 	lea    0xbf0(%rsp),%r12
  403ef1:	00 
  403ef2:	4c 39 e7             	cmp    %r12,%rdi
  403ef5:	74 05                	je     403efc <main+0x9c>
_ZN9__gnu_cxx13new_allocatorIcE10deallocateEPcm():
/usr/include/c++/10/ext/new_allocator.h:139
	::operator delete(__p
  403ef7:	e8 54 fa ff ff       	callq  403950 <_ZdlPv@plt>
_ZN6CLBase9HandleArgEaPc():
/home/aliha951/ipdps-artifact/gapbs-master/src/command_line.h:100
    switch (opt) {
  403efc:	4c 8d 2d 11 20 01 00 	lea    0x12011(%rip),%r13        # 415f14 <_IO_stdin_used+0xf14>
_ZNSt7__cxx1112basic_stringIcSt11char_traitsIcESaIcEEaSEOS4_():
/usr/include/c++/10/bits/basic_string.h:745
	    || _M_get_allocator() == __str._M_get_allocator())
	  {
	    // Just move the allocated pointer, our allocator can free it.
	    pointer __data = nullptr;
	    size_type __capacity;
	    if (!_M_is_local())
  403f03:	4c 8d b4 24 a8 01 00 	lea    0x1a8(%rsp),%r14
  403f0a:	00 
_ZN5CLApp9HandleArgEaPc():
/home/aliha951/ipdps-artifact/gapbs-master/src/command_line.h:165
    AddHelpLine('p', "", "partial execution", "false");
    AddHelpLine('z', "", "pin vertex array in memory", "false");
  }

  void HandleArg(signed char opt, char* opt_arg) override {
    switch (opt) {
  403f0b:	48 8d 1d 9a 1f 01 00 	lea    0x11f9a(%rip),%rbx        # 415eac <_IO_stdin_used+0xeac>
  403f12:	66 0f 1f 44 00 00    	nopw   0x0(%rax,%rax,1)
_ZN6CLBase9ParseArgsEv():
/home/aliha951/ipdps-artifact/gapbs-master/src/command_line.h:87
    while ((c_opt = getopt(argc_, argv_, get_args_.c_str())) != -1) {
  403f18:	48 8b 94 24 58 01 00 	mov    0x158(%rsp),%rdx
  403f1f:	00 
  403f20:	48 8b b4 24 30 01 00 	mov    0x130(%rsp),%rsi
  403f27:	00 
  403f28:	8b bc 24 28 01 00 00 	mov    0x128(%rsp),%edi
  403f2f:	e8 fc f7 ff ff       	callq  403730 <getopt@plt>
  403f34:	3c ff                	cmp    $0xff,%al
  403f36:	0f 84 c4 00 00 00    	je     404000 <main+0x1a0>
/home/aliha951/ipdps-artifact/gapbs-master/src/command_line.h:88
      HandleArg(c_opt, optarg);
  403f3c:	48 8b 3d 3d 64 01 00 	mov    0x1643d(%rip),%rdi        # 41a380 <optarg@@GLIBC_2.2.5>
_ZN7CLDeltaIiE9HandleArgEaPc():
/home/aliha951/ipdps-artifact/gapbs-master/src/command_line.h:253
    get_args_ += "d:";
    AddHelpLine('d', "d", "delta parameter", std::to_string(delta_));
  }

  void HandleArg(signed char opt, char* opt_arg) override {
    switch (opt) {
  403f43:	3c 64                	cmp    $0x64,%al
  403f45:	0f 84 9d 00 00 00    	je     403fe8 <main+0x188>
_ZN5CLApp9HandleArgEaPc():
/home/aliha951/ipdps-artifact/gapbs-master/src/command_line.h:165
    switch (opt) {
  403f4b:	8d 50 9f             	lea    -0x61(%rax),%edx
  403f4e:	80 fa 19             	cmp    $0x19,%dl
  403f51:	77 0d                	ja     403f60 <main+0x100>
  403f53:	0f b6 d2             	movzbl %dl,%edx
  403f56:	48 63 14 93          	movslq (%rbx,%rdx,4),%rdx
  403f5a:	48 01 da             	add    %rbx,%rdx
  403f5d:	3e ff e2             	notrack jmpq *%rdx
_ZN6CLBase9HandleArgEaPc():
/home/aliha951/ipdps-artifact/gapbs-master/src/command_line.h:100
    switch (opt) {
  403f60:	83 e8 66             	sub    $0x66,%eax
  403f63:	3c 13                	cmp    $0x13,%al
  403f65:	77 b1                	ja     403f18 <main+0xb8>
  403f67:	0f b6 c0             	movzbl %al,%eax
  403f6a:	49 63 44 85 00       	movslq 0x0(%r13,%rax,4),%rax
  403f6f:	4c 01 e8             	add    %r13,%rax
  403f72:	3e ff e0             	notrack jmpq *%rax
_ZN5CLApp9HandleArgEaPc():
/home/aliha951/ipdps-artifact/gapbs-master/src/command_line.h:174
      case 'z': pin_vertices_ = true;                 	break;
  403f75:	c6 84 24 e3 01 00 00 	movb   $0x1,0x1e3(%rsp)
  403f7c:	01 
  403f7d:	eb 99                	jmp    403f18 <main+0xb8>
/home/aliha951/ipdps-artifact/gapbs-master/src/command_line.h:169
      case 'v': do_verify_ = true;                      break;
  403f7f:	c6 84 24 e0 01 00 00 	movb   $0x1,0x1e0(%rsp)
  403f86:	01 
  403f87:	eb 8f                	jmp    403f18 <main+0xb8>
main():
/usr/include/stdlib.h:368
  return (int) strtol (__nptr, (char **) NULL, 10);
}
__extern_inline long int
__NTH (atol (const char *__nptr))
{
  return strtol (__nptr, (char **) NULL, 10);
  403f89:	ba 0a 00 00 00       	mov    $0xa,%edx
atol():
/usr/include/stdlib.h:368
  403f8e:	31 f6                	xor    %esi,%esi
  403f90:	e8 2b fb ff ff       	callq  403ac0 <strtol@plt>
_ZN5CLApp9HandleArgEaPc():
/home/aliha951/ipdps-artifact/gapbs-master/src/command_line.h:168
      case 'r': start_vertex_ = atol(opt_arg);          break;
  403f95:	48 89 84 24 d8 01 00 	mov    %rax,0x1d8(%rsp)
  403f9c:	00 
  403f9d:	e9 76 ff ff ff       	jmpq   403f18 <main+0xb8>
/home/aliha951/ipdps-artifact/gapbs-master/src/command_line.h:173
      case 'p': partial_execution_ = true;              break;
  403fa2:	c6 84 24 e2 01 00 00 	movb   $0x1,0x1e2(%rsp)
  403fa9:	01 
  403faa:	e9 69 ff ff ff       	jmpq   403f18 <main+0xb8>
main():
/usr/include/stdlib.h:363
  return (int) strtol (__nptr, (char **) NULL, 10);
  403faf:	ba 0a 00 00 00       	mov    $0xa,%edx
atoi():
/usr/include/stdlib.h:363
  403fb4:	31 f6                	xor    %esi,%esi
  403fb6:	e8 05 fb ff ff       	callq  403ac0 <strtol@plt>
  403fbb:	89 84 24 d4 01 00 00 	mov    %eax,0x1d4(%rsp)
_ZN5CLApp9HandleArgEaPc():
/home/aliha951/ipdps-artifact/gapbs-master/src/command_line.h:167
      case 'n': num_trials_ = atoi(opt_arg);            break;
  403fc2:	e9 51 ff ff ff       	jmpq   403f18 <main+0xb8>
/home/aliha951/ipdps-artifact/gapbs-master/src/command_line.h:170
      case 'l': enable_logging_ = true;                 break;
  403fc7:	c6 84 24 e1 01 00 00 	movb   $0x1,0x1e1(%rsp)
  403fce:	01 
  403fcf:	e9 44 ff ff ff       	jmpq   403f18 <main+0xb8>
/home/aliha951/ipdps-artifact/gapbs-master/src/command_line.h:166
      case 'a': do_analysis_ = true;                    break;
  403fd4:	c6 84 24 d0 01 00 00 	movb   $0x1,0x1d0(%rsp)
  403fdb:	01 
  403fdc:	e9 37 ff ff ff       	jmpq   403f18 <main+0xb8>
  403fe1:	0f 1f 80 00 00 00 00 	nopl   0x0(%rax)
main():
/usr/include/stdlib.h:368
  return strtol (__nptr, (char **) NULL, 10);
  403fe8:	ba 0a 00 00 00       	mov    $0xa,%edx
atol():
/usr/include/stdlib.h:368
  403fed:	31 f6                	xor    %esi,%esi
  403fef:	e8 cc fa ff ff       	callq  403ac0 <strtol@plt>
_ZN7CLDeltaIiE9HandleArgEaPc():
/home/aliha951/ipdps-artifact/gapbs-master/src/command_line.h:258
      case 'd':
        if (std::is_floating_point<WeightT_>::value)
          delta_ = static_cast<WeightT_>(atof(opt_arg));
        else
          delta_ = static_cast<WeightT_>(atol(opt_arg));
  403ff4:	89 84 24 e4 01 00 00 	mov    %eax,0x1e4(%rsp)
/home/aliha951/ipdps-artifact/gapbs-master/src/command_line.h:259
        break;
  403ffb:	e9 18 ff ff ff       	jmpq   403f18 <main+0xb8>
_ZSteqIcSt11char_traitsIcESaIcEEbRKNSt7__cxx1112basic_stringIT_T0_T1_EEPKS5_():
/usr/include/c++/10/bits/basic_string.h:6199
   */
  template<typename _CharT, typename _Traits, typename _Alloc>
    inline bool
    operator==(const basic_string<_CharT, _Traits, _Alloc>& __lhs,
	       const _CharT* __rhs)
    { return __lhs.compare(__rhs) == 0; }
  404000:	48 8d bc 24 98 01 00 	lea    0x198(%rsp),%rdi
  404007:	00 
  404008:	48 8d 35 3c 12 01 00 	lea    0x1123c(%rip),%rsi        # 41524b <_IO_stdin_used+0x24b>
  40400f:	e8 7c f7 ff ff       	callq  403790 <_ZNKSt7__cxx1112basic_stringIcSt11char_traitsIcESaIcEE7compareEPKc@plt>
_ZN6CLBase9ParseArgsEv():
/home/aliha951/ipdps-artifact/gapbs-master/src/command_line.h:90
    if ((filename_ == "") && (scale_ == -1)) {
  404014:	85 c0                	test   %eax,%eax
  404016:	0f 84 5e 07 00 00    	je     40477a <main+0x91a>
/home/aliha951/ipdps-artifact/gapbs-master/src/command_line.h:94
    if (scale_ != -1)
  40401c:	83 bc 24 90 01 00 00 	cmpl   $0xffffffff,0x190(%rsp)
  404023:	ff 
  404024:	0f 85 62 07 00 00    	jne    40478c <main+0x92c>
_ZN11BuilderBaseIi10NodeWeightIiiEiLb1EEC4ERK6CLBase():
/home/aliha951/ipdps-artifact/gapbs-master/src/builder.h:50
  bool needs_weights_;
  bool in_place_ = false;
  int64_t num_nodes_ = -1;

 public:
  explicit BuilderBase(const CLBase &cli) : cli_(cli) {
  40402a:	48 8b 44 24 38       	mov    0x38(%rsp),%rax
/home/aliha951/ipdps-artifact/gapbs-master/src/builder.h:52
    symmetrize_ = cli_.symmetrize();
    needs_weights_ = !std::is_same<NodeID_, DestID_>::value;
  40402f:	c6 44 24 69 01       	movb   $0x1,0x69(%rsp)
/home/aliha951/ipdps-artifact/gapbs-master/src/builder.h:50
  explicit BuilderBase(const CLBase &cli) : cli_(cli) {
  404034:	48 c7 44 24 70 ff ff 	movq   $0xffffffffffffffff,0x70(%rsp)
  40403b:	ff ff 
  40403d:	48 89 44 24 60       	mov    %rax,0x60(%rsp)
/home/aliha951/ipdps-artifact/gapbs-master/src/builder.h:51
    symmetrize_ = cli_.symmetrize();
  404042:	0f b6 84 24 b8 01 00 	movzbl 0x1b8(%rsp),%eax
  404049:	00 
  40404a:	88 44 24 68          	mov    %al,0x68(%rsp)
_ZNK6CLBase8in_placeEv():
/home/aliha951/ipdps-artifact/gapbs-master/src/command_line.h:129
  bool in_place() const { return in_place_; }
  40404e:	0f b6 84 24 ba 01 00 	movzbl 0x1ba(%rsp),%eax
  404055:	00 
_ZN11BuilderBaseIi10NodeWeightIiiEiLb1EEC4ERK6CLBase():
/home/aliha951/ipdps-artifact/gapbs-master/src/builder.h:53
    in_place_ = cli_.in_place();
  404056:	88 44 24 6a          	mov    %al,0x6a(%rsp)
/home/aliha951/ipdps-artifact/gapbs-master/src/builder.h:54
    if (in_place_ && needs_weights_) {
  40405a:	84 c0                	test   %al,%al
  40405c:	0f 85 53 0a 00 00    	jne    404ab5 <main+0xc55>
main():
/home/aliha951/ipdps-artifact/gapbs-master/src/sssp.cc:203
  if (!cli.ParseArgs())
    return -1;
  WeightedBuilder b(cli);
  WGraph g = b.MakeGraph();
  404062:	48 8d 84 24 a0 00 00 	lea    0xa0(%rsp),%rax
  404069:	00 
  40406a:	48 8d 74 24 60       	lea    0x60(%rsp),%rsi
  40406f:	48 89 c7             	mov    %rax,%rdi
  404072:	48 89 44 24 20       	mov    %rax,0x20(%rsp)
  404077:	48 89 c3             	mov    %rax,%rbx
  40407a:	e8 b1 ea 00 00       	callq  412b30 <_ZN11BuilderBaseIi10NodeWeightIiiEiLb1EE9MakeGraphEv>
/home/aliha951/ipdps-artifact/gapbs-master/src/sssp.cc:204
  SourcePicker<WGraph> sp(g, cli.start_vertex());
  40407f:	8b 94 24 d8 01 00 00 	mov    0x1d8(%rsp),%edx
  404086:	48 8d bc 24 f0 01 00 	lea    0x1f0(%rsp),%rdi
  40408d:	00 
  40408e:	48 89 de             	mov    %rbx,%rsi
  404091:	e8 2a 62 00 00       	callq  40a2c0 <_ZN12SourcePickerI8CSRGraphIi10NodeWeightIiiELb1EEEC1ERKS3_i>
/home/aliha951/ipdps-artifact/gapbs-master/src/sssp.cc:208
  auto SSSPBound = [&sp, &cli] (const WGraph &g) {
    return DeltaStep(g, sp.PickNext(), cli.delta(), cli.logging_en());
  };
  SourcePicker<WGraph> vsp(g, cli.start_vertex());
  404096:	8b 94 24 d8 01 00 00 	mov    0x1d8(%rsp),%edx
  40409d:	48 89 ef             	mov    %rbp,%rdi
  4040a0:	48 89 de             	mov    %rbx,%rsi
  4040a3:	e8 18 62 00 00       	callq  40a2c0 <_ZN12SourcePickerI8CSRGraphIi10NodeWeightIiiELb1EEEC1ERKS3_i>
/home/aliha951/ipdps-artifact/gapbs-master/src/benchmark.h:107
template<typename GraphT_, typename GraphFunc, typename AnalysisFunc,
         typename VerifierFunc>
void BenchmarkKernel(const CLApp &cli, const GraphT_ &g,
                     GraphFunc kernel, AnalysisFunc stats,
                     VerifierFunc verify) {
  g.PrintStats();
  4040a8:	48 89 df             	mov    %rbx,%rdi
BenchmarkKernel<CSRGraph<int, NodeWeight<int, int> >, main(int, char**)::<lambda(const WGraph&)>, void (*)(const CSRGraph<int, NodeWeight<int, int> >&, const pvector<int>&), main(int, char**)::<lambda(const WGraph&, const pvector<int>&)> >():
/home/aliha951/ipdps-artifact/gapbs-master/src/benchmark.h:107
  4040ab:	e8 80 69 00 00       	callq  40aa30 <_ZNK8CSRGraphIi10NodeWeightIiiELb1EE10PrintStatsEv>
_Z16start_disk_statsPKc():
/home/aliha951/ipdps-artifact/gapbs-master/src/profiling_utils.h:300
	fprintf(f, "%d", pid);
	fclose(f);
}

inline void start_disk_stats(const char* result_file_name){
  pid_t pid = fork();
  4040b0:	e8 bb f6 ff ff       	callq  403770 <fork@plt>
/home/aliha951/ipdps-artifact/gapbs-master/src/profiling_utils.h:301
  if (pid < 0) {
  4040b5:	85 c0                	test   %eax,%eax
  4040b7:	0f 88 a7 09 00 00    	js     404a64 <main+0xc04>
/home/aliha951/ipdps-artifact/gapbs-master/src/profiling_utils.h:304
    perror("fork failed");
    exit(EXIT_FAILURE);
  } else if (pid == 0) { // Child process
  4040bd:	0f 84 b7 09 00 00    	je     404a7a <main+0xc1a>
/home/aliha951/ipdps-artifact/gapbs-master/src/profiling_utils.h:312
    execlp("/home/aliha951/ipdps-gapbs/gather_diskstats.sh", "/home/aliha951/ipdps-gapbs/gather_diskstats.sh", result_file_name, NULL);
    perror("execlp failed");
    exit(EXIT_FAILURE);
  }
  // Parent process continues
  diskstat_pid = pid;
  4040c3:	89 05 8b 62 01 00    	mov    %eax,0x1628b(%rip)        # 41a354 <diskstat_pid>
BenchmarkKernel<CSRGraph<int, NodeWeight<int, int> >, main(int, char**)::<lambda(const WGraph&)>, void (*)(const CSRGraph<int, NodeWeight<int, int> >&, const pvector<int>&), main(int, char**)::<lambda(const WGraph&, const pvector<int>&)> >():
/home/aliha951/ipdps-artifact/gapbs-master/src/benchmark.h:114
  
  // adding profiling markers and rusage counters for performance analysis
  long long user_instructions, kernel_instructions,
              user_time, kernel_time;
  start_disk_stats("disk.stats");
  start_taskstats();                    
  4040c9:	e8 72 35 00 00       	callq  407640 <_Z15start_taskstatsv>
/home/aliha951/ipdps-artifact/gapbs-master/src/benchmark.h:115
  snapshot_proc_pid(BEGIN);
  4040ce:	31 ff                	xor    %edi,%edi
  4040d0:	e8 0b 5d 00 00       	callq  409de0 <_Z17snapshot_proc_pid13SnapshotPoint>
/home/aliha951/ipdps-artifact/gapbs-master/src/benchmark.h:116
  snapshot_proc_stat(BEGIN);
  4040d5:	31 ff                	xor    %edi,%edi
  4040d7:	e8 34 60 00 00       	callq  40a110 <_Z18snapshot_proc_stat13SnapshotPoint>
/home/aliha951/ipdps-artifact/gapbs-master/src/benchmark.h:117
  start_counters(&perf_ctrs);
  4040dc:	48 8d 3d ad 67 01 00 	lea    0x167ad(%rip),%rdi        # 41a890 <perf_ctrs>
  4040e3:	e8 38 2e 00 00       	callq  406f20 <_Z14start_countersP13perf_counters>
/home/aliha951/ipdps-artifact/gapbs-master/src/benchmark.h:118
  trace_marker("BenchmarkKernel_Start");
  4040e8:	48 8d 3d 59 12 01 00 	lea    0x11259(%rip),%rdi        # 415348 <_IO_stdin_used+0x348>
  4040ef:	e8 5c 2b 00 00       	callq  406c50 <_Z12trace_markerPKc>
/home/aliha951/ipdps-artifact/gapbs-master/src/benchmark.h:119
  start_time_stats();
  4040f4:	e8 07 29 00 00       	callq  406a00 <_Z16start_time_statsv>
_Z19ompt_mark_roi_startv():
/home/aliha951/ipdps-artifact/gapbs-master/src/../omp_runtime_visualizer/include/runtime_visualizer_utils.h:52
  printf("[OMPT_annotation] Thread %d Annotation at %.3f ms: %s\n", 
         thread_id, timestamp / 1000.0, annotation);
}

inline void ompt_mark_roi_start() {
  ompt_annotate("ROI_START");
  4040f9:	48 8d 3d 5e 12 01 00 	lea    0x1125e(%rip),%rdi        # 41535e <_IO_stdin_used+0x35e>
  404100:	e8 db 37 00 00       	callq  4078e0 <_Z13ompt_annotatePKc>
BenchmarkKernel<CSRGraph<int, NodeWeight<int, int> >, main(int, char**)::<lambda(const WGraph&)>, void (*)(const CSRGraph<int, NodeWeight<int, int> >&, const pvector<int>&), main(int, char**)::<lambda(const WGraph&, const pvector<int>&)> >():
/home/aliha951/ipdps-artifact/gapbs-master/src/benchmark.h:123
  ompt_mark_roi_start();

  Timer trial_timer;
  for (int iter=0; iter < cli.num_trials(); iter++) {
  404105:	8b 8c 24 d4 01 00 00 	mov    0x1d4(%rsp),%ecx
  40410c:	85 c9                	test   %ecx,%ecx
  40410e:	0f 8e 93 08 00 00    	jle    4049a7 <main+0xb47>
  404114:	48 8d 84 24 80 00 00 	lea    0x80(%rsp),%rax
  40411b:	00 
/home/aliha951/ipdps-artifact/gapbs-master/src/benchmark.h:108
  double total_seconds = 0;
  40411c:	66 0f ef ed          	pxor   %xmm5,%xmm5
/home/aliha951/ipdps-artifact/gapbs-master/src/benchmark.h:123
  for (int iter=0; iter < cli.num_trials(); iter++) {
  404120:	c7 44 24 0c 00 00 00 	movl   $0x0,0xc(%rsp)
  404127:	00 
_ZNSt23mersenne_twister_engineImLm64ELm312ELm156ELm31ELm13043109905998158313ELm29ELm6148914691236517205ELm17ELm8202884508482404352ELm37ELm18444473444759240704ELm43ELm6364136223846793005EEclEv():
/usr/include/c++/10/bits/random.tcc:460
      if (_M_p >= state_size)
	_M_gen_rand();

      // Calculate o(x(i)).
      result_type __z = _M_x[_M_p++];
      __z ^= (__z >> __u) & __d;
  404128:	48 bb 55 55 55 55 55 	movabs $0x5555555555555555,%rbx
  40412f:	55 55 55 
/usr/include/c++/10/bits/random.tcc:461
      __z ^= (__z << __s) & __b;
  404132:	48 bd 00 00 a6 ed ff 	movabs $0x71d67fffeda60000,%rbp
  404139:	7f d6 71 
  40413c:	48 89 44 24 28       	mov    %rax,0x28(%rsp)
/usr/include/c++/10/bits/random.tcc:462
      __z ^= (__z << __t) & __c;
  404141:	49 bc 00 00 00 00 e0 	movabs $0xfff7eee000000000,%r12
  404148:	ee f7 ff 
BenchmarkKernel<CSRGraph<int, NodeWeight<int, int> >, main(int, char**)::<lambda(const WGraph&)>, void (*)(const CSRGraph<int, NodeWeight<int, int> >&, const pvector<int>&), main(int, char**)::<lambda(const WGraph&, const pvector<int>&)> >():
/home/aliha951/ipdps-artifact/gapbs-master/src/benchmark.h:108
  double total_seconds = 0;
  40414b:	f2 0f 11 6c 24 10    	movsd  %xmm5,0x10(%rsp)
  404151:	0f 1f 80 00 00 00 00 	nopl   0x0(%rax)
_ZN5Timer5StartEv():
/home/aliha951/ipdps-artifact/gapbs-master/src/timer.h:23
class Timer {
 public:
  Timer() {}

  void Start() {
    elapsed_time_ = start_time_ = std::chrono::high_resolution_clock::now();
  404158:	e8 63 f5 ff ff       	callq  4036c0 <_ZNSt6chrono3_V212system_clock3nowEv@plt>
_ZN12SourcePickerI8CSRGraphIi10NodeWeightIiiELb1EEE8PickNextEv():
/home/aliha951/ipdps-artifact/gapbs-master/src/benchmark.h:58
    if (given_source_ != -1)
  40415d:	8b 94 24 f0 01 00 00 	mov    0x1f0(%rsp),%edx
main():
/home/aliha951/ipdps-artifact/gapbs-master/src/sssp.cc:206
    return DeltaStep(g, sp.PickNext(), cli.delta(), cli.logging_en());
  404164:	44 0f b6 ac 24 e1 01 	movzbl 0x1e1(%rsp),%r13d
  40416b:	00 00 
_ZN5Timer5StartEv():
/home/aliha951/ipdps-artifact/gapbs-master/src/timer.h:23
  40416d:	48 89 44 24 18       	mov    %rax,0x18(%rsp)
_ZNK7CLDeltaIiE5deltaEv():
/home/aliha951/ipdps-artifact/gapbs-master/src/command_line.h:264
      default: CLApp::HandleArg(opt, opt_arg);
    }
  }

  WeightT_ delta() const { return delta_; }
  404172:	44 8b b4 24 e4 01 00 	mov    0x1e4(%rsp),%r14d
  404179:	00 
_ZN12SourcePickerI8CSRGraphIi10NodeWeightIiiELb1EEE8PickNextEv():
/home/aliha951/ipdps-artifact/gapbs-master/src/benchmark.h:58
  40417a:	83 fa ff             	cmp    $0xffffffff,%edx
  40417d:	0f 84 cc 03 00 00    	je     40454f <main+0x6ef>
operator()():
/home/aliha951/ipdps-artifact/gapbs-master/src/sssp.cc:206
  404183:	48 8b 74 24 20       	mov    0x20(%rsp),%rsi
  404188:	48 8b 7c 24 28       	mov    0x28(%rsp),%rdi
  40418d:	45 89 e8             	mov    %r13d,%r8d
  404190:	44 89 f1             	mov    %r14d,%ecx
  404193:	e8 e8 38 00 00       	callq  407a80 <_Z9DeltaStepRK8CSRGraphIi10NodeWeightIiiELb1EEiib>
_ZN5Timer4StopEv():
/home/aliha951/ipdps-artifact/gapbs-master/src/timer.h:27
  }

  void Stop() {
    elapsed_time_ = std::chrono::high_resolution_clock::now();
  404198:	e8 23 f5 ff ff       	callq  4036c0 <_ZNSt6chrono3_V212system_clock3nowEv@plt>
_ZNSt7__cxx1112basic_stringIcSt11char_traitsIcESaIcEE12_Alloc_hiderC4EPcRKS3_():
/usr/include/c++/10/bits/basic_string.h:165
	: allocator_type(__a), _M_p(__dat) { }
  40419d:	4c 8d b4 24 00 01 00 	lea    0x100(%rsp),%r14
  4041a4:	00 
_ZNSt6chronomiIlSt5ratioILl1ELl1000000000EElS2_EENSt11common_typeIJNS_8durationIT_T0_EENS4_IT1_T2_EEEE4typeERKS7_RKSA_():
/usr/include/c++/10/chrono:614
		const duration<_Rep2, _Period2>& __rhs)
      {
	typedef duration<_Rep1, _Period1>			__dur1;
	typedef duration<_Rep2, _Period2>			__dur2;
	typedef typename common_type<__dur1,__dur2>::type	__cd;
	return __cd(__cd(__lhs).count() - __cd(__rhs).count());
  4041a5:	48 2b 44 24 18       	sub    0x18(%rsp),%rax
_ZNSt6chrono20__duration_cast_implINS_8durationIdSt5ratioILl1ELl1EEEES2_ILl1ELl1000000000EEdLb1ELb0EE6__castIlS5_EES4_RKNS1_IT_T0_EE():
/usr/include/c++/10/chrono:214
	      static_cast<_CR>(__d.count()) / static_cast<_CR>(_CF::den)));
  4041aa:	66 0f ef c0          	pxor   %xmm0,%xmm0
  4041ae:	f2 48 0f 2a c0       	cvtsi2sd %rax,%xmm0
_ZNSt7__cxx1112basic_stringIcSt11char_traitsIcESaIcEE12_Alloc_hiderC4EPcRKS3_():
/usr/include/c++/10/bits/basic_string.h:165
  4041b3:	4c 8d ac 24 10 01 00 	lea    0x110(%rsp),%r13
  4041ba:	00 
_ZNSt11char_traitsIcE4copyEPcPKcm():
/usr/include/c++/10/bits/char_traits.h:437
	  return __s1;
#ifdef __cpp_lib_is_constant_evaluated
	if (std::is_constant_evaluated())
	  return __gnu_cxx::char_traits<char_type>::copy(__s1, __s2, __n);
#endif
	return static_cast<char_type*>(__builtin_memcpy(__s1, __s2, __n));
  4041bb:	ba 6d 65 00 00       	mov    $0x656d,%edx
  4041c0:	48 b8 54 72 69 61 6c 	movabs $0x6954206c61697254,%rax
  4041c7:	20 54 69 
BenchmarkKernel<CSRGraph<int, NodeWeight<int, int> >, main(int, char**)::<lambda(const WGraph&)>, void (*)(const CSRGraph<int, NodeWeight<int, int> >&, const pvector<int>&), main(int, char**)::<lambda(const WGraph&, const pvector<int>&)> >():
/home/aliha951/ipdps-artifact/gapbs-master/src/benchmark.h:127
    trial_timer.Start();
    auto result = kernel(g);
    trial_timer.Stop();
    PrintTime("Trial Time", trial_timer.Seconds());
  4041ca:	4c 89 f7             	mov    %r14,%rdi
_ZNSt6chrono20__duration_cast_implINS_8durationIdSt5ratioILl1ELl1EEEES2_ILl1ELl1000000000EEdLb1ELb0EE6__castIlS5_EES4_RKNS1_IT_T0_EE():
/usr/include/c++/10/chrono:214
  4041cd:	f2 0f 5e 05 93 20 01 	divsd  0x12093(%rip),%xmm0        # 416268 <_ZZNSt8__detail18__to_chars_10_implIjEEvPcjT_E8__digits+0x2c8>
  4041d4:	00 
_ZNSt7__cxx1112basic_stringIcSt11char_traitsIcESaIcEE12_Alloc_hiderC4EPcRKS3_():
/usr/include/c++/10/bits/basic_string.h:165
  4041d5:	4c 89 ac 24 00 01 00 	mov    %r13,0x100(%rsp)
  4041dc:	00 
_ZNSt11char_traitsIcE4copyEPcPKcm():
/usr/include/c++/10/bits/char_traits.h:437
  4041dd:	48 89 84 24 10 01 00 	mov    %rax,0x110(%rsp)
  4041e4:	00 
  4041e5:	66 89 94 24 18 01 00 	mov    %dx,0x118(%rsp)
  4041ec:	00 
_ZNSt7__cxx1112basic_stringIcSt11char_traitsIcESaIcEE9_M_lengthEm():
/usr/include/c++/10/bits/basic_string.h:191
      { _M_string_length = __length; }
  4041ed:	48 c7 84 24 08 01 00 	movq   $0xa,0x108(%rsp)
  4041f4:	00 0a 00 00 00 
_ZNSt11char_traitsIcE6assignERcRKc():
/usr/include/c++/10/bits/char_traits.h:357
      { __c1 = __c2; }
  4041f9:	c6 84 24 1a 01 00 00 	movb   $0x0,0x11a(%rsp)
  404200:	00 
_ZNSt6chrono20__duration_cast_implINS_8durationIdSt5ratioILl1ELl1EEEES2_ILl1ELl1000000000EEdLb1ELb0EE6__castIlS5_EES4_RKNS1_IT_T0_EE():
/usr/include/c++/10/chrono:214
  404201:	f2 0f 11 44 24 18    	movsd  %xmm0,0x18(%rsp)
BenchmarkKernel<CSRGraph<int, NodeWeight<int, int> >, main(int, char**)::<lambda(const WGraph&)>, void (*)(const CSRGraph<int, NodeWeight<int, int> >&, const pvector<int>&), main(int, char**)::<lambda(const WGraph&, const pvector<int>&)> >():
/home/aliha951/ipdps-artifact/gapbs-master/src/benchmark.h:127
  404207:	e8 54 21 00 00       	callq  406360 <_Z9PrintTimeRKNSt7__cxx1112basic_stringIcSt11char_traitsIcESaIcEEEd>
_ZNKSt7__cxx1112basic_stringIcSt11char_traitsIcESaIcEE7_M_dataEv():
/usr/include/c++/10/bits/basic_string.h:195
      { return _M_dataplus._M_p; }
  40420c:	48 8b bc 24 00 01 00 	mov    0x100(%rsp),%rdi
  404213:	00 
_ZNSt7__cxx1112basic_stringIcSt11char_traitsIcESaIcEE10_M_disposeEv():
/usr/include/c++/10/bits/basic_string.h:239
	if (!_M_is_local())
  404214:	4c 39 ef             	cmp    %r13,%rdi
  404217:	74 05                	je     40421e <main+0x3be>
_ZN9__gnu_cxx13new_allocatorIcE10deallocateEPcm():
/usr/include/c++/10/ext/new_allocator.h:139
  404219:	e8 32 f7 ff ff       	callq  403950 <_ZdlPv@plt>
BenchmarkKernel<CSRGraph<int, NodeWeight<int, int> >, main(int, char**)::<lambda(const WGraph&)>, void (*)(const CSRGraph<int, NodeWeight<int, int> >&, const pvector<int>&), main(int, char**)::<lambda(const WGraph&, const pvector<int>&)> >():
/home/aliha951/ipdps-artifact/gapbs-master/src/benchmark.h:128
    total_seconds += trial_timer.Seconds();
  40421e:	f2 0f 10 54 24 10    	movsd  0x10(%rsp),%xmm2
  404224:	f2 0f 58 54 24 18    	addsd  0x18(%rsp),%xmm2
/home/aliha951/ipdps-artifact/gapbs-master/src/benchmark.h:129
    if (cli.do_analysis() && (iter == (cli.num_trials()-1)))
  40422a:	80 bc 24 d0 01 00 00 	cmpb   $0x0,0x1d0(%rsp)
  404231:	00 
/home/aliha951/ipdps-artifact/gapbs-master/src/benchmark.h:128
    total_seconds += trial_timer.Seconds();
  404232:	f2 0f 11 54 24 10    	movsd  %xmm2,0x10(%rsp)
/home/aliha951/ipdps-artifact/gapbs-master/src/benchmark.h:129
    if (cli.do_analysis() && (iter == (cli.num_trials()-1)))
  404238:	74 14                	je     40424e <main+0x3ee>
  40423a:	8b 84 24 d4 01 00 00 	mov    0x1d4(%rsp),%eax
  404241:	83 e8 01             	sub    $0x1,%eax
  404244:	3b 44 24 0c          	cmp    0xc(%rsp),%eax
  404248:	0f 84 b2 05 00 00    	je     404800 <main+0x9a0>
/home/aliha951/ipdps-artifact/gapbs-master/src/benchmark.h:131
      stats(g, result);
    if (cli.do_verify()) {
  40424e:	80 bc 24 e0 01 00 00 	cmpb   $0x0,0x1e0(%rsp)
  404255:	00 
  404256:	0f 84 69 01 00 00    	je     4043c5 <main+0x565>
_ZN5Timer5StartEv():
/home/aliha951/ipdps-artifact/gapbs-master/src/timer.h:23
    elapsed_time_ = start_time_ = std::chrono::high_resolution_clock::now();
  40425c:	e8 5f f4 ff ff       	callq  4036c0 <_ZNSt6chrono3_V212system_clock3nowEv@plt>
_ZN12SourcePickerI8CSRGraphIi10NodeWeightIiiELb1EEE8PickNextEv():
/home/aliha951/ipdps-artifact/gapbs-master/src/benchmark.h:58
    if (given_source_ != -1)
  404261:	8b b4 24 e0 0b 00 00 	mov    0xbe0(%rsp),%esi
_ZN5Timer5StartEv():
/home/aliha951/ipdps-artifact/gapbs-master/src/timer.h:23
  404268:	48 89 44 24 30       	mov    %rax,0x30(%rsp)
_ZN12SourcePickerI8CSRGraphIi10NodeWeightIiiELb1EEE8PickNextEv():
/home/aliha951/ipdps-artifact/gapbs-master/src/benchmark.h:58
  40426d:	83 fe ff             	cmp    $0xffffffff,%esi
  404270:	0f 84 03 04 00 00    	je     404679 <main+0x819>
main():
/home/aliha951/ipdps-artifact/gapbs-master/src/sssp.cc:210
  auto VerifierBound = [&vsp] (const WGraph &g, const pvector<WeightT> &dist) {
    return SSSPVerifier(g, vsp.PickNext(), dist);
  404276:	48 8b 54 24 28       	mov    0x28(%rsp),%rdx
operator()():
/home/aliha951/ipdps-artifact/gapbs-master/src/sssp.cc:210
  40427b:	48 8b 7c 24 20       	mov    0x20(%rsp),%rdi
  404280:	e8 cb 44 00 00       	callq  408750 <_Z12SSSPVerifierRK8CSRGraphIi10NodeWeightIiiELb1EEiRK7pvectorIiE>
BenchmarkKernel<CSRGraph<int, NodeWeight<int, int> >, main(int, char**)::<lambda(const WGraph&)>, void (*)(const CSRGraph<int, NodeWeight<int, int> >&, const pvector<int>&), main(int, char**)::<lambda(const WGraph&, const pvector<int>&)> >():
/home/aliha951/ipdps-artifact/gapbs-master/src/benchmark.h:133
      trial_timer.Start();
      PrintLabel("Verification",
  404285:	3c 01                	cmp    $0x1,%al
_ZNSt7__cxx1112basic_stringIcSt11char_traitsIcESaIcEE12_Alloc_hiderC4EPcRKS3_():
/usr/include/c++/10/bits/basic_string.h:165
	: allocator_type(__a), _M_p(__dat) { }
  404287:	4c 89 ac 24 00 01 00 	mov    %r13,0x100(%rsp)
  40428e:	00 
  40428f:	48 8d bc 24 f0 00 00 	lea    0xf0(%rsp),%rdi
  404296:	00 
  404297:	48 8d b4 24 e0 00 00 	lea    0xe0(%rsp),%rsi
  40429e:	00 
BenchmarkKernel<CSRGraph<int, NodeWeight<int, int> >, main(int, char**)::<lambda(const WGraph&)>, void (*)(const CSRGraph<int, NodeWeight<int, int> >&, const pvector<int>&), main(int, char**)::<lambda(const WGraph&, const pvector<int>&)> >():
/home/aliha951/ipdps-artifact/gapbs-master/src/benchmark.h:133
  40429f:	19 c0                	sbb    %eax,%eax
_ZNSt11char_traitsIcE4copyEPcPKcm():
/usr/include/c++/10/bits/char_traits.h:437
	return static_cast<char_type*>(__builtin_memcpy(__s1, __s2, __n));
  4042a1:	41 c7 45 08 74 69 6f 	movl   $0x6e6f6974,0x8(%r13)
  4042a8:	6e 
_ZNSt7__cxx1112basic_stringIcSt11char_traitsIcESaIcEE12_Alloc_hiderC4EPcRKS3_():
/usr/include/c++/10/bits/basic_string.h:165
  4042a9:	49 89 ff             	mov    %rdi,%r15
BenchmarkKernel<CSRGraph<int, NodeWeight<int, int> >, main(int, char**)::<lambda(const WGraph&)>, void (*)(const CSRGraph<int, NodeWeight<int, int> >&, const pvector<int>&), main(int, char**)::<lambda(const WGraph&, const pvector<int>&)> >():
/home/aliha951/ipdps-artifact/gapbs-master/src/benchmark.h:133
  4042ac:	25 f6 ff f5 f8       	and    $0xf8f5fff6,%eax
_ZNSt7__cxx1112basic_stringIcSt11char_traitsIcESaIcEE12_Alloc_hiderC4EPcRKS3_():
/usr/include/c++/10/bits/basic_string.h:165
  4042b1:	48 89 bc 24 e0 00 00 	mov    %rdi,0xe0(%rsp)
  4042b8:	00 
BenchmarkKernel<CSRGraph<int, NodeWeight<int, int> >, main(int, char**)::<lambda(const WGraph&)>, void (*)(const CSRGraph<int, NodeWeight<int, int> >&, const pvector<int>&), main(int, char**)::<lambda(const WGraph&, const pvector<int>&)> >():
/home/aliha951/ipdps-artifact/gapbs-master/src/benchmark.h:133
  4042b9:	4c 89 f7             	mov    %r14,%rdi
  4042bc:	05 50 41 53 53       	add    $0x53534150,%eax
_ZNSt11char_traitsIcE6assignERcRKc():
/usr/include/c++/10/bits/char_traits.h:357
      { __c1 = __c2; }
  4042c1:	c6 84 24 f4 00 00 00 	movb   $0x0,0xf4(%rsp)
  4042c8:	00 
_ZNSt11char_traitsIcE4copyEPcPKcm():
/usr/include/c++/10/bits/char_traits.h:437
	return static_cast<char_type*>(__builtin_memcpy(__s1, __s2, __n));
  4042c9:	89 84 24 f0 00 00 00 	mov    %eax,0xf0(%rsp)
  4042d0:	48 b8 56 65 72 69 66 	movabs $0x6163696669726556,%rax
  4042d7:	69 63 61 
  4042da:	49 89 45 00          	mov    %rax,0x0(%r13)
_ZNSt7__cxx1112basic_stringIcSt11char_traitsIcESaIcEE9_M_lengthEm():
/usr/include/c++/10/bits/basic_string.h:191
      { _M_string_length = __length; }
  4042de:	48 c7 84 24 e8 00 00 	movq   $0x4,0xe8(%rsp)
  4042e5:	00 04 00 00 00 
  4042ea:	48 c7 84 24 08 01 00 	movq   $0xc,0x108(%rsp)
  4042f1:	00 0c 00 00 00 
_ZNSt11char_traitsIcE6assignERcRKc():
/usr/include/c++/10/bits/char_traits.h:357
      { __c1 = __c2; }
  4042f6:	c6 84 24 1c 01 00 00 	movb   $0x0,0x11c(%rsp)
  4042fd:	00 
BenchmarkKernel<CSRGraph<int, NodeWeight<int, int> >, main(int, char**)::<lambda(const WGraph&)>, void (*)(const CSRGraph<int, NodeWeight<int, int> >&, const pvector<int>&), main(int, char**)::<lambda(const WGraph&, const pvector<int>&)> >():
/home/aliha951/ipdps-artifact/gapbs-master/src/benchmark.h:133
  4042fe:	e8 ed 1e 00 00       	callq  4061f0 <_Z10PrintLabelRKNSt7__cxx1112basic_stringIcSt11char_traitsIcESaIcEEES6_>
_ZNKSt7__cxx1112basic_stringIcSt11char_traitsIcESaIcEE7_M_dataEv():
/usr/include/c++/10/bits/basic_string.h:195
      { return _M_dataplus._M_p; }
  404303:	48 8b bc 24 00 01 00 	mov    0x100(%rsp),%rdi
  40430a:	00 
_ZNSt7__cxx1112basic_stringIcSt11char_traitsIcESaIcEE10_M_disposeEv():
/usr/include/c++/10/bits/basic_string.h:239
	if (!_M_is_local())
  40430b:	4c 39 ef             	cmp    %r13,%rdi
  40430e:	74 05                	je     404315 <main+0x4b5>
_ZN9__gnu_cxx13new_allocatorIcE10deallocateEPcm():
/usr/include/c++/10/ext/new_allocator.h:139
  404310:	e8 3b f6 ff ff       	callq  403950 <_ZdlPv@plt>
_ZNKSt7__cxx1112basic_stringIcSt11char_traitsIcESaIcEE7_M_dataEv():
/usr/include/c++/10/bits/basic_string.h:195
      { return _M_dataplus._M_p; }
  404315:	48 8b bc 24 e0 00 00 	mov    0xe0(%rsp),%rdi
  40431c:	00 
_ZNSt7__cxx1112basic_stringIcSt11char_traitsIcESaIcEE10_M_disposeEv():
/usr/include/c++/10/bits/basic_string.h:239
	if (!_M_is_local())
  40431d:	4c 39 ff             	cmp    %r15,%rdi
  404320:	74 05                	je     404327 <main+0x4c7>
_ZN9__gnu_cxx13new_allocatorIcE10deallocateEPcm():
/usr/include/c++/10/ext/new_allocator.h:139
  404322:	e8 29 f6 ff ff       	callq  403950 <_ZdlPv@plt>
_ZN5Timer4StopEv():
/home/aliha951/ipdps-artifact/gapbs-master/src/timer.h:27
    elapsed_time_ = std::chrono::high_resolution_clock::now();
  404327:	e8 94 f3 ff ff       	callq  4036c0 <_ZNSt6chrono3_V212system_clock3nowEv@plt>
_ZNSt6chrono20__duration_cast_implINS_8durationIdSt5ratioILl1ELl1EEEES2_ILl1ELl1000000000EEdLb1ELb0EE6__castIlS5_EES4_RKNS1_IT_T0_EE():
/usr/include/c++/10/chrono:214
  40432c:	66 0f ef c0          	pxor   %xmm0,%xmm0
_ZNSt6chronomiIlSt5ratioILl1ELl1000000000EElS2_EENSt11common_typeIJNS_8durationIT_T0_EENS4_IT1_T2_EEEE4typeERKS7_RKSA_():
/usr/include/c++/10/chrono:614
	return __cd(__cd(__lhs).count() - __cd(__rhs).count());
  404330:	48 2b 44 24 30       	sub    0x30(%rsp),%rax
_ZNSt7__cxx1112basic_stringIcSt11char_traitsIcESaIcEE12_M_constructIPKcEEvT_S8_St20forward_iterator_tag():
/usr/include/c++/10/bits/basic_string.tcc:219

	size_type __dnew = static_cast<size_type>(std::distance(__beg, __end));

	if (__dnew > size_type(_S_local_capacity))
	  {
	    _M_data(_M_create(__dnew, size_type(0)));
  404335:	31 d2                	xor    %edx,%edx
  404337:	48 8d 74 24 58       	lea    0x58(%rsp),%rsi
  40433c:	4c 89 f7             	mov    %r14,%rdi
_ZNSt7__cxx1112basic_stringIcSt11char_traitsIcESaIcEE12_Alloc_hiderC4EPcRKS3_():
/usr/include/c++/10/bits/basic_string.h:165
	: allocator_type(__a), _M_p(__dat) { }
  40433f:	4c 89 ac 24 00 01 00 	mov    %r13,0x100(%rsp)
  404346:	00 
_ZNSt7__cxx1112basic_stringIcSt11char_traitsIcESaIcEE12_M_constructIPKcEEvT_S8_St20forward_iterator_tag():
/usr/include/c++/10/bits/basic_string.tcc:215
	size_type __dnew = static_cast<size_type>(std::distance(__beg, __end));
  404347:	48 c7 44 24 58 11 00 	movq   $0x11,0x58(%rsp)
  40434e:	00 00 
_ZNSt6chrono20__duration_cast_implINS_8durationIdSt5ratioILl1ELl1EEEES2_ILl1ELl1000000000EEdLb1ELb0EE6__castIlS5_EES4_RKNS1_IT_T0_EE():
/usr/include/c++/10/chrono:214
	      static_cast<_CR>(__d.count()) / static_cast<_CR>(_CF::den)));
  404350:	f2 48 0f 2a c0       	cvtsi2sd %rax,%xmm0
  404355:	f2 0f 5e 05 0b 1f 01 	divsd  0x11f0b(%rip),%xmm0        # 416268 <_ZZNSt8__detail18__to_chars_10_implIjEEvPcjT_E8__digits+0x2c8>
  40435c:	00 
  40435d:	f2 0f 11 44 24 18    	movsd  %xmm0,0x18(%rsp)
_ZNSt7__cxx1112basic_stringIcSt11char_traitsIcESaIcEE12_M_constructIPKcEEvT_S8_St20forward_iterator_tag():
/usr/include/c++/10/bits/basic_string.tcc:219
	    _M_data(_M_create(__dnew, size_type(0)));
  404363:	e8 e8 f8 ff ff       	callq  403c50 <_ZNSt7__cxx1112basic_stringIcSt11char_traitsIcESaIcEE9_M_createERmm@plt>
_ZNSt7__cxx1112basic_stringIcSt11char_traitsIcESaIcEE11_M_capacityEm():
/usr/include/c++/10/bits/basic_string.h:219
      { _M_allocated_capacity = __capacity; }
  404368:	48 8b 54 24 58       	mov    0x58(%rsp),%rdx
_ZNSt11char_traitsIcE4copyEPcPKcm():
/usr/include/c++/10/bits/char_traits.h:437
	return static_cast<char_type*>(__builtin_memcpy(__s1, __s2, __n));
  40436d:	66 0f 6f 05 ab 1e 01 	movdqa 0x11eab(%rip),%xmm0        # 416220 <_ZZNSt8__detail18__to_chars_10_implIjEEvPcjT_E8__digits+0x280>
  404374:	00 
_ZNSt7__cxx1112basic_stringIcSt11char_traitsIcESaIcEE7_M_dataEPc():
/usr/include/c++/10/bits/basic_string.h:187
      { _M_dataplus._M_p = __p; }
  404375:	48 89 84 24 00 01 00 	mov    %rax,0x100(%rsp)
  40437c:	00 
BenchmarkKernel<CSRGraph<int, NodeWeight<int, int> >, main(int, char**)::<lambda(const WGraph&)>, void (*)(const CSRGraph<int, NodeWeight<int, int> >&, const pvector<int>&), main(int, char**)::<lambda(const WGraph&, const pvector<int>&)> >():
/home/aliha951/ipdps-artifact/gapbs-master/src/benchmark.h:136
                 verify(std::ref(g), std::ref(result)) ? "PASS" : "FAIL");
      trial_timer.Stop();
      PrintTime("Verification Time", trial_timer.Seconds());
  40437d:	4c 89 f7             	mov    %r14,%rdi
_ZNSt7__cxx1112basic_stringIcSt11char_traitsIcESaIcEE11_M_capacityEm():
/usr/include/c++/10/bits/basic_string.h:219
      { _M_allocated_capacity = __capacity; }
  404380:	48 89 94 24 10 01 00 	mov    %rdx,0x110(%rsp)
  404387:	00 
_ZNSt11char_traitsIcE4copyEPcPKcm():
/usr/include/c++/10/bits/char_traits.h:437
  404388:	0f 11 00             	movups %xmm0,(%rax)
BenchmarkKernel<CSRGraph<int, NodeWeight<int, int> >, main(int, char**)::<lambda(const WGraph&)>, void (*)(const CSRGraph<int, NodeWeight<int, int> >&, const pvector<int>&), main(int, char**)::<lambda(const WGraph&, const pvector<int>&)> >():
/home/aliha951/ipdps-artifact/gapbs-master/src/benchmark.h:136
  40438b:	f2 0f 10 44 24 18    	movsd  0x18(%rsp),%xmm0
_ZNSt11char_traitsIcE4copyEPcPKcm():
/usr/include/c++/10/bits/char_traits.h:437
  404391:	c6 40 10 65          	movb   $0x65,0x10(%rax)
_ZNSt7__cxx1112basic_stringIcSt11char_traitsIcESaIcEE12_M_constructIPKcEEvT_S8_St20forward_iterator_tag():
/usr/include/c++/10/bits/basic_string.tcc:232
	  {
	    _M_dispose();
	    __throw_exception_again;
	  }

	_M_set_length(__dnew);
  404395:	48 8b 44 24 58       	mov    0x58(%rsp),%rax
_ZNSt11char_traitsIcE6assignERcRKc():
/usr/include/c++/10/bits/char_traits.h:357
      { __c1 = __c2; }
  40439a:	48 8b 94 24 00 01 00 	mov    0x100(%rsp),%rdx
  4043a1:	00 
_ZNSt7__cxx1112basic_stringIcSt11char_traitsIcESaIcEE9_M_lengthEm():
/usr/include/c++/10/bits/basic_string.h:191
      { _M_string_length = __length; }
  4043a2:	48 89 84 24 08 01 00 	mov    %rax,0x108(%rsp)
  4043a9:	00 
_ZNSt11char_traitsIcE6assignERcRKc():
/usr/include/c++/10/bits/char_traits.h:357
  4043aa:	c6 04 02 00          	movb   $0x0,(%rdx,%rax,1)
BenchmarkKernel<CSRGraph<int, NodeWeight<int, int> >, main(int, char**)::<lambda(const WGraph&)>, void (*)(const CSRGraph<int, NodeWeight<int, int> >&, const pvector<int>&), main(int, char**)::<lambda(const WGraph&, const pvector<int>&)> >():
/home/aliha951/ipdps-artifact/gapbs-master/src/benchmark.h:136
  4043ae:	e8 ad 1f 00 00       	callq  406360 <_Z9PrintTimeRKNSt7__cxx1112basic_stringIcSt11char_traitsIcESaIcEEEd>
_ZNKSt7__cxx1112basic_stringIcSt11char_traitsIcESaIcEE7_M_dataEv():
/usr/include/c++/10/bits/basic_string.h:195
      { return _M_dataplus._M_p; }
  4043b3:	48 8b bc 24 00 01 00 	mov    0x100(%rsp),%rdi
  4043ba:	00 
_ZNSt7__cxx1112basic_stringIcSt11char_traitsIcESaIcEE10_M_disposeEv():
/usr/include/c++/10/bits/basic_string.h:239
	if (!_M_is_local())
  4043bb:	4c 39 ef             	cmp    %r13,%rdi
  4043be:	74 05                	je     4043c5 <main+0x565>
_ZN9__gnu_cxx13new_allocatorIcE10deallocateEPcm():
/usr/include/c++/10/ext/new_allocator.h:139
  4043c0:	e8 8b f5 ff ff       	callq  403950 <_ZdlPv@plt>
BenchmarkKernel<CSRGraph<int, NodeWeight<int, int> >, main(int, char**)::<lambda(const WGraph&)>, void (*)(const CSRGraph<int, NodeWeight<int, int> >&, const pvector<int>&), main(int, char**)::<lambda(const WGraph&, const pvector<int>&)> >():
/home/aliha951/ipdps-artifact/gapbs-master/src/benchmark.h:138
    }
    ompt_annotate("Trial End");
  4043c5:	48 8d 3d 9c 0f 01 00 	lea    0x10f9c(%rip),%rdi        # 415368 <_IO_stdin_used+0x368>
  4043cc:	e8 0f 35 00 00       	callq  4078e0 <_Z13ompt_annotatePKc>
_ZN7pvectorIiE16ReleaseResourcesEv():
/home/aliha951/ipdps-artifact/gapbs-master/src/pvector.h:73
    if (start_ != nullptr) {
  4043d1:	48 8b bc 24 80 00 00 	mov    0x80(%rsp),%rdi
  4043d8:	00 
  4043d9:	48 85 ff             	test   %rdi,%rdi
  4043dc:	0f 84 fe 03 00 00    	je     4047e0 <main+0x980>
/home/aliha951/ipdps-artifact/gapbs-master/src/pvector.h:74
      delete[] start_;
  4043e2:	e8 99 f6 ff ff       	callq  403a80 <_ZdaPv@plt>
BenchmarkKernel<CSRGraph<int, NodeWeight<int, int> >, main(int, char**)::<lambda(const WGraph&)>, void (*)(const CSRGraph<int, NodeWeight<int, int> >&, const pvector<int>&), main(int, char**)::<lambda(const WGraph&, const pvector<int>&)> >():
/home/aliha951/ipdps-artifact/gapbs-master/src/benchmark.h:123
  for (int iter=0; iter < cli.num_trials(); iter++) {
  4043e7:	83 44 24 0c 01       	addl   $0x1,0xc(%rsp)
  4043ec:	8b 44 24 0c          	mov    0xc(%rsp),%eax
  4043f0:	39 84 24 d4 01 00 00 	cmp    %eax,0x1d4(%rsp)
  4043f7:	0f 8f 5b fd ff ff    	jg     404158 <main+0x2f8>
_Z17ompt_mark_roi_endv():
/home/aliha951/ipdps-artifact/gapbs-master/src/../omp_runtime_visualizer/include/runtime_visualizer_utils.h:56
}

inline void ompt_mark_roi_end() {
  ompt_annotate("ROI_END");
  4043fd:	48 8d 3d 6e 0f 01 00 	lea    0x10f6e(%rip),%rdi        # 415372 <_IO_stdin_used+0x372>
  404404:	e8 d7 34 00 00       	callq  4078e0 <_Z13ompt_annotatePKc>
BenchmarkKernel<CSRGraph<int, NodeWeight<int, int> >, main(int, char**)::<lambda(const WGraph&)>, void (*)(const CSRGraph<int, NodeWeight<int, int> >&, const pvector<int>&), main(int, char**)::<lambda(const WGraph&, const pvector<int>&)> >():
/home/aliha951/ipdps-artifact/gapbs-master/src/benchmark.h:143
  }
  
  // adding profiling markers and rusage counters for performance analysis
  ompt_mark_roi_end();
  stop_time_stats();
  404409:	e8 22 26 00 00       	callq  406a30 <_Z15stop_time_statsv>
/home/aliha951/ipdps-artifact/gapbs-master/src/benchmark.h:144
  trace_marker("BenchmarkKernel_End");
  40440e:	48 8d 3d 65 0f 01 00 	lea    0x10f65(%rip),%rdi        # 41537a <_IO_stdin_used+0x37a>
  404415:	e8 36 28 00 00       	callq  406c50 <_Z12trace_markerPKc>
/home/aliha951/ipdps-artifact/gapbs-master/src/benchmark.h:145
  stop_counters(&perf_ctrs, &user_time, &kernel_time ,&user_instructions, &kernel_instructions);
  40441a:	48 8d 4c 24 48       	lea    0x48(%rsp),%rcx
  40441f:	48 8d 94 24 80 00 00 	lea    0x80(%rsp),%rdx
  404426:	00 
  404427:	48 8d 74 24 58       	lea    0x58(%rsp),%rsi
  40442c:	4c 8d 44 24 50       	lea    0x50(%rsp),%r8
  404431:	48 8d 3d 58 64 01 00 	lea    0x16458(%rip),%rdi        # 41a890 <perf_ctrs>
  404438:	e8 73 2c 00 00       	callq  4070b0 <_Z13stop_countersP13perf_countersPxS1_S1_S1_>
/home/aliha951/ipdps-artifact/gapbs-master/src/benchmark.h:146
  snapshot_proc_stat(END);
  40443d:	bf 01 00 00 00       	mov    $0x1,%edi
  404442:	e8 c9 5c 00 00       	callq  40a110 <_Z18snapshot_proc_stat13SnapshotPoint>
/home/aliha951/ipdps-artifact/gapbs-master/src/benchmark.h:147
  snapshot_proc_pid(END);
  404447:	bf 01 00 00 00       	mov    $0x1,%edi
  40444c:	e8 8f 59 00 00       	callq  409de0 <_Z17snapshot_proc_pid13SnapshotPoint>
/home/aliha951/ipdps-artifact/gapbs-master/src/benchmark.h:148
  stop_taskstats();
  404451:	e8 2a 32 00 00       	callq  407680 <_Z14stop_taskstatsv>
_Z15stop_disk_statsv():
/home/aliha951/ipdps-artifact/gapbs-master/src/profiling_utils.h:316
}

inline void stop_disk_stats() {
  if (diskstat_pid > 0) {
  404456:	8b 05 f8 5e 01 00    	mov    0x15ef8(%rip),%eax        # 41a354 <diskstat_pid>
  40445c:	85 c0                	test   %eax,%eax
  40445e:	0f 8f b0 03 00 00    	jg     404814 <main+0x9b4>
BenchmarkKernel<CSRGraph<int, NodeWeight<int, int> >, main(int, char**)::<lambda(const WGraph&)>, void (*)(const CSRGraph<int, NodeWeight<int, int> >&, const pvector<int>&), main(int, char**)::<lambda(const WGraph&, const pvector<int>&)> >():
/home/aliha951/ipdps-artifact/gapbs-master/src/benchmark.h:150
  stop_disk_stats();
  cleanup_counters(&perf_ctrs);
  404464:	48 8d 3d 25 64 01 00 	lea    0x16425(%rip),%rdi        # 41a890 <perf_ctrs>
  40446b:	e8 80 2e 00 00       	callq  4072f0 <_Z16cleanup_countersP13perf_counters>
/home/aliha951/ipdps-artifact/gapbs-master/src/benchmark.h:151
  measure_time_stats();
  404470:	e8 eb 25 00 00       	callq  406a60 <_Z18measure_time_statsv>
/home/aliha951/ipdps-artifact/gapbs-master/src/benchmark.h:153

  PrintTime("Average Time", total_seconds / cli.num_trials());
  404475:	66 0f ef c0          	pxor   %xmm0,%xmm0
  404479:	f2 0f 10 64 24 10    	movsd  0x10(%rsp),%xmm4
  40447f:	4c 8d b4 24 00 01 00 	lea    0x100(%rsp),%r14
  404486:	00 
  404487:	48 8d 35 00 0f 01 00 	lea    0x10f00(%rip),%rsi        # 41538e <_IO_stdin_used+0x38e>
  40448e:	f2 0f 2a 84 24 d4 01 	cvtsi2sdl 0x1d4(%rsp),%xmm0
  404495:	00 00 
  404497:	4c 89 f7             	mov    %r14,%rdi
  40449a:	f2 0f 5e e0          	divsd  %xmm0,%xmm4
  40449e:	66 48 0f 7e e3       	movq   %xmm4,%rbx
  4044a3:	e8 b8 1b 00 00       	callq  406060 <_ZNSt7__cxx1112basic_stringIcSt11char_traitsIcESaIcEEC2EPKcRKS3_.constprop.0>
  4044a8:	66 48 0f 6e c3       	movq   %rbx,%xmm0
  4044ad:	4c 89 f7             	mov    %r14,%rdi
  4044b0:	e8 ab 1e 00 00       	callq  406360 <_Z9PrintTimeRKNSt7__cxx1112basic_stringIcSt11char_traitsIcESaIcEEEd>
_ZNKSt7__cxx1112basic_stringIcSt11char_traitsIcESaIcEE7_M_dataEv():
/usr/include/c++/10/bits/basic_string.h:195
      { return _M_dataplus._M_p; }
  4044b5:	48 8b bc 24 00 01 00 	mov    0x100(%rsp),%rdi
  4044bc:	00 
_ZNSt7__cxx1112basic_stringIcSt11char_traitsIcESaIcEE10_M_disposeEv():
/usr/include/c++/10/bits/basic_string.h:239
	if (!_M_is_local())
  4044bd:	48 8d 84 24 10 01 00 	lea    0x110(%rsp),%rax
  4044c4:	00 
  4044c5:	48 39 c7             	cmp    %rax,%rdi
  4044c8:	74 05                	je     4044cf <main+0x66f>
_ZN9__gnu_cxx13new_allocatorIcE10deallocateEPcm():
/usr/include/c++/10/ext/new_allocator.h:139
  4044ca:	e8 81 f4 ff ff       	callq  403950 <_ZdlPv@plt>
_ZN8CSRGraphIi10NodeWeightIiiELb1EED4Ev():
/home/aliha951/ipdps-artifact/gapbs-master/src/graph.h:166
  4044cf:	48 8b 7c 24 20       	mov    0x20(%rsp),%rdi
main():
/home/aliha951/ipdps-artifact/gapbs-master/src/sssp.cc:213
  };
  BenchmarkKernel(cli, g, SSSPBound, PrintSSSPStats, VerifierBound);
  return 0;
  4044d4:	45 31 e4             	xor    %r12d,%r12d
_ZN8CSRGraphIi10NodeWeightIiiELb1EED4Ev():
/home/aliha951/ipdps-artifact/gapbs-master/src/graph.h:166
  4044d7:	e8 f4 64 00 00       	callq  40a9d0 <_ZN8CSRGraphIi10NodeWeightIiiELb1EE16ReleaseResourcesEv>
_ZN5CLAppD4Ev():
/home/aliha951/ipdps-artifact/gapbs-master/src/command_line.h:140
class CLApp : public CLBase {
  4044dc:	48 8b 7c 24 38       	mov    0x38(%rsp),%rdi
  4044e1:	48 8d 05 10 56 01 00 	lea    0x15610(%rip),%rax        # 419af8 <_ZTV5CLApp+0x10>
  4044e8:	48 89 84 24 20 01 00 	mov    %rax,0x120(%rsp)
  4044ef:	00 
  4044f0:	e8 3b 58 00 00       	callq  409d30 <_ZN6CLBaseD1Ev>
main():
/home/aliha951/ipdps-artifact/gapbs-master/src/sssp.cc:214
}
  4044f5:	48 8b 84 24 d8 16 00 	mov    0x16d8(%rsp),%rax
  4044fc:	00 
  4044fd:	64 48 2b 04 25 28 00 	sub    %fs:0x28,%rax
  404504:	00 00 
  404506:	0f 85 53 05 00 00    	jne    404a5f <main+0xbff>
  40450c:	48 81 c4 e8 16 00 00 	add    $0x16e8,%rsp
  404513:	44 89 e0             	mov    %r12d,%eax
  404516:	5b                   	pop    %rbx
  404517:	5d                   	pop    %rbp
  404518:	41 5c                	pop    %r12
  40451a:	41 5d                	pop    %r13
  40451c:	41 5e                	pop    %r14
  40451e:	41 5f                	pop    %r15
  404520:	c3                   	retq   
  404521:	0f 1f 80 00 00 00 00 	nopl   0x0(%rax)
_ZN7UniDistIiSt23mersenne_twister_engineImLm64ELm312ELm156ELm31ELm13043109905998158313ELm29ELm6148914691236517205ELm17ELm8202884508482404352ELm37ELm18444473444759240704ELm43ELm6364136223846793005EEjEclEv():
/home/aliha951/ipdps-artifact/gapbs-master/src/generator.h:56
      return rand_num;
    if (cutoff_ != 0) {
      while (rand_num >= cutoff_)
        rand_num = rng_();
    }
    return rand_num % mod_;
  404528:	31 d2                	xor    %edx,%edx
  40452a:	f7 b4 24 cc 0b 00 00 	divl   0xbcc(%rsp)
_ZNK8CSRGraphIi10NodeWeightIiiELb1EE10out_degreeEi():
/home/aliha951/ipdps-artifact/gapbs-master/src/graph.h:206
  int64_t num_edges_directed() const {
    return directed_ ? num_edges_ : 2*num_edges_;
  }

  int64_t out_degree(NodeID_ v) const {
    return out_index_[v+1] - out_index_[v];
  404531:	48 8b 84 24 d8 0b 00 	mov    0xbd8(%rsp),%rax
  404538:	00 
  404539:	48 8b 40 18          	mov    0x18(%rax),%rax
  40453d:	48 63 ca             	movslq %edx,%rcx
_ZN12SourcePickerI8CSRGraphIi10NodeWeightIiiELb1EEE8PickNextEv():
/home/aliha951/ipdps-artifact/gapbs-master/src/benchmark.h:63
    } while (g_.out_degree(source) == 0);
  404540:	48 8b 3c c8          	mov    (%rax,%rcx,8),%rdi
  404544:	48 39 7c c8 08       	cmp    %rdi,0x8(%rax,%rcx,8)
  404549:	0f 85 34 fc ff ff    	jne    404183 <main+0x323>
_ZN7UniDistIiSt23mersenne_twister_engineImLm64ELm312ELm156ELm31ELm13043109905998158313ELm29ELm6148914691236517205ELm17ELm8202884508482404352ELm37ELm18444473444759240704ELm43ELm6364136223846793005EEjEclEv():
/home/aliha951/ipdps-artifact/gapbs-master/src/generator.h:49
    uNodeID_ rand_num = rng_();
  40454f:	4c 8b bc 24 c0 0b 00 	mov    0xbc0(%rsp),%r15
  404556:	00 
_ZNSt23mersenne_twister_engineImLm64ELm312ELm156ELm31ELm13043109905998158313ELm29ELm6148914691236517205ELm17ELm8202884508482404352ELm37ELm18444473444759240704ELm43ELm6364136223846793005EEclEv():
/usr/include/c++/10/bits/random.tcc:455
      if (_M_p >= state_size)
  404557:	49 8b 97 c0 09 00 00 	mov    0x9c0(%r15),%rdx
  40455e:	48 81 fa 37 01 00 00 	cmp    $0x137,%rdx
  404565:	0f 87 35 02 00 00    	ja     4047a0 <main+0x940>
/usr/include/c++/10/bits/random.tcc:459
      result_type __z = _M_x[_M_p++];
  40456b:	48 8d 4a 01          	lea    0x1(%rdx),%rcx
  40456f:	49 8b 14 d7          	mov    (%r15,%rdx,8),%rdx
  404573:	49 89 8f c0 09 00 00 	mov    %rcx,0x9c0(%r15)
/usr/include/c++/10/bits/random.tcc:460
      __z ^= (__z >> __u) & __d;
  40457a:	48 89 d0             	mov    %rdx,%rax
  40457d:	48 c1 e8 1d          	shr    $0x1d,%rax
  404581:	48 21 d8             	and    %rbx,%rax
  404584:	48 31 c2             	xor    %rax,%rdx
/usr/include/c++/10/bits/random.tcc:461
      __z ^= (__z << __s) & __b;
  404587:	48 89 d0             	mov    %rdx,%rax
  40458a:	48 c1 e0 11          	shl    $0x11,%rax
  40458e:	48 21 e8             	and    %rbp,%rax
  404591:	48 31 c2             	xor    %rax,%rdx
/usr/include/c++/10/bits/random.tcc:462
      __z ^= (__z << __t) & __c;
  404594:	48 89 d0             	mov    %rdx,%rax
  404597:	48 c1 e0 25          	shl    $0x25,%rax
  40459b:	4c 21 e0             	and    %r12,%rax
  40459e:	48 31 c2             	xor    %rax,%rdx
/usr/include/c++/10/bits/random.tcc:463
      __z ^= (__z >> __l);
  4045a1:	48 89 d0             	mov    %rdx,%rax
  4045a4:	48 c1 e8 2b          	shr    $0x2b,%rax
  4045a8:	48 31 c2             	xor    %rax,%rdx
_ZN7UniDistIiSt23mersenne_twister_engineImLm64ELm312ELm156ELm31ELm13043109905998158313ELm29ELm6148914691236517205ELm17ELm8202884508482404352ELm37ELm18444473444759240704ELm43ELm6364136223846793005EEjEclEv():
/home/aliha951/ipdps-artifact/gapbs-master/src/generator.h:50
    if (no_mod_)
  4045ab:	80 bc 24 c8 0b 00 00 	cmpb   $0x0,0xbc8(%rsp)
  4045b2:	00 
  4045b3:	0f 85 78 ff ff ff    	jne    404531 <main+0x6d1>
/home/aliha951/ipdps-artifact/gapbs-master/src/generator.h:52
    if (cutoff_ != 0) {
  4045b9:	8b 8c 24 d0 0b 00 00 	mov    0xbd0(%rsp),%ecx
/home/aliha951/ipdps-artifact/gapbs-master/src/generator.h:49
    uNodeID_ rand_num = rng_();
  4045c0:	89 d0                	mov    %edx,%eax
/home/aliha951/ipdps-artifact/gapbs-master/src/generator.h:52
    if (cutoff_ != 0) {
  4045c2:	85 c9                	test   %ecx,%ecx
  4045c4:	0f 84 5e ff ff ff    	je     404528 <main+0x6c8>
  4045ca:	eb 5c                	jmp    404628 <main+0x7c8>
  4045cc:	0f 1f 40 00          	nopl   0x0(%rax)
_ZNSt23mersenne_twister_engineImLm64ELm312ELm156ELm31ELm13043109905998158313ELm29ELm6148914691236517205ELm17ELm8202884508482404352ELm37ELm18444473444759240704ELm43ELm6364136223846793005EEclEv():
/usr/include/c++/10/bits/random.tcc:456
	_M_gen_rand();
  4045d0:	4c 89 ff             	mov    %r15,%rdi
  4045d3:	e8 18 bf 00 00       	callq  4104f0 <_ZNSt23mersenne_twister_engineImLm64ELm312ELm156ELm31ELm13043109905998158313ELm29ELm6148914691236517205ELm17ELm8202884508482404352ELm37ELm18444473444759240704ELm43ELm6364136223846793005EE11_M_gen_randEv>
_ZN7UniDistIiSt23mersenne_twister_engineImLm64ELm312ELm156ELm31ELm13043109905998158313ELm29ELm6148914691236517205ELm17ELm8202884508482404352ELm37ELm18444473444759240704ELm43ELm6364136223846793005EEjEclEv():
/home/aliha951/ipdps-artifact/gapbs-master/src/generator.h:53
      while (rand_num >= cutoff_)
  4045d8:	8b 8c 24 d0 0b 00 00 	mov    0xbd0(%rsp),%ecx
_ZNSt23mersenne_twister_engineImLm64ELm312ELm156ELm31ELm13043109905998158313ELm29ELm6148914691236517205ELm17ELm8202884508482404352ELm37ELm18444473444759240704ELm43ELm6364136223846793005EEclEv():
/usr/include/c++/10/bits/random.tcc:459
      result_type __z = _M_x[_M_p++];
  4045df:	49 8b 97 c0 09 00 00 	mov    0x9c0(%r15),%rdx
  4045e6:	48 8d 72 01          	lea    0x1(%rdx),%rsi
  4045ea:	49 8b 14 d7          	mov    (%r15,%rdx,8),%rdx
  4045ee:	49 89 b7 c0 09 00 00 	mov    %rsi,0x9c0(%r15)
/usr/include/c++/10/bits/random.tcc:460
      __z ^= (__z >> __u) & __d;
  4045f5:	48 89 d0             	mov    %rdx,%rax
  4045f8:	48 c1 e8 1d          	shr    $0x1d,%rax
  4045fc:	48 21 d8             	and    %rbx,%rax
  4045ff:	48 31 c2             	xor    %rax,%rdx
/usr/include/c++/10/bits/random.tcc:461
      __z ^= (__z << __s) & __b;
  404602:	48 89 d0             	mov    %rdx,%rax
  404605:	48 c1 e0 11          	shl    $0x11,%rax
  404609:	48 21 e8             	and    %rbp,%rax
  40460c:	48 31 c2             	xor    %rax,%rdx
/usr/include/c++/10/bits/random.tcc:462
      __z ^= (__z << __t) & __c;
  40460f:	48 89 d0             	mov    %rdx,%rax
  404612:	48 c1 e0 25          	shl    $0x25,%rax
  404616:	4c 21 e0             	and    %r12,%rax
  404619:	48 31 c2             	xor    %rax,%rdx
/usr/include/c++/10/bits/random.tcc:463
      __z ^= (__z >> __l);
  40461c:	48 89 d0             	mov    %rdx,%rax
  40461f:	48 c1 e8 2b          	shr    $0x2b,%rax
  404623:	48 31 c2             	xor    %rax,%rdx
_ZN7UniDistIiSt23mersenne_twister_engineImLm64ELm312ELm156ELm31ELm13043109905998158313ELm29ELm6148914691236517205ELm17ELm8202884508482404352ELm37ELm18444473444759240704ELm43ELm6364136223846793005EEjEclEv():
/home/aliha951/ipdps-artifact/gapbs-master/src/generator.h:54
        rand_num = rng_();
  404626:	89 d0                	mov    %edx,%eax
/home/aliha951/ipdps-artifact/gapbs-master/src/generator.h:53
      while (rand_num >= cutoff_)
  404628:	39 ca                	cmp    %ecx,%edx
  40462a:	0f 82 f8 fe ff ff    	jb     404528 <main+0x6c8>
/home/aliha951/ipdps-artifact/gapbs-master/src/generator.h:54
        rand_num = rng_();
  404630:	4c 8b bc 24 c0 0b 00 	mov    0xbc0(%rsp),%r15
  404637:	00 
_ZNSt23mersenne_twister_engineImLm64ELm312ELm156ELm31ELm13043109905998158313ELm29ELm6148914691236517205ELm17ELm8202884508482404352ELm37ELm18444473444759240704ELm43ELm6364136223846793005EEclEv():
/usr/include/c++/10/bits/random.tcc:455
      if (_M_p >= state_size)
  404638:	49 8b 97 c0 09 00 00 	mov    0x9c0(%r15),%rdx
  40463f:	48 81 fa 37 01 00 00 	cmp    $0x137,%rdx
  404646:	76 9e                	jbe    4045e6 <main+0x786>
  404648:	eb 86                	jmp    4045d0 <main+0x770>
  40464a:	66 0f 1f 44 00 00    	nopw   0x0(%rax,%rax,1)
_ZN7UniDistIiSt23mersenne_twister_engineImLm64ELm312ELm156ELm31ELm13043109905998158313ELm29ELm6148914691236517205ELm17ELm8202884508482404352ELm37ELm18444473444759240704ELm43ELm6364136223846793005EEjEclEv():
/home/aliha951/ipdps-artifact/gapbs-master/src/generator.h:56
    return rand_num % mod_;
  404650:	31 d2                	xor    %edx,%edx
  404652:	f7 b4 24 bc 15 00 00 	divl   0x15bc(%rsp)
  404659:	89 d6                	mov    %edx,%esi
_ZNK8CSRGraphIi10NodeWeightIiiELb1EE10out_degreeEi():
/home/aliha951/ipdps-artifact/gapbs-master/src/graph.h:206
  40465b:	48 8b 84 24 c8 15 00 	mov    0x15c8(%rsp),%rax
  404662:	00 
  404663:	48 63 d6             	movslq %esi,%rdx
  404666:	48 8b 40 18          	mov    0x18(%rax),%rax
_ZN12SourcePickerI8CSRGraphIi10NodeWeightIiiELb1EEE8PickNextEv():
/home/aliha951/ipdps-artifact/gapbs-master/src/benchmark.h:63
  40466a:	48 8b 3c d0          	mov    (%rax,%rdx,8),%rdi
  40466e:	48 39 7c d0 08       	cmp    %rdi,0x8(%rax,%rdx,8)
  404673:	0f 85 fd fb ff ff    	jne    404276 <main+0x416>
_ZN7UniDistIiSt23mersenne_twister_engineImLm64ELm312ELm156ELm31ELm13043109905998158313ELm29ELm6148914691236517205ELm17ELm8202884508482404352ELm37ELm18444473444759240704ELm43ELm6364136223846793005EEjEclEv():
/home/aliha951/ipdps-artifact/gapbs-master/src/generator.h:49
    uNodeID_ rand_num = rng_();
  404679:	48 8b 84 24 b0 15 00 	mov    0x15b0(%rsp),%rax
  404680:	00 
_ZNSt23mersenne_twister_engineImLm64ELm312ELm156ELm31ELm13043109905998158313ELm29ELm6148914691236517205ELm17ELm8202884508482404352ELm37ELm18444473444759240704ELm43ELm6364136223846793005EEclEv():
/usr/include/c++/10/bits/random.tcc:455
  404681:	48 8b 90 c0 09 00 00 	mov    0x9c0(%rax),%rdx
  404688:	48 81 fa 37 01 00 00 	cmp    $0x137,%rdx
  40468f:	0f 87 23 01 00 00    	ja     4047b8 <main+0x958>
/usr/include/c++/10/bits/random.tcc:459
      result_type __z = _M_x[_M_p++];
  404695:	48 8d 4a 01          	lea    0x1(%rdx),%rcx
  404699:	48 89 88 c0 09 00 00 	mov    %rcx,0x9c0(%rax)
  4046a0:	48 8b 04 d0          	mov    (%rax,%rdx,8),%rax
/usr/include/c++/10/bits/random.tcc:460
      __z ^= (__z >> __u) & __d;
  4046a4:	48 89 c2             	mov    %rax,%rdx
  4046a7:	48 c1 ea 1d          	shr    $0x1d,%rdx
  4046ab:	48 21 da             	and    %rbx,%rdx
  4046ae:	48 31 d0             	xor    %rdx,%rax
/usr/include/c++/10/bits/random.tcc:461
      __z ^= (__z << __s) & __b;
  4046b1:	48 89 c2             	mov    %rax,%rdx
  4046b4:	48 c1 e2 11          	shl    $0x11,%rdx
  4046b8:	48 21 ea             	and    %rbp,%rdx
  4046bb:	48 31 d0             	xor    %rdx,%rax
/usr/include/c++/10/bits/random.tcc:462
      __z ^= (__z << __t) & __c;
  4046be:	48 89 c2             	mov    %rax,%rdx
  4046c1:	48 c1 e2 25          	shl    $0x25,%rdx
  4046c5:	4c 21 e2             	and    %r12,%rdx
  4046c8:	48 31 d0             	xor    %rdx,%rax
/usr/include/c++/10/bits/random.tcc:463
      __z ^= (__z >> __l);
  4046cb:	48 89 c6             	mov    %rax,%rsi
  4046ce:	48 c1 ee 2b          	shr    $0x2b,%rsi
  4046d2:	48 31 c6             	xor    %rax,%rsi
_ZN7UniDistIiSt23mersenne_twister_engineImLm64ELm312ELm156ELm31ELm13043109905998158313ELm29ELm6148914691236517205ELm17ELm8202884508482404352ELm37ELm18444473444759240704ELm43ELm6364136223846793005EEjEclEv():
/home/aliha951/ipdps-artifact/gapbs-master/src/generator.h:50
    if (no_mod_)
  4046d5:	80 bc 24 b8 15 00 00 	cmpb   $0x0,0x15b8(%rsp)
  4046dc:	00 
  4046dd:	0f 85 78 ff ff ff    	jne    40465b <main+0x7fb>
/home/aliha951/ipdps-artifact/gapbs-master/src/generator.h:52
    if (cutoff_ != 0) {
  4046e3:	8b 8c 24 c0 15 00 00 	mov    0x15c0(%rsp),%ecx
/home/aliha951/ipdps-artifact/gapbs-master/src/generator.h:49
    uNodeID_ rand_num = rng_();
  4046ea:	89 f0                	mov    %esi,%eax
/home/aliha951/ipdps-artifact/gapbs-master/src/generator.h:52
    if (cutoff_ != 0) {
  4046ec:	85 c9                	test   %ecx,%ecx
  4046ee:	0f 84 5c ff ff ff    	je     404650 <main+0x7f0>
/home/aliha951/ipdps-artifact/gapbs-master/src/generator.h:53
      while (rand_num >= cutoff_)
  4046f4:	39 ce                	cmp    %ecx,%esi
  4046f6:	73 52                	jae    40474a <main+0x8ea>
  4046f8:	e9 53 ff ff ff       	jmpq   404650 <main+0x7f0>
  4046fd:	0f 1f 00             	nopl   (%rax)
_ZNSt23mersenne_twister_engineImLm64ELm312ELm156ELm31ELm13043109905998158313ELm29ELm6148914691236517205ELm17ELm8202884508482404352ELm37ELm18444473444759240704ELm43ELm6364136223846793005EEclEv():
/usr/include/c++/10/bits/random.tcc:459
      result_type __z = _M_x[_M_p++];
  404700:	48 8d 72 01          	lea    0x1(%rdx),%rsi
  404704:	49 8b 14 d7          	mov    (%r15,%rdx,8),%rdx
  404708:	49 89 b7 c0 09 00 00 	mov    %rsi,0x9c0(%r15)
/usr/include/c++/10/bits/random.tcc:460
      __z ^= (__z >> __u) & __d;
  40470f:	48 89 d0             	mov    %rdx,%rax
  404712:	48 c1 e8 1d          	shr    $0x1d,%rax
  404716:	48 21 d8             	and    %rbx,%rax
  404719:	48 31 c2             	xor    %rax,%rdx
/usr/include/c++/10/bits/random.tcc:461
      __z ^= (__z << __s) & __b;
  40471c:	48 89 d0             	mov    %rdx,%rax
  40471f:	48 c1 e0 11          	shl    $0x11,%rax
  404723:	48 21 e8             	and    %rbp,%rax
  404726:	48 31 c2             	xor    %rax,%rdx
/usr/include/c++/10/bits/random.tcc:462
      __z ^= (__z << __t) & __c;
  404729:	48 89 d0             	mov    %rdx,%rax
  40472c:	48 c1 e0 25          	shl    $0x25,%rax
  404730:	4c 21 e0             	and    %r12,%rax
  404733:	48 31 c2             	xor    %rax,%rdx
/usr/include/c++/10/bits/random.tcc:463
      __z ^= (__z >> __l);
  404736:	48 89 d0             	mov    %rdx,%rax
  404739:	48 c1 e8 2b          	shr    $0x2b,%rax
  40473d:	48 31 c2             	xor    %rax,%rdx
_ZN7UniDistIiSt23mersenne_twister_engineImLm64ELm312ELm156ELm31ELm13043109905998158313ELm29ELm6148914691236517205ELm17ELm8202884508482404352ELm37ELm18444473444759240704ELm43ELm6364136223846793005EEjEclEv():
/home/aliha951/ipdps-artifact/gapbs-master/src/generator.h:54
        rand_num = rng_();
  404740:	89 d0                	mov    %edx,%eax
/home/aliha951/ipdps-artifact/gapbs-master/src/generator.h:53
      while (rand_num >= cutoff_)
  404742:	39 d1                	cmp    %edx,%ecx
  404744:	0f 87 06 ff ff ff    	ja     404650 <main+0x7f0>
/home/aliha951/ipdps-artifact/gapbs-master/src/generator.h:54
        rand_num = rng_();
  40474a:	4c 8b bc 24 b0 15 00 	mov    0x15b0(%rsp),%r15
  404751:	00 
_ZNSt23mersenne_twister_engineImLm64ELm312ELm156ELm31ELm13043109905998158313ELm29ELm6148914691236517205ELm17ELm8202884508482404352ELm37ELm18444473444759240704ELm43ELm6364136223846793005EEclEv():
/usr/include/c++/10/bits/random.tcc:455
      if (_M_p >= state_size)
  404752:	49 8b 97 c0 09 00 00 	mov    0x9c0(%r15),%rdx
  404759:	48 81 fa 37 01 00 00 	cmp    $0x137,%rdx
  404760:	76 9e                	jbe    404700 <main+0x8a0>
/usr/include/c++/10/bits/random.tcc:456
	_M_gen_rand();
  404762:	4c 89 ff             	mov    %r15,%rdi
  404765:	e8 86 bd 00 00       	callq  4104f0 <_ZNSt23mersenne_twister_engineImLm64ELm312ELm156ELm31ELm13043109905998158313ELm29ELm6148914691236517205ELm17ELm8202884508482404352ELm37ELm18444473444759240704ELm43ELm6364136223846793005EE11_M_gen_randEv>
_ZN7UniDistIiSt23mersenne_twister_engineImLm64ELm312ELm156ELm31ELm13043109905998158313ELm29ELm6148914691236517205ELm17ELm8202884508482404352ELm37ELm18444473444759240704ELm43ELm6364136223846793005EEjEclEv():
/home/aliha951/ipdps-artifact/gapbs-master/src/generator.h:53
      while (rand_num >= cutoff_)
  40476a:	8b 8c 24 c0 15 00 00 	mov    0x15c0(%rsp),%ecx
_ZNSt23mersenne_twister_engineImLm64ELm312ELm156ELm31ELm13043109905998158313ELm29ELm6148914691236517205ELm17ELm8202884508482404352ELm37ELm18444473444759240704ELm43ELm6364136223846793005EEclEv():
/usr/include/c++/10/bits/random.tcc:459
      result_type __z = _M_x[_M_p++];
  404771:	49 8b 97 c0 09 00 00 	mov    0x9c0(%r15),%rdx
  404778:	eb 86                	jmp    404700 <main+0x8a0>
_ZN6CLBase9ParseArgsEv():
/home/aliha951/ipdps-artifact/gapbs-master/src/command_line.h:90
    if ((filename_ == "") && (scale_ == -1)) {
  40477a:	44 8b a4 24 90 01 00 	mov    0x190(%rsp),%r12d
  404781:	00 
  404782:	41 83 fc ff          	cmp    $0xffffffff,%r12d
  404786:	0f 84 2a 02 00 00    	je     4049b6 <main+0xb56>
/home/aliha951/ipdps-artifact/gapbs-master/src/command_line.h:95
      symmetrize_ = true;
  40478c:	c6 84 24 b8 01 00 00 	movb   $0x1,0x1b8(%rsp)
  404793:	01 
/home/aliha951/ipdps-artifact/gapbs-master/src/command_line.h:92
      return false;
  404794:	e9 91 f8 ff ff       	jmpq   40402a <main+0x1ca>
  404799:	0f 1f 80 00 00 00 00 	nopl   0x0(%rax)
_ZNSt23mersenne_twister_engineImLm64ELm312ELm156ELm31ELm13043109905998158313ELm29ELm6148914691236517205ELm17ELm8202884508482404352ELm37ELm18444473444759240704ELm43ELm6364136223846793005EEclEv():
/usr/include/c++/10/bits/random.tcc:456
	_M_gen_rand();
  4047a0:	4c 89 ff             	mov    %r15,%rdi
  4047a3:	e8 48 bd 00 00       	callq  4104f0 <_ZNSt23mersenne_twister_engineImLm64ELm312ELm156ELm31ELm13043109905998158313ELm29ELm6148914691236517205ELm17ELm8202884508482404352ELm37ELm18444473444759240704ELm43ELm6364136223846793005EE11_M_gen_randEv>
/usr/include/c++/10/bits/random.tcc:459
      result_type __z = _M_x[_M_p++];
  4047a8:	49 8b 97 c0 09 00 00 	mov    0x9c0(%r15),%rdx
  4047af:	e9 b7 fd ff ff       	jmpq   40456b <main+0x70b>
  4047b4:	0f 1f 40 00          	nopl   0x0(%rax)
/usr/include/c++/10/bits/random.tcc:456
	_M_gen_rand();
  4047b8:	48 89 c7             	mov    %rax,%rdi
  4047bb:	48 89 44 24 18       	mov    %rax,0x18(%rsp)
  4047c0:	e8 2b bd 00 00       	callq  4104f0 <_ZNSt23mersenne_twister_engineImLm64ELm312ELm156ELm31ELm13043109905998158313ELm29ELm6148914691236517205ELm17ELm8202884508482404352ELm37ELm18444473444759240704ELm43ELm6364136223846793005EE11_M_gen_randEv>
/usr/include/c++/10/bits/random.tcc:459
      result_type __z = _M_x[_M_p++];
  4047c5:	48 8b 44 24 18       	mov    0x18(%rsp),%rax
  4047ca:	48 8b 90 c0 09 00 00 	mov    0x9c0(%rax),%rdx
  4047d1:	e9 bf fe ff ff       	jmpq   404695 <main+0x835>
  4047d6:	66 2e 0f 1f 84 00 00 	nopw   %cs:0x0(%rax,%rax,1)
  4047dd:	00 00 00 
BenchmarkKernel<CSRGraph<int, NodeWeight<int, int> >, main(int, char**)::<lambda(const WGraph&)>, void (*)(const CSRGraph<int, NodeWeight<int, int> >&, const pvector<int>&), main(int, char**)::<lambda(const WGraph&, const pvector<int>&)> >():
/home/aliha951/ipdps-artifact/gapbs-master/src/benchmark.h:123
  for (int iter=0; iter < cli.num_trials(); iter++) {
  4047e0:	83 44 24 0c 01       	addl   $0x1,0xc(%rsp)
  4047e5:	8b 44 24 0c          	mov    0xc(%rsp),%eax
  4047e9:	39 84 24 d4 01 00 00 	cmp    %eax,0x1d4(%rsp)
  4047f0:	0f 8f 62 f9 ff ff    	jg     404158 <main+0x2f8>
  4047f6:	e9 02 fc ff ff       	jmpq   4043fd <main+0x59d>
  4047fb:	0f 1f 44 00 00       	nopl   0x0(%rax,%rax,1)
/home/aliha951/ipdps-artifact/gapbs-master/src/benchmark.h:130
      stats(g, result);
  404800:	48 8b 74 24 28       	mov    0x28(%rsp),%rsi
  404805:	48 8b 7c 24 20       	mov    0x20(%rsp),%rdi
  40480a:	e8 91 34 00 00       	callq  407ca0 <_Z14PrintSSSPStatsRK8CSRGraphIi10NodeWeightIiiELb1EERK7pvectorIiE>
  40480f:	e9 3a fa ff ff       	jmpq   40424e <main+0x3ee>
main():
/usr/include/x86_64-linux-gnu/bits/stdio2.h:67
# ifdef __va_arg_pack
__fortify_function int
__NTH (snprintf (char *__restrict __s, size_t __n,
		 const char *__restrict __fmt, ...))
{
  return __builtin___snprintf_chk (__s, __n, __USE_FORTIFY_LEVEL - 1,
  404814:	4c 8d 84 24 d0 15 00 	lea    0x15d0(%rsp),%r8
  40481b:	00 
snprintf():
/usr/include/x86_64-linux-gnu/bits/stdio2.h:67
  40481c:	48 8d 35 ed 0f 01 00 	lea    0x10fed(%rip),%rsi        # 415810 <_IO_stdin_used+0x810>
  404823:	b9 09 00 00 00       	mov    $0x9,%ecx
  404828:	4c 89 c7             	mov    %r8,%rdi
  40482b:	f3 a5                	rep movsl %ds:(%rsi),%es:(%rdi)
_Z15stop_disk_statsv():
/home/aliha951/ipdps-artifact/gapbs-master/src/profiling_utils.h:319
    char command[256];
    snprintf(command, sizeof(command), "sudo pkill -f 'gather_diskstats.sh'");
    int ret = system(command);
  40482d:	4c 89 c7             	mov    %r8,%rdi
  404830:	e8 db f0 ff ff       	callq  403910 <system@plt>
/home/aliha951/ipdps-artifact/gapbs-master/src/profiling_utils.h:320
    if (ret==-1)	std::cout << "could not stop diskstat gathering\n";
  404835:	83 c0 01             	add    $0x1,%eax
  404838:	0f 85 26 fc ff ff    	jne    404464 <main+0x604>
_ZStlsISt11char_traitsIcEERSt13basic_ostreamIcT_ES5_PKc():
/usr/include/c++/10/ostream:611
    operator<<(basic_ostream<char, _Traits>& __out, const char* __s)
    {
      if (!__s)
	__out.setstate(ios_base::badbit);
      else
	__ostream_insert(__out, __s,
  40483e:	ba 22 00 00 00       	mov    $0x22,%edx
  404843:	48 8d 35 ee 0f 01 00 	lea    0x10fee(%rip),%rsi        # 415838 <_IO_stdin_used+0x838>
  40484a:	48 8d 3d 6f 5b 01 00 	lea    0x15b6f(%rip),%rdi        # 41a3c0 <_ZSt4cout@@GLIBCXX_3.4>
  404851:	e8 7a f1 ff ff       	callq  4039d0 <_ZSt16__ostream_insertIcSt11char_traitsIcEERSt13basic_ostreamIT_T0_ES6_PKS3_l@plt>
  404856:	e9 09 fc ff ff       	jmpq   404464 <main+0x604>
_ZN6CLBase9HandleArgEaPc():
/home/aliha951/ipdps-artifact/gapbs-master/src/command_line.h:106
      case 'u': uniform_ = true; scale_ = atoi(opt_arg);                break;
  40485b:	c6 84 24 b9 01 00 00 	movb   $0x1,0x1b9(%rsp)
  404862:	01 
main():
/usr/include/stdlib.h:363
  return (int) strtol (__nptr, (char **) NULL, 10);
  404863:	ba 0a 00 00 00       	mov    $0xa,%edx
atoi():
/usr/include/stdlib.h:363
  404868:	31 f6                	xor    %esi,%esi
  40486a:	e8 51 f2 ff ff       	callq  403ac0 <strtol@plt>
  40486f:	89 84 24 90 01 00 00 	mov    %eax,0x190(%rsp)
_ZN6CLBase9HandleArgEaPc():
/home/aliha951/ipdps-artifact/gapbs-master/src/command_line.h:106
  404876:	e9 9d f6 ff ff       	jmpq   403f18 <main+0xb8>
/home/aliha951/ipdps-artifact/gapbs-master/src/command_line.h:105
      case 's': symmetrize_ = true;                                     break;
  40487b:	c6 84 24 b8 01 00 00 	movb   $0x1,0x1b8(%rsp)
  404882:	01 
  404883:	e9 90 f6 ff ff       	jmpq   403f18 <main+0xb8>
main():
/usr/include/stdlib.h:363
  404888:	ba 0a 00 00 00       	mov    $0xa,%edx
atoi():
/usr/include/stdlib.h:363
  40488d:	31 f6                	xor    %esi,%esi
  40488f:	e8 2c f2 ff ff       	callq  403ac0 <strtol@plt>
  404894:	89 84 24 c8 01 00 00 	mov    %eax,0x1c8(%rsp)
_ZN6CLBase9HandleArgEaPc():
/home/aliha951/ipdps-artifact/gapbs-master/src/command_line.h:111
      case 'x': readahead_size_ = atoi(opt_arg);                        break;
  40489b:	e9 78 f6 ff ff       	jmpq   403f18 <main+0xb8>
main():
/usr/include/stdlib.h:363
  4048a0:	ba 0a 00 00 00       	mov    $0xa,%edx
atoi():
/usr/include/stdlib.h:363
  4048a5:	31 f6                	xor    %esi,%esi
  4048a7:	e8 14 f2 ff ff       	callq  403ac0 <strtol@plt>
_ZN6CLBase9HandleArgEaPc():
/home/aliha951/ipdps-artifact/gapbs-master/src/command_line.h:110
      case 'y': queue_size_ = (long unsigned int) atoi(opt_arg);        break;
  4048ac:	48 98                	cltq   
  4048ae:	48 89 84 24 c0 01 00 	mov    %rax,0x1c0(%rsp)
  4048b5:	00 
  4048b6:	e9 5d f6 ff ff       	jmpq   403f18 <main+0xb8>
main():
/usr/include/stdlib.h:363
  4048bb:	ba 0a 00 00 00       	mov    $0xa,%edx
atoi():
/usr/include/stdlib.h:363
  4048c0:	31 f6                	xor    %esi,%esi
  4048c2:	e8 f9 f1 ff ff       	callq  403ac0 <strtol@plt>
  4048c7:	89 84 24 94 01 00 00 	mov    %eax,0x194(%rsp)
_ZN6CLBase9HandleArgEaPc():
/home/aliha951/ipdps-artifact/gapbs-master/src/command_line.h:104
      case 'k': degree_ = atoi(opt_arg);                                break;
  4048ce:	e9 45 f6 ff ff       	jmpq   403f18 <main+0xb8>
/home/aliha951/ipdps-artifact/gapbs-master/src/command_line.h:107
      case 'm': in_place_ = true;                                       break;
  4048d3:	c6 84 24 ba 01 00 00 	movb   $0x1,0x1ba(%rsp)
  4048da:	01 
  4048db:	e9 38 f6 ff ff       	jmpq   403f18 <main+0xb8>
/home/aliha951/ipdps-artifact/gapbs-master/src/command_line.h:112
      case 'o': batching_mode_ = MADVISE;                               break;
  4048e0:	c7 84 24 cc 01 00 00 	movl   $0x2,0x1cc(%rsp)
  4048e7:	02 00 00 00 
  4048eb:	e9 28 f6 ff ff       	jmpq   403f18 <main+0xb8>
/home/aliha951/ipdps-artifact/gapbs-master/src/command_line.h:109
      case 'q': batching_ = true;                                       break;
  4048f0:	c6 84 24 bb 01 00 00 	movb   $0x1,0x1bb(%rsp)
  4048f7:	01 
  4048f8:	e9 1b f6 ff ff       	jmpq   403f18 <main+0xb8>
/home/aliha951/ipdps-artifact/gapbs-master/src/command_line.h:101
      case 'f': filename_ = std::string(opt_arg);                       break;
  4048fd:	48 89 fe             	mov    %rdi,%rsi
  404900:	48 89 ef             	mov    %rbp,%rdi
  404903:	e8 58 17 00 00       	callq  406060 <_ZNSt7__cxx1112basic_stringIcSt11char_traitsIcESaIcEEC2EPKcRKS3_.constprop.0>
_ZNKSt7__cxx1112basic_stringIcSt11char_traitsIcESaIcEE7_M_dataEv():
/usr/include/c++/10/bits/basic_string.h:195
      { return _M_dataplus._M_p; }
  404908:	48 8b 84 24 e0 0b 00 	mov    0xbe0(%rsp),%rax
  40490f:	00 
  404910:	48 8b bc 24 98 01 00 	mov    0x198(%rsp),%rdi
  404917:	00 
_ZNKSt7__cxx1112basic_stringIcSt11char_traitsIcESaIcEE4sizeEv():
/usr/include/c++/10/bits/basic_string.h:915
      { return _M_string_length; }
  404918:	48 8b 94 24 e8 0b 00 	mov    0xbe8(%rsp),%rdx
  40491f:	00 
_ZNSt7__cxx1112basic_stringIcSt11char_traitsIcESaIcEEaSEOS4_():
/usr/include/c++/10/bits/basic_string.h:731
	if (__str._M_is_local())
  404920:	4c 39 e0             	cmp    %r12,%rax
  404923:	0f 84 c0 00 00 00    	je     4049e9 <main+0xb89>
/usr/include/c++/10/bits/basic_string.h:759
	    _M_capacity(__str._M_allocated_capacity);
  404929:	f3 0f 7e 8c 24 f0 0b 	movq   0xbf0(%rsp),%xmm1
  404930:	00 00 
/usr/include/c++/10/bits/basic_string.h:745
	    if (!_M_is_local())
  404932:	4c 39 f7             	cmp    %r14,%rdi
  404935:	0f 84 e2 00 00 00    	je     404a1d <main+0xbbd>
_ZNSt7__cxx1112basic_stringIcSt11char_traitsIcESaIcEE9_M_lengthEm():
/usr/include/c++/10/bits/basic_string.h:191
      { _M_string_length = __length; }
  40493b:	66 48 0f 6e c2       	movq   %rdx,%xmm0
_ZNSt7__cxx1112basic_stringIcSt11char_traitsIcESaIcEEaSEOS4_():
/usr/include/c++/10/bits/basic_string.h:751
		    __capacity = _M_allocated_capacity;
  404940:	48 8b 8c 24 a8 01 00 	mov    0x1a8(%rsp),%rcx
  404947:	00 
_ZNSt7__cxx1112basic_stringIcSt11char_traitsIcESaIcEE7_M_dataEPc():
/usr/include/c++/10/bits/basic_string.h:187
      { _M_dataplus._M_p = __p; }
  404948:	48 89 84 24 98 01 00 	mov    %rax,0x198(%rsp)
  40494f:	00 
_ZNSt7__cxx1112basic_stringIcSt11char_traitsIcESaIcEE9_M_lengthEm():
/usr/include/c++/10/bits/basic_string.h:191
      { _M_string_length = __length; }
  404950:	66 0f 6c c1          	punpcklqdq %xmm1,%xmm0
  404954:	0f 29 84 24 a0 01 00 	movaps %xmm0,0x1a0(%rsp)
  40495b:	00 
_ZNSt7__cxx1112basic_stringIcSt11char_traitsIcESaIcEEaSEOS4_():
/usr/include/c++/10/bits/basic_string.h:760
	    if (__data)
  40495c:	48 85 ff             	test   %rdi,%rdi
  40495f:	0f 84 d1 00 00 00    	je     404a36 <main+0xbd6>
_ZNSt7__cxx1112basic_stringIcSt11char_traitsIcESaIcEE7_M_dataEPc():
/usr/include/c++/10/bits/basic_string.h:187
      { _M_dataplus._M_p = __p; }
  404965:	48 89 bc 24 e0 0b 00 	mov    %rdi,0xbe0(%rsp)
  40496c:	00 
_ZNSt7__cxx1112basic_stringIcSt11char_traitsIcESaIcEE11_M_capacityEm():
/usr/include/c++/10/bits/basic_string.h:219
      { _M_allocated_capacity = __capacity; }
  40496d:	48 89 8c 24 f0 0b 00 	mov    %rcx,0xbf0(%rsp)
  404974:	00 
_ZNKSt7__cxx1112basic_stringIcSt11char_traitsIcESaIcEE7_M_dataEv():
/usr/include/c++/10/bits/basic_string.h:195
      { return _M_dataplus._M_p; }
  404975:	48 8b 84 24 e0 0b 00 	mov    0xbe0(%rsp),%rax
  40497c:	00 
_ZNSt7__cxx1112basic_stringIcSt11char_traitsIcESaIcEE9_M_lengthEm():
/usr/include/c++/10/bits/basic_string.h:191
      { _M_string_length = __length; }
  40497d:	48 c7 84 24 e8 0b 00 	movq   $0x0,0xbe8(%rsp)
  404984:	00 00 00 00 00 
_ZNSt11char_traitsIcE6assignERcRKc():
/usr/include/c++/10/bits/char_traits.h:357
  404989:	c6 00 00             	movb   $0x0,(%rax)
_ZNKSt7__cxx1112basic_stringIcSt11char_traitsIcESaIcEE7_M_dataEv():
/usr/include/c++/10/bits/basic_string.h:195
      { return _M_dataplus._M_p; }
  40498c:	48 8b bc 24 e0 0b 00 	mov    0xbe0(%rsp),%rdi
  404993:	00 
_ZNSt7__cxx1112basic_stringIcSt11char_traitsIcESaIcEE10_M_disposeEv():
/usr/include/c++/10/bits/basic_string.h:239
	if (!_M_is_local())
  404994:	4c 39 e7             	cmp    %r12,%rdi
  404997:	0f 84 7b f5 ff ff    	je     403f18 <main+0xb8>
_ZN9__gnu_cxx13new_allocatorIcE10deallocateEPcm():
/usr/include/c++/10/ext/new_allocator.h:139
  40499d:	e8 ae ef ff ff       	callq  403950 <_ZdlPv@plt>
_ZN6CLBase9HandleArgEaPc():
/home/aliha951/ipdps-artifact/gapbs-master/src/command_line.h:114
  }
  4049a2:	e9 71 f5 ff ff       	jmpq   403f18 <main+0xb8>
BenchmarkKernel<CSRGraph<int, NodeWeight<int, int> >, main(int, char**)::<lambda(const WGraph&)>, void (*)(const CSRGraph<int, NodeWeight<int, int> >&, const pvector<int>&), main(int, char**)::<lambda(const WGraph&, const pvector<int>&)> >():
/home/aliha951/ipdps-artifact/gapbs-master/src/benchmark.h:108
  double total_seconds = 0;
  4049a7:	66 0f ef f6          	pxor   %xmm6,%xmm6
  4049ab:	f2 0f 11 74 24 10    	movsd  %xmm6,0x10(%rsp)
  4049b1:	e9 47 fa ff ff       	jmpq   4043fd <main+0x59d>
_ZStlsISt11char_traitsIcEERSt13basic_ostreamIcT_ES5_PKc():
/usr/include/c++/10/ostream:611
  4049b6:	ba 2b 00 00 00       	mov    $0x2b,%edx
  4049bb:	48 8d 35 b6 0d 01 00 	lea    0x10db6(%rip),%rsi        # 415778 <_IO_stdin_used+0x778>
  4049c2:	48 8d 3d f7 59 01 00 	lea    0x159f7(%rip),%rdi        # 41a3c0 <_ZSt4cout@@GLIBCXX_3.4>
  4049c9:	e8 02 f0 ff ff       	callq  4039d0 <_ZSt16__ostream_insertIcSt11char_traitsIcEERSt13basic_ostreamIT_T0_ES6_PKS3_l@plt>
_ZNSolsEPFRSoS_E():
/usr/include/c++/10/ostream:113
	return __pf(*this);
  4049ce:	48 8d 3d eb 59 01 00 	lea    0x159eb(%rip),%rdi        # 41a3c0 <_ZSt4cout@@GLIBCXX_3.4>
  4049d5:	e8 36 0f 00 00       	callq  405910 <_ZSt4endlIcSt11char_traitsIcEERSt13basic_ostreamIT_T0_ES6_.isra.0>
  4049da:	e9 fd fa ff ff       	jmpq   4044dc <main+0x67c>
_ZN6CLBase9HandleArgEaPc():
/home/aliha951/ipdps-artifact/gapbs-master/src/command_line.h:103
      case 'h': PrintUsage();                                           break;
  4049df:	48 8b 7c 24 38       	mov    0x38(%rsp),%rdi
  4049e4:	e8 a7 4b 00 00       	callq  409590 <_ZN6CLBase10PrintUsageEv>
_ZNSt7__cxx1112basic_stringIcSt11char_traitsIcESaIcEEaSEOS4_():
/usr/include/c++/10/bits/basic_string.h:734
	    if (__str.size())
  4049e9:	48 85 d2             	test   %rdx,%rdx
  4049ec:	74 1e                	je     404a0c <main+0xbac>
_ZNSt7__cxx1112basic_stringIcSt11char_traitsIcESaIcEE7_S_copyEPcPKcm():
/usr/include/c++/10/bits/basic_string.h:356
	if (__n == 1)
  4049ee:	48 83 fa 01          	cmp    $0x1,%rdx
  4049f2:	74 4f                	je     404a43 <main+0xbe3>
_ZNSt11char_traitsIcE4copyEPcPKcm():
/usr/include/c++/10/bits/char_traits.h:437
	return static_cast<char_type*>(__builtin_memcpy(__s1, __s2, __n));
  4049f4:	4c 89 e6             	mov    %r12,%rsi
  4049f7:	e8 e4 ee ff ff       	callq  4038e0 <memcpy@plt>
  4049fc:	48 8b bc 24 98 01 00 	mov    0x198(%rsp),%rdi
  404a03:	00 
  404a04:	48 8b 94 24 e8 0b 00 	mov    0xbe8(%rsp),%rdx
  404a0b:	00 
_ZNSt7__cxx1112basic_stringIcSt11char_traitsIcESaIcEE9_M_lengthEm():
/usr/include/c++/10/bits/basic_string.h:191
      { _M_string_length = __length; }
  404a0c:	48 89 94 24 a0 01 00 	mov    %rdx,0x1a0(%rsp)
  404a13:	00 
_ZNSt11char_traitsIcE6assignERcRKc():
/usr/include/c++/10/bits/char_traits.h:357
      { __c1 = __c2; }
  404a14:	c6 04 17 00          	movb   $0x0,(%rdi,%rdx,1)
_ZNSt7__cxx1112basic_stringIcSt11char_traitsIcESaIcEE13_M_set_lengthEm():
/usr/include/c++/10/bits/basic_string.h:226
      }
  404a18:	e9 58 ff ff ff       	jmpq   404975 <main+0xb15>
_ZNSt7__cxx1112basic_stringIcSt11char_traitsIcESaIcEE9_M_lengthEm():
/usr/include/c++/10/bits/basic_string.h:191
      { _M_string_length = __length; }
  404a1d:	66 48 0f 6e c2       	movq   %rdx,%xmm0
_ZNSt7__cxx1112basic_stringIcSt11char_traitsIcESaIcEE7_M_dataEPc():
/usr/include/c++/10/bits/basic_string.h:187
      { _M_dataplus._M_p = __p; }
  404a22:	48 89 84 24 98 01 00 	mov    %rax,0x198(%rsp)
  404a29:	00 
_ZNSt7__cxx1112basic_stringIcSt11char_traitsIcESaIcEE9_M_lengthEm():
/usr/include/c++/10/bits/basic_string.h:191
      { _M_string_length = __length; }
  404a2a:	66 0f 6c c1          	punpcklqdq %xmm1,%xmm0
  404a2e:	0f 29 84 24 a0 01 00 	movaps %xmm0,0x1a0(%rsp)
  404a35:	00 
_ZNSt7__cxx1112basic_stringIcSt11char_traitsIcESaIcEE7_M_dataEPc():
/usr/include/c++/10/bits/basic_string.h:187
      { _M_dataplus._M_p = __p; }
  404a36:	4c 89 a4 24 e0 0b 00 	mov    %r12,0xbe0(%rsp)
  404a3d:	00 
  404a3e:	e9 32 ff ff ff       	jmpq   404975 <main+0xb15>
_ZNSt11char_traitsIcE6assignERcRKc():
/usr/include/c++/10/bits/char_traits.h:357
  404a43:	0f b6 84 24 f0 0b 00 	movzbl 0xbf0(%rsp),%eax
  404a4a:	00 
  404a4b:	88 07                	mov    %al,(%rdi)
  404a4d:	48 8b bc 24 98 01 00 	mov    0x198(%rsp),%rdi
  404a54:	00 
  404a55:	48 8b 94 24 e8 0b 00 	mov    0xbe8(%rsp),%rdx
  404a5c:	00 
  404a5d:	eb ad                	jmp    404a0c <main+0xbac>
main():
/home/aliha951/ipdps-artifact/gapbs-master/src/sssp.cc:214
  404a5f:	e8 5c ef ff ff       	callq  4039c0 <__stack_chk_fail@plt>
_Z16start_disk_statsPKc():
/home/aliha951/ipdps-artifact/gapbs-master/src/profiling_utils.h:302
    perror("fork failed");
  404a64:	48 8d 3d a2 08 01 00 	lea    0x108a2(%rip),%rdi        # 41530d <_IO_stdin_used+0x30d>
  404a6b:	e8 80 ee ff ff       	callq  4038f0 <perror@plt>
/home/aliha951/ipdps-artifact/gapbs-master/src/profiling_utils.h:303
    exit(EXIT_FAILURE);
  404a70:	bf 01 00 00 00       	mov    $0x1,%edi
  404a75:	e8 b6 ef ff ff       	callq  403a30 <exit@plt>
/home/aliha951/ipdps-artifact/gapbs-master/src/profiling_utils.h:306
	  move_to_cgroup(root_cgroup, getpid());
  404a7a:	e8 a1 f0 ff ff       	callq  403b20 <getpid@plt>
  404a7f:	48 8d 3d 93 08 01 00 	lea    0x10893(%rip),%rdi        # 415319 <_IO_stdin_used+0x319>
  404a86:	89 c6                	mov    %eax,%esi
  404a88:	e8 93 28 00 00       	callq  407320 <_Z14move_to_cgroupPKci>
/home/aliha951/ipdps-artifact/gapbs-master/src/profiling_utils.h:307
    execlp("/home/aliha951/ipdps-gapbs/gather_diskstats.sh", "/home/aliha951/ipdps-gapbs/gather_diskstats.sh", result_file_name, NULL);
  404a8d:	48 8d 35 4c 0d 01 00 	lea    0x10d4c(%rip),%rsi        # 4157e0 <_IO_stdin_used+0x7e0>
  404a94:	31 c9                	xor    %ecx,%ecx
  404a96:	48 8d 15 92 08 01 00 	lea    0x10892(%rip),%rdx        # 41532f <_IO_stdin_used+0x32f>
  404a9d:	31 c0                	xor    %eax,%eax
  404a9f:	48 89 f7             	mov    %rsi,%rdi
  404aa2:	e8 f9 ec ff ff       	callq  4037a0 <execlp@plt>
/home/aliha951/ipdps-artifact/gapbs-master/src/profiling_utils.h:308
    perror("execlp failed");
  404aa7:	48 8d 3d 8c 08 01 00 	lea    0x1088c(%rip),%rdi        # 41533a <_IO_stdin_used+0x33a>
  404aae:	e8 3d ee ff ff       	callq  4038f0 <perror@plt>
  404ab3:	eb bb                	jmp    404a70 <main+0xc10>
_ZStlsISt11char_traitsIcEERSt13basic_ostreamIcT_ES5_PKc():
/usr/include/c++/10/ostream:611
	__ostream_insert(__out, __s,
  404ab5:	ba 37 00 00 00       	mov    $0x37,%edx
  404aba:	48 8d 35 e7 0c 01 00 	lea    0x10ce7(%rip),%rsi        # 4157a8 <_IO_stdin_used+0x7a8>
  404ac1:	48 8d 3d f8 58 01 00 	lea    0x158f8(%rip),%rdi        # 41a3c0 <_ZSt4cout@@GLIBCXX_3.4>
  404ac8:	e8 03 ef ff ff       	callq  4039d0 <_ZSt16__ostream_insertIcSt11char_traitsIcEERSt13basic_ostreamIT_T0_ES6_PKS3_l@plt>
_ZNSolsEPFRSoS_E():
/usr/include/c++/10/ostream:113
	return __pf(*this);
  404acd:	48 8d 3d ec 58 01 00 	lea    0x158ec(%rip),%rdi        # 41a3c0 <_ZSt4cout@@GLIBCXX_3.4>
  404ad4:	e8 37 0e 00 00       	callq  405910 <_ZSt4endlIcSt11char_traitsIcEERSt13basic_ostreamIT_T0_ES6_.isra.0>
_ZN11BuilderBaseIi10NodeWeightIiiEiLb1EEC4ERK6CLBase():
/home/aliha951/ipdps-artifact/gapbs-master/src/builder.h:57
      std::cout << "In-place building (-m) does not support weighted graphs"
                << std::endl;
      exit(-30);
  404ad9:	bf e2 ff ff ff       	mov    $0xffffffe2,%edi
  404ade:	e8 4d ef ff ff       	callq  403a30 <exit@plt>
  404ae3:	f3 0f 1e fa          	endbr64 
_ZN7pvectorIiE16ReleaseResourcesEv():
/home/aliha951/ipdps-artifact/gapbs-master/src/pvector.h:73
    if (start_ != nullptr) {
  404ae7:	48 89 c3             	mov    %rax,%rbx
  404aea:	e9 bd f2 ff ff       	jmpq   403dac <main.cold+0x24>
  404aef:	f3 0f 1e fa          	endbr64 
_ZNKSt7__cxx1112basic_stringIcSt11char_traitsIcESaIcEE7_M_dataEv():
/usr/include/c++/10/bits/basic_string.h:195
      { return _M_dataplus._M_p; }
  404af3:	48 89 c3             	mov    %rax,%rbx
  404af6:	e9 e9 f2 ff ff       	jmpq   403de4 <main.cold+0x5c>
  404afb:	f3 0f 1e fa          	endbr64 
  404aff:	48 89 c3             	mov    %rax,%rbx
  404b02:	e9 81 f2 ff ff       	jmpq   403d88 <main.cold>
  404b07:	f3 0f 1e fa          	endbr64 
  404b0b:	48 89 c3             	mov    %rax,%rbx
  404b0e:	e9 ed f2 ff ff       	jmpq   403e00 <main.cold+0x78>
  404b13:	f3 0f 1e fa          	endbr64 
  404b17:	48 89 c3             	mov    %rax,%rbx
  404b1a:	e9 9a f2 ff ff       	jmpq   403db9 <main.cold+0x31>
  404b1f:	f3 0f 1e fa          	endbr64 
  404b23:	48 89 c3             	mov    %rax,%rbx
  404b26:	e9 e9 f2 ff ff       	jmpq   403e14 <main.cold+0x8c>
  404b2b:	f3 0f 1e fa          	endbr64 
_ZN5CLAppD4Ev():
/home/aliha951/ipdps-artifact/gapbs-master/src/command_line.h:140
class CLApp : public CLBase {
  404b2f:	48 89 c3             	mov    %rax,%rbx
  404b32:	e9 8c f2 ff ff       	jmpq   403dc3 <main.cold+0x3b>
  404b37:	f3 0f 1e fa          	endbr64 
_ZNKSt7__cxx1112basic_stringIcSt11char_traitsIcESaIcEE7_M_dataEv():
/usr/include/c++/10/bits/basic_string.h:195
  404b3b:	48 89 c5             	mov    %rax,%rbp
  404b3e:	e9 ec f2 ff ff       	jmpq   403e2f <main.cold+0xa7>
main():
/usr/include/c++/10/bits/basic_string.h:195
  404b43:	66 66 2e 0f 1f 84 00 	data16 nopw %cs:0x0(%rax,%rax,1)
  404b4a:	00 00 00 00 
  404b4e:	66 90                	xchg   %ax,%ax

0000000000404b50 <_GLOBAL__sub_I__Z10PrintLabelRKNSt7__cxx1112basic_stringIcSt11char_traitsIcESaIcEEES6_>:
_GLOBAL__sub_I__Z10PrintLabelRKNSt7__cxx1112basic_stringIcSt11char_traitsIcESaIcEEES6_():
/home/aliha951/ipdps-artifact/gapbs-master/src/sssp.cc:214
  404b50:	f3 0f 1e fa          	endbr64 
  404b54:	48 83 ec 08          	sub    $0x8,%rsp
/usr/include/c++/10/iostream:74
  extern wostream wclog;	/// Linked to standard error (buffered)
#endif
  ///@}

  // For construction of filebuffers for cout, cin, cerr, clog et. al.
  static ios_base::Init __ioinit;
  404b58:	48 8d 3d 91 5e 01 00 	lea    0x15e91(%rip),%rdi        # 41a9f0 <_ZStL8__ioinit>
__static_initialization_and_destruction_0():
/usr/include/c++/10/iostream:74
  404b5f:	e8 ec ef ff ff       	callq  403b50 <_ZNSt8ios_base4InitC1Ev@plt>
  404b64:	48 8b 3d 8d 54 01 00 	mov    0x1548d(%rip),%rdi        # 419ff8 <_ZNSt8ios_base4InitD1Ev@GLIBCXX_3.4>
_GLOBAL__sub_I__Z10PrintLabelRKNSt7__cxx1112basic_stringIcSt11char_traitsIcESaIcEEES6_():
/home/aliha951/ipdps-artifact/gapbs-master/src/sssp.cc:214
  404b6b:	48 83 c4 08          	add    $0x8,%rsp
__static_initialization_and_destruction_0():
/usr/include/c++/10/iostream:74
  404b6f:	48 8d 15 d2 57 01 00 	lea    0x157d2(%rip),%rdx        # 41a348 <__dso_handle>
  404b76:	48 8d 35 73 5e 01 00 	lea    0x15e73(%rip),%rsi        # 41a9f0 <_ZStL8__ioinit>
  404b7d:	e9 9e ed ff ff       	jmpq   403920 <__cxa_atexit@plt>
_GLOBAL__sub_I__Z10PrintLabelRKNSt7__cxx1112basic_stringIcSt11char_traitsIcESaIcEEES6_():
  404b82:	66 2e 0f 1f 84 00 00 	nopw   %cs:0x0(%rax,%rax,1)
  404b89:	00 00 00 
  404b8c:	0f 1f 40 00          	nopl   0x0(%rax)

0000000000404b90 <_start>:
_start():
  404b90:	f3 0f 1e fa          	endbr64 
  404b94:	31 ed                	xor    %ebp,%ebp
  404b96:	49 89 d1             	mov    %rdx,%r9
  404b99:	5e                   	pop    %rsi
  404b9a:	48 89 e2             	mov    %rsp,%rdx
  404b9d:	48 83 e4 f0          	and    $0xfffffffffffffff0,%rsp
  404ba1:	50                   	push   %rax
  404ba2:	54                   	push   %rsp
  404ba3:	49 c7 c0 f0 40 41 00 	mov    $0x4140f0,%r8
  404baa:	48 c7 c1 80 40 41 00 	mov    $0x414080,%rcx
  404bb1:	48 c7 c7 60 3e 40 00 	mov    $0x403e60,%rdi
  404bb8:	ff 15 2a 54 01 00    	callq  *0x1542a(%rip)        # 419fe8 <__libc_start_main@GLIBC_2.2.5>
  404bbe:	f4                   	hlt    
  404bbf:	90                   	nop

0000000000404bc0 <_dl_relocate_static_pie>:
_dl_relocate_static_pie():
  404bc0:	f3 0f 1e fa          	endbr64 
  404bc4:	c3                   	retq   
  404bc5:	66 2e 0f 1f 84 00 00 	nopw   %cs:0x0(%rax,%rax,1)
  404bcc:	00 00 00 
  404bcf:	90                   	nop

0000000000404bd0 <deregister_tm_clones>:
deregister_tm_clones():
  404bd0:	b8 60 a3 41 00       	mov    $0x41a360,%eax
  404bd5:	48 3d 60 a3 41 00    	cmp    $0x41a360,%rax
  404bdb:	74 13                	je     404bf0 <deregister_tm_clones+0x20>
  404bdd:	b8 00 00 00 00       	mov    $0x0,%eax
  404be2:	48 85 c0             	test   %rax,%rax
  404be5:	74 09                	je     404bf0 <deregister_tm_clones+0x20>
  404be7:	bf 60 a3 41 00       	mov    $0x41a360,%edi
  404bec:	ff e0                	jmpq   *%rax
  404bee:	66 90                	xchg   %ax,%ax
  404bf0:	c3                   	retq   
  404bf1:	66 66 2e 0f 1f 84 00 	data16 nopw %cs:0x0(%rax,%rax,1)
  404bf8:	00 00 00 00 
  404bfc:	0f 1f 40 00          	nopl   0x0(%rax)

0000000000404c00 <register_tm_clones>:
register_tm_clones():
  404c00:	be 60 a3 41 00       	mov    $0x41a360,%esi
  404c05:	48 81 ee 60 a3 41 00 	sub    $0x41a360,%rsi
  404c0c:	48 89 f0             	mov    %rsi,%rax
  404c0f:	48 c1 ee 3f          	shr    $0x3f,%rsi
  404c13:	48 c1 f8 03          	sar    $0x3,%rax
  404c17:	48 01 c6             	add    %rax,%rsi
  404c1a:	48 d1 fe             	sar    %rsi
  404c1d:	74 11                	je     404c30 <register_tm_clones+0x30>
  404c1f:	b8 00 00 00 00       	mov    $0x0,%eax
  404c24:	48 85 c0             	test   %rax,%rax
  404c27:	74 07                	je     404c30 <register_tm_clones+0x30>
  404c29:	bf 60 a3 41 00       	mov    $0x41a360,%edi
  404c2e:	ff e0                	jmpq   *%rax
  404c30:	c3                   	retq   
  404c31:	66 66 2e 0f 1f 84 00 	data16 nopw %cs:0x0(%rax,%rax,1)
  404c38:	00 00 00 00 
  404c3c:	0f 1f 40 00          	nopl   0x0(%rax)

0000000000404c40 <__do_global_dtors_aux>:
__do_global_dtors_aux():
  404c40:	f3 0f 1e fa          	endbr64 
  404c44:	80 3d 9d 58 01 00 00 	cmpb   $0x0,0x1589d(%rip)        # 41a4e8 <completed.0>
  404c4b:	75 13                	jne    404c60 <__do_global_dtors_aux+0x20>
  404c4d:	55                   	push   %rbp
  404c4e:	48 89 e5             	mov    %rsp,%rbp
  404c51:	e8 7a ff ff ff       	callq  404bd0 <deregister_tm_clones>
  404c56:	c6 05 8b 58 01 00 01 	movb   $0x1,0x1588b(%rip)        # 41a4e8 <completed.0>
  404c5d:	5d                   	pop    %rbp
  404c5e:	c3                   	retq   
  404c5f:	90                   	nop
  404c60:	c3                   	retq   
  404c61:	66 66 2e 0f 1f 84 00 	data16 nopw %cs:0x0(%rax,%rax,1)
  404c68:	00 00 00 00 
  404c6c:	0f 1f 40 00          	nopl   0x0(%rax)

0000000000404c70 <frame_dummy>:
frame_dummy():
  404c70:	f3 0f 1e fa          	endbr64 
  404c74:	eb 8a                	jmp    404c00 <register_tm_clones>
  404c76:	66 2e 0f 1f 84 00 00 	nopw   %cs:0x0(%rax,%rax,1)
  404c7d:	00 00 00 

0000000000404c80 <_ZL13get_family_idi>:
_ZL13get_family_idi():
/home/aliha951/ipdps-artifact/gapbs-master/src/taskstats_helper.h:30
	struct genlmsghdr g;
	char buf[512];
};

/* Ask generic netlink for the family id of TASKSTATS */
static int get_family_id(int sd) {
  404c80:	41 54                	push   %r12
/home/aliha951/ipdps-artifact/gapbs-master/src/taskstats_helper.h:32
	struct msgtemplate req = {0};
	struct msgtemplate ans = {0};
  404c82:	b9 42 00 00 00       	mov    $0x42,%ecx
/home/aliha951/ipdps-artifact/gapbs-master/src/taskstats_helper.h:30
static int get_family_id(int sd) {
  404c87:	55                   	push   %rbp
  404c88:	89 fd                	mov    %edi,%ebp
  404c8a:	48 81 ec 48 04 00 00 	sub    $0x448,%rsp
  404c91:	64 48 8b 04 25 28 00 	mov    %fs:0x28,%rax
  404c98:	00 00 
  404c9a:	48 89 84 24 38 04 00 	mov    %rax,0x438(%rsp)
  404ca1:	00 
  404ca2:	31 c0                	xor    %eax,%eax
/home/aliha951/ipdps-artifact/gapbs-master/src/taskstats_helper.h:32
	struct msgtemplate ans = {0};
  404ca4:	4c 8d a4 24 20 02 00 	lea    0x220(%rsp),%r12
  404cab:	00 
  404cac:	4c 89 e7             	mov    %r12,%rdi
  404caf:	f3 48 ab             	rep stos %rax,%es:(%rdi)
/home/aliha951/ipdps-artifact/gapbs-master/src/taskstats_helper.h:31
	struct msgtemplate req = {0};
  404cb2:	b9 42 00 00 00       	mov    $0x42,%ecx
/home/aliha951/ipdps-artifact/gapbs-master/src/taskstats_helper.h:32
	struct msgtemplate ans = {0};
  404cb7:	c7 07 00 00 00 00    	movl   $0x0,(%rdi)
/home/aliha951/ipdps-artifact/gapbs-master/src/taskstats_helper.h:31
	struct msgtemplate req = {0};
  404cbd:	48 89 e7             	mov    %rsp,%rdi
  404cc0:	f3 48 ab             	rep stos %rax,%es:(%rdi)
/home/aliha951/ipdps-artifact/gapbs-master/src/taskstats_helper.h:36
	struct nlattr *na;
	int rep_len;

	req.n.nlmsg_len = NLMSG_LENGTH(GENL_HDRLEN);
  404cc3:	48 b8 14 00 00 00 10 	movabs $0x1001000000014,%rax
  404cca:	00 01 00 
  404ccd:	48 89 04 24          	mov    %rax,(%rsp)
/home/aliha951/ipdps-artifact/gapbs-master/src/taskstats_helper.h:31
	struct msgtemplate req = {0};
  404cd1:	c7 07 00 00 00 00    	movl   $0x0,(%rdi)
/home/aliha951/ipdps-artifact/gapbs-master/src/taskstats_helper.h:40
	req.n.nlmsg_type = GENL_ID_CTRL;
	req.n.nlmsg_flags = NLM_F_REQUEST;
	req.n.nlmsg_seq = 0;
	req.n.nlmsg_pid = getpid();
  404cd7:	e8 44 ee ff ff       	callq  403b20 <getpid@plt>
/usr/include/x86_64-linux-gnu/bits/string_fortified.h:34

__fortify_function void *
__NTH (memcpy (void *__restrict __dest, const void *__restrict __src,
	       size_t __len))
{
  return __builtin___memcpy_chk (__dest, __src, __len, __bos0 (__dest));
  404cdc:	ba 53 00 00 00       	mov    $0x53,%edx
/home/aliha951/ipdps-artifact/gapbs-master/src/taskstats_helper.h:50
	na->nla_type = CTRL_ATTR_FAMILY_NAME;
	na->nla_len = NLA_HDRLEN + strlen(TASKSTATS_GENL_NAME) + 1;
	memcpy(NLA_DATA(na), TASKSTATS_GENL_NAME, strlen(TASKSTATS_GENL_NAME) + 1);
	req.n.nlmsg_len += NLMSG_ALIGN(na->nla_len);

	if (send(sd, &req, req.n.nlmsg_len, 0) < 0)
  404ce1:	31 c9                	xor    %ecx,%ecx
memcpy():
/usr/include/x86_64-linux-gnu/bits/string_fortified.h:34
  404ce3:	48 89 e6             	mov    %rsp,%rsi
_ZL13get_family_idi():
/home/aliha951/ipdps-artifact/gapbs-master/src/taskstats_helper.h:40
	req.n.nlmsg_pid = getpid();
  404ce6:	89 44 24 0c          	mov    %eax,0xc(%rsp)
/home/aliha951/ipdps-artifact/gapbs-master/src/taskstats_helper.h:41
	req.g.cmd = CTRL_CMD_GETFAMILY;
  404cea:	b8 03 01 00 00       	mov    $0x103,%eax
/home/aliha951/ipdps-artifact/gapbs-master/src/taskstats_helper.h:50
	if (send(sd, &req, req.n.nlmsg_len, 0) < 0)
  404cef:	89 ef                	mov    %ebp,%edi
/home/aliha951/ipdps-artifact/gapbs-master/src/taskstats_helper.h:41
	req.g.cmd = CTRL_CMD_GETFAMILY;
  404cf1:	66 89 44 24 10       	mov    %ax,0x10(%rsp)
memcpy():
/usr/include/x86_64-linux-gnu/bits/string_fortified.h:34
  404cf6:	48 b8 54 41 53 4b 53 	movabs $0x544154534b534154,%rax
  404cfd:	54 41 54 
  404d00:	48 89 44 24 18       	mov    %rax,0x18(%rsp)
_ZL13get_family_idi():
/home/aliha951/ipdps-artifact/gapbs-master/src/taskstats_helper.h:48
	req.n.nlmsg_len += NLMSG_ALIGN(na->nla_len);
  404d05:	8b 04 24             	mov    (%rsp),%eax
memcpy():
/usr/include/x86_64-linux-gnu/bits/string_fortified.h:34
  404d08:	66 89 54 24 20       	mov    %dx,0x20(%rsp)
_ZL13get_family_idi():
/home/aliha951/ipdps-artifact/gapbs-master/src/taskstats_helper.h:48
  404d0d:	8d 50 10             	lea    0x10(%rax),%edx
/home/aliha951/ipdps-artifact/gapbs-master/src/taskstats_helper.h:46
	na->nla_len = NLA_HDRLEN + strlen(TASKSTATS_GENL_NAME) + 1;
  404d10:	c7 44 24 14 0e 00 02 	movl   $0x2000e,0x14(%rsp)
  404d17:	00 
/home/aliha951/ipdps-artifact/gapbs-master/src/taskstats_helper.h:48
	req.n.nlmsg_len += NLMSG_ALIGN(na->nla_len);
  404d18:	89 14 24             	mov    %edx,(%rsp)
/home/aliha951/ipdps-artifact/gapbs-master/src/taskstats_helper.h:50
	if (send(sd, &req, req.n.nlmsg_len, 0) < 0)
  404d1b:	e8 10 eb ff ff       	callq  403830 <send@plt>
  404d20:	48 85 c0             	test   %rax,%rax
  404d23:	78 6b                	js     404d90 <_ZL13get_family_idi+0x110>
/usr/include/x86_64-linux-gnu/bits/socket2.h:44
	return __recv_chk (__fd, __buf, __n, __bos0 (__buf), __flags);

      if (__n > __bos0 (__buf))
	return __recv_chk_warn (__fd, __buf, __n, __bos0 (__buf), __flags);
    }
  return __recv_alias (__fd, __buf, __n, __flags);
  404d25:	31 c9                	xor    %ecx,%ecx
recv():
/usr/include/x86_64-linux-gnu/bits/socket2.h:44
  404d27:	ba 14 02 00 00       	mov    $0x214,%edx
  404d2c:	4c 89 e6             	mov    %r12,%rsi
  404d2f:	89 ef                	mov    %ebp,%edi
  404d31:	e8 9a ea ff ff       	callq  4037d0 <recv@plt>
_ZL13get_family_idi():
/home/aliha951/ipdps-artifact/gapbs-master/src/taskstats_helper.h:54
		return -1;

	rep_len = recv(sd, &ans, sizeof(ans), 0);
	if (rep_len < 0 || ans.n.nlmsg_type == NLMSG_ERROR)
  404d36:	85 c0                	test   %eax,%eax
  404d38:	78 56                	js     404d90 <_ZL13get_family_idi+0x110>
/home/aliha951/ipdps-artifact/gapbs-master/src/taskstats_helper.h:54 (discriminator 1)
  404d3a:	66 83 bc 24 24 02 00 	cmpw   $0x2,0x224(%rsp)
  404d41:	00 02 
  404d43:	74 4b                	je     404d90 <_ZL13get_family_idi+0x110>
/home/aliha951/ipdps-artifact/gapbs-master/src/taskstats_helper.h:59
		return -1;

	/* First attr is family name we sent, second should be ID */
	na = (struct nlattr *) GENLMSG_DATA(&ans.n);
	na = (struct nlattr *) ((char*)na + NLA_ALIGN(na->nla_len));
  404d45:	0f b7 84 24 34 02 00 	movzwl 0x234(%rsp),%eax
  404d4c:	00 
  404d4d:	83 c0 03             	add    $0x3,%eax
  404d50:	25 fc ff 01 00       	and    $0x1fffc,%eax
  404d55:	48 8d 84 04 34 02 00 	lea    0x234(%rsp,%rax,1),%rax
  404d5c:	00 
/home/aliha951/ipdps-artifact/gapbs-master/src/taskstats_helper.h:60
	if (na->nla_type == CTRL_ATTR_FAMILY_ID)
  404d5d:	66 83 78 02 01       	cmpw   $0x1,0x2(%rax)
  404d62:	75 2c                	jne    404d90 <_ZL13get_family_idi+0x110>
/home/aliha951/ipdps-artifact/gapbs-master/src/taskstats_helper.h:61
		return *(__u16 *) NLA_DATA(na);
  404d64:	0f b7 40 04          	movzwl 0x4(%rax),%eax
/home/aliha951/ipdps-artifact/gapbs-master/src/taskstats_helper.h:63
	return -1;
}
  404d68:	48 8b b4 24 38 04 00 	mov    0x438(%rsp),%rsi
  404d6f:	00 
  404d70:	64 48 2b 34 25 28 00 	sub    %fs:0x28,%rsi
  404d77:	00 00 
  404d79:	75 1c                	jne    404d97 <_ZL13get_family_idi+0x117>
  404d7b:	48 81 c4 48 04 00 00 	add    $0x448,%rsp
  404d82:	5d                   	pop    %rbp
  404d83:	41 5c                	pop    %r12
  404d85:	c3                   	retq   
  404d86:	66 2e 0f 1f 84 00 00 	nopw   %cs:0x0(%rax,%rax,1)
  404d8d:	00 00 00 
/home/aliha951/ipdps-artifact/gapbs-master/src/taskstats_helper.h:51
		return -1;
  404d90:	b8 ff ff ff ff       	mov    $0xffffffff,%eax
  404d95:	eb d1                	jmp    404d68 <_ZL13get_family_idi+0xe8>
/home/aliha951/ipdps-artifact/gapbs-master/src/taskstats_helper.h:63
}
  404d97:	e8 24 ec ff ff       	callq  4039c0 <__stack_chk_fail@plt>
  404d9c:	0f 1f 40 00          	nopl   0x0(%rax)

0000000000404da0 <_ZL21request_taskstats_pidiiiP9taskstatsPm>:
_ZL21request_taskstats_pidiiiP9taskstatsPm():
/home/aliha951/ipdps-artifact/gapbs-master/src/taskstats_helper.h:80
		return -1;
	}
	return sd;
}

static int request_taskstats_pid(int sd, int family_id, pid_t pid, struct taskstats *out_ts, size_t *out_len) {
  404da0:	41 57                	push   %r15
  404da2:	41 89 d7             	mov    %edx,%r15d
  404da5:	41 56                	push   %r14
  404da7:	41 55                	push   %r13
  404da9:	41 89 fd             	mov    %edi,%r13d
  404dac:	41 54                	push   %r12
  404dae:	49 89 cc             	mov    %rcx,%r12
/home/aliha951/ipdps-artifact/gapbs-master/src/taskstats_helper.h:81
	struct msgtemplate req = {0};
  404db1:	b9 42 00 00 00       	mov    $0x42,%ecx
/home/aliha951/ipdps-artifact/gapbs-master/src/taskstats_helper.h:80
static int request_taskstats_pid(int sd, int family_id, pid_t pid, struct taskstats *out_ts, size_t *out_len) {
  404db6:	55                   	push   %rbp
/usr/include/x86_64-linux-gnu/bits/string_fortified.h:71
    {
      __warn_memset_zero_len ();
      return __dest;
    }
#endif
  return __builtin___memset_chk (__dest, __ch, __len, __bos0 (__dest));
  404db7:	49 8d 6c 24 08       	lea    0x8(%r12),%rbp
/home/aliha951/ipdps-artifact/gapbs-master/src/taskstats_helper.h:80
  404dbc:	53                   	push   %rbx
  404dbd:	4c 89 c3             	mov    %r8,%rbx
  404dc0:	48 81 ec 48 04 00 00 	sub    $0x448,%rsp
  404dc7:	64 48 8b 04 25 28 00 	mov    %fs:0x28,%rax
  404dce:	00 00 
  404dd0:	48 89 84 24 38 04 00 	mov    %rax,0x438(%rsp)
  404dd7:	00 
  404dd8:	31 c0                	xor    %eax,%eax
/home/aliha951/ipdps-artifact/gapbs-master/src/taskstats_helper.h:81
	struct msgtemplate req = {0};
  404dda:	48 89 e7             	mov    %rsp,%rdi
/home/aliha951/ipdps-artifact/gapbs-master/src/taskstats_helper.h:85
	struct msgtemplate rep = {0};
	struct nlattr *na;

	*out_len = 0;
  404ddd:	49 c7 00 00 00 00 00 	movq   $0x0,(%r8)
/home/aliha951/ipdps-artifact/gapbs-master/src/taskstats_helper.h:82
	struct msgtemplate rep = {0};
  404de4:	4c 8d b4 24 20 02 00 	lea    0x220(%rsp),%r14
  404deb:	00 
/home/aliha951/ipdps-artifact/gapbs-master/src/taskstats_helper.h:81
	struct msgtemplate req = {0};
  404dec:	f3 48 ab             	rep stos %rax,%es:(%rdi)
/home/aliha951/ipdps-artifact/gapbs-master/src/taskstats_helper.h:82
	struct msgtemplate rep = {0};
  404def:	b9 42 00 00 00       	mov    $0x42,%ecx
/home/aliha951/ipdps-artifact/gapbs-master/src/taskstats_helper.h:81
	struct msgtemplate req = {0};
  404df4:	c7 07 00 00 00 00    	movl   $0x0,(%rdi)
/home/aliha951/ipdps-artifact/gapbs-master/src/taskstats_helper.h:82
	struct msgtemplate rep = {0};
  404dfa:	4c 89 f7             	mov    %r14,%rdi
  404dfd:	f3 48 ab             	rep stos %rax,%es:(%rdi)
memset():
/usr/include/x86_64-linux-gnu/bits/string_fortified.h:71
  404e00:	4c 89 e1             	mov    %r12,%rcx
_ZL21request_taskstats_pidiiiP9taskstatsPm():
/home/aliha951/ipdps-artifact/gapbs-master/src/taskstats_helper.h:82
  404e03:	c7 07 00 00 00 00    	movl   $0x0,(%rdi)
memset():
/usr/include/x86_64-linux-gnu/bits/string_fortified.h:71
  404e09:	48 89 ef             	mov    %rbp,%rdi
  404e0c:	48 83 e7 f8          	and    $0xfffffffffffffff8,%rdi
  404e10:	49 c7 04 24 00 00 00 	movq   $0x0,(%r12)
  404e17:	00 
  404e18:	49 c7 84 24 a8 01 00 	movq   $0x0,0x1a8(%r12)
  404e1f:	00 00 00 00 00 
  404e24:	48 29 f9             	sub    %rdi,%rcx
  404e27:	81 c1 b0 01 00 00    	add    $0x1b0,%ecx
  404e2d:	c1 e9 03             	shr    $0x3,%ecx
  404e30:	f3 48 ab             	rep stos %rax,%es:(%rdi)
_ZL21request_taskstats_pidiiiP9taskstatsPm():
/home/aliha951/ipdps-artifact/gapbs-master/src/taskstats_helper.h:90
	memset(out_ts, 0, sizeof(*out_ts));

	req.n.nlmsg_len = NLMSG_LENGTH(GENL_HDRLEN);
	req.n.nlmsg_type = family_id;
	req.n.nlmsg_flags = NLM_F_REQUEST;
  404e33:	b8 01 00 00 00       	mov    $0x1,%eax
/home/aliha951/ipdps-artifact/gapbs-master/src/taskstats_helper.h:89
	req.n.nlmsg_type = family_id;
  404e38:	66 89 74 24 04       	mov    %si,0x4(%rsp)
/home/aliha951/ipdps-artifact/gapbs-master/src/taskstats_helper.h:88
	req.n.nlmsg_len = NLMSG_LENGTH(GENL_HDRLEN);
  404e3d:	c7 04 24 14 00 00 00 	movl   $0x14,(%rsp)
/home/aliha951/ipdps-artifact/gapbs-master/src/taskstats_helper.h:90
	req.n.nlmsg_flags = NLM_F_REQUEST;
  404e44:	66 89 44 24 06       	mov    %ax,0x6(%rsp)
/home/aliha951/ipdps-artifact/gapbs-master/src/taskstats_helper.h:91
	req.n.nlmsg_seq = 1;
  404e49:	c7 44 24 08 01 00 00 	movl   $0x1,0x8(%rsp)
  404e50:	00 
/home/aliha951/ipdps-artifact/gapbs-master/src/taskstats_helper.h:92
	req.n.nlmsg_pid = getpid();
  404e51:	e8 ca ec ff ff       	callq  403b20 <getpid@plt>
/home/aliha951/ipdps-artifact/gapbs-master/src/taskstats_helper.h:93
	req.g.cmd = TASKSTATS_CMD_GET;
  404e56:	ba 01 0e 00 00       	mov    $0xe01,%edx
/home/aliha951/ipdps-artifact/gapbs-master/src/taskstats_helper.h:103
  na->nla_type = TASKSTATS_CMD_ATTR_TGID; // Use TGID to get stats for thread group (process) instead of single thread
	na->nla_len = NLA_HDRLEN + sizeof(pid);
	memcpy(NLA_DATA(na), &pid, sizeof(pid));
	req.n.nlmsg_len += NLMSG_ALIGN(na->nla_len);

	if (send(sd, &req, req.n.nlmsg_len, 0) < 0)
  404e5b:	31 c9                	xor    %ecx,%ecx
  404e5d:	48 89 e6             	mov    %rsp,%rsi
/home/aliha951/ipdps-artifact/gapbs-master/src/taskstats_helper.h:92
	req.n.nlmsg_pid = getpid();
  404e60:	89 44 24 0c          	mov    %eax,0xc(%rsp)
/home/aliha951/ipdps-artifact/gapbs-master/src/taskstats_helper.h:101
	req.n.nlmsg_len += NLMSG_ALIGN(na->nla_len);
  404e64:	8b 04 24             	mov    (%rsp),%eax
/home/aliha951/ipdps-artifact/gapbs-master/src/taskstats_helper.h:103
	if (send(sd, &req, req.n.nlmsg_len, 0) < 0)
  404e67:	44 89 ef             	mov    %r13d,%edi
/home/aliha951/ipdps-artifact/gapbs-master/src/taskstats_helper.h:93
	req.g.cmd = TASKSTATS_CMD_GET;
  404e6a:	66 89 54 24 10       	mov    %dx,0x10(%rsp)
/home/aliha951/ipdps-artifact/gapbs-master/src/taskstats_helper.h:101
	req.n.nlmsg_len += NLMSG_ALIGN(na->nla_len);
  404e6f:	8d 50 08             	lea    0x8(%rax),%edx
/home/aliha951/ipdps-artifact/gapbs-master/src/taskstats_helper.h:99
	na->nla_len = NLA_HDRLEN + sizeof(pid);
  404e72:	c7 44 24 14 08 00 02 	movl   $0x20008,0x14(%rsp)
  404e79:	00 
/usr/include/x86_64-linux-gnu/bits/string_fortified.h:34
  return __builtin___memcpy_chk (__dest, __src, __len, __bos0 (__dest));
  404e7a:	44 89 7c 24 18       	mov    %r15d,0x18(%rsp)
/home/aliha951/ipdps-artifact/gapbs-master/src/taskstats_helper.h:101
	req.n.nlmsg_len += NLMSG_ALIGN(na->nla_len);
  404e7f:	89 14 24             	mov    %edx,(%rsp)
/home/aliha951/ipdps-artifact/gapbs-master/src/taskstats_helper.h:103
	if (send(sd, &req, req.n.nlmsg_len, 0) < 0)
  404e82:	e8 a9 e9 ff ff       	callq  403830 <send@plt>
  404e87:	48 85 c0             	test   %rax,%rax
  404e8a:	0f 88 18 01 00 00    	js     404fa8 <_ZL21request_taskstats_pidiiiP9taskstatsPm+0x208>
/usr/include/x86_64-linux-gnu/bits/socket2.h:44
  404e90:	31 c9                	xor    %ecx,%ecx
recv():
/usr/include/x86_64-linux-gnu/bits/socket2.h:44
  404e92:	ba 14 02 00 00       	mov    $0x214,%edx
  404e97:	4c 89 f6             	mov    %r14,%rsi
  404e9a:	44 89 ef             	mov    %r13d,%edi
  404e9d:	e8 2e e9 ff ff       	callq  4037d0 <recv@plt>
_ZL21request_taskstats_pidiiiP9taskstatsPm():
/home/aliha951/ipdps-artifact/gapbs-master/src/taskstats_helper.h:105
		return -1;
	if (recv(sd, &rep, sizeof(rep), 0) < 0)
  404ea2:	48 85 c0             	test   %rax,%rax
  404ea5:	0f 88 fd 00 00 00    	js     404fa8 <_ZL21request_taskstats_pidiiiP9taskstatsPm+0x208>
/home/aliha951/ipdps-artifact/gapbs-master/src/taskstats_helper.h:109
		return -1;

	na = (struct nlattr *) GENLMSG_DATA(&rep.n);
	int rem = rep.n.nlmsg_len - NLMSG_LENGTH(GENL_HDRLEN);
  404eab:	8b 84 24 20 02 00 00 	mov    0x220(%rsp),%eax
  404eb2:	8d 70 ec             	lea    -0x14(%rax),%esi
/home/aliha951/ipdps-artifact/gapbs-master/src/taskstats_helper.h:110
	while (rem > 0 && na->nla_len >= NLA_HDRLEN && rem >= na->nla_len) {
  404eb5:	85 f6                	test   %esi,%esi
  404eb7:	0f 8e eb 00 00 00    	jle    404fa8 <_ZL21request_taskstats_pidiiiP9taskstatsPm+0x208>
/home/aliha951/ipdps-artifact/gapbs-master/src/taskstats_helper.h:108
	na = (struct nlattr *) GENLMSG_DATA(&rep.n);
  404ebd:	48 8d 8c 24 34 02 00 	lea    0x234(%rsp),%rcx
  404ec4:	00 
  404ec5:	eb 29                	jmp    404ef0 <_ZL21request_taskstats_pidiiiP9taskstatsPm+0x150>
  404ec7:	66 0f 1f 84 00 00 00 	nopw   0x0(%rax,%rax,1)
  404ece:	00 00 
/home/aliha951/ipdps-artifact/gapbs-master/src/taskstats_helper.h:126
				}
				int step2 = NLA_ALIGN(n2->nla_len);
				aggr_len -= step2;
				n2 = (struct nlattr *) ((char*)n2 + step2);
			}
		} else if (na->nla_type == TASKSTATS_TYPE_STATS) {
  404ed0:	66 83 f8 03          	cmp    $0x3,%ax
  404ed4:	0f 84 26 01 00 00    	je     405000 <_ZL21request_taskstats_pidiiiP9taskstatsPm+0x260>
/home/aliha951/ipdps-artifact/gapbs-master/src/taskstats_helper.h:133
			if (payload > sizeof(*out_ts)) payload = sizeof(*out_ts);
			memcpy(out_ts, NLA_DATA(na), payload);
			*out_len = payload;
			return 0;
		}
		int step = NLA_ALIGN(na->nla_len);
  404eda:	83 c2 03             	add    $0x3,%edx
  404edd:	83 e2 fc             	and    $0xfffffffc,%edx
/home/aliha951/ipdps-artifact/gapbs-master/src/taskstats_helper.h:134
		rem -= step;
  404ee0:	29 d6                	sub    %edx,%esi
/home/aliha951/ipdps-artifact/gapbs-master/src/taskstats_helper.h:135
		na = (struct nlattr *) ((char*)na + step);
  404ee2:	48 63 d2             	movslq %edx,%rdx
  404ee5:	48 01 d1             	add    %rdx,%rcx
/home/aliha951/ipdps-artifact/gapbs-master/src/taskstats_helper.h:110
	while (rem > 0 && na->nla_len >= NLA_HDRLEN && rem >= na->nla_len) {
  404ee8:	85 f6                	test   %esi,%esi
  404eea:	0f 8e b8 00 00 00    	jle    404fa8 <_ZL21request_taskstats_pidiiiP9taskstatsPm+0x208>
/home/aliha951/ipdps-artifact/gapbs-master/src/taskstats_helper.h:110 (discriminator 1)
  404ef0:	0f b7 11             	movzwl (%rcx),%edx
  404ef3:	66 83 fa 03          	cmp    $0x3,%dx
  404ef7:	0f 86 ab 00 00 00    	jbe    404fa8 <_ZL21request_taskstats_pidiiiP9taskstatsPm+0x208>
/home/aliha951/ipdps-artifact/gapbs-master/src/taskstats_helper.h:110 (discriminator 2)
  404efd:	39 f2                	cmp    %esi,%edx
  404eff:	0f 8f a3 00 00 00    	jg     404fa8 <_ZL21request_taskstats_pidiiiP9taskstatsPm+0x208>
/home/aliha951/ipdps-artifact/gapbs-master/src/taskstats_helper.h:111
		if (na->nla_type == TASKSTATS_TYPE_AGGR_PID || na->nla_type == TASKSTATS_TYPE_AGGR_TGID) {
  404f05:	0f b7 41 02          	movzwl 0x2(%rcx),%eax
  404f09:	8d 78 fc             	lea    -0x4(%rax),%edi
  404f0c:	66 83 ff 01          	cmp    $0x1,%di
  404f10:	77 be                	ja     404ed0 <_ZL21request_taskstats_pidiiiP9taskstatsPm+0x130>
/home/aliha951/ipdps-artifact/gapbs-master/src/taskstats_helper.h:114
			while (aggr_len > 0 && n2->nla_len >= NLA_HDRLEN && aggr_len >= n2->nla_len) {
  404f12:	41 89 d0             	mov    %edx,%r8d
/home/aliha951/ipdps-artifact/gapbs-master/src/taskstats_helper.h:113
			struct nlattr *n2 = (struct nlattr *) NLA_DATA(na);
  404f15:	48 8d 79 04          	lea    0x4(%rcx),%rdi
/home/aliha951/ipdps-artifact/gapbs-master/src/taskstats_helper.h:114
			while (aggr_len > 0 && n2->nla_len >= NLA_HDRLEN && aggr_len >= n2->nla_len) {
  404f19:	41 83 e8 04          	sub    $0x4,%r8d
  404f1d:	75 1c                	jne    404f3b <_ZL21request_taskstats_pidiiiP9taskstatsPm+0x19b>
  404f1f:	eb b9                	jmp    404eda <_ZL21request_taskstats_pidiiiP9taskstatsPm+0x13a>
  404f21:	0f 1f 80 00 00 00 00 	nopl   0x0(%rax)
/home/aliha951/ipdps-artifact/gapbs-master/src/taskstats_helper.h:122
				int step2 = NLA_ALIGN(n2->nla_len);
  404f28:	83 c0 03             	add    $0x3,%eax
  404f2b:	83 e0 fc             	and    $0xfffffffc,%eax
/home/aliha951/ipdps-artifact/gapbs-master/src/taskstats_helper.h:123
				aggr_len -= step2;
  404f2e:	41 29 c0             	sub    %eax,%r8d
/home/aliha951/ipdps-artifact/gapbs-master/src/taskstats_helper.h:124
				n2 = (struct nlattr *) ((char*)n2 + step2);
  404f31:	48 98                	cltq   
  404f33:	48 01 c7             	add    %rax,%rdi
/home/aliha951/ipdps-artifact/gapbs-master/src/taskstats_helper.h:114
			while (aggr_len > 0 && n2->nla_len >= NLA_HDRLEN && aggr_len >= n2->nla_len) {
  404f36:	45 85 c0             	test   %r8d,%r8d
  404f39:	7e 9f                	jle    404eda <_ZL21request_taskstats_pidiiiP9taskstatsPm+0x13a>
/home/aliha951/ipdps-artifact/gapbs-master/src/taskstats_helper.h:114 (discriminator 1)
  404f3b:	0f b7 07             	movzwl (%rdi),%eax
  404f3e:	66 83 f8 03          	cmp    $0x3,%ax
  404f42:	76 96                	jbe    404eda <_ZL21request_taskstats_pidiiiP9taskstatsPm+0x13a>
/home/aliha951/ipdps-artifact/gapbs-master/src/taskstats_helper.h:114 (discriminator 2)
  404f44:	44 39 c0             	cmp    %r8d,%eax
  404f47:	7f 91                	jg     404eda <_ZL21request_taskstats_pidiiiP9taskstatsPm+0x13a>
/home/aliha951/ipdps-artifact/gapbs-master/src/taskstats_helper.h:115
				if (n2->nla_type == TASKSTATS_TYPE_STATS) {
  404f49:	66 83 7f 02 03       	cmpw   $0x3,0x2(%rdi)
  404f4e:	75 d8                	jne    404f28 <_ZL21request_taskstats_pidiiiP9taskstatsPm+0x188>
/home/aliha951/ipdps-artifact/gapbs-master/src/taskstats_helper.h:116
					size_t payload = n2->nla_len - NLA_HDRLEN;
  404f50:	83 e8 04             	sub    $0x4,%eax
  404f53:	ba b0 01 00 00       	mov    $0x1b0,%edx
/home/aliha951/ipdps-artifact/gapbs-master/src/taskstats_helper.h:118
					memcpy(out_ts, NLA_DATA(n2), payload);
  404f58:	48 8d 77 04          	lea    0x4(%rdi),%rsi
/home/aliha951/ipdps-artifact/gapbs-master/src/taskstats_helper.h:116
					size_t payload = n2->nla_len - NLA_HDRLEN;
  404f5c:	48 98                	cltq   
/home/aliha951/ipdps-artifact/gapbs-master/src/taskstats_helper.h:117
					if (payload > sizeof(*out_ts)) payload = sizeof(*out_ts);
  404f5e:	48 3d b0 01 00 00    	cmp    $0x1b0,%rax
  404f64:	48 0f 47 c2          	cmova  %rdx,%rax
/usr/include/x86_64-linux-gnu/bits/string_fortified.h:34
  404f68:	83 f8 08             	cmp    $0x8,%eax
memcpy():
/usr/include/x86_64-linux-gnu/bits/string_fortified.h:34
  404f6b:	72 6b                	jb     404fd8 <_ZL21request_taskstats_pidiiiP9taskstatsPm+0x238>
  404f6d:	48 8b 57 04          	mov    0x4(%rdi),%rdx
_ZL21request_taskstats_pidiiiP9taskstatsPm():
/usr/include/x86_64-linux-gnu/bits/string_fortified.h:34
  404f71:	49 89 14 24          	mov    %rdx,(%r12)
memcpy():
/usr/include/x86_64-linux-gnu/bits/string_fortified.h:34
  404f75:	89 c2                	mov    %eax,%edx
  404f77:	48 89 ef             	mov    %rbp,%rdi
  404f7a:	48 8b 4c 16 f8       	mov    -0x8(%rsi,%rdx,1),%rcx
  404f7f:	48 83 e7 f8          	and    $0xfffffffffffffff8,%rdi
  404f83:	49 89 4c 14 f8       	mov    %rcx,-0x8(%r12,%rdx,1)
  404f88:	49 29 fc             	sub    %rdi,%r12
  404f8b:	4c 29 e6             	sub    %r12,%rsi
  404f8e:	41 01 c4             	add    %eax,%r12d
  404f91:	41 c1 ec 03          	shr    $0x3,%r12d
  404f95:	44 89 e1             	mov    %r12d,%ecx
  404f98:	f3 48 a5             	rep movsq %ds:(%rsi),%es:(%rdi)
_ZL21request_taskstats_pidiiiP9taskstatsPm():
/home/aliha951/ipdps-artifact/gapbs-master/src/taskstats_helper.h:130
			*out_len = payload;
  404f9b:	48 89 03             	mov    %rax,(%rbx)
/home/aliha951/ipdps-artifact/gapbs-master/src/taskstats_helper.h:131
			return 0;
  404f9e:	31 c0                	xor    %eax,%eax
  404fa0:	eb 0b                	jmp    404fad <_ZL21request_taskstats_pidiiiP9taskstatsPm+0x20d>
  404fa2:	66 0f 1f 44 00 00    	nopw   0x0(%rax,%rax,1)
/home/aliha951/ipdps-artifact/gapbs-master/src/taskstats_helper.h:104
		return -1;
  404fa8:	b8 ff ff ff ff       	mov    $0xffffffff,%eax
/home/aliha951/ipdps-artifact/gapbs-master/src/taskstats_helper.h:138
	}
	return -1; /* Not found */
}
  404fad:	48 8b 9c 24 38 04 00 	mov    0x438(%rsp),%rbx
  404fb4:	00 
  404fb5:	64 48 2b 1c 25 28 00 	sub    %fs:0x28,%rbx
  404fbc:	00 00 
  404fbe:	75 7c                	jne    40503c <_ZL21request_taskstats_pidiiiP9taskstatsPm+0x29c>
  404fc0:	48 81 c4 48 04 00 00 	add    $0x448,%rsp
  404fc7:	5b                   	pop    %rbx
  404fc8:	5d                   	pop    %rbp
  404fc9:	41 5c                	pop    %r12
  404fcb:	41 5d                	pop    %r13
  404fcd:	41 5e                	pop    %r14
  404fcf:	41 5f                	pop    %r15
  404fd1:	c3                   	retq   
  404fd2:	66 0f 1f 44 00 00    	nopw   0x0(%rax,%rax,1)
memcpy():
/usr/include/x86_64-linux-gnu/bits/string_fortified.h:34
  404fd8:	a8 04                	test   $0x4,%al
  404fda:	75 4a                	jne    405026 <_ZL21request_taskstats_pidiiiP9taskstatsPm+0x286>
  404fdc:	85 c0                	test   %eax,%eax
  404fde:	74 bb                	je     404f9b <_ZL21request_taskstats_pidiiiP9taskstatsPm+0x1fb>
  404fe0:	0f b6 16             	movzbl (%rsi),%edx
  404fe3:	41 88 14 24          	mov    %dl,(%r12)
  404fe7:	a8 02                	test   $0x2,%al
  404fe9:	74 b0                	je     404f9b <_ZL21request_taskstats_pidiiiP9taskstatsPm+0x1fb>
  404feb:	89 c2                	mov    %eax,%edx
  404fed:	0f b7 4c 16 fe       	movzwl -0x2(%rsi,%rdx,1),%ecx
  404ff2:	66 41 89 4c 14 fe    	mov    %cx,-0x2(%r12,%rdx,1)
  404ff8:	eb a1                	jmp    404f9b <_ZL21request_taskstats_pidiiiP9taskstatsPm+0x1fb>
  404ffa:	66 0f 1f 44 00 00    	nopw   0x0(%rax,%rax,1)
_ZL21request_taskstats_pidiiiP9taskstatsPm():
/home/aliha951/ipdps-artifact/gapbs-master/src/taskstats_helper.h:127
			size_t payload = na->nla_len - NLA_HDRLEN;
  405000:	8d 42 fc             	lea    -0x4(%rdx),%eax
  405003:	ba b0 01 00 00       	mov    $0x1b0,%edx
/home/aliha951/ipdps-artifact/gapbs-master/src/taskstats_helper.h:129
			memcpy(out_ts, NLA_DATA(na), payload);
  405008:	48 8d 71 04          	lea    0x4(%rcx),%rsi
/home/aliha951/ipdps-artifact/gapbs-master/src/taskstats_helper.h:127
			size_t payload = na->nla_len - NLA_HDRLEN;
  40500c:	48 98                	cltq   
/home/aliha951/ipdps-artifact/gapbs-master/src/taskstats_helper.h:128
			if (payload > sizeof(*out_ts)) payload = sizeof(*out_ts);
  40500e:	48 3d b0 01 00 00    	cmp    $0x1b0,%rax
  405014:	48 0f 47 c2          	cmova  %rdx,%rax
memcpy():
/usr/include/x86_64-linux-gnu/bits/string_fortified.h:34
  405018:	83 f8 08             	cmp    $0x8,%eax
  40501b:	72 bb                	jb     404fd8 <_ZL21request_taskstats_pidiiiP9taskstatsPm+0x238>
  40501d:	48 8b 51 04          	mov    0x4(%rcx),%rdx
  405021:	e9 4b ff ff ff       	jmpq   404f71 <_ZL21request_taskstats_pidiiiP9taskstatsPm+0x1d1>
  405026:	8b 16                	mov    (%rsi),%edx
  405028:	41 89 14 24          	mov    %edx,(%r12)
  40502c:	89 c2                	mov    %eax,%edx
  40502e:	8b 4c 16 fc          	mov    -0x4(%rsi,%rdx,1),%ecx
  405032:	41 89 4c 14 fc       	mov    %ecx,-0x4(%r12,%rdx,1)
  405037:	e9 5f ff ff ff       	jmpq   404f9b <_ZL21request_taskstats_pidiiiP9taskstatsPm+0x1fb>
_ZL21request_taskstats_pidiiiP9taskstatsPm():
/home/aliha951/ipdps-artifact/gapbs-master/src/taskstats_helper.h:138
}
  40503c:	e8 7f e9 ff ff       	callq  4039c0 <__stack_chk_fail@plt>
  405041:	66 66 2e 0f 1f 84 00 	data16 nopw %cs:0x0(%rax,%rax,1)
  405048:	00 00 00 00 
  40504c:	0f 1f 40 00          	nopl   0x0(%rax)

0000000000405050 <_ZN7pvectorIiE4fillEi._omp_fn.0>:
_ZN7pvectorIiE4fillEi._omp_fn.0():
/home/aliha951/ipdps-artifact/gapbs-master/src/pvector.h:133
    *end_size_ = val;
    end_size_++;
  }

  void fill(T_ init_val) {
    #pragma omp parallel for
  405050:	f3 0f 1e fa          	endbr64 
  405054:	41 55                	push   %r13
  405056:	41 54                	push   %r12
  405058:	55                   	push   %rbp
  405059:	53                   	push   %rbx
  40505a:	48 83 ec 08          	sub    $0x8,%rsp
  40505e:	48 8b 07             	mov    (%rdi),%rax
/home/aliha951/ipdps-artifact/gapbs-master/src/pvector.h:134
    for (T_* ptr=start_; ptr < end_size_; ptr++)
  405061:	48 8b 28             	mov    (%rax),%rbp
  405064:	4c 8b 68 08          	mov    0x8(%rax),%r13
  405068:	4c 39 ed             	cmp    %r13,%rbp
  40506b:	0f 83 dd 00 00 00    	jae    40514e <_ZN7pvectorIiE4fillEi._omp_fn.0+0xfe>
  405071:	49 89 fc             	mov    %rdi,%r12
  405074:	e8 97 ea ff ff       	callq  403b10 <omp_get_num_threads@plt>
  405079:	48 63 d8             	movslq %eax,%rbx
  40507c:	e8 6f e9 ff ff       	callq  4039f0 <omp_get_thread_num@plt>
  405081:	48 63 c8             	movslq %eax,%rcx
  405084:	49 8d 45 03          	lea    0x3(%r13),%rax
  405088:	48 29 e8             	sub    %rbp,%rax
  40508b:	48 89 c2             	mov    %rax,%rdx
  40508e:	48 8d 40 03          	lea    0x3(%rax),%rax
  405092:	48 0f 49 c2          	cmovns %rdx,%rax
  405096:	48 c1 f8 02          	sar    $0x2,%rax
  40509a:	48 99                	cqto   
  40509c:	48 f7 fb             	idiv   %rbx
  40509f:	48 39 d1             	cmp    %rdx,%rcx
  4050a2:	0f 8c b8 00 00 00    	jl     405160 <_ZN7pvectorIiE4fillEi._omp_fn.0+0x110>
  4050a8:	48 0f af c8          	imul   %rax,%rcx
  4050ac:	48 01 ca             	add    %rcx,%rdx
  4050af:	48 01 d0             	add    %rdx,%rax
  4050b2:	48 39 c2             	cmp    %rax,%rdx
  4050b5:	0f 8d 93 00 00 00    	jge    40514e <_ZN7pvectorIiE4fillEi._omp_fn.0+0xfe>
  4050bb:	48 c1 e2 02          	shl    $0x2,%rdx
  4050bf:	48 c1 e0 02          	shl    $0x2,%rax
/home/aliha951/ipdps-artifact/gapbs-master/src/pvector.h:133
    #pragma omp parallel for
  4050c3:	41 8b 7c 24 08       	mov    0x8(%r12),%edi
  4050c8:	48 8d 74 15 00       	lea    0x0(%rbp,%rdx,1),%rsi
  4050cd:	48 01 c5             	add    %rax,%rbp
  4050d0:	48 29 d0             	sub    %rdx,%rax
  4050d3:	48 83 e8 01          	sub    $0x1,%rax
  4050d7:	4c 8d 46 01          	lea    0x1(%rsi),%r8
  4050db:	48 89 f1             	mov    %rsi,%rcx
  4050de:	48 89 c2             	mov    %rax,%rdx
  4050e1:	48 c1 ea 02          	shr    $0x2,%rdx
  4050e5:	48 83 c2 01          	add    $0x1,%rdx
  4050e9:	4c 39 c5             	cmp    %r8,%rbp
  4050ec:	41 b8 01 00 00 00    	mov    $0x1,%r8d
  4050f2:	49 0f 42 d0          	cmovb  %r8,%rdx
  4050f6:	72 3c                	jb     405134 <_ZN7pvectorIiE4fillEi._omp_fn.0+0xe4>
  4050f8:	48 83 f8 0b          	cmp    $0xb,%rax
  4050fc:	76 36                	jbe    405134 <_ZN7pvectorIiE4fillEi._omp_fn.0+0xe4>
  4050fe:	48 89 d0             	mov    %rdx,%rax
  405101:	66 0f 6e cf          	movd   %edi,%xmm1
  405105:	48 c1 e8 02          	shr    $0x2,%rax
  405109:	66 0f 70 c1 00       	pshufd $0x0,%xmm1,%xmm0
  40510e:	48 c1 e0 04          	shl    $0x4,%rax
  405112:	48 01 f0             	add    %rsi,%rax
  405115:	0f 1f 00             	nopl   (%rax)
/home/aliha951/ipdps-artifact/gapbs-master/src/pvector.h:135 (discriminator 1)
      *ptr = init_val;
  405118:	0f 11 01             	movups %xmm0,(%rcx)
  40511b:	48 83 c1 10          	add    $0x10,%rcx
  40511f:	48 39 c1             	cmp    %rax,%rcx
  405122:	75 f4                	jne    405118 <_ZN7pvectorIiE4fillEi._omp_fn.0+0xc8>
  405124:	48 89 d0             	mov    %rdx,%rax
  405127:	48 83 e0 fc          	and    $0xfffffffffffffffc,%rax
  40512b:	48 8d 34 86          	lea    (%rsi,%rax,4),%rsi
  40512f:	48 39 c2             	cmp    %rax,%rdx
  405132:	74 1a                	je     40514e <_ZN7pvectorIiE4fillEi._omp_fn.0+0xfe>
  405134:	48 8d 46 04          	lea    0x4(%rsi),%rax
/home/aliha951/ipdps-artifact/gapbs-master/src/pvector.h:135
  405138:	89 3e                	mov    %edi,(%rsi)
  40513a:	48 39 c5             	cmp    %rax,%rbp
  40513d:	76 0f                	jbe    40514e <_ZN7pvectorIiE4fillEi._omp_fn.0+0xfe>
  40513f:	48 8d 46 08          	lea    0x8(%rsi),%rax
  405143:	89 7e 04             	mov    %edi,0x4(%rsi)
  405146:	48 39 c5             	cmp    %rax,%rbp
  405149:	76 03                	jbe    40514e <_ZN7pvectorIiE4fillEi._omp_fn.0+0xfe>
  40514b:	89 7e 08             	mov    %edi,0x8(%rsi)
/home/aliha951/ipdps-artifact/gapbs-master/src/pvector.h:133
    #pragma omp parallel for
  40514e:	48 83 c4 08          	add    $0x8,%rsp
  405152:	5b                   	pop    %rbx
  405153:	5d                   	pop    %rbp
  405154:	41 5c                	pop    %r12
  405156:	41 5d                	pop    %r13
  405158:	c3                   	retq   
  405159:	0f 1f 80 00 00 00 00 	nopl   0x0(%rax)
  405160:	48 83 c0 01          	add    $0x1,%rax
/home/aliha951/ipdps-artifact/gapbs-master/src/pvector.h:134
    for (T_* ptr=start_; ptr < end_size_; ptr++)
  405164:	31 d2                	xor    %edx,%edx
  405166:	e9 3d ff ff ff       	jmpq   4050a8 <_ZN7pvectorIiE4fillEi._omp_fn.0+0x58>
  40516b:	0f 1f 44 00 00       	nopl   0x0(%rax,%rax,1)

0000000000405170 <_ZN8CSRGraphIi10NodeWeightIiiELb1EE8GenIndexERK7pvectorIlEPS1_._omp_fn.0>:
_ZN8CSRGraphIi10NodeWeightIiiELb1EE8GenIndexERK7pvectorIlEPS1_._omp_fn.0():
/home/aliha951/ipdps-artifact/gapbs-master/src/graph.h:245
  }

  static DestID_** GenIndex(const pvector<SGOffset> &offsets, DestID_* neighs) {
    NodeID_ length = offsets.size();
    DestID_** index = new DestID_*[length];
    #pragma omp parallel for
  405170:	f3 0f 1e fa          	endbr64 
  405174:	55                   	push   %rbp
  405175:	53                   	push   %rbx
  405176:	48 89 fb             	mov    %rdi,%rbx
  405179:	48 83 ec 08          	sub    $0x8,%rsp
  40517d:	e8 8e e9 ff ff       	callq  403b10 <omp_get_num_threads@plt>
  405182:	89 c5                	mov    %eax,%ebp
  405184:	e8 67 e8 ff ff       	callq  4039f0 <omp_get_thread_num@plt>
  405189:	89 c1                	mov    %eax,%ecx
  40518b:	8b 43 18             	mov    0x18(%rbx),%eax
  40518e:	99                   	cltd   
  40518f:	f7 fd                	idiv   %ebp
  405191:	39 d1                	cmp    %edx,%ecx
  405193:	7c 43                	jl     4051d8 <_ZN8CSRGraphIi10NodeWeightIiiELb1EE8GenIndexERK7pvectorIlEPS1_._omp_fn.0+0x68>
  405195:	0f af c8             	imul   %eax,%ecx
  405198:	01 ca                	add    %ecx,%edx
  40519a:	01 d0                	add    %edx,%eax
  40519c:	39 c2                	cmp    %eax,%edx
  40519e:	7d 2c                	jge    4051cc <_ZN8CSRGraphIi10NodeWeightIiiELb1EE8GenIndexERK7pvectorIlEPS1_._omp_fn.0+0x5c>
_ZNK7pvectorIlEixEm():
/home/aliha951/ipdps-artifact/gapbs-master/src/pvector.h:120
    return start_[n];
  4051a0:	48 8b 0b             	mov    (%rbx),%rcx
_ZN8CSRGraphIi10NodeWeightIiiELb1EE8GenIndexERK7pvectorIlEPS1_._omp_fn.0():
/home/aliha951/ipdps-artifact/gapbs-master/src/graph.h:245
  4051a3:	4c 8b 43 10          	mov    0x10(%rbx),%r8
  4051a7:	48 63 d2             	movslq %edx,%rdx
  4051aa:	48 8b 7b 08          	mov    0x8(%rbx),%rdi
_ZNK7pvectorIlEixEm():
/home/aliha951/ipdps-artifact/gapbs-master/src/pvector.h:120
  4051ae:	48 8b 31             	mov    (%rcx),%rsi
  4051b1:	0f 1f 80 00 00 00 00 	nopl   0x0(%rax)
_ZN8CSRGraphIi10NodeWeightIiiELb1EE8GenIndexERK7pvectorIlEPS1_._omp_fn.0():
/home/aliha951/ipdps-artifact/gapbs-master/src/graph.h:247 (discriminator 1)
    for (NodeID_ n=0; n < length; n++)
      index[n] = neighs + offsets[n];
  4051b8:	48 8b 0c d6          	mov    (%rsi,%rdx,8),%rcx
  4051bc:	48 8d 0c cf          	lea    (%rdi,%rcx,8),%rcx
  4051c0:	49 89 0c d0          	mov    %rcx,(%r8,%rdx,8)
  4051c4:	48 83 c2 01          	add    $0x1,%rdx
  4051c8:	39 d0                	cmp    %edx,%eax
  4051ca:	7f ec                	jg     4051b8 <_ZN8CSRGraphIi10NodeWeightIiiELb1EE8GenIndexERK7pvectorIlEPS1_._omp_fn.0+0x48>
/home/aliha951/ipdps-artifact/gapbs-master/src/graph.h:245
    #pragma omp parallel for
  4051cc:	48 83 c4 08          	add    $0x8,%rsp
  4051d0:	5b                   	pop    %rbx
  4051d1:	5d                   	pop    %rbp
  4051d2:	c3                   	retq   
  4051d3:	0f 1f 44 00 00       	nopl   0x0(%rax,%rax,1)
  4051d8:	83 c0 01             	add    $0x1,%eax
  4051db:	31 d2                	xor    %edx,%edx
  4051dd:	eb b6                	jmp    405195 <_ZN8CSRGraphIi10NodeWeightIiiELb1EE8GenIndexERK7pvectorIlEPS1_._omp_fn.0+0x25>
  4051df:	90                   	nop

00000000004051e0 <_ZN7pvectorI8EdgePairIi10NodeWeightIiiEEE7reserveEm._omp_fn.0>:
_ZN7pvectorI8EdgePairIi10NodeWeightIiiEEE7reserveEm._omp_fn.0():
/home/aliha951/ipdps-artifact/gapbs-master/src/pvector.h:86
      #pragma omp parallel for
  4051e0:	f3 0f 1e fa          	endbr64 
  4051e4:	41 55                	push   %r13
  4051e6:	41 54                	push   %r12
  4051e8:	55                   	push   %rbp
  4051e9:	53                   	push   %rbx
  4051ea:	48 83 ec 08          	sub    $0x8,%rsp
  4051ee:	48 8b 07             	mov    (%rdi),%rax
_ZNK7pvectorI8EdgePairIi10NodeWeightIiiEEE4sizeEv():
/home/aliha951/ipdps-artifact/gapbs-master/src/pvector.h:143
  size_t capacity() const {
    return end_capacity_ - start_;
  }

  size_t size() const {
    return end_size_ - start_;
  4051f1:	48 8b 28             	mov    (%rax),%rbp
  4051f4:	48 8b 58 08          	mov    0x8(%rax),%rbx
  4051f8:	48 b8 ab aa aa aa aa 	movabs $0xaaaaaaaaaaaaaaab,%rax
  4051ff:	aa aa aa 
  405202:	48 29 eb             	sub    %rbp,%rbx
  405205:	48 c1 fb 02          	sar    $0x2,%rbx
  405209:	48 0f af d8          	imul   %rax,%rbx
  40520d:	48 85 db             	test   %rbx,%rbx
  405210:	74 68                	je     40527a <_ZN7pvectorI8EdgePairIi10NodeWeightIiiEEE7reserveEm._omp_fn.0+0x9a>
  405212:	49 89 fc             	mov    %rdi,%r12
  405215:	e8 f6 e8 ff ff       	callq  403b10 <omp_get_num_threads@plt>
  40521a:	41 89 c5             	mov    %eax,%r13d
  40521d:	e8 ce e7 ff ff       	callq  4039f0 <omp_get_thread_num@plt>
  405222:	49 63 f5             	movslq %r13d,%rsi
  405225:	31 d2                	xor    %edx,%edx
  405227:	48 63 c8             	movslq %eax,%rcx
  40522a:	48 89 d8             	mov    %rbx,%rax
  40522d:	48 f7 f6             	div    %rsi
  405230:	48 39 d1             	cmp    %rdx,%rcx
  405233:	72 53                	jb     405288 <_ZN7pvectorI8EdgePairIi10NodeWeightIiiEEE7reserveEm._omp_fn.0+0xa8>
  405235:	48 0f af c8          	imul   %rax,%rcx
  405239:	48 01 ca             	add    %rcx,%rdx
  40523c:	48 01 d0             	add    %rdx,%rax
  40523f:	48 39 c2             	cmp    %rax,%rdx
  405242:	73 36                	jae    40527a <_ZN7pvectorI8EdgePairIi10NodeWeightIiiEEE7reserveEm._omp_fn.0+0x9a>
  405244:	48 8d 14 52          	lea    (%rdx,%rdx,2),%rdx
  405248:	48 8d 34 40          	lea    (%rax,%rax,2),%rsi
_ZN7pvectorI8EdgePairIi10NodeWeightIiiEEE7reserveEm._omp_fn.0():
/home/aliha951/ipdps-artifact/gapbs-master/src/pvector.h:86
      #pragma omp parallel for
  40524c:	49 8b 4c 24 08       	mov    0x8(%r12),%rcx
  405251:	48 c1 e2 02          	shl    $0x2,%rdx
  405255:	48 c1 e6 02          	shl    $0x2,%rsi
  405259:	0f 1f 80 00 00 00 00 	nopl   0x0(%rax)
/home/aliha951/ipdps-artifact/gapbs-master/src/pvector.h:88 (discriminator 1)
        new_range[i] = start_[i];
  405260:	48 8b 44 15 00       	mov    0x0(%rbp,%rdx,1),%rax
  405265:	48 89 04 11          	mov    %rax,(%rcx,%rdx,1)
  405269:	8b 44 15 08          	mov    0x8(%rbp,%rdx,1),%eax
  40526d:	89 44 11 08          	mov    %eax,0x8(%rcx,%rdx,1)
  405271:	48 83 c2 0c          	add    $0xc,%rdx
  405275:	48 39 d6             	cmp    %rdx,%rsi
  405278:	75 e6                	jne    405260 <_ZN7pvectorI8EdgePairIi10NodeWeightIiiEEE7reserveEm._omp_fn.0+0x80>
/home/aliha951/ipdps-artifact/gapbs-master/src/pvector.h:86
      #pragma omp parallel for
  40527a:	48 83 c4 08          	add    $0x8,%rsp
  40527e:	5b                   	pop    %rbx
  40527f:	5d                   	pop    %rbp
  405280:	41 5c                	pop    %r12
  405282:	41 5d                	pop    %r13
  405284:	c3                   	retq   
  405285:	0f 1f 00             	nopl   (%rax)
  405288:	48 83 c0 01          	add    $0x1,%rax
_ZNK7pvectorI8EdgePairIi10NodeWeightIiiEEE4sizeEv():
/home/aliha951/ipdps-artifact/gapbs-master/src/pvector.h:143
    return end_size_ - start_;
  40528c:	31 d2                	xor    %edx,%edx
  40528e:	eb a5                	jmp    405235 <_ZN7pvectorI8EdgePairIi10NodeWeightIiiEEE7reserveEm._omp_fn.0+0x55>

0000000000405290 <_ZN11BuilderBaseIi10NodeWeightIiiEiLb1EE12CountDegreesERK7pvectorI8EdgePairIiS1_EEb._omp_fn.0>:
_ZN11BuilderBaseIi10NodeWeightIiiEiLb1EE12CountDegreesERK7pvectorI8EdgePairIiS1_EEb._omp_fn.0():
/home/aliha951/ipdps-artifact/gapbs-master/src/builder.h:82
    return max_seen;
  }

  pvector<NodeID_> CountDegrees(const EdgeList &el, bool transpose) {
    pvector<NodeID_> degrees(num_nodes_, 0);
    #pragma omp parallel for
  405290:	f3 0f 1e fa          	endbr64 
  405294:	41 55                	push   %r13
  405296:	41 54                	push   %r12
  405298:	55                   	push   %rbp
  405299:	53                   	push   %rbx
  40529a:	48 83 ec 08          	sub    $0x8,%rsp
/home/aliha951/ipdps-artifact/gapbs-master/src/builder.h:83
    for (auto it = el.begin(); it < el.end(); it++) {
  40529e:	48 8b 47 08          	mov    0x8(%rdi),%rax
_ZNK7pvectorI8EdgePairIi10NodeWeightIiiEEE5beginEv():
/home/aliha951/ipdps-artifact/gapbs-master/src/pvector.h:147
  }

  iterator begin() const {
    return start_;
  4052a2:	4c 8b 28             	mov    (%rax),%r13
_ZNK7pvectorI8EdgePairIi10NodeWeightIiiEEE3endEv():
/home/aliha951/ipdps-artifact/gapbs-master/src/pvector.h:151
  }

  iterator end() const {
    return end_size_;
  4052a5:	4c 8b 60 08          	mov    0x8(%rax),%r12
  4052a9:	4d 39 ec             	cmp    %r13,%r12
  4052ac:	0f 86 a2 00 00 00    	jbe    405354 <_ZN11BuilderBaseIi10NodeWeightIiiEiLb1EE12CountDegreesERK7pvectorI8EdgePairIiS1_EEb._omp_fn.0+0xc4>
  4052b2:	48 89 fb             	mov    %rdi,%rbx
  4052b5:	e8 56 e8 ff ff       	callq  403b10 <omp_get_num_threads@plt>
  4052ba:	48 63 e8             	movslq %eax,%rbp
  4052bd:	e8 2e e7 ff ff       	callq  4039f0 <omp_get_thread_num@plt>
  4052c2:	49 8d 4c 24 0b       	lea    0xb(%r12),%rcx
  4052c7:	48 ba ab aa aa aa aa 	movabs $0x2aaaaaaaaaaaaaab,%rdx
  4052ce:	aa aa 2a 
  4052d1:	4c 29 e9             	sub    %r13,%rcx
  4052d4:	48 63 f0             	movslq %eax,%rsi
  4052d7:	48 89 c8             	mov    %rcx,%rax
  4052da:	48 c1 f9 3f          	sar    $0x3f,%rcx
  4052de:	48 f7 ea             	imul   %rdx
  4052e1:	48 89 d0             	mov    %rdx,%rax
  4052e4:	48 d1 f8             	sar    %rax
  4052e7:	48 29 c8             	sub    %rcx,%rax
  4052ea:	48 99                	cqto   
  4052ec:	48 f7 fd             	idiv   %rbp
  4052ef:	48 39 d6             	cmp    %rdx,%rsi
  4052f2:	7c 6c                	jl     405360 <_ZN11BuilderBaseIi10NodeWeightIiiEiLb1EE12CountDegreesERK7pvectorI8EdgePairIiS1_EEb._omp_fn.0+0xd0>
  4052f4:	48 0f af f0          	imul   %rax,%rsi
  4052f8:	48 01 f2             	add    %rsi,%rdx
  4052fb:	48 01 d0             	add    %rdx,%rax
  4052fe:	48 39 c2             	cmp    %rax,%rdx
  405301:	7d 51                	jge    405354 <_ZN11BuilderBaseIi10NodeWeightIiiEiLb1EE12CountDegreesERK7pvectorI8EdgePairIiS1_EEb._omp_fn.0+0xc4>
  405303:	48 8d 14 52          	lea    (%rdx,%rdx,2),%rdx
  405307:	48 8d 04 40          	lea    (%rax,%rax,2),%rax
  40530b:	80 7b 18 00          	cmpb   $0x0,0x18(%rbx)
_ZN11BuilderBaseIi10NodeWeightIiiEiLb1EE12CountDegreesERK7pvectorI8EdgePairIiS1_EEb._omp_fn.0():
/home/aliha951/ipdps-artifact/gapbs-master/src/builder.h:82
    #pragma omp parallel for
  40530f:	48 8b 3b             	mov    (%rbx),%rdi
  405312:	49 8d 54 95 00       	lea    0x0(%r13,%rdx,4),%rdx
  405317:	4d 8d 44 85 00       	lea    0x0(%r13,%rax,4),%r8
  40531c:	75 4a                	jne    405368 <_ZN11BuilderBaseIi10NodeWeightIiiEiLb1EE12CountDegreesERK7pvectorI8EdgePairIiS1_EEb._omp_fn.0+0xd8>
  40531e:	66 90                	xchg   %ax,%ax
_ZN7pvectorIiEixEm():
/home/aliha951/ipdps-artifact/gapbs-master/src/pvector.h:116
    return start_[n];
  405320:	48 8b 4b 10          	mov    0x10(%rbx),%rcx
_ZN11BuilderBaseIi10NodeWeightIiiEiLb1EE12CountDegreesERK7pvectorI8EdgePairIiS1_EEb._omp_fn.0():
/home/aliha951/ipdps-artifact/gapbs-master/src/builder.h:84
      Edge e = *it;
  405324:	48 63 42 04          	movslq 0x4(%rdx),%rax
/home/aliha951/ipdps-artifact/gapbs-master/src/builder.h:86
      if (symmetrize_ || (!symmetrize_ && !transpose))
        fetch_and_add(degrees[e.u], 1);
  405328:	48 63 32             	movslq (%rdx),%rsi
_Z13fetch_and_addIiiET_RS0_T0_():
/home/aliha951/ipdps-artifact/gapbs-master/src/platform_atomics.h:26

    // gcc/clang/icc instrinsics

    template<typename T, typename U>
    T fetch_and_add(T &x, U inc) {
      return __sync_fetch_and_add(&x, inc);
  40532b:	48 8b 09             	mov    (%rcx),%rcx
  40532e:	f0 83 04 b1 01       	lock addl $0x1,(%rcx,%rsi,4)
_ZN11BuilderBaseIi10NodeWeightIiiEiLb1EE12CountDegreesERK7pvectorI8EdgePairIiS1_EEb._omp_fn.0():
/home/aliha951/ipdps-artifact/gapbs-master/src/builder.h:87
      if ((symmetrize_ && !in_place_) || (!symmetrize_ && transpose))
  405333:	80 7f 08 00          	cmpb   $0x0,0x8(%rdi)
  405337:	74 12                	je     40534b <_ZN11BuilderBaseIi10NodeWeightIiiEiLb1EE12CountDegreesERK7pvectorI8EdgePairIiS1_EEb._omp_fn.0+0xbb>
  405339:	80 7f 0a 00          	cmpb   $0x0,0xa(%rdi)
  40533d:	75 0c                	jne    40534b <_ZN11BuilderBaseIi10NodeWeightIiiEiLb1EE12CountDegreesERK7pvectorI8EdgePairIiS1_EEb._omp_fn.0+0xbb>
_ZN7pvectorIiEixEm():
/home/aliha951/ipdps-artifact/gapbs-master/src/pvector.h:116
  40533f:	48 8b 4b 10          	mov    0x10(%rbx),%rcx
_Z13fetch_and_addIiiET_RS0_T0_():
/home/aliha951/ipdps-artifact/gapbs-master/src/platform_atomics.h:26
  405343:	48 8b 09             	mov    (%rcx),%rcx
  405346:	f0 83 04 81 01       	lock addl $0x1,(%rcx,%rax,4)
  40534b:	48 83 c2 0c          	add    $0xc,%rdx
  40534f:	49 39 d0             	cmp    %rdx,%r8
  405352:	77 cc                	ja     405320 <_ZN11BuilderBaseIi10NodeWeightIiiEiLb1EE12CountDegreesERK7pvectorI8EdgePairIiS1_EEb._omp_fn.0+0x90>
_ZN11BuilderBaseIi10NodeWeightIiiEiLb1EE12CountDegreesERK7pvectorI8EdgePairIiS1_EEb._omp_fn.0():
/home/aliha951/ipdps-artifact/gapbs-master/src/builder.h:82
    #pragma omp parallel for
  405354:	48 83 c4 08          	add    $0x8,%rsp
  405358:	5b                   	pop    %rbx
  405359:	5d                   	pop    %rbp
  40535a:	41 5c                	pop    %r12
  40535c:	41 5d                	pop    %r13
  40535e:	c3                   	retq   
  40535f:	90                   	nop
  405360:	48 83 c0 01          	add    $0x1,%rax
_ZNK7pvectorI8EdgePairIi10NodeWeightIiiEEE3endEv():
/home/aliha951/ipdps-artifact/gapbs-master/src/pvector.h:151
    return end_size_;
  405364:	31 d2                	xor    %edx,%edx
  405366:	eb 8c                	jmp    4052f4 <_ZN11BuilderBaseIi10NodeWeightIiiEiLb1EE12CountDegreesERK7pvectorI8EdgePairIiS1_EEb._omp_fn.0+0x64>
_ZN11BuilderBaseIi10NodeWeightIiiEiLb1EE12CountDegreesERK7pvectorI8EdgePairIiS1_EEb._omp_fn.0():
/home/aliha951/ipdps-artifact/gapbs-master/src/builder.h:85
      if (symmetrize_ || (!symmetrize_ && !transpose))
  405368:	80 7f 08 00          	cmpb   $0x0,0x8(%rdi)
/home/aliha951/ipdps-artifact/gapbs-master/src/builder.h:84
      Edge e = *it;
  40536c:	48 63 42 04          	movslq 0x4(%rdx),%rax
/home/aliha951/ipdps-artifact/gapbs-master/src/builder.h:85
      if (symmetrize_ || (!symmetrize_ && !transpose))
  405370:	74 1b                	je     40538d <_ZN11BuilderBaseIi10NodeWeightIiiEiLb1EE12CountDegreesERK7pvectorI8EdgePairIiS1_EEb._omp_fn.0+0xfd>
_ZN7pvectorIiEixEm():
/home/aliha951/ipdps-artifact/gapbs-master/src/pvector.h:116
    return start_[n];
  405372:	48 8b 4b 10          	mov    0x10(%rbx),%rcx
_ZN11BuilderBaseIi10NodeWeightIiiEiLb1EE12CountDegreesERK7pvectorI8EdgePairIiS1_EEb._omp_fn.0():
/home/aliha951/ipdps-artifact/gapbs-master/src/builder.h:86
        fetch_and_add(degrees[e.u], 1);
  405376:	48 63 32             	movslq (%rdx),%rsi
_Z13fetch_and_addIiiET_RS0_T0_():
/home/aliha951/ipdps-artifact/gapbs-master/src/platform_atomics.h:26
  405379:	48 8b 09             	mov    (%rcx),%rcx
  40537c:	f0 83 04 b1 01       	lock addl $0x1,(%rcx,%rsi,4)
_ZN11BuilderBaseIi10NodeWeightIiiEiLb1EE12CountDegreesERK7pvectorI8EdgePairIiS1_EEb._omp_fn.0():
/home/aliha951/ipdps-artifact/gapbs-master/src/builder.h:87
      if ((symmetrize_ && !in_place_) || (!symmetrize_ && transpose))
  405381:	80 7f 08 00          	cmpb   $0x0,0x8(%rdi)
  405385:	74 06                	je     40538d <_ZN11BuilderBaseIi10NodeWeightIiiEiLb1EE12CountDegreesERK7pvectorI8EdgePairIiS1_EEb._omp_fn.0+0xfd>
/home/aliha951/ipdps-artifact/gapbs-master/src/builder.h:87 (discriminator 1)
  405387:	80 7f 0a 00          	cmpb   $0x0,0xa(%rdi)
  40538b:	75 0c                	jne    405399 <_ZN11BuilderBaseIi10NodeWeightIiiEiLb1EE12CountDegreesERK7pvectorI8EdgePairIiS1_EEb._omp_fn.0+0x109>
_ZN7pvectorIiEixEm():
/home/aliha951/ipdps-artifact/gapbs-master/src/pvector.h:116
  40538d:	48 8b 4b 10          	mov    0x10(%rbx),%rcx
_Z13fetch_and_addIiiET_RS0_T0_():
/home/aliha951/ipdps-artifact/gapbs-master/src/platform_atomics.h:26
  405391:	48 8b 09             	mov    (%rcx),%rcx
  405394:	f0 83 04 81 01       	lock addl $0x1,(%rcx,%rax,4)
  405399:	48 83 c2 0c          	add    $0xc,%rdx
  40539d:	49 39 d0             	cmp    %rdx,%r8
  4053a0:	77 c6                	ja     405368 <_ZN11BuilderBaseIi10NodeWeightIiiEiLb1EE12CountDegreesERK7pvectorI8EdgePairIiS1_EEb._omp_fn.0+0xd8>
  4053a2:	eb b0                	jmp    405354 <_ZN11BuilderBaseIi10NodeWeightIiiEiLb1EE12CountDegreesERK7pvectorI8EdgePairIiS1_EEb._omp_fn.0+0xc4>
_ZN11BuilderBaseIi10NodeWeightIiiEiLb1EE12CountDegreesERK7pvectorI8EdgePairIiS1_EEb._omp_fn.0():
/home/aliha951/ipdps-artifact/gapbs-master/src/platform_atomics.h:26
  4053a4:	66 66 2e 0f 1f 84 00 	data16 nopw %cs:0x0(%rax,%rax,1)
  4053ab:	00 00 00 00 
  4053af:	90                   	nop

00000000004053b0 <_ZN11BuilderBaseIi10NodeWeightIiiEiLb1EE17ParallelPrefixSumERK7pvectorIiE._omp_fn.0>:
_ZN11BuilderBaseIi10NodeWeightIiiEiLb1EE17ParallelPrefixSumERK7pvectorIiE._omp_fn.0():
/home/aliha951/ipdps-artifact/gapbs-master/src/builder.h:110
  static
  pvector<SGOffset> ParallelPrefixSum(const pvector<NodeID_> &degrees) {
    const size_t block_size = 1<<20;
    const size_t num_blocks = (degrees.size() + block_size - 1) / block_size;
    pvector<SGOffset> local_sums(num_blocks);
    #pragma omp parallel for
  4053b0:	f3 0f 1e fa          	endbr64 
  4053b4:	41 54                	push   %r12
  4053b6:	55                   	push   %rbp
  4053b7:	53                   	push   %rbx
  4053b8:	48 8b 5f 08          	mov    0x8(%rdi),%rbx
  4053bc:	48 85 db             	test   %rbx,%rbx
  4053bf:	0f 84 4d 01 00 00    	je     405512 <_ZN11BuilderBaseIi10NodeWeightIiiEiLb1EE17ParallelPrefixSumERK7pvectorIiE._omp_fn.0+0x162>
  4053c5:	49 89 fc             	mov    %rdi,%r12
  4053c8:	e8 43 e7 ff ff       	callq  403b10 <omp_get_num_threads@plt>
  4053cd:	89 c5                	mov    %eax,%ebp
  4053cf:	e8 1c e6 ff ff       	callq  4039f0 <omp_get_thread_num@plt>
  4053d4:	48 63 cd             	movslq %ebp,%rcx
  4053d7:	31 d2                	xor    %edx,%edx
  4053d9:	48 63 f0             	movslq %eax,%rsi
  4053dc:	48 89 d8             	mov    %rbx,%rax
  4053df:	48 f7 f1             	div    %rcx
  4053e2:	48 39 d6             	cmp    %rdx,%rsi
  4053e5:	0f 82 3d 01 00 00    	jb     405528 <_ZN11BuilderBaseIi10NodeWeightIiiEiLb1EE17ParallelPrefixSumERK7pvectorIiE._omp_fn.0+0x178>
  4053eb:	48 0f af f0          	imul   %rax,%rsi
  4053ef:	48 01 d6             	add    %rdx,%rsi
  4053f2:	48 01 f0             	add    %rsi,%rax
  4053f5:	48 39 c6             	cmp    %rax,%rsi
  4053f8:	0f 83 14 01 00 00    	jae    405512 <_ZN11BuilderBaseIi10NodeWeightIiiEiLb1EE17ParallelPrefixSumERK7pvectorIiE._omp_fn.0+0x162>
/home/aliha951/ipdps-artifact/gapbs-master/src/builder.h:113
    for (size_t block=0; block < num_blocks; block++) {
      SGOffset lsum = 0;
      size_t block_end = std::min((block + 1) * block_size, degrees.size());
  4053fe:	49 8b 14 24          	mov    (%r12),%rdx
  405402:	49 89 f0             	mov    %rsi,%r8
/home/aliha951/ipdps-artifact/gapbs-master/src/builder.h:115
      for (size_t i=block * block_size; i < block_end; i++)
        lsum += degrees[i];
  405405:	66 0f ef e4          	pxor   %xmm4,%xmm4
  405409:	49 c1 e0 14          	shl    $0x14,%r8
_ZNK7pvectorIiE4sizeEv():
/home/aliha951/ipdps-artifact/gapbs-master/src/pvector.h:143
    return end_size_ - start_;
  40540d:	4c 8b 1a             	mov    (%rdx),%r11
  405410:	4c 8b 52 08          	mov    0x8(%rdx),%r10
_ZN7pvectorIlEixEm():
/home/aliha951/ipdps-artifact/gapbs-master/src/pvector.h:116
    return start_[n];
  405414:	49 8b 54 24 10       	mov    0x10(%r12),%rdx
_ZNK7pvectorIiE4sizeEv():
/home/aliha951/ipdps-artifact/gapbs-master/src/pvector.h:143
    return end_size_ - start_;
  405419:	4d 29 da             	sub    %r11,%r10
_ZN7pvectorIlEixEm():
/home/aliha951/ipdps-artifact/gapbs-master/src/pvector.h:116
    return start_[n];
  40541c:	48 8b 12             	mov    (%rdx),%rdx
_ZNK7pvectorIiE4sizeEv():
/home/aliha951/ipdps-artifact/gapbs-master/src/pvector.h:143
    return end_size_ - start_;
  40541f:	49 c1 fa 02          	sar    $0x2,%r10
  405423:	4c 8d 0c f2          	lea    (%rdx,%rsi,8),%r9
  405427:	48 c1 e6 16          	shl    $0x16,%rsi
  40542b:	48 8d 2c c2          	lea    (%rdx,%rax,8),%rbp
  40542f:	4c 01 de             	add    %r11,%rsi
  405432:	66 0f 1f 44 00 00    	nopw   0x0(%rax,%rax,1)
/home/aliha951/ipdps-artifact/gapbs-master/src/pvector.h:142
  size_t size() const {
  405438:	4c 89 c1             	mov    %r8,%rcx
_ZN11BuilderBaseIi10NodeWeightIiiEiLb1EE17ParallelPrefixSumERK7pvectorIiE._omp_fn.0():
/home/aliha951/ipdps-artifact/gapbs-master/src/builder.h:113
      size_t block_end = std::min((block + 1) * block_size, degrees.size());
  40543b:	49 81 c0 00 00 10 00 	add    $0x100000,%r8
  405442:	4c 89 d3             	mov    %r10,%rbx
  405445:	4d 39 d0             	cmp    %r10,%r8
  405448:	49 0f 46 d8          	cmovbe %r8,%rbx
/home/aliha951/ipdps-artifact/gapbs-master/src/builder.h:114
      for (size_t i=block * block_size; i < block_end; i++)
  40544c:	48 39 cb             	cmp    %rcx,%rbx
  40544f:	0f 86 cb 00 00 00    	jbe    405520 <_ZN11BuilderBaseIi10NodeWeightIiiEiLb1EE17ParallelPrefixSumERK7pvectorIiE._omp_fn.0+0x170>
  405455:	48 89 df             	mov    %rbx,%rdi
  405458:	48 29 cf             	sub    %rcx,%rdi
  40545b:	48 8d 47 ff          	lea    -0x1(%rdi),%rax
  40545f:	48 83 f8 02          	cmp    $0x2,%rax
  405463:	0f 86 bb 00 00 00    	jbe    405524 <_ZN11BuilderBaseIi10NodeWeightIiiEiLb1EE17ParallelPrefixSumERK7pvectorIiE._omp_fn.0+0x174>
  405469:	48 89 fa             	mov    %rdi,%rdx
  40546c:	48 89 f0             	mov    %rsi,%rax
  40546f:	66 0f ef c9          	pxor   %xmm1,%xmm1
  405473:	48 c1 ea 02          	shr    $0x2,%rdx
  405477:	48 c1 e2 04          	shl    $0x4,%rdx
  40547b:	48 01 f2             	add    %rsi,%rdx
  40547e:	66 90                	xchg   %ax,%ax
/home/aliha951/ipdps-artifact/gapbs-master/src/builder.h:115 (discriminator 2)
        lsum += degrees[i];
  405480:	f3 0f 6f 00          	movdqu (%rax),%xmm0
  405484:	66 0f 6f d4          	movdqa %xmm4,%xmm2
  405488:	48 83 c0 10          	add    $0x10,%rax
  40548c:	66 0f 66 d0          	pcmpgtd %xmm0,%xmm2
  405490:	66 0f 6f d8          	movdqa %xmm0,%xmm3
  405494:	66 0f 62 da          	punpckldq %xmm2,%xmm3
  405498:	66 0f 6a c2          	punpckhdq %xmm2,%xmm0
  40549c:	66 0f d4 cb          	paddq  %xmm3,%xmm1
  4054a0:	66 0f d4 c8          	paddq  %xmm0,%xmm1
/home/aliha951/ipdps-artifact/gapbs-master/src/builder.h:114 (discriminator 2)
      for (size_t i=block * block_size; i < block_end; i++)
  4054a4:	48 39 d0             	cmp    %rdx,%rax
  4054a7:	75 d7                	jne    405480 <_ZN11BuilderBaseIi10NodeWeightIiiEiLb1EE17ParallelPrefixSumERK7pvectorIiE._omp_fn.0+0xd0>
  4054a9:	66 0f 6f c1          	movdqa %xmm1,%xmm0
  4054ad:	48 89 fa             	mov    %rdi,%rdx
  4054b0:	66 0f 73 d8 08       	psrldq $0x8,%xmm0
  4054b5:	48 83 e2 fc          	and    $0xfffffffffffffffc,%rdx
  4054b9:	66 0f d4 c1          	paddq  %xmm1,%xmm0
  4054bd:	48 01 d1             	add    %rdx,%rcx
  4054c0:	66 48 0f 7e c0       	movq   %xmm0,%rax
  4054c5:	48 39 fa             	cmp    %rdi,%rdx
  4054c8:	74 31                	je     4054fb <_ZN11BuilderBaseIi10NodeWeightIiiEiLb1EE17ParallelPrefixSumERK7pvectorIiE._omp_fn.0+0x14b>
/home/aliha951/ipdps-artifact/gapbs-master/src/builder.h:115
        lsum += degrees[i];
  4054ca:	49 63 3c 8b          	movslq (%r11,%rcx,4),%rdi
_ZNK7pvectorIiEixEm():
/home/aliha951/ipdps-artifact/gapbs-master/src/pvector.h:120
    return start_[n];
  4054ce:	48 8d 14 8d 00 00 00 	lea    0x0(,%rcx,4),%rdx
  4054d5:	00 
_ZN11BuilderBaseIi10NodeWeightIiiEiLb1EE17ParallelPrefixSumERK7pvectorIiE._omp_fn.0():
/home/aliha951/ipdps-artifact/gapbs-master/src/builder.h:115
  4054d6:	48 01 f8             	add    %rdi,%rax
/home/aliha951/ipdps-artifact/gapbs-master/src/builder.h:114
      for (size_t i=block * block_size; i < block_end; i++)
  4054d9:	48 8d 79 01          	lea    0x1(%rcx),%rdi
  4054dd:	48 39 df             	cmp    %rbx,%rdi
  4054e0:	73 19                	jae    4054fb <_ZN11BuilderBaseIi10NodeWeightIiiEiLb1EE17ParallelPrefixSumERK7pvectorIiE._omp_fn.0+0x14b>
/home/aliha951/ipdps-artifact/gapbs-master/src/builder.h:115
        lsum += degrees[i];
  4054e2:	49 63 7c 13 04       	movslq 0x4(%r11,%rdx,1),%rdi
/home/aliha951/ipdps-artifact/gapbs-master/src/builder.h:114
      for (size_t i=block * block_size; i < block_end; i++)
  4054e7:	48 83 c1 02          	add    $0x2,%rcx
/home/aliha951/ipdps-artifact/gapbs-master/src/builder.h:115
        lsum += degrees[i];
  4054eb:	48 01 f8             	add    %rdi,%rax
/home/aliha951/ipdps-artifact/gapbs-master/src/builder.h:114
      for (size_t i=block * block_size; i < block_end; i++)
  4054ee:	48 39 cb             	cmp    %rcx,%rbx
  4054f1:	76 08                	jbe    4054fb <_ZN11BuilderBaseIi10NodeWeightIiiEiLb1EE17ParallelPrefixSumERK7pvectorIiE._omp_fn.0+0x14b>
/home/aliha951/ipdps-artifact/gapbs-master/src/builder.h:115
        lsum += degrees[i];
  4054f3:	49 63 54 13 08       	movslq 0x8(%r11,%rdx,1),%rdx
  4054f8:	48 01 d0             	add    %rdx,%rax
/home/aliha951/ipdps-artifact/gapbs-master/src/builder.h:116
      local_sums[block] = lsum;
  4054fb:	49 89 01             	mov    %rax,(%r9)
  4054fe:	49 83 c1 08          	add    $0x8,%r9
  405502:	48 81 c6 00 00 40 00 	add    $0x400000,%rsi
  405509:	49 39 e9             	cmp    %rbp,%r9
  40550c:	0f 85 26 ff ff ff    	jne    405438 <_ZN11BuilderBaseIi10NodeWeightIiiEiLb1EE17ParallelPrefixSumERK7pvectorIiE._omp_fn.0+0x88>
/home/aliha951/ipdps-artifact/gapbs-master/src/builder.h:110
    #pragma omp parallel for
  405512:	5b                   	pop    %rbx
  405513:	5d                   	pop    %rbp
  405514:	41 5c                	pop    %r12
  405516:	c3                   	retq   
  405517:	66 0f 1f 84 00 00 00 	nopw   0x0(%rax,%rax,1)
  40551e:	00 00 
/home/aliha951/ipdps-artifact/gapbs-master/src/builder.h:112
      SGOffset lsum = 0;
  405520:	31 c0                	xor    %eax,%eax
  405522:	eb d7                	jmp    4054fb <_ZN11BuilderBaseIi10NodeWeightIiiEiLb1EE17ParallelPrefixSumERK7pvectorIiE._omp_fn.0+0x14b>
  405524:	31 c0                	xor    %eax,%eax
  405526:	eb a2                	jmp    4054ca <_ZN11BuilderBaseIi10NodeWeightIiiEiLb1EE17ParallelPrefixSumERK7pvectorIiE._omp_fn.0+0x11a>
  405528:	48 83 c0 01          	add    $0x1,%rax
/home/aliha951/ipdps-artifact/gapbs-master/src/builder.h:110
    #pragma omp parallel for
  40552c:	31 d2                	xor    %edx,%edx
  40552e:	e9 b8 fe ff ff       	jmpq   4053eb <_ZN11BuilderBaseIi10NodeWeightIiiEiLb1EE17ParallelPrefixSumERK7pvectorIiE._omp_fn.0+0x3b>
  405533:	66 66 2e 0f 1f 84 00 	data16 nopw %cs:0x0(%rax,%rax,1)
  40553a:	00 00 00 00 
  40553e:	66 90                	xchg   %ax,%ax

0000000000405540 <_ZN11BuilderBaseIi10NodeWeightIiiEiLb1EE17ParallelPrefixSumERK7pvectorIiE._omp_fn.1>:
_ZN11BuilderBaseIi10NodeWeightIiiEiLb1EE17ParallelPrefixSumERK7pvectorIiE._omp_fn.1():
/home/aliha951/ipdps-artifact/gapbs-master/src/builder.h:126
      bulk_prefix[block] = total;
      total += local_sums[block];
    }
    bulk_prefix[num_blocks] = total;
    pvector<SGOffset> prefix(degrees.size() + 1);
    #pragma omp parallel for
  405540:	f3 0f 1e fa          	endbr64 
  405544:	41 54                	push   %r12
  405546:	55                   	push   %rbp
  405547:	53                   	push   %rbx
  405548:	48 8b 5f 10          	mov    0x10(%rdi),%rbx
  40554c:	48 85 db             	test   %rbx,%rbx
  40554f:	0f 84 98 00 00 00    	je     4055ed <_ZN11BuilderBaseIi10NodeWeightIiiEiLb1EE17ParallelPrefixSumERK7pvectorIiE._omp_fn.1+0xad>
  405555:	48 89 fd             	mov    %rdi,%rbp
  405558:	e8 b3 e5 ff ff       	callq  403b10 <omp_get_num_threads@plt>
  40555d:	41 89 c4             	mov    %eax,%r12d
  405560:	e8 8b e4 ff ff       	callq  4039f0 <omp_get_thread_num@plt>
  405565:	49 63 cc             	movslq %r12d,%rcx
  405568:	31 d2                	xor    %edx,%edx
  40556a:	4c 63 c8             	movslq %eax,%r9
  40556d:	48 89 d8             	mov    %rbx,%rax
  405570:	48 f7 f1             	div    %rcx
  405573:	49 39 d1             	cmp    %rdx,%r9
  405576:	72 7a                	jb     4055f2 <_ZN11BuilderBaseIi10NodeWeightIiiEiLb1EE17ParallelPrefixSumERK7pvectorIiE._omp_fn.1+0xb2>
  405578:	4c 0f af c8          	imul   %rax,%r9
  40557c:	49 01 d1             	add    %rdx,%r9
  40557f:	4c 01 c8             	add    %r9,%rax
  405582:	49 39 c1             	cmp    %rax,%r9
  405585:	73 66                	jae    4055ed <_ZN11BuilderBaseIi10NodeWeightIiiEiLb1EE17ParallelPrefixSumERK7pvectorIiE._omp_fn.1+0xad>
/home/aliha951/ipdps-artifact/gapbs-master/src/builder.h:129
    for (size_t block=0; block < num_blocks; block++) {
      SGOffset local_total = bulk_prefix[block];
      size_t block_end = std::min((block + 1) * block_size, degrees.size());
  405587:	48 8b 4d 00          	mov    0x0(%rbp),%rcx
_ZN7pvectorIlEixEm():
/home/aliha951/ipdps-artifact/gapbs-master/src/pvector.h:116
    return start_[n];
  40558b:	48 8b 55 18          	mov    0x18(%rbp),%rdx
_ZN11BuilderBaseIi10NodeWeightIiiEiLb1EE17ParallelPrefixSumERK7pvectorIiE._omp_fn.1():
/home/aliha951/ipdps-artifact/gapbs-master/src/builder.h:131
      for (size_t i=block * block_size; i < block_end; i++) {
        prefix[i] = local_total;
  40558f:	48 8b 6d 08          	mov    0x8(%rbp),%rbp
_ZNK7pvectorIiE4sizeEv():
/home/aliha951/ipdps-artifact/gapbs-master/src/pvector.h:143
    return end_size_ - start_;
  405593:	4c 8b 01             	mov    (%rcx),%r8
  405596:	4c 8b 59 08          	mov    0x8(%rcx),%r11
_ZN7pvectorIlEixEm():
/home/aliha951/ipdps-artifact/gapbs-master/src/pvector.h:116
    return start_[n];
  40559a:	48 8b 12             	mov    (%rdx),%rdx
_ZNK7pvectorIiE4sizeEv():
/home/aliha951/ipdps-artifact/gapbs-master/src/pvector.h:143
    return end_size_ - start_;
  40559d:	4d 29 c3             	sub    %r8,%r11
  4055a0:	4e 8d 14 ca          	lea    (%rdx,%r9,8),%r10
  4055a4:	49 c1 fb 02          	sar    $0x2,%r11
  4055a8:	49 c1 e1 14          	shl    $0x14,%r9
  4055ac:	48 8d 1c c2          	lea    (%rdx,%rax,8),%rbx
_ZN7pvectorIlEixEm():
/home/aliha951/ipdps-artifact/gapbs-master/src/pvector.h:115
  T_& operator[](size_t n) {
  4055b0:	4c 89 c8             	mov    %r9,%rax
_ZN11BuilderBaseIi10NodeWeightIiiEiLb1EE17ParallelPrefixSumERK7pvectorIiE._omp_fn.1():
/home/aliha951/ipdps-artifact/gapbs-master/src/builder.h:129
      size_t block_end = std::min((block + 1) * block_size, degrees.size());
  4055b3:	49 81 c1 00 00 10 00 	add    $0x100000,%r9
  4055ba:	4c 89 de             	mov    %r11,%rsi
/home/aliha951/ipdps-artifact/gapbs-master/src/builder.h:128
      SGOffset local_total = bulk_prefix[block];
  4055bd:	49 8b 12             	mov    (%r10),%rdx
_ZNK7pvectorIiE4sizeEv():
/home/aliha951/ipdps-artifact/gapbs-master/src/pvector.h:142
  size_t size() const {
  4055c0:	4d 39 d9             	cmp    %r11,%r9
  4055c3:	49 0f 46 f1          	cmovbe %r9,%rsi
_ZN11BuilderBaseIi10NodeWeightIiiEiLb1EE17ParallelPrefixSumERK7pvectorIiE._omp_fn.1():
/home/aliha951/ipdps-artifact/gapbs-master/src/builder.h:130
      for (size_t i=block * block_size; i < block_end; i++) {
  4055c7:	48 39 c6             	cmp    %rax,%rsi
  4055ca:	76 18                	jbe    4055e4 <_ZN11BuilderBaseIi10NodeWeightIiiEiLb1EE17ParallelPrefixSumERK7pvectorIiE._omp_fn.1+0xa4>
_ZN7pvectorIlEixEm():
/home/aliha951/ipdps-artifact/gapbs-master/src/pvector.h:116
    return start_[n];
  4055cc:	48 8b 7d 00          	mov    0x0(%rbp),%rdi
_ZN11BuilderBaseIi10NodeWeightIiiEiLb1EE17ParallelPrefixSumERK7pvectorIiE._omp_fn.1():
/home/aliha951/ipdps-artifact/gapbs-master/src/builder.h:132 (discriminator 2)
        local_total += degrees[i];
  4055d0:	49 63 0c 80          	movslq (%r8,%rax,4),%rcx
/home/aliha951/ipdps-artifact/gapbs-master/src/builder.h:131 (discriminator 2)
        prefix[i] = local_total;
  4055d4:	48 89 14 c7          	mov    %rdx,(%rdi,%rax,8)
/home/aliha951/ipdps-artifact/gapbs-master/src/builder.h:130 (discriminator 2)
      for (size_t i=block * block_size; i < block_end; i++) {
  4055d8:	48 83 c0 01          	add    $0x1,%rax
/home/aliha951/ipdps-artifact/gapbs-master/src/builder.h:132 (discriminator 2)
        local_total += degrees[i];
  4055dc:	48 01 ca             	add    %rcx,%rdx
/home/aliha951/ipdps-artifact/gapbs-master/src/builder.h:130 (discriminator 2)
      for (size_t i=block * block_size; i < block_end; i++) {
  4055df:	48 39 c6             	cmp    %rax,%rsi
  4055e2:	75 ec                	jne    4055d0 <_ZN11BuilderBaseIi10NodeWeightIiiEiLb1EE17ParallelPrefixSumERK7pvectorIiE._omp_fn.1+0x90>
  4055e4:	49 83 c2 08          	add    $0x8,%r10
  4055e8:	49 39 da             	cmp    %rbx,%r10
  4055eb:	75 c3                	jne    4055b0 <_ZN11BuilderBaseIi10NodeWeightIiiEiLb1EE17ParallelPrefixSumERK7pvectorIiE._omp_fn.1+0x70>
/home/aliha951/ipdps-artifact/gapbs-master/src/builder.h:126
    #pragma omp parallel for
  4055ed:	5b                   	pop    %rbx
  4055ee:	5d                   	pop    %rbp
  4055ef:	41 5c                	pop    %r12
  4055f1:	c3                   	retq   
  4055f2:	48 83 c0 01          	add    $0x1,%rax
  4055f6:	31 d2                	xor    %edx,%edx
  4055f8:	e9 7b ff ff ff       	jmpq   405578 <_ZN11BuilderBaseIi10NodeWeightIiiEiLb1EE17ParallelPrefixSumERK7pvectorIiE._omp_fn.1+0x38>
  4055fd:	0f 1f 00             	nopl   (%rax)

0000000000405600 <_ZN11BuilderBaseIi10NodeWeightIiiEiLb1EE7MakeCSRERK7pvectorI8EdgePairIiS1_EEbPPPS1_SA_._omp_fn.0>:
_ZN11BuilderBaseIi10NodeWeightIiiEiLb1EE7MakeCSRERK7pvectorI8EdgePairIiS1_EEbPPPS1_SA_._omp_fn.0():
/home/aliha951/ipdps-artifact/gapbs-master/src/builder.h:306
               DestID_** neighs) {
    pvector<NodeID_> degrees = CountDegrees(el, transpose);
    pvector<SGOffset> offsets = ParallelPrefixSum(degrees);
    *neighs = new DestID_[offsets[num_nodes_]];
    *index = CSRGraph<NodeID_, DestID_>::GenIndex(offsets, *neighs);
    #pragma omp parallel for
  405600:	f3 0f 1e fa          	endbr64 
  405604:	41 55                	push   %r13
  405606:	41 54                	push   %r12
  405608:	55                   	push   %rbp
  405609:	53                   	push   %rbx
  40560a:	48 83 ec 08          	sub    $0x8,%rsp
/home/aliha951/ipdps-artifact/gapbs-master/src/builder.h:307
    for (auto it = el.begin(); it < el.end(); it++) {
  40560e:	48 8b 47 08          	mov    0x8(%rdi),%rax
_ZNK7pvectorI8EdgePairIi10NodeWeightIiiEEE5beginEv():
/home/aliha951/ipdps-artifact/gapbs-master/src/pvector.h:147
    return start_;
  405612:	4c 8b 28             	mov    (%rax),%r13
_ZNK7pvectorI8EdgePairIi10NodeWeightIiiEEE3endEv():
/home/aliha951/ipdps-artifact/gapbs-master/src/pvector.h:151
    return end_size_;
  405615:	4c 8b 60 08          	mov    0x8(%rax),%r12
  405619:	4d 39 ec             	cmp    %r13,%r12
  40561c:	0f 86 ff 00 00 00    	jbe    405721 <_ZN11BuilderBaseIi10NodeWeightIiiEiLb1EE7MakeCSRERK7pvectorI8EdgePairIiS1_EEbPPPS1_SA_._omp_fn.0+0x121>
  405622:	48 89 fb             	mov    %rdi,%rbx
  405625:	e8 e6 e4 ff ff       	callq  403b10 <omp_get_num_threads@plt>
  40562a:	48 63 e8             	movslq %eax,%rbp
  40562d:	e8 be e3 ff ff       	callq  4039f0 <omp_get_thread_num@plt>
  405632:	49 8d 4c 24 0b       	lea    0xb(%r12),%rcx
  405637:	48 ba ab aa aa aa aa 	movabs $0x2aaaaaaaaaaaaaab,%rdx
  40563e:	aa aa 2a 
  405641:	4c 29 e9             	sub    %r13,%rcx
  405644:	48 63 f0             	movslq %eax,%rsi
  405647:	48 89 c8             	mov    %rcx,%rax
  40564a:	48 c1 f9 3f          	sar    $0x3f,%rcx
  40564e:	48 f7 ea             	imul   %rdx
  405651:	48 89 d0             	mov    %rdx,%rax
  405654:	48 d1 f8             	sar    %rax
  405657:	48 29 c8             	sub    %rcx,%rax
  40565a:	48 99                	cqto   
  40565c:	48 f7 fd             	idiv   %rbp
  40565f:	48 39 d6             	cmp    %rdx,%rsi
  405662:	0f 8c c8 00 00 00    	jl     405730 <_ZN11BuilderBaseIi10NodeWeightIiiEiLb1EE7MakeCSRERK7pvectorI8EdgePairIiS1_EEbPPPS1_SA_._omp_fn.0+0x130>
  405668:	48 0f af f0          	imul   %rax,%rsi
  40566c:	48 01 f2             	add    %rsi,%rdx
  40566f:	48 01 d0             	add    %rdx,%rax
  405672:	48 39 c2             	cmp    %rax,%rdx
  405675:	0f 8d a6 00 00 00    	jge    405721 <_ZN11BuilderBaseIi10NodeWeightIiiEiLb1EE7MakeCSRERK7pvectorI8EdgePairIiS1_EEbPPPS1_SA_._omp_fn.0+0x121>
  40567b:	48 8d 14 52          	lea    (%rdx,%rdx,2),%rdx
  40567f:	48 8d 04 40          	lea    (%rax,%rax,2),%rax
_ZN11BuilderBaseIi10NodeWeightIiiEiLb1EE7MakeCSRERK7pvectorI8EdgePairIiS1_EEbPPPS1_SA_._omp_fn.0():
/home/aliha951/ipdps-artifact/gapbs-master/src/builder.h:306
    #pragma omp parallel for
  405683:	4c 8b 4b 10          	mov    0x10(%rbx),%r9
  405687:	4c 8b 03             	mov    (%rbx),%r8
  40568a:	44 0f b6 53 20       	movzbl 0x20(%rbx),%r10d
  40568f:	49 8d 54 95 00       	lea    0x0(%r13,%rdx,4),%rdx
  405694:	49 8d 6c 85 00       	lea    0x0(%r13,%rax,4),%rbp
  405699:	eb 39                	jmp    4056d4 <_ZN11BuilderBaseIi10NodeWeightIiiEiLb1EE7MakeCSRERK7pvectorI8EdgePairIiS1_EEbPPPS1_SA_._omp_fn.0+0xd4>
  40569b:	0f 1f 44 00 00       	nopl   0x0(%rax,%rax,1)
/home/aliha951/ipdps-artifact/gapbs-master/src/builder.h:309
      Edge e = *it;
      if (symmetrize_ || (!symmetrize_ && !transpose))
  4056a0:	45 84 d2             	test   %r10b,%r10b
  4056a3:	74 40                	je     4056e5 <_ZN11BuilderBaseIi10NodeWeightIiiEiLb1EE7MakeCSRERK7pvectorI8EdgePairIiS1_EEbPPPS1_SA_._omp_fn.0+0xe5>
_ZN7pvectorIlEixEm():
/home/aliha951/ipdps-artifact/gapbs-master/src/pvector.h:116
    return start_[n];
  4056a5:	48 8b 43 18          	mov    0x18(%rbx),%rax
_ZN11BuilderBaseIi10NodeWeightIiiEiLb1EE7MakeCSRERK7pvectorI8EdgePairIiS1_EEbPPPS1_SA_._omp_fn.0():
/home/aliha951/ipdps-artifact/gapbs-master/src/builder.h:312
        (*neighs)[fetch_and_add(offsets[e.u], 1)] = e.v;
      if (symmetrize_ || (!symmetrize_ && transpose))
        (*neighs)[fetch_and_add(offsets[static_cast<NodeID_>(e.v)], 1)] =
  4056a9:	4d 8b 19             	mov    (%r9),%r11
  4056ac:	48 63 ce             	movslq %esi,%rcx
_Z13fetch_and_addIliET_RS0_T0_():
/home/aliha951/ipdps-artifact/gapbs-master/src/platform_atomics.h:26
  4056af:	be 01 00 00 00       	mov    $0x1,%esi
  4056b4:	48 8b 00             	mov    (%rax),%rax
  4056b7:	f0 48 0f c1 34 c8    	lock xadd %rsi,(%rax,%rcx,8)
_ZN11BuilderBaseIi10NodeWeightIiiEiLb1EE7MakeCSRERK7pvectorI8EdgePairIiS1_EEbPPPS1_SA_._omp_fn.0():
/home/aliha951/ipdps-artifact/gapbs-master/src/builder.h:313
            GetSource(e);
  4056bd:	66 0f 6e cf          	movd   %edi,%xmm1
  4056c1:	48 83 c2 0c          	add    $0xc,%rdx
  4056c5:	66 0f 62 c8          	punpckldq %xmm0,%xmm1
  4056c9:	66 41 0f d6 0c f3    	movq   %xmm1,(%r11,%rsi,8)
  4056cf:	48 39 d5             	cmp    %rdx,%rbp
  4056d2:	76 4d                	jbe    405721 <_ZN11BuilderBaseIi10NodeWeightIiiEiLb1EE7MakeCSRERK7pvectorI8EdgePairIiS1_EEbPPPS1_SA_._omp_fn.0+0x121>
/home/aliha951/ipdps-artifact/gapbs-master/src/builder.h:309
      if (symmetrize_ || (!symmetrize_ && !transpose))
  4056d4:	41 80 78 08 01       	cmpb   $0x1,0x8(%r8)
/home/aliha951/ipdps-artifact/gapbs-master/src/builder.h:308
      Edge e = *it;
  4056d9:	8b 3a                	mov    (%rdx),%edi
  4056db:	8b 72 04             	mov    0x4(%rdx),%esi
  4056de:	66 0f 6e 42 08       	movd   0x8(%rdx),%xmm0
/home/aliha951/ipdps-artifact/gapbs-master/src/builder.h:309
      if (symmetrize_ || (!symmetrize_ && !transpose))
  4056e3:	75 bb                	jne    4056a0 <_ZN11BuilderBaseIi10NodeWeightIiiEiLb1EE7MakeCSRERK7pvectorI8EdgePairIiS1_EEbPPPS1_SA_._omp_fn.0+0xa0>
_ZN7pvectorIlEixEm():
/home/aliha951/ipdps-artifact/gapbs-master/src/pvector.h:116
  4056e5:	48 8b 4b 18          	mov    0x18(%rbx),%rcx
_ZN11BuilderBaseIi10NodeWeightIiiEiLb1EE7MakeCSRERK7pvectorI8EdgePairIiS1_EEbPPPS1_SA_._omp_fn.0():
/home/aliha951/ipdps-artifact/gapbs-master/src/builder.h:310
        (*neighs)[fetch_and_add(offsets[e.u], 1)] = e.v;
  4056e9:	4d 8b 19             	mov    (%r9),%r11
  4056ec:	48 63 c7             	movslq %edi,%rax
_Z13fetch_and_addIliET_RS0_T0_():
/home/aliha951/ipdps-artifact/gapbs-master/src/platform_atomics.h:26
  4056ef:	41 bc 01 00 00 00    	mov    $0x1,%r12d
  4056f5:	48 8b 09             	mov    (%rcx),%rcx
  4056f8:	f0 4c 0f c1 24 c1    	lock xadd %r12,(%rcx,%rax,8)
_ZN11BuilderBaseIi10NodeWeightIiiEiLb1EE7MakeCSRERK7pvectorI8EdgePairIiS1_EEbPPPS1_SA_._omp_fn.0():
/home/aliha951/ipdps-artifact/gapbs-master/src/builder.h:310
  4056fe:	66 0f 6e ce          	movd   %esi,%xmm1
  405702:	66 0f 62 c8          	punpckldq %xmm0,%xmm1
  405706:	66 43 0f d6 0c e3    	movq   %xmm1,(%r11,%r12,8)
/home/aliha951/ipdps-artifact/gapbs-master/src/builder.h:311
      if (symmetrize_ || (!symmetrize_ && transpose))
  40570c:	41 80 78 08 00       	cmpb   $0x0,0x8(%r8)
  405711:	75 92                	jne    4056a5 <_ZN11BuilderBaseIi10NodeWeightIiiEiLb1EE7MakeCSRERK7pvectorI8EdgePairIiS1_EEbPPPS1_SA_._omp_fn.0+0xa5>
  405713:	45 84 d2             	test   %r10b,%r10b
  405716:	75 8d                	jne    4056a5 <_ZN11BuilderBaseIi10NodeWeightIiiEiLb1EE7MakeCSRERK7pvectorI8EdgePairIiS1_EEbPPPS1_SA_._omp_fn.0+0xa5>
  405718:	48 83 c2 0c          	add    $0xc,%rdx
  40571c:	48 39 d5             	cmp    %rdx,%rbp
  40571f:	77 b3                	ja     4056d4 <_ZN11BuilderBaseIi10NodeWeightIiiEiLb1EE7MakeCSRERK7pvectorI8EdgePairIiS1_EEbPPPS1_SA_._omp_fn.0+0xd4>
/home/aliha951/ipdps-artifact/gapbs-master/src/builder.h:306
    #pragma omp parallel for
  405721:	48 83 c4 08          	add    $0x8,%rsp
  405725:	5b                   	pop    %rbx
  405726:	5d                   	pop    %rbp
  405727:	41 5c                	pop    %r12
  405729:	41 5d                	pop    %r13
  40572b:	c3                   	retq   
  40572c:	0f 1f 40 00          	nopl   0x0(%rax)
  405730:	48 83 c0 01          	add    $0x1,%rax
_ZNK7pvectorI8EdgePairIi10NodeWeightIiiEEE3endEv():
/home/aliha951/ipdps-artifact/gapbs-master/src/pvector.h:151
    return end_size_;
  405734:	31 d2                	xor    %edx,%edx
  405736:	e9 2d ff ff ff       	jmpq   405668 <_ZN11BuilderBaseIi10NodeWeightIiiEiLb1EE7MakeCSRERK7pvectorI8EdgePairIiS1_EEbPPPS1_SA_._omp_fn.0+0x68>
_ZN11BuilderBaseIi10NodeWeightIiiEiLb1EE7MakeCSRERK7pvectorI8EdgePairIiS1_EEbPPPS1_SA_._omp_fn.0():
/home/aliha951/ipdps-artifact/gapbs-master/src/pvector.h:151
  40573b:	0f 1f 44 00 00       	nopl   0x0(%rax,%rax,1)

0000000000405740 <_ZL12open_counterjmiii.part.0>:
_ZL12open_counterjmiii.part.0():
/home/aliha951/ipdps-artifact/gapbs-master/src/profiling_utils.h:120
static int open_counter(uint32_t type, uint64_t config,
  405740:	50                   	push   %rax
  405741:	58                   	pop    %rax
/home/aliha951/ipdps-artifact/gapbs-master/src/profiling_utils.h:138
    perror("perf_event_open");
  405742:	48 8d 3d bb f8 00 00 	lea    0xf8bb(%rip),%rdi        # 415004 <_IO_stdin_used+0x4>
/home/aliha951/ipdps-artifact/gapbs-master/src/profiling_utils.h:120
static int open_counter(uint32_t type, uint64_t config,
  405749:	48 83 ec 08          	sub    $0x8,%rsp
/home/aliha951/ipdps-artifact/gapbs-master/src/profiling_utils.h:138
    perror("perf_event_open");
  40574d:	e8 9e e1 ff ff       	callq  4038f0 <perror@plt>
/home/aliha951/ipdps-artifact/gapbs-master/src/profiling_utils.h:139
    exit(1);
  405752:	bf 01 00 00 00       	mov    $0x1,%edi
  405757:	e8 d4 e2 ff ff       	callq  403a30 <exit@plt>
  40575c:	0f 1f 40 00          	nopl   0x0(%rax)

0000000000405760 <_ZSt16__insertion_sortIP10NodeWeightIiiEN9__gnu_cxx5__ops15_Iter_less_iterEEvT_S6_T0_.isra.0>:
_ZSt16__insertion_sortIP10NodeWeightIiiEN9__gnu_cxx5__ops15_Iter_less_iterEEvT_S6_T0_():
/usr/include/c++/10/bits/stl_algo.h:1847
    _GLIBCXX20_CONSTEXPR
    void
    __insertion_sort(_RandomAccessIterator __first,
		     _RandomAccessIterator __last, _Compare __comp)
    {
      if (__first == __last) return;
  405760:	48 39 f7             	cmp    %rsi,%rdi
  405763:	0f 84 d7 00 00 00    	je     405840 <_ZSt16__insertion_sortIP10NodeWeightIiiEN9__gnu_cxx5__ops15_Iter_less_iterEEvT_S6_T0_.isra.0+0xe0>
/usr/include/c++/10/bits/stl_algo.h:1844
    __insertion_sort(_RandomAccessIterator __first,
  405769:	41 57                	push   %r15
  40576b:	49 89 f7             	mov    %rsi,%r15
  40576e:	41 56                	push   %r14
  405770:	41 55                	push   %r13
  405772:	49 89 fd             	mov    %rdi,%r13
  405775:	41 54                	push   %r12
  405777:	55                   	push   %rbp
/usr/include/c++/10/bits/stl_algo.h:1849

      for (_RandomAccessIterator __i = __first + 1; __i != __last; ++__i)
  405778:	48 8d 6f 08          	lea    0x8(%rdi),%rbp
/usr/include/c++/10/bits/stl_algo.h:1844
    __insertion_sort(_RandomAccessIterator __first,
  40577c:	53                   	push   %rbx
  40577d:	48 83 ec 08          	sub    $0x8,%rsp
/usr/include/c++/10/bits/stl_algo.h:1849
      for (_RandomAccessIterator __i = __first + 1; __i != __last; ++__i)
  405781:	48 39 ee             	cmp    %rbp,%rsi
  405784:	0f 84 9f 00 00 00    	je     405829 <_ZSt16__insertion_sortIP10NodeWeightIiiEN9__gnu_cxx5__ops15_Iter_less_iterEEvT_S6_T0_.isra.0+0xc9>
_ZNSt20__copy_move_backwardILb1ELb1ESt26random_access_iterator_tagE13__copy_move_bI10NodeWeightIiiEEEPT_PKS5_S8_S6_():
/usr/include/c++/10/bits/stl_algobase.h:691
	  // trivial types can have deleted assignment
	  static_assert( __assignable::type::value, "type is not assignable" );
#endif
	  const ptrdiff_t _Num = __last - __first;
	  if (_Num)
	    __builtin_memmove(__result - _Num, __first, sizeof(_Tp) * _Num);
  40578a:	41 bc 08 00 00 00    	mov    $0x8,%r12d
  405790:	eb 3c                	jmp    4057ce <_ZSt16__insertion_sortIP10NodeWeightIiiEN9__gnu_cxx5__ops15_Iter_less_iterEEvT_S6_T0_.isra.0+0x6e>
  405792:	66 0f 1f 44 00 00    	nopw   0x0(%rax,%rax,1)
_ZSt16__insertion_sortIP10NodeWeightIiiEN9__gnu_cxx5__ops15_Iter_less_iterEEvT_S6_T0_():
/usr/include/c++/10/bits/stl_algo.h:1851
	{
	  if (__comp(__i, __first))
  405798:	7d 47                	jge    4057e1 <_ZSt16__insertion_sortIP10NodeWeightIiiEN9__gnu_cxx5__ops15_Iter_less_iterEEvT_S6_T0_.isra.0+0x81>
_ZNSt20__copy_move_backwardILb1ELb1ESt26random_access_iterator_tagE13__copy_move_bI10NodeWeightIiiEEEPT_PKS5_S8_S6_():
/usr/include/c++/10/bits/stl_algobase.h:690
	  if (_Num)
  40579a:	49 39 ed             	cmp    %rbp,%r13
  40579d:	74 13                	je     4057b2 <_ZSt16__insertion_sortIP10NodeWeightIiiEN9__gnu_cxx5__ops15_Iter_less_iterEEvT_S6_T0_.isra.0+0x52>
/usr/include/c++/10/bits/stl_algobase.h:691
	    __builtin_memmove(__result - _Num, __first, sizeof(_Tp) * _Num);
  40579f:	48 89 ea             	mov    %rbp,%rdx
  4057a2:	4b 8d 7c 25 00       	lea    0x0(%r13,%r12,1),%rdi
  4057a7:	4c 89 ee             	mov    %r13,%rsi
  4057aa:	4c 29 ea             	sub    %r13,%rdx
  4057ad:	e8 fe e3 ff ff       	callq  403bb0 <memmove@plt>
_ZSt16__insertion_sortIP10NodeWeightIiiEN9__gnu_cxx5__ops15_Iter_less_iterEEvT_S6_T0_():
/usr/include/c++/10/bits/stl_algo.h:1856
	    {
	      typename iterator_traits<_RandomAccessIterator>::value_type
		__val = _GLIBCXX_MOVE(*__i);
	      _GLIBCXX_MOVE_BACKWARD3(__first, __i, __i + 1);
	      *__first = _GLIBCXX_MOVE(__val);
  4057b2:	66 0f 6e c3          	movd   %ebx,%xmm0
  4057b6:	66 41 0f 6e ce       	movd   %r14d,%xmm1
/usr/include/c++/10/bits/stl_algo.h:1849
      for (_RandomAccessIterator __i = __first + 1; __i != __last; ++__i)
  4057bb:	48 83 c5 08          	add    $0x8,%rbp
/usr/include/c++/10/bits/stl_algo.h:1856
	      *__first = _GLIBCXX_MOVE(__val);
  4057bf:	66 0f 62 c1          	punpckldq %xmm1,%xmm0
  4057c3:	66 41 0f d6 45 00    	movq   %xmm0,0x0(%r13)
/usr/include/c++/10/bits/stl_algo.h:1849
      for (_RandomAccessIterator __i = __first + 1; __i != __last; ++__i)
  4057c9:	49 39 ef             	cmp    %rbp,%r15
  4057cc:	74 5b                	je     405829 <_ZSt16__insertion_sortIP10NodeWeightIiiEN9__gnu_cxx5__ops15_Iter_less_iterEEvT_S6_T0_.isra.0+0xc9>
_ZNK10NodeWeightIiiEltERKS0_():
/home/aliha951/ipdps-artifact/gapbs-master/src/graph.h:39
    return v == rhs.v ? w < rhs.w : v < rhs.v;
  4057ce:	8b 5d 00             	mov    0x0(%rbp),%ebx
  4057d1:	44 8b 75 04          	mov    0x4(%rbp),%r14d
  4057d5:	41 3b 5d 00          	cmp    0x0(%r13),%ebx
  4057d9:	75 bd                	jne    405798 <_ZSt16__insertion_sortIP10NodeWeightIiiEN9__gnu_cxx5__ops15_Iter_less_iterEEvT_S6_T0_.isra.0+0x38>
_ZSt16__insertion_sortIP10NodeWeightIiiEN9__gnu_cxx5__ops15_Iter_less_iterEEvT_S6_T0_():
/usr/include/c++/10/bits/stl_algo.h:1851
	  if (__comp(__i, __first))
  4057db:	45 39 75 04          	cmp    %r14d,0x4(%r13)
  4057df:	7f b9                	jg     40579a <_ZSt16__insertion_sortIP10NodeWeightIiiEN9__gnu_cxx5__ops15_Iter_less_iterEEvT_S6_T0_.isra.0+0x3a>
_ZSt25__unguarded_linear_insertIP10NodeWeightIiiEN9__gnu_cxx5__ops14_Val_less_iterEEvT_T0_():
/usr/include/c++/10/bits/stl_algo.h:1824
    __unguarded_linear_insert(_RandomAccessIterator __last,
  4057e1:	48 89 e8             	mov    %rbp,%rax
  4057e4:	eb 15                	jmp    4057fb <_ZSt16__insertion_sortIP10NodeWeightIiiEN9__gnu_cxx5__ops15_Iter_less_iterEEvT_S6_T0_.isra.0+0x9b>
  4057e6:	66 2e 0f 1f 84 00 00 	nopw   %cs:0x0(%rax,%rax,1)
  4057ed:	00 00 00 
/usr/include/c++/10/bits/stl_algo.h:1831
      while (__comp(__val, __next))
  4057f0:	39 d3                	cmp    %edx,%ebx
  4057f2:	7d 1b                	jge    40580f <_ZSt16__insertion_sortIP10NodeWeightIiiEN9__gnu_cxx5__ops15_Iter_less_iterEEvT_S6_T0_.isra.0+0xaf>
/usr/include/c++/10/bits/stl_algo.h:1833
	  *__last = _GLIBCXX_MOVE(*__next);
  4057f4:	48 8b 10             	mov    (%rax),%rdx
  4057f7:	48 89 50 08          	mov    %rdx,0x8(%rax)
_ZNK10NodeWeightIiiEltERKS0_():
/home/aliha951/ipdps-artifact/gapbs-master/src/graph.h:39
  4057fb:	8b 50 f8             	mov    -0x8(%rax),%edx
  4057fe:	48 89 c1             	mov    %rax,%rcx
_ZSt25__unguarded_linear_insertIP10NodeWeightIiiEN9__gnu_cxx5__ops14_Val_less_iterEEvT_T0_():
/usr/include/c++/10/bits/stl_algo.h:1831
      while (__comp(__val, __next))
  405801:	48 83 e8 08          	sub    $0x8,%rax
_ZNK10NodeWeightIiiEltERKS0_():
/home/aliha951/ipdps-artifact/gapbs-master/src/graph.h:39
  405805:	39 d3                	cmp    %edx,%ebx
  405807:	75 e7                	jne    4057f0 <_ZSt16__insertion_sortIP10NodeWeightIiiEN9__gnu_cxx5__ops15_Iter_less_iterEEvT_S6_T0_.isra.0+0x90>
_ZSt25__unguarded_linear_insertIP10NodeWeightIiiEN9__gnu_cxx5__ops14_Val_less_iterEEvT_T0_():
/usr/include/c++/10/bits/stl_algo.h:1831
  405809:	44 39 71 fc          	cmp    %r14d,-0x4(%rcx)
  40580d:	7f e5                	jg     4057f4 <_ZSt16__insertion_sortIP10NodeWeightIiiEN9__gnu_cxx5__ops15_Iter_less_iterEEvT_S6_T0_.isra.0+0x94>
/usr/include/c++/10/bits/stl_algo.h:1837
      *__last = _GLIBCXX_MOVE(__val);
  40580f:	66 0f 6e c3          	movd   %ebx,%xmm0
  405813:	66 41 0f 6e d6       	movd   %r14d,%xmm2
_ZSt16__insertion_sortIP10NodeWeightIiiEN9__gnu_cxx5__ops15_Iter_less_iterEEvT_S6_T0_():
/usr/include/c++/10/bits/stl_algo.h:1849
      for (_RandomAccessIterator __i = __first + 1; __i != __last; ++__i)
  405818:	48 83 c5 08          	add    $0x8,%rbp
_ZSt25__unguarded_linear_insertIP10NodeWeightIiiEN9__gnu_cxx5__ops14_Val_less_iterEEvT_T0_():
/usr/include/c++/10/bits/stl_algo.h:1837
      *__last = _GLIBCXX_MOVE(__val);
  40581c:	66 0f 62 c2          	punpckldq %xmm2,%xmm0
  405820:	66 0f d6 01          	movq   %xmm0,(%rcx)
_ZSt16__insertion_sortIP10NodeWeightIiiEN9__gnu_cxx5__ops15_Iter_less_iterEEvT_S6_T0_():
/usr/include/c++/10/bits/stl_algo.h:1849
      for (_RandomAccessIterator __i = __first + 1; __i != __last; ++__i)
  405824:	49 39 ef             	cmp    %rbp,%r15
  405827:	75 a5                	jne    4057ce <_ZSt16__insertion_sortIP10NodeWeightIiiEN9__gnu_cxx5__ops15_Iter_less_iterEEvT_S6_T0_.isra.0+0x6e>
/usr/include/c++/10/bits/stl_algo.h:1862
	    }
	  else
	    std::__unguarded_linear_insert(__i,
				__gnu_cxx::__ops::__val_comp_iter(__comp));
	}
    }
  405829:	48 83 c4 08          	add    $0x8,%rsp
  40582d:	5b                   	pop    %rbx
  40582e:	5d                   	pop    %rbp
  40582f:	41 5c                	pop    %r12
  405831:	41 5d                	pop    %r13
  405833:	41 5e                	pop    %r14
  405835:	41 5f                	pop    %r15
  405837:	c3                   	retq   
  405838:	0f 1f 84 00 00 00 00 	nopl   0x0(%rax,%rax,1)
  40583f:	00 
  405840:	c3                   	retq   
_ZSt16__insertion_sortIP10NodeWeightIiiEN9__gnu_cxx5__ops15_Iter_less_iterEEvT_S6_T0_.isra.0():
/usr/include/c++/10/bits/stl_algo.h:1862
  405841:	90                   	nop
  405842:	66 66 2e 0f 1f 84 00 	data16 nopw %cs:0x0(%rax,%rax,1)
  405849:	00 00 00 00 
  40584d:	0f 1f 00             	nopl   (%rax)

0000000000405850 <_ZNSt7__cxx1112basic_stringIcSt11char_traitsIcESaIcEE12_M_constructIPcEEvT_S7_St20forward_iterator_tag.constprop.0>:
_ZNSt7__cxx1112basic_stringIcSt11char_traitsIcESaIcEE12_M_constructIPcEEvT_S7_St20forward_iterator_tag():
/usr/include/c++/10/bits/basic_string.tcc:206
      basic_string<_CharT, _Traits, _Alloc>::
  405850:	41 54                	push   %r12
  405852:	49 89 d4             	mov    %rdx,%r12
  405855:	55                   	push   %rbp
  405856:	48 89 f5             	mov    %rsi,%rbp
  405859:	53                   	push   %rbx
  40585a:	48 89 fb             	mov    %rdi,%rbx
  40585d:	48 83 ec 10          	sub    $0x10,%rsp
  405861:	64 48 8b 04 25 28 00 	mov    %fs:0x28,%rax
  405868:	00 00 
  40586a:	48 89 44 24 08       	mov    %rax,0x8(%rsp)
  40586f:	31 c0                	xor    %eax,%eax
/usr/include/c++/10/bits/basic_string.tcc:211
	if (__gnu_cxx::__is_null_pointer(__beg) && __beg != __end)
  405871:	48 85 d2             	test   %rdx,%rdx
  405874:	74 09                	je     40587f <_ZNSt7__cxx1112basic_stringIcSt11char_traitsIcESaIcEE12_M_constructIPcEEvT_S7_St20forward_iterator_tag.constprop.0+0x2f>
  405876:	48 85 f6             	test   %rsi,%rsi
  405879:	0f 84 80 00 00 00    	je     4058ff <_ZNSt7__cxx1112basic_stringIcSt11char_traitsIcESaIcEE12_M_constructIPcEEvT_S7_St20forward_iterator_tag.constprop.0+0xaf>
_ZSt10__distanceIPcENSt15iterator_traitsIT_E15difference_typeES2_S2_St26random_access_iterator_tag():
/usr/include/c++/10/bits/stl_iterator_base_funcs.h:104
               random_access_iterator_tag)
    {
      // concept requirements
      __glibcxx_function_requires(_RandomAccessIteratorConcept<
				  _RandomAccessIterator>)
      return __last - __first;
  40587f:	49 29 ec             	sub    %rbp,%r12
_ZNSt7__cxx1112basic_stringIcSt11char_traitsIcESaIcEE12_M_constructIPcEEvT_S7_St20forward_iterator_tag():
/usr/include/c++/10/bits/basic_string.tcc:215
	size_type __dnew = static_cast<size_type>(std::distance(__beg, __end));
  405882:	4c 89 24 24          	mov    %r12,(%rsp)
/usr/include/c++/10/bits/basic_string.tcc:217
	if (__dnew > size_type(_S_local_capacity))
  405886:	49 83 fc 0f          	cmp    $0xf,%r12
  40588a:	77 44                	ja     4058d0 <_ZNSt7__cxx1112basic_stringIcSt11char_traitsIcESaIcEE12_M_constructIPcEEvT_S7_St20forward_iterator_tag.constprop.0+0x80>
_ZNKSt7__cxx1112basic_stringIcSt11char_traitsIcESaIcEE7_M_dataEv():
/usr/include/c++/10/bits/basic_string.h:195
  40588c:	48 8b 3b             	mov    (%rbx),%rdi
_ZNSt7__cxx1112basic_stringIcSt11char_traitsIcESaIcEE7_S_copyEPcPKcm():
/usr/include/c++/10/bits/basic_string.h:356
	if (__n == 1)
  40588f:	49 83 fc 01          	cmp    $0x1,%r12
  405893:	75 33                	jne    4058c8 <_ZNSt7__cxx1112basic_stringIcSt11char_traitsIcESaIcEE12_M_constructIPcEEvT_S7_St20forward_iterator_tag.constprop.0+0x78>
_ZNSt11char_traitsIcE6assignERcRKc():
/usr/include/c++/10/bits/char_traits.h:357
  405895:	0f b6 45 00          	movzbl 0x0(%rbp),%eax
  405899:	88 07                	mov    %al,(%rdi)
_ZNSt7__cxx1112basic_stringIcSt11char_traitsIcESaIcEE12_M_constructIPcEEvT_S7_St20forward_iterator_tag():
/usr/include/c++/10/bits/basic_string.tcc:232
	_M_set_length(__dnew);
  40589b:	4c 8b 24 24          	mov    (%rsp),%r12
_ZNKSt7__cxx1112basic_stringIcSt11char_traitsIcESaIcEE7_M_dataEv():
/usr/include/c++/10/bits/basic_string.h:195
      { return _M_dataplus._M_p; }
  40589f:	48 8b 3b             	mov    (%rbx),%rdi
_ZNSt7__cxx1112basic_stringIcSt11char_traitsIcESaIcEE9_M_lengthEm():
/usr/include/c++/10/bits/basic_string.h:191
      { _M_string_length = __length; }
  4058a2:	4c 89 63 08          	mov    %r12,0x8(%rbx)
_ZNSt11char_traitsIcE6assignERcRKc():
/usr/include/c++/10/bits/char_traits.h:357
  4058a6:	42 c6 04 27 00       	movb   $0x0,(%rdi,%r12,1)
_ZNSt7__cxx1112basic_stringIcSt11char_traitsIcESaIcEE12_M_constructIPcEEvT_S7_St20forward_iterator_tag():
/usr/include/c++/10/bits/basic_string.tcc:233
      }
  4058ab:	48 8b 44 24 08       	mov    0x8(%rsp),%rax
  4058b0:	64 48 2b 04 25 28 00 	sub    %fs:0x28,%rax
  4058b7:	00 00 
  4058b9:	75 50                	jne    40590b <_ZNSt7__cxx1112basic_stringIcSt11char_traitsIcESaIcEE12_M_constructIPcEEvT_S7_St20forward_iterator_tag.constprop.0+0xbb>
  4058bb:	48 83 c4 10          	add    $0x10,%rsp
  4058bf:	5b                   	pop    %rbx
  4058c0:	5d                   	pop    %rbp
  4058c1:	41 5c                	pop    %r12
  4058c3:	c3                   	retq   
  4058c4:	0f 1f 40 00          	nopl   0x0(%rax)
_ZNSt11char_traitsIcE4copyEPcPKcm():
/usr/include/c++/10/bits/char_traits.h:431
	if (__n == 0)
  4058c8:	4d 85 e4             	test   %r12,%r12
  4058cb:	74 d5                	je     4058a2 <_ZNSt7__cxx1112basic_stringIcSt11char_traitsIcESaIcEE12_M_constructIPcEEvT_S7_St20forward_iterator_tag.constprop.0+0x52>
  4058cd:	eb 1c                	jmp    4058eb <_ZNSt7__cxx1112basic_stringIcSt11char_traitsIcESaIcEE12_M_constructIPcEEvT_S7_St20forward_iterator_tag.constprop.0+0x9b>
  4058cf:	90                   	nop
_ZNSt7__cxx1112basic_stringIcSt11char_traitsIcESaIcEE12_M_constructIPcEEvT_S7_St20forward_iterator_tag():
/usr/include/c++/10/bits/basic_string.tcc:219
	    _M_data(_M_create(__dnew, size_type(0)));
  4058d0:	48 89 df             	mov    %rbx,%rdi
  4058d3:	48 89 e6             	mov    %rsp,%rsi
  4058d6:	31 d2                	xor    %edx,%edx
  4058d8:	e8 73 e3 ff ff       	callq  403c50 <_ZNSt7__cxx1112basic_stringIcSt11char_traitsIcESaIcEE9_M_createERmm@plt>
_ZNSt7__cxx1112basic_stringIcSt11char_traitsIcESaIcEE7_M_dataEPc():
/usr/include/c++/10/bits/basic_string.h:187
      { _M_dataplus._M_p = __p; }
  4058dd:	48 89 03             	mov    %rax,(%rbx)
_ZNSt7__cxx1112basic_stringIcSt11char_traitsIcESaIcEE12_M_constructIPcEEvT_S7_St20forward_iterator_tag():
/usr/include/c++/10/bits/basic_string.tcc:219
  4058e0:	48 89 c7             	mov    %rax,%rdi
_ZNSt7__cxx1112basic_stringIcSt11char_traitsIcESaIcEE11_M_capacityEm():
/usr/include/c++/10/bits/basic_string.h:219
      { _M_allocated_capacity = __capacity; }
  4058e3:	48 8b 04 24          	mov    (%rsp),%rax
  4058e7:	48 89 43 10          	mov    %rax,0x10(%rbx)
_ZNSt11char_traitsIcE4copyEPcPKcm():
/usr/include/c++/10/bits/char_traits.h:437
	return static_cast<char_type*>(__builtin_memcpy(__s1, __s2, __n));
  4058eb:	4c 89 e2             	mov    %r12,%rdx
  4058ee:	48 89 ee             	mov    %rbp,%rsi
  4058f1:	e8 ea df ff ff       	callq  4038e0 <memcpy@plt>
_ZNSt7__cxx1112basic_stringIcSt11char_traitsIcESaIcEE12_M_constructIPcEEvT_S7_St20forward_iterator_tag():
/usr/include/c++/10/bits/basic_string.tcc:232
	_M_set_length(__dnew);
  4058f6:	4c 8b 24 24          	mov    (%rsp),%r12
_ZNKSt7__cxx1112basic_stringIcSt11char_traitsIcESaIcEE7_M_dataEv():
/usr/include/c++/10/bits/basic_string.h:195
      { return _M_dataplus._M_p; }
  4058fa:	48 8b 3b             	mov    (%rbx),%rdi
_ZNSt11char_traitsIcE4copyEPcPKcm():
/usr/include/c++/10/bits/char_traits.h:437
  4058fd:	eb a3                	jmp    4058a2 <_ZNSt7__cxx1112basic_stringIcSt11char_traitsIcESaIcEE12_M_constructIPcEEvT_S7_St20forward_iterator_tag.constprop.0+0x52>
_ZNSt7__cxx1112basic_stringIcSt11char_traitsIcESaIcEE12_M_constructIPcEEvT_S7_St20forward_iterator_tag():
/usr/include/c++/10/bits/basic_string.tcc:212
	  std::__throw_logic_error(__N("basic_string::"
  4058ff:	48 8d 3d 9a fa 00 00 	lea    0xfa9a(%rip),%rdi        # 4153a0 <_IO_stdin_used+0x3a0>
  405906:	e8 c5 df ff ff       	callq  4038d0 <_ZSt19__throw_logic_errorPKc@plt>
/usr/include/c++/10/bits/basic_string.tcc:233
      }
  40590b:	e8 b0 e0 ff ff       	callq  4039c0 <__stack_chk_fail@plt>

0000000000405910 <_ZSt4endlIcSt11char_traitsIcEERSt13basic_ostreamIT_T0_ES6_.isra.0>:
_ZSt4endlIcSt11char_traitsIcEERSt13basic_ostreamIT_T0_ES6_():
/usr/include/c++/10/ostream:681
   *  https://gcc.gnu.org/onlinedocs/libstdc++/manual/streambufs.html#io.streambuf.buffering
   *  for more on this subject.
  */
  template<typename _CharT, typename _Traits>
    inline basic_ostream<_CharT, _Traits>&
    endl(basic_ostream<_CharT, _Traits>& __os)
  405910:	41 54                	push   %r12
  405912:	55                   	push   %rbp
  405913:	48 83 ec 08          	sub    $0x8,%rsp
/usr/include/c++/10/ostream:682
    { return flush(__os.put(__os.widen('\n'))); }
  405917:	48 8b 07             	mov    (%rdi),%rax
  40591a:	48 8b 40 e8          	mov    -0x18(%rax),%rax
  40591e:	4c 8b a4 07 f0 00 00 	mov    0xf0(%rdi,%rax,1),%r12
  405925:	00 
_ZSt13__check_facetISt5ctypeIcEERKT_PS3_():
/usr/include/c++/10/bits/basic_ios.h:49

  template<typename _Facet>
    inline const _Facet&
    __check_facet(const _Facet* __f)
    {
      if (!__f)
  405926:	4d 85 e4             	test   %r12,%r12
  405929:	74 58                	je     405983 <_ZSt4endlIcSt11char_traitsIcEERSt13basic_ostreamIT_T0_ES6_.isra.0+0x73>
_ZNKSt5ctypeIcE5widenEc():
/usr/include/c++/10/bits/locale_facets.h:874
       *  @return  The converted character.
      */
      char_type
      widen(char __c) const
      {
	if (_M_widen_ok)
  40592b:	41 80 7c 24 38 00    	cmpb   $0x0,0x38(%r12)
  405931:	48 89 fd             	mov    %rdi,%rbp
  405934:	74 22                	je     405958 <_ZSt4endlIcSt11char_traitsIcEERSt13basic_ostreamIT_T0_ES6_.isra.0+0x48>
_ZSt4endlIcSt11char_traitsIcEERSt13basic_ostreamIT_T0_ES6_():
/usr/include/c++/10/ostream:682
  405936:	41 0f be 74 24 43    	movsbl 0x43(%r12),%esi
  40593c:	48 89 ef             	mov    %rbp,%rdi
  40593f:	e8 6c dd ff ff       	callq  4036b0 <_ZNSo3putEc@plt>
  405944:	48 83 c4 08          	add    $0x8,%rsp
  405948:	5d                   	pop    %rbp
  405949:	48 89 c7             	mov    %rax,%rdi
  40594c:	41 5c                	pop    %r12
_ZSt5flushIcSt11char_traitsIcEERSt13basic_ostreamIT_T0_ES6_():
/usr/include/c++/10/ostream:704
   *  This manipulator simply calls the stream's @c flush() member function.
  */
  template<typename _CharT, typename _Traits>
    inline basic_ostream<_CharT, _Traits>&
