
../sssp_batching:     file format elf64-x86-64


Disassembly of section .init:

0000000000403000 <_init>:
_init():
  403000:	f3 0f 1e fa          	endbr64 
  403004:	48 83 ec 08          	sub    $0x8,%rsp
  403008:	48 8b 05 e1 7f 01 00 	mov    0x17fe1(%rip),%rax        # 41aff0 <__gmon_start__>
  40300f:	48 85 c0             	test   %rax,%rax
  403012:	74 02                	je     403016 <_init+0x16>
  403014:	ff d0                	callq  *%rax
  403016:	48 83 c4 08          	add    $0x8,%rsp
  40301a:	c3                   	retq   

Disassembly of section .plt:

0000000000403020 <.plt>:
  403020:	ff 35 e2 7f 01 00    	pushq  0x17fe2(%rip)        # 41b008 <_GLOBAL_OFFSET_TABLE_+0x8>
  403026:	f2 ff 25 e3 7f 01 00 	bnd jmpq *0x17fe3(%rip)        # 41b010 <_GLOBAL_OFFSET_TABLE_+0x10>
  40302d:	0f 1f 00             	nopl   (%rax)
  403030:	f3 0f 1e fa          	endbr64 
  403034:	68 00 00 00 00       	pushq  $0x0
  403039:	f2 e9 e1 ff ff ff    	bnd jmpq 403020 <.plt>
  40303f:	90                   	nop
  403040:	f3 0f 1e fa          	endbr64 
  403044:	68 01 00 00 00       	pushq  $0x1
  403049:	f2 e9 d1 ff ff ff    	bnd jmpq 403020 <.plt>
  40304f:	90                   	nop
  403050:	f3 0f 1e fa          	endbr64 
  403054:	68 02 00 00 00       	pushq  $0x2
  403059:	f2 e9 c1 ff ff ff    	bnd jmpq 403020 <.plt>
  40305f:	90                   	nop
  403060:	f3 0f 1e fa          	endbr64 
  403064:	68 03 00 00 00       	pushq  $0x3
  403069:	f2 e9 b1 ff ff ff    	bnd jmpq 403020 <.plt>
  40306f:	90                   	nop
  403070:	f3 0f 1e fa          	endbr64 
  403074:	68 04 00 00 00       	pushq  $0x4
  403079:	f2 e9 a1 ff ff ff    	bnd jmpq 403020 <.plt>
  40307f:	90                   	nop
  403080:	f3 0f 1e fa          	endbr64 
  403084:	68 05 00 00 00       	pushq  $0x5
  403089:	f2 e9 91 ff ff ff    	bnd jmpq 403020 <.plt>
  40308f:	90                   	nop
  403090:	f3 0f 1e fa          	endbr64 
  403094:	68 06 00 00 00       	pushq  $0x6
  403099:	f2 e9 81 ff ff ff    	bnd jmpq 403020 <.plt>
  40309f:	90                   	nop
  4030a0:	f3 0f 1e fa          	endbr64 
  4030a4:	68 07 00 00 00       	pushq  $0x7
  4030a9:	f2 e9 71 ff ff ff    	bnd jmpq 403020 <.plt>
  4030af:	90                   	nop
  4030b0:	f3 0f 1e fa          	endbr64 
  4030b4:	68 08 00 00 00       	pushq  $0x8
  4030b9:	f2 e9 61 ff ff ff    	bnd jmpq 403020 <.plt>
  4030bf:	90                   	nop
  4030c0:	f3 0f 1e fa          	endbr64 
  4030c4:	68 09 00 00 00       	pushq  $0x9
  4030c9:	f2 e9 51 ff ff ff    	bnd jmpq 403020 <.plt>
  4030cf:	90                   	nop
  4030d0:	f3 0f 1e fa          	endbr64 
  4030d4:	68 0a 00 00 00       	pushq  $0xa
  4030d9:	f2 e9 41 ff ff ff    	bnd jmpq 403020 <.plt>
  4030df:	90                   	nop
  4030e0:	f3 0f 1e fa          	endbr64 
  4030e4:	68 0b 00 00 00       	pushq  $0xb
  4030e9:	f2 e9 31 ff ff ff    	bnd jmpq 403020 <.plt>
  4030ef:	90                   	nop
  4030f0:	f3 0f 1e fa          	endbr64 
  4030f4:	68 0c 00 00 00       	pushq  $0xc
  4030f9:	f2 e9 21 ff ff ff    	bnd jmpq 403020 <.plt>
  4030ff:	90                   	nop
  403100:	f3 0f 1e fa          	endbr64 
  403104:	68 0d 00 00 00       	pushq  $0xd
  403109:	f2 e9 11 ff ff ff    	bnd jmpq 403020 <.plt>
  40310f:	90                   	nop
  403110:	f3 0f 1e fa          	endbr64 
  403114:	68 0e 00 00 00       	pushq  $0xe
  403119:	f2 e9 01 ff ff ff    	bnd jmpq 403020 <.plt>
  40311f:	90                   	nop
  403120:	f3 0f 1e fa          	endbr64 
  403124:	68 0f 00 00 00       	pushq  $0xf
  403129:	f2 e9 f1 fe ff ff    	bnd jmpq 403020 <.plt>
  40312f:	90                   	nop
  403130:	f3 0f 1e fa          	endbr64 
  403134:	68 10 00 00 00       	pushq  $0x10
  403139:	f2 e9 e1 fe ff ff    	bnd jmpq 403020 <.plt>
  40313f:	90                   	nop
  403140:	f3 0f 1e fa          	endbr64 
  403144:	68 11 00 00 00       	pushq  $0x11
  403149:	f2 e9 d1 fe ff ff    	bnd jmpq 403020 <.plt>
  40314f:	90                   	nop
  403150:	f3 0f 1e fa          	endbr64 
  403154:	68 12 00 00 00       	pushq  $0x12
  403159:	f2 e9 c1 fe ff ff    	bnd jmpq 403020 <.plt>
  40315f:	90                   	nop
  403160:	f3 0f 1e fa          	endbr64 
  403164:	68 13 00 00 00       	pushq  $0x13
  403169:	f2 e9 b1 fe ff ff    	bnd jmpq 403020 <.plt>
  40316f:	90                   	nop
  403170:	f3 0f 1e fa          	endbr64 
  403174:	68 14 00 00 00       	pushq  $0x14
  403179:	f2 e9 a1 fe ff ff    	bnd jmpq 403020 <.plt>
  40317f:	90                   	nop
  403180:	f3 0f 1e fa          	endbr64 
  403184:	68 15 00 00 00       	pushq  $0x15
  403189:	f2 e9 91 fe ff ff    	bnd jmpq 403020 <.plt>
  40318f:	90                   	nop
  403190:	f3 0f 1e fa          	endbr64 
  403194:	68 16 00 00 00       	pushq  $0x16
  403199:	f2 e9 81 fe ff ff    	bnd jmpq 403020 <.plt>
  40319f:	90                   	nop
  4031a0:	f3 0f 1e fa          	endbr64 
  4031a4:	68 17 00 00 00       	pushq  $0x17
  4031a9:	f2 e9 71 fe ff ff    	bnd jmpq 403020 <.plt>
  4031af:	90                   	nop
  4031b0:	f3 0f 1e fa          	endbr64 
  4031b4:	68 18 00 00 00       	pushq  $0x18
  4031b9:	f2 e9 61 fe ff ff    	bnd jmpq 403020 <.plt>
  4031bf:	90                   	nop
  4031c0:	f3 0f 1e fa          	endbr64 
  4031c4:	68 19 00 00 00       	pushq  $0x19
  4031c9:	f2 e9 51 fe ff ff    	bnd jmpq 403020 <.plt>
  4031cf:	90                   	nop
  4031d0:	f3 0f 1e fa          	endbr64 
  4031d4:	68 1a 00 00 00       	pushq  $0x1a
  4031d9:	f2 e9 41 fe ff ff    	bnd jmpq 403020 <.plt>
  4031df:	90                   	nop
  4031e0:	f3 0f 1e fa          	endbr64 
  4031e4:	68 1b 00 00 00       	pushq  $0x1b
  4031e9:	f2 e9 31 fe ff ff    	bnd jmpq 403020 <.plt>
  4031ef:	90                   	nop
  4031f0:	f3 0f 1e fa          	endbr64 
  4031f4:	68 1c 00 00 00       	pushq  $0x1c
  4031f9:	f2 e9 21 fe ff ff    	bnd jmpq 403020 <.plt>
  4031ff:	90                   	nop
  403200:	f3 0f 1e fa          	endbr64 
  403204:	68 1d 00 00 00       	pushq  $0x1d
  403209:	f2 e9 11 fe ff ff    	bnd jmpq 403020 <.plt>
  40320f:	90                   	nop
  403210:	f3 0f 1e fa          	endbr64 
  403214:	68 1e 00 00 00       	pushq  $0x1e
  403219:	f2 e9 01 fe ff ff    	bnd jmpq 403020 <.plt>
  40321f:	90                   	nop
  403220:	f3 0f 1e fa          	endbr64 
  403224:	68 1f 00 00 00       	pushq  $0x1f
  403229:	f2 e9 f1 fd ff ff    	bnd jmpq 403020 <.plt>
  40322f:	90                   	nop
  403230:	f3 0f 1e fa          	endbr64 
  403234:	68 20 00 00 00       	pushq  $0x20
  403239:	f2 e9 e1 fd ff ff    	bnd jmpq 403020 <.plt>
  40323f:	90                   	nop
  403240:	f3 0f 1e fa          	endbr64 
  403244:	68 21 00 00 00       	pushq  $0x21
  403249:	f2 e9 d1 fd ff ff    	bnd jmpq 403020 <.plt>
  40324f:	90                   	nop
  403250:	f3 0f 1e fa          	endbr64 
  403254:	68 22 00 00 00       	pushq  $0x22
  403259:	f2 e9 c1 fd ff ff    	bnd jmpq 403020 <.plt>
  40325f:	90                   	nop
  403260:	f3 0f 1e fa          	endbr64 
  403264:	68 23 00 00 00       	pushq  $0x23
  403269:	f2 e9 b1 fd ff ff    	bnd jmpq 403020 <.plt>
  40326f:	90                   	nop
  403270:	f3 0f 1e fa          	endbr64 
  403274:	68 24 00 00 00       	pushq  $0x24
  403279:	f2 e9 a1 fd ff ff    	bnd jmpq 403020 <.plt>
  40327f:	90                   	nop
  403280:	f3 0f 1e fa          	endbr64 
  403284:	68 25 00 00 00       	pushq  $0x25
  403289:	f2 e9 91 fd ff ff    	bnd jmpq 403020 <.plt>
  40328f:	90                   	nop
  403290:	f3 0f 1e fa          	endbr64 
  403294:	68 26 00 00 00       	pushq  $0x26
  403299:	f2 e9 81 fd ff ff    	bnd jmpq 403020 <.plt>
  40329f:	90                   	nop
  4032a0:	f3 0f 1e fa          	endbr64 
  4032a4:	68 27 00 00 00       	pushq  $0x27
  4032a9:	f2 e9 71 fd ff ff    	bnd jmpq 403020 <.plt>
  4032af:	90                   	nop
  4032b0:	f3 0f 1e fa          	endbr64 
  4032b4:	68 28 00 00 00       	pushq  $0x28
  4032b9:	f2 e9 61 fd ff ff    	bnd jmpq 403020 <.plt>
  4032bf:	90                   	nop
  4032c0:	f3 0f 1e fa          	endbr64 
  4032c4:	68 29 00 00 00       	pushq  $0x29
  4032c9:	f2 e9 51 fd ff ff    	bnd jmpq 403020 <.plt>
  4032cf:	90                   	nop
  4032d0:	f3 0f 1e fa          	endbr64 
  4032d4:	68 2a 00 00 00       	pushq  $0x2a
  4032d9:	f2 e9 41 fd ff ff    	bnd jmpq 403020 <.plt>
  4032df:	90                   	nop
  4032e0:	f3 0f 1e fa          	endbr64 
  4032e4:	68 2b 00 00 00       	pushq  $0x2b
  4032e9:	f2 e9 31 fd ff ff    	bnd jmpq 403020 <.plt>
  4032ef:	90                   	nop
  4032f0:	f3 0f 1e fa          	endbr64 
  4032f4:	68 2c 00 00 00       	pushq  $0x2c
  4032f9:	f2 e9 21 fd ff ff    	bnd jmpq 403020 <.plt>
  4032ff:	90                   	nop
  403300:	f3 0f 1e fa          	endbr64 
  403304:	68 2d 00 00 00       	pushq  $0x2d
  403309:	f2 e9 11 fd ff ff    	bnd jmpq 403020 <.plt>
  40330f:	90                   	nop
  403310:	f3 0f 1e fa          	endbr64 
  403314:	68 2e 00 00 00       	pushq  $0x2e
  403319:	f2 e9 01 fd ff ff    	bnd jmpq 403020 <.plt>
  40331f:	90                   	nop
  403320:	f3 0f 1e fa          	endbr64 
  403324:	68 2f 00 00 00       	pushq  $0x2f
  403329:	f2 e9 f1 fc ff ff    	bnd jmpq 403020 <.plt>
  40332f:	90                   	nop
  403330:	f3 0f 1e fa          	endbr64 
  403334:	68 30 00 00 00       	pushq  $0x30
  403339:	f2 e9 e1 fc ff ff    	bnd jmpq 403020 <.plt>
  40333f:	90                   	nop
  403340:	f3 0f 1e fa          	endbr64 
  403344:	68 31 00 00 00       	pushq  $0x31
  403349:	f2 e9 d1 fc ff ff    	bnd jmpq 403020 <.plt>
  40334f:	90                   	nop
  403350:	f3 0f 1e fa          	endbr64 
  403354:	68 32 00 00 00       	pushq  $0x32
  403359:	f2 e9 c1 fc ff ff    	bnd jmpq 403020 <.plt>
  40335f:	90                   	nop
  403360:	f3 0f 1e fa          	endbr64 
  403364:	68 33 00 00 00       	pushq  $0x33
  403369:	f2 e9 b1 fc ff ff    	bnd jmpq 403020 <.plt>
  40336f:	90                   	nop
  403370:	f3 0f 1e fa          	endbr64 
  403374:	68 34 00 00 00       	pushq  $0x34
  403379:	f2 e9 a1 fc ff ff    	bnd jmpq 403020 <.plt>
  40337f:	90                   	nop
  403380:	f3 0f 1e fa          	endbr64 
  403384:	68 35 00 00 00       	pushq  $0x35
  403389:	f2 e9 91 fc ff ff    	bnd jmpq 403020 <.plt>
  40338f:	90                   	nop
  403390:	f3 0f 1e fa          	endbr64 
  403394:	68 36 00 00 00       	pushq  $0x36
  403399:	f2 e9 81 fc ff ff    	bnd jmpq 403020 <.plt>
  40339f:	90                   	nop
  4033a0:	f3 0f 1e fa          	endbr64 
  4033a4:	68 37 00 00 00       	pushq  $0x37
  4033a9:	f2 e9 71 fc ff ff    	bnd jmpq 403020 <.plt>
  4033af:	90                   	nop
  4033b0:	f3 0f 1e fa          	endbr64 
  4033b4:	68 38 00 00 00       	pushq  $0x38
  4033b9:	f2 e9 61 fc ff ff    	bnd jmpq 403020 <.plt>
  4033bf:	90                   	nop
  4033c0:	f3 0f 1e fa          	endbr64 
  4033c4:	68 39 00 00 00       	pushq  $0x39
  4033c9:	f2 e9 51 fc ff ff    	bnd jmpq 403020 <.plt>
  4033cf:	90                   	nop
  4033d0:	f3 0f 1e fa          	endbr64 
  4033d4:	68 3a 00 00 00       	pushq  $0x3a
  4033d9:	f2 e9 41 fc ff ff    	bnd jmpq 403020 <.plt>
  4033df:	90                   	nop
  4033e0:	f3 0f 1e fa          	endbr64 
  4033e4:	68 3b 00 00 00       	pushq  $0x3b
  4033e9:	f2 e9 31 fc ff ff    	bnd jmpq 403020 <.plt>
  4033ef:	90                   	nop
  4033f0:	f3 0f 1e fa          	endbr64 
  4033f4:	68 3c 00 00 00       	pushq  $0x3c
  4033f9:	f2 e9 21 fc ff ff    	bnd jmpq 403020 <.plt>
  4033ff:	90                   	nop
  403400:	f3 0f 1e fa          	endbr64 
  403404:	68 3d 00 00 00       	pushq  $0x3d
  403409:	f2 e9 11 fc ff ff    	bnd jmpq 403020 <.plt>
  40340f:	90                   	nop
  403410:	f3 0f 1e fa          	endbr64 
  403414:	68 3e 00 00 00       	pushq  $0x3e
  403419:	f2 e9 01 fc ff ff    	bnd jmpq 403020 <.plt>
  40341f:	90                   	nop
  403420:	f3 0f 1e fa          	endbr64 
  403424:	68 3f 00 00 00       	pushq  $0x3f
  403429:	f2 e9 f1 fb ff ff    	bnd jmpq 403020 <.plt>
  40342f:	90                   	nop
  403430:	f3 0f 1e fa          	endbr64 
  403434:	68 40 00 00 00       	pushq  $0x40
  403439:	f2 e9 e1 fb ff ff    	bnd jmpq 403020 <.plt>
  40343f:	90                   	nop
  403440:	f3 0f 1e fa          	endbr64 
  403444:	68 41 00 00 00       	pushq  $0x41
  403449:	f2 e9 d1 fb ff ff    	bnd jmpq 403020 <.plt>
  40344f:	90                   	nop
  403450:	f3 0f 1e fa          	endbr64 
  403454:	68 42 00 00 00       	pushq  $0x42
  403459:	f2 e9 c1 fb ff ff    	bnd jmpq 403020 <.plt>
  40345f:	90                   	nop
  403460:	f3 0f 1e fa          	endbr64 
  403464:	68 43 00 00 00       	pushq  $0x43
  403469:	f2 e9 b1 fb ff ff    	bnd jmpq 403020 <.plt>
  40346f:	90                   	nop
  403470:	f3 0f 1e fa          	endbr64 
  403474:	68 44 00 00 00       	pushq  $0x44
  403479:	f2 e9 a1 fb ff ff    	bnd jmpq 403020 <.plt>
  40347f:	90                   	nop
  403480:	f3 0f 1e fa          	endbr64 
  403484:	68 45 00 00 00       	pushq  $0x45
  403489:	f2 e9 91 fb ff ff    	bnd jmpq 403020 <.plt>
  40348f:	90                   	nop
  403490:	f3 0f 1e fa          	endbr64 
  403494:	68 46 00 00 00       	pushq  $0x46
  403499:	f2 e9 81 fb ff ff    	bnd jmpq 403020 <.plt>
  40349f:	90                   	nop
  4034a0:	f3 0f 1e fa          	endbr64 
  4034a4:	68 47 00 00 00       	pushq  $0x47
  4034a9:	f2 e9 71 fb ff ff    	bnd jmpq 403020 <.plt>
  4034af:	90                   	nop
  4034b0:	f3 0f 1e fa          	endbr64 
  4034b4:	68 48 00 00 00       	pushq  $0x48
  4034b9:	f2 e9 61 fb ff ff    	bnd jmpq 403020 <.plt>
  4034bf:	90                   	nop
  4034c0:	f3 0f 1e fa          	endbr64 
  4034c4:	68 49 00 00 00       	pushq  $0x49
  4034c9:	f2 e9 51 fb ff ff    	bnd jmpq 403020 <.plt>
  4034cf:	90                   	nop
  4034d0:	f3 0f 1e fa          	endbr64 
  4034d4:	68 4a 00 00 00       	pushq  $0x4a
  4034d9:	f2 e9 41 fb ff ff    	bnd jmpq 403020 <.plt>
  4034df:	90                   	nop
  4034e0:	f3 0f 1e fa          	endbr64 
  4034e4:	68 4b 00 00 00       	pushq  $0x4b
  4034e9:	f2 e9 31 fb ff ff    	bnd jmpq 403020 <.plt>
  4034ef:	90                   	nop
  4034f0:	f3 0f 1e fa          	endbr64 
  4034f4:	68 4c 00 00 00       	pushq  $0x4c
  4034f9:	f2 e9 21 fb ff ff    	bnd jmpq 403020 <.plt>
  4034ff:	90                   	nop
  403500:	f3 0f 1e fa          	endbr64 
  403504:	68 4d 00 00 00       	pushq  $0x4d
  403509:	f2 e9 11 fb ff ff    	bnd jmpq 403020 <.plt>
  40350f:	90                   	nop
  403510:	f3 0f 1e fa          	endbr64 
  403514:	68 4e 00 00 00       	pushq  $0x4e
  403519:	f2 e9 01 fb ff ff    	bnd jmpq 403020 <.plt>
  40351f:	90                   	nop
  403520:	f3 0f 1e fa          	endbr64 
  403524:	68 4f 00 00 00       	pushq  $0x4f
  403529:	f2 e9 f1 fa ff ff    	bnd jmpq 403020 <.plt>
  40352f:	90                   	nop
  403530:	f3 0f 1e fa          	endbr64 
  403534:	68 50 00 00 00       	pushq  $0x50
  403539:	f2 e9 e1 fa ff ff    	bnd jmpq 403020 <.plt>
  40353f:	90                   	nop
  403540:	f3 0f 1e fa          	endbr64 
  403544:	68 51 00 00 00       	pushq  $0x51
  403549:	f2 e9 d1 fa ff ff    	bnd jmpq 403020 <.plt>
  40354f:	90                   	nop
  403550:	f3 0f 1e fa          	endbr64 
  403554:	68 52 00 00 00       	pushq  $0x52
  403559:	f2 e9 c1 fa ff ff    	bnd jmpq 403020 <.plt>
  40355f:	90                   	nop
  403560:	f3 0f 1e fa          	endbr64 
  403564:	68 53 00 00 00       	pushq  $0x53
  403569:	f2 e9 b1 fa ff ff    	bnd jmpq 403020 <.plt>
  40356f:	90                   	nop
  403570:	f3 0f 1e fa          	endbr64 
  403574:	68 54 00 00 00       	pushq  $0x54
  403579:	f2 e9 a1 fa ff ff    	bnd jmpq 403020 <.plt>
  40357f:	90                   	nop
  403580:	f3 0f 1e fa          	endbr64 
  403584:	68 55 00 00 00       	pushq  $0x55
  403589:	f2 e9 91 fa ff ff    	bnd jmpq 403020 <.plt>
  40358f:	90                   	nop
  403590:	f3 0f 1e fa          	endbr64 
  403594:	68 56 00 00 00       	pushq  $0x56
  403599:	f2 e9 81 fa ff ff    	bnd jmpq 403020 <.plt>
  40359f:	90                   	nop
  4035a0:	f3 0f 1e fa          	endbr64 
  4035a4:	68 57 00 00 00       	pushq  $0x57
  4035a9:	f2 e9 71 fa ff ff    	bnd jmpq 403020 <.plt>
  4035af:	90                   	nop
  4035b0:	f3 0f 1e fa          	endbr64 
  4035b4:	68 58 00 00 00       	pushq  $0x58
  4035b9:	f2 e9 61 fa ff ff    	bnd jmpq 403020 <.plt>
  4035bf:	90                   	nop
  4035c0:	f3 0f 1e fa          	endbr64 
  4035c4:	68 59 00 00 00       	pushq  $0x59
  4035c9:	f2 e9 51 fa ff ff    	bnd jmpq 403020 <.plt>
  4035cf:	90                   	nop
  4035d0:	f3 0f 1e fa          	endbr64 
  4035d4:	68 5a 00 00 00       	pushq  $0x5a
  4035d9:	f2 e9 41 fa ff ff    	bnd jmpq 403020 <.plt>
  4035df:	90                   	nop
  4035e0:	f3 0f 1e fa          	endbr64 
  4035e4:	68 5b 00 00 00       	pushq  $0x5b
  4035e9:	f2 e9 31 fa ff ff    	bnd jmpq 403020 <.plt>
  4035ef:	90                   	nop
  4035f0:	f3 0f 1e fa          	endbr64 
  4035f4:	68 5c 00 00 00       	pushq  $0x5c
  4035f9:	f2 e9 21 fa ff ff    	bnd jmpq 403020 <.plt>
  4035ff:	90                   	nop
  403600:	f3 0f 1e fa          	endbr64 
  403604:	68 5d 00 00 00       	pushq  $0x5d
  403609:	f2 e9 11 fa ff ff    	bnd jmpq 403020 <.plt>
  40360f:	90                   	nop
  403610:	f3 0f 1e fa          	endbr64 
  403614:	68 5e 00 00 00       	pushq  $0x5e
  403619:	f2 e9 01 fa ff ff    	bnd jmpq 403020 <.plt>
  40361f:	90                   	nop
  403620:	f3 0f 1e fa          	endbr64 
  403624:	68 5f 00 00 00       	pushq  $0x5f
  403629:	f2 e9 f1 f9 ff ff    	bnd jmpq 403020 <.plt>
  40362f:	90                   	nop
  403630:	f3 0f 1e fa          	endbr64 
  403634:	68 60 00 00 00       	pushq  $0x60
  403639:	f2 e9 e1 f9 ff ff    	bnd jmpq 403020 <.plt>
  40363f:	90                   	nop
  403640:	f3 0f 1e fa          	endbr64 
  403644:	68 61 00 00 00       	pushq  $0x61
  403649:	f2 e9 d1 f9 ff ff    	bnd jmpq 403020 <.plt>
  40364f:	90                   	nop
  403650:	f3 0f 1e fa          	endbr64 
  403654:	68 62 00 00 00       	pushq  $0x62
  403659:	f2 e9 c1 f9 ff ff    	bnd jmpq 403020 <.plt>
  40365f:	90                   	nop
  403660:	f3 0f 1e fa          	endbr64 
  403664:	68 63 00 00 00       	pushq  $0x63
  403669:	f2 e9 b1 f9 ff ff    	bnd jmpq 403020 <.plt>
  40366f:	90                   	nop
  403670:	f3 0f 1e fa          	endbr64 
  403674:	68 64 00 00 00       	pushq  $0x64
  403679:	f2 e9 a1 f9 ff ff    	bnd jmpq 403020 <.plt>
  40367f:	90                   	nop
  403680:	f3 0f 1e fa          	endbr64 
  403684:	68 65 00 00 00       	pushq  $0x65
  403689:	f2 e9 91 f9 ff ff    	bnd jmpq 403020 <.plt>
  40368f:	90                   	nop
  403690:	f3 0f 1e fa          	endbr64 
  403694:	68 66 00 00 00       	pushq  $0x66
  403699:	f2 e9 81 f9 ff ff    	bnd jmpq 403020 <.plt>
  40369f:	90                   	nop
  4036a0:	f3 0f 1e fa          	endbr64 
  4036a4:	68 67 00 00 00       	pushq  $0x67
  4036a9:	f2 e9 71 f9 ff ff    	bnd jmpq 403020 <.plt>
  4036af:	90                   	nop
  4036b0:	f3 0f 1e fa          	endbr64 
  4036b4:	68 68 00 00 00       	pushq  $0x68
  4036b9:	f2 e9 61 f9 ff ff    	bnd jmpq 403020 <.plt>
  4036bf:	90                   	nop
  4036c0:	f3 0f 1e fa          	endbr64 
  4036c4:	68 69 00 00 00       	pushq  $0x69
  4036c9:	f2 e9 51 f9 ff ff    	bnd jmpq 403020 <.plt>
  4036cf:	90                   	nop
  4036d0:	f3 0f 1e fa          	endbr64 
  4036d4:	68 6a 00 00 00       	pushq  $0x6a
  4036d9:	f2 e9 41 f9 ff ff    	bnd jmpq 403020 <.plt>
  4036df:	90                   	nop

Disassembly of section .plt.sec:

00000000004036e0 <__printf_chk@plt>:
  4036e0:	f3 0f 1e fa          	endbr64 
  4036e4:	f2 ff 25 2d 79 01 00 	bnd jmpq *0x1792d(%rip)        # 41b018 <__printf_chk@GLIBC_2.3.4>
  4036eb:	0f 1f 44 00 00       	nopl   0x0(%rax,%rax,1)

00000000004036f0 <_Znam@plt>:
  4036f0:	f3 0f 1e fa          	endbr64 
  4036f4:	f2 ff 25 25 79 01 00 	bnd jmpq *0x17925(%rip)        # 41b020 <_Znam@GLIBCXX_3.4>
  4036fb:	0f 1f 44 00 00       	nopl   0x0(%rax,%rax,1)

0000000000403700 <GOMP_loop_end_nowait@plt>:
  403700:	f3 0f 1e fa          	endbr64 
  403704:	f2 ff 25 1d 79 01 00 	bnd jmpq *0x1791d(%rip)        # 41b028 <GOMP_loop_end_nowait@VERSION>
  40370b:	0f 1f 44 00 00       	nopl   0x0(%rax,%rax,1)

0000000000403710 <_ZNSo3putEc@plt>:
  403710:	f3 0f 1e fa          	endbr64 
  403714:	f2 ff 25 15 79 01 00 	bnd jmpq *0x17915(%rip)        # 41b030 <_ZNSo3putEc@GLIBCXX_3.4>
  40371b:	0f 1f 44 00 00       	nopl   0x0(%rax,%rax,1)

0000000000403720 <_ZNSt6chrono3_V212system_clock3nowEv@plt>:
  403720:	f3 0f 1e fa          	endbr64 
  403724:	f2 ff 25 0d 79 01 00 	bnd jmpq *0x1790d(%rip)        # 41b038 <_ZNSt6chrono3_V212system_clock3nowEv@GLIBCXX_3.4.19>
  40372b:	0f 1f 44 00 00       	nopl   0x0(%rax,%rax,1)

0000000000403730 <syscall@plt>:
  403730:	f3 0f 1e fa          	endbr64 
  403734:	f2 ff 25 05 79 01 00 	bnd jmpq *0x17905(%rip)        # 41b040 <syscall@GLIBC_2.2.5>
  40373b:	0f 1f 44 00 00       	nopl   0x0(%rax,%rax,1)

0000000000403740 <bind@plt>:
  403740:	f3 0f 1e fa          	endbr64 
  403744:	f2 ff 25 fd 78 01 00 	bnd jmpq *0x178fd(%rip)        # 41b048 <bind@GLIBC_2.2.5>
  40374b:	0f 1f 44 00 00       	nopl   0x0(%rax,%rax,1)

0000000000403750 <GOMP_loop_ull_nonmonotonic_dynamic_start@plt>:
  403750:	f3 0f 1e fa          	endbr64 
  403754:	f2 ff 25 f5 78 01 00 	bnd jmpq *0x178f5(%rip)        # 41b050 <GOMP_loop_ull_nonmonotonic_dynamic_start@VERSION>
  40375b:	0f 1f 44 00 00       	nopl   0x0(%rax,%rax,1)

0000000000403760 <GOMP_single_start@plt>:
  403760:	f3 0f 1e fa          	endbr64 
  403764:	f2 ff 25 ed 78 01 00 	bnd jmpq *0x178ed(%rip)        # 41b058 <GOMP_single_start@VERSION>
  40376b:	0f 1f 44 00 00       	nopl   0x0(%rax,%rax,1)

0000000000403770 <strstr@plt>:
  403770:	f3 0f 1e fa          	endbr64 
  403774:	f2 ff 25 e5 78 01 00 	bnd jmpq *0x178e5(%rip)        # 41b060 <strstr@GLIBC_2.2.5>
  40377b:	0f 1f 44 00 00       	nopl   0x0(%rax,%rax,1)

0000000000403780 <_ZNSt13basic_filebufIcSt11char_traitsIcEE5closeEv@plt>:
  403780:	f3 0f 1e fa          	endbr64 
  403784:	f2 ff 25 dd 78 01 00 	bnd jmpq *0x178dd(%rip)        # 41b068 <_ZNSt13basic_filebufIcSt11char_traitsIcEE5closeEv@GLIBCXX_3.4>
  40378b:	0f 1f 44 00 00       	nopl   0x0(%rax,%rax,1)

0000000000403790 <getopt@plt>:
  403790:	f3 0f 1e fa          	endbr64 
  403794:	f2 ff 25 d5 78 01 00 	bnd jmpq *0x178d5(%rip)        # 41b070 <getopt@GLIBC_2.2.5>
  40379b:	0f 1f 44 00 00       	nopl   0x0(%rax,%rax,1)

00000000004037a0 <_ZNKSt12__basic_fileIcE7is_openEv@plt>:
  4037a0:	f3 0f 1e fa          	endbr64 
  4037a4:	f2 ff 25 cd 78 01 00 	bnd jmpq *0x178cd(%rip)        # 41b078 <_ZNKSt12__basic_fileIcE7is_openEv@GLIBCXX_3.4>
  4037ab:	0f 1f 44 00 00       	nopl   0x0(%rax,%rax,1)

00000000004037b0 <socket@plt>:
  4037b0:	f3 0f 1e fa          	endbr64 
  4037b4:	f2 ff 25 c5 78 01 00 	bnd jmpq *0x178c5(%rip)        # 41b080 <socket@GLIBC_2.2.5>
  4037bb:	0f 1f 44 00 00       	nopl   0x0(%rax,%rax,1)

00000000004037c0 <_ZNSt14basic_ifstreamIcSt11char_traitsIcEED1Ev@plt>:
  4037c0:	f3 0f 1e fa          	endbr64 
  4037c4:	f2 ff 25 bd 78 01 00 	bnd jmpq *0x178bd(%rip)        # 41b088 <_ZNSt14basic_ifstreamIcSt11char_traitsIcEED1Ev@GLIBCXX_3.4>
  4037cb:	0f 1f 44 00 00       	nopl   0x0(%rax,%rax,1)

00000000004037d0 <fork@plt>:
  4037d0:	f3 0f 1e fa          	endbr64 
  4037d4:	f2 ff 25 b5 78 01 00 	bnd jmpq *0x178b5(%rip)        # 41b090 <fork@GLIBC_2.2.5>
  4037db:	0f 1f 44 00 00       	nopl   0x0(%rax,%rax,1)

00000000004037e0 <_ZSt9terminatev@plt>:
  4037e0:	f3 0f 1e fa          	endbr64 
  4037e4:	f2 ff 25 ad 78 01 00 	bnd jmpq *0x178ad(%rip)        # 41b098 <_ZSt9terminatev@GLIBCXX_3.4>
  4037eb:	0f 1f 44 00 00       	nopl   0x0(%rax,%rax,1)

00000000004037f0 <_ZNKSt7__cxx1112basic_stringIcSt11char_traitsIcESaIcEE7compareEPKc@plt>:
  4037f0:	f3 0f 1e fa          	endbr64 
  4037f4:	f2 ff 25 a5 78 01 00 	bnd jmpq *0x178a5(%rip)        # 41b0a0 <_ZNKSt7__cxx1112basic_stringIcSt11char_traitsIcESaIcEE7compareEPKc@GLIBCXX_3.4.21>
  4037fb:	0f 1f 44 00 00       	nopl   0x0(%rax,%rax,1)

0000000000403800 <execlp@plt>:
  403800:	f3 0f 1e fa          	endbr64 
  403804:	f2 ff 25 9d 78 01 00 	bnd jmpq *0x1789d(%rip)        # 41b0a8 <execlp@GLIBC_2.2.5>
  40380b:	0f 1f 44 00 00       	nopl   0x0(%rax,%rax,1)

0000000000403810 <_ZNSt8ios_baseC2Ev@plt>:
  403810:	f3 0f 1e fa          	endbr64 
  403814:	f2 ff 25 95 78 01 00 	bnd jmpq *0x17895(%rip)        # 41b0b0 <_ZNSt8ios_baseC2Ev@GLIBCXX_3.4>
  40381b:	0f 1f 44 00 00       	nopl   0x0(%rax,%rax,1)

0000000000403820 <_ZNSt7__cxx1112basic_stringIcSt11char_traitsIcESaIcEE9_M_appendEPKcm@plt>:
  403820:	f3 0f 1e fa          	endbr64 
  403824:	f2 ff 25 8d 78 01 00 	bnd jmpq *0x1788d(%rip)        # 41b0b8 <_ZNSt7__cxx1112basic_stringIcSt11char_traitsIcESaIcEE9_M_appendEPKcm@GLIBCXX_3.4.21>
  40382b:	0f 1f 44 00 00       	nopl   0x0(%rax,%rax,1)

0000000000403830 <recv@plt>:
  403830:	f3 0f 1e fa          	endbr64 
  403834:	f2 ff 25 85 78 01 00 	bnd jmpq *0x17885(%rip)        # 41b0c0 <recv@GLIBC_2.2.5>
  40383b:	0f 1f 44 00 00       	nopl   0x0(%rax,%rax,1)

0000000000403840 <_ZNSt8ios_baseD2Ev@plt>:
  403840:	f3 0f 1e fa          	endbr64 
  403844:	f2 ff 25 7d 78 01 00 	bnd jmpq *0x1787d(%rip)        # 41b0c8 <_ZNSt8ios_baseD2Ev@GLIBCXX_3.4>
  40384b:	0f 1f 44 00 00       	nopl   0x0(%rax,%rax,1)

0000000000403850 <_ZNSi4peekEv@plt>:
  403850:	f3 0f 1e fa          	endbr64 
  403854:	f2 ff 25 75 78 01 00 	bnd jmpq *0x17875(%rip)        # 41b0d0 <_ZNSi4peekEv@GLIBCXX_3.4>
  40385b:	0f 1f 44 00 00       	nopl   0x0(%rax,%rax,1)

0000000000403860 <__cxa_begin_catch@plt>:
  403860:	f3 0f 1e fa          	endbr64 
  403864:	f2 ff 25 6d 78 01 00 	bnd jmpq *0x1786d(%rip)        # 41b0d8 <__cxa_begin_catch@CXXABI_1.3>
  40386b:	0f 1f 44 00 00       	nopl   0x0(%rax,%rax,1)

0000000000403870 <strlen@plt>:
  403870:	f3 0f 1e fa          	endbr64 
  403874:	f2 ff 25 65 78 01 00 	bnd jmpq *0x17865(%rip)        # 41b0e0 <strlen@GLIBC_2.2.5>
  40387b:	0f 1f 44 00 00       	nopl   0x0(%rax,%rax,1)

0000000000403880 <_ZNSt7__cxx1119basic_istringstreamIcSt11char_traitsIcESaIcEED1Ev@plt>:
  403880:	f3 0f 1e fa          	endbr64 
  403884:	f2 ff 25 5d 78 01 00 	bnd jmpq *0x1785d(%rip)        # 41b0e8 <_ZNSt7__cxx1119basic_istringstreamIcSt11char_traitsIcESaIcEED1Ev@GLIBCXX_3.4.21>
  40388b:	0f 1f 44 00 00       	nopl   0x0(%rax,%rax,1)

0000000000403890 <send@plt>:
  403890:	f3 0f 1e fa          	endbr64 
  403894:	f2 ff 25 55 78 01 00 	bnd jmpq *0x17855(%rip)        # 41b0f0 <send@GLIBC_2.2.5>
  40389b:	0f 1f 44 00 00       	nopl   0x0(%rax,%rax,1)

00000000004038a0 <GOMP_critical_end@plt>:
  4038a0:	f3 0f 1e fa          	endbr64 
  4038a4:	f2 ff 25 4d 78 01 00 	bnd jmpq *0x1784d(%rip)        # 41b0f8 <GOMP_critical_end@VERSION>
  4038ab:	0f 1f 44 00 00       	nopl   0x0(%rax,%rax,1)

00000000004038b0 <_ZSt20__throw_length_errorPKc@plt>:
  4038b0:	f3 0f 1e fa          	endbr64 
  4038b4:	f2 ff 25 45 78 01 00 	bnd jmpq *0x17845(%rip)        # 41b100 <_ZSt20__throw_length_errorPKc@GLIBCXX_3.4>
  4038bb:	0f 1f 44 00 00       	nopl   0x0(%rax,%rax,1)

00000000004038c0 <memset@plt>:
  4038c0:	f3 0f 1e fa          	endbr64 
  4038c4:	f2 ff 25 3d 78 01 00 	bnd jmpq *0x1783d(%rip)        # 41b108 <memset@GLIBC_2.2.5>
  4038cb:	0f 1f 44 00 00       	nopl   0x0(%rax,%rax,1)

00000000004038d0 <getrusage@plt>:
  4038d0:	f3 0f 1e fa          	endbr64 
  4038d4:	f2 ff 25 35 78 01 00 	bnd jmpq *0x17835(%rip)        # 41b110 <getrusage@GLIBC_2.2.5>
  4038db:	0f 1f 44 00 00       	nopl   0x0(%rax,%rax,1)

00000000004038e0 <munmap@plt>:
  4038e0:	f3 0f 1e fa          	endbr64 
  4038e4:	f2 ff 25 2d 78 01 00 	bnd jmpq *0x1782d(%rip)        # 41b118 <munmap@GLIBC_2.2.5>
  4038eb:	0f 1f 44 00 00       	nopl   0x0(%rax,%rax,1)

00000000004038f0 <__snprintf_chk@plt>:
  4038f0:	f3 0f 1e fa          	endbr64 
  4038f4:	f2 ff 25 25 78 01 00 	bnd jmpq *0x17825(%rip)        # 41b120 <__snprintf_chk@GLIBC_2.3.4>
  4038fb:	0f 1f 44 00 00       	nopl   0x0(%rax,%rax,1)

0000000000403900 <_ZNSirsERi@plt>:
  403900:	f3 0f 1e fa          	endbr64 
  403904:	f2 ff 25 1d 78 01 00 	bnd jmpq *0x1781d(%rip)        # 41b128 <_ZNSirsERi@GLIBCXX_3.4>
  40390b:	0f 1f 44 00 00       	nopl   0x0(%rax,%rax,1)

0000000000403910 <_ZNSi6ignoreEli@plt>:
  403910:	f3 0f 1e fa          	endbr64 
  403914:	f2 ff 25 15 78 01 00 	bnd jmpq *0x17815(%rip)        # 41b130 <_ZNSi6ignoreEli@GLIBCXX_3.4>
  40391b:	0f 1f 44 00 00       	nopl   0x0(%rax,%rax,1)

0000000000403920 <_ZNSo9_M_insertImEERSoT_@plt>:
  403920:	f3 0f 1e fa          	endbr64 
  403924:	f2 ff 25 0d 78 01 00 	bnd jmpq *0x1780d(%rip)        # 41b138 <_ZNSo9_M_insertImEERSoT_@GLIBCXX_3.4.9>
  40392b:	0f 1f 44 00 00       	nopl   0x0(%rax,%rax,1)

0000000000403930 <_ZNSo5flushEv@plt>:
  403930:	f3 0f 1e fa          	endbr64 
  403934:	f2 ff 25 05 78 01 00 	bnd jmpq *0x17805(%rip)        # 41b140 <_ZNSo5flushEv@GLIBCXX_3.4>
  40393b:	0f 1f 44 00 00       	nopl   0x0(%rax,%rax,1)

0000000000403940 <_ZSt19__throw_logic_errorPKc@plt>:
  403940:	f3 0f 1e fa          	endbr64 
  403944:	f2 ff 25 fd 77 01 00 	bnd jmpq *0x177fd(%rip)        # 41b148 <_ZSt19__throw_logic_errorPKc@GLIBCXX_3.4>
  40394b:	0f 1f 44 00 00       	nopl   0x0(%rax,%rax,1)

0000000000403950 <memcpy@plt>:
  403950:	f3 0f 1e fa          	endbr64 
  403954:	f2 ff 25 f5 77 01 00 	bnd jmpq *0x177f5(%rip)        # 41b150 <memcpy@GLIBC_2.14>
  40395b:	0f 1f 44 00 00       	nopl   0x0(%rax,%rax,1)

0000000000403960 <perror@plt>:
  403960:	f3 0f 1e fa          	endbr64 
  403964:	f2 ff 25 ed 77 01 00 	bnd jmpq *0x177ed(%rip)        # 41b158 <perror@GLIBC_2.2.5>
  40396b:	0f 1f 44 00 00       	nopl   0x0(%rax,%rax,1)

0000000000403970 <_ZSt2wsIcSt11char_traitsIcEERSt13basic_istreamIT_T0_ES6_@plt>:
  403970:	f3 0f 1e fa          	endbr64 
  403974:	f2 ff 25 e5 77 01 00 	bnd jmpq *0x177e5(%rip)        # 41b160 <_ZSt2wsIcSt11char_traitsIcEERSt13basic_istreamIT_T0_ES6_@GLIBCXX_3.4>
  40397b:	0f 1f 44 00 00       	nopl   0x0(%rax,%rax,1)

0000000000403980 <system@plt>:
  403980:	f3 0f 1e fa          	endbr64 
  403984:	f2 ff 25 dd 77 01 00 	bnd jmpq *0x177dd(%rip)        # 41b168 <system@GLIBC_2.2.5>
  40398b:	0f 1f 44 00 00       	nopl   0x0(%rax,%rax,1)

0000000000403990 <__cxa_atexit@plt>:
  403990:	f3 0f 1e fa          	endbr64 
  403994:	f2 ff 25 d5 77 01 00 	bnd jmpq *0x177d5(%rip)        # 41b170 <__cxa_atexit@GLIBC_2.2.5>
  40399b:	0f 1f 44 00 00       	nopl   0x0(%rax,%rax,1)

00000000004039a0 <_ZNSt13basic_filebufIcSt11char_traitsIcEE4openEPKcSt13_Ios_Openmode@plt>:
  4039a0:	f3 0f 1e fa          	endbr64 
  4039a4:	f2 ff 25 cd 77 01 00 	bnd jmpq *0x177cd(%rip)        # 41b178 <_ZNSt13basic_filebufIcSt11char_traitsIcEE4openEPKcSt13_Ios_Openmode@GLIBCXX_3.4>
  4039ab:	0f 1f 44 00 00       	nopl   0x0(%rax,%rax,1)

00000000004039b0 <clock_gettime@plt>:
  4039b0:	f3 0f 1e fa          	endbr64 
  4039b4:	f2 ff 25 c5 77 01 00 	bnd jmpq *0x177c5(%rip)        # 41b180 <clock_gettime@GLIBC_2.17>
  4039bb:	0f 1f 44 00 00       	nopl   0x0(%rax,%rax,1)

00000000004039c0 <_ZdlPv@plt>:
  4039c0:	f3 0f 1e fa          	endbr64 
  4039c4:	f2 ff 25 bd 77 01 00 	bnd jmpq *0x177bd(%rip)        # 41b188 <_ZdlPv@GLIBCXX_3.4>
  4039cb:	0f 1f 44 00 00       	nopl   0x0(%rax,%rax,1)

00000000004039d0 <_ZNSo9_M_insertIlEERSoT_@plt>:
  4039d0:	f3 0f 1e fa          	endbr64 
  4039d4:	f2 ff 25 b5 77 01 00 	bnd jmpq *0x177b5(%rip)        # 41b190 <_ZNSo9_M_insertIlEERSoT_@GLIBCXX_3.4.9>
  4039db:	0f 1f 44 00 00       	nopl   0x0(%rax,%rax,1)

00000000004039e0 <__isoc99_sscanf@plt>:
  4039e0:	f3 0f 1e fa          	endbr64 
  4039e4:	f2 ff 25 ad 77 01 00 	bnd jmpq *0x177ad(%rip)        # 41b198 <__isoc99_sscanf@GLIBC_2.7>
  4039eb:	0f 1f 44 00 00       	nopl   0x0(%rax,%rax,1)

00000000004039f0 <fclose@plt>:
  4039f0:	f3 0f 1e fa          	endbr64 
  4039f4:	f2 ff 25 a5 77 01 00 	bnd jmpq *0x177a5(%rip)        # 41b1a0 <fclose@GLIBC_2.2.5>
  4039fb:	0f 1f 44 00 00       	nopl   0x0(%rax,%rax,1)

0000000000403a00 <_Znwm@plt>:
  403a00:	f3 0f 1e fa          	endbr64 
  403a04:	f2 ff 25 9d 77 01 00 	bnd jmpq *0x1779d(%rip)        # 41b1a8 <_Znwm@GLIBCXX_3.4>
  403a0b:	0f 1f 44 00 00       	nopl   0x0(%rax,%rax,1)

0000000000403a10 <_ZNSi10_M_extractIlEERSiRT_@plt>:
  403a10:	f3 0f 1e fa          	endbr64 
  403a14:	f2 ff 25 95 77 01 00 	bnd jmpq *0x17795(%rip)        # 41b1b0 <_ZNSi10_M_extractIlEERSiRT_@GLIBCXX_3.4.9>
  403a1b:	0f 1f 44 00 00       	nopl   0x0(%rax,%rax,1)

0000000000403a20 <_ZNSt13basic_filebufIcSt11char_traitsIcEEC1Ev@plt>:
  403a20:	f3 0f 1e fa          	endbr64 
  403a24:	f2 ff 25 8d 77 01 00 	bnd jmpq *0x1778d(%rip)        # 41b1b8 <_ZNSt13basic_filebufIcSt11char_traitsIcEEC1Ev@GLIBCXX_3.4>
  403a2b:	0f 1f 44 00 00       	nopl   0x0(%rax,%rax,1)

0000000000403a30 <__stack_chk_fail@plt>:
  403a30:	f3 0f 1e fa          	endbr64 
  403a34:	f2 ff 25 85 77 01 00 	bnd jmpq *0x17785(%rip)        # 41b1c0 <__stack_chk_fail@GLIBC_2.4>
  403a3b:	0f 1f 44 00 00       	nopl   0x0(%rax,%rax,1)

0000000000403a40 <_ZSt16__ostream_insertIcSt11char_traitsIcEERSt13basic_ostreamIT_T0_ES6_PKS3_l@plt>:
  403a40:	f3 0f 1e fa          	endbr64 
  403a44:	f2 ff 25 7d 77 01 00 	bnd jmpq *0x1777d(%rip)        # 41b1c8 <_ZSt16__ostream_insertIcSt11char_traitsIcEERSt13basic_ostreamIT_T0_ES6_PKS3_l@GLIBCXX_3.4.9>
  403a4b:	0f 1f 44 00 00       	nopl   0x0(%rax,%rax,1)

0000000000403a50 <_ZNKSt5ctypeIcE13_M_widen_initEv@plt>:
  403a50:	f3 0f 1e fa          	endbr64 
  403a54:	f2 ff 25 75 77 01 00 	bnd jmpq *0x17775(%rip)        # 41b1d0 <_ZNKSt5ctypeIcE13_M_widen_initEv@GLIBCXX_3.4.11>
  403a5b:	0f 1f 44 00 00       	nopl   0x0(%rax,%rax,1)

0000000000403a60 <omp_get_thread_num@plt>:
  403a60:	f3 0f 1e fa          	endbr64 
  403a64:	f2 ff 25 6d 77 01 00 	bnd jmpq *0x1776d(%rip)        # 41b1d8 <omp_get_thread_num@VERSION>
  403a6b:	0f 1f 44 00 00       	nopl   0x0(%rax,%rax,1)

0000000000403a70 <_ZNSt7__cxx1112basic_stringIcSt11char_traitsIcESaIcEE12_M_constructEmc@plt>:
  403a70:	f3 0f 1e fa          	endbr64 
  403a74:	f2 ff 25 65 77 01 00 	bnd jmpq *0x17765(%rip)        # 41b1e0 <_ZNSt7__cxx1112basic_stringIcSt11char_traitsIcESaIcEE12_M_constructEmc@GLIBCXX_3.4.21>
  403a7b:	0f 1f 44 00 00       	nopl   0x0(%rax,%rax,1)

0000000000403a80 <fopen@plt>:
  403a80:	f3 0f 1e fa          	endbr64 
  403a84:	f2 ff 25 5d 77 01 00 	bnd jmpq *0x1775d(%rip)        # 41b1e8 <fopen@GLIBC_2.2.5>
  403a8b:	0f 1f 44 00 00       	nopl   0x0(%rax,%rax,1)

0000000000403a90 <GOMP_barrier@plt>:
  403a90:	f3 0f 1e fa          	endbr64 
  403a94:	f2 ff 25 55 77 01 00 	bnd jmpq *0x17755(%rip)        # 41b1f0 <GOMP_barrier@VERSION>
  403a9b:	0f 1f 44 00 00       	nopl   0x0(%rax,%rax,1)

0000000000403aa0 <exit@plt>:
  403aa0:	f3 0f 1e fa          	endbr64 
  403aa4:	f2 ff 25 4d 77 01 00 	bnd jmpq *0x1774d(%rip)        # 41b1f8 <exit@GLIBC_2.2.5>
  403aab:	0f 1f 44 00 00       	nopl   0x0(%rax,%rax,1)

0000000000403ab0 <getenv@plt>:
  403ab0:	f3 0f 1e fa          	endbr64 
  403ab4:	f2 ff 25 45 77 01 00 	bnd jmpq *0x17745(%rip)        # 41b200 <getenv@GLIBC_2.2.5>
  403abb:	0f 1f 44 00 00       	nopl   0x0(%rax,%rax,1)

0000000000403ac0 <_ZNSi4readEPcl@plt>:
  403ac0:	f3 0f 1e fa          	endbr64 
  403ac4:	f2 ff 25 3d 77 01 00 	bnd jmpq *0x1773d(%rip)        # 41b208 <_ZNSi4readEPcl@GLIBCXX_3.4>
  403acb:	0f 1f 44 00 00       	nopl   0x0(%rax,%rax,1)

0000000000403ad0 <_ZSt16__throw_bad_castv@plt>:
  403ad0:	f3 0f 1e fa          	endbr64 
  403ad4:	f2 ff 25 35 77 01 00 	bnd jmpq *0x17735(%rip)        # 41b210 <_ZSt16__throw_bad_castv@GLIBCXX_3.4>
  403adb:	0f 1f 44 00 00       	nopl   0x0(%rax,%rax,1)

0000000000403ae0 <_ZStrsIcSt11char_traitsIcESaIcEERSt13basic_istreamIT_T0_ES7_RNSt7__cxx1112basic_stringIS4_S5_T1_EE@plt>:
  403ae0:	f3 0f 1e fa          	endbr64 
  403ae4:	f2 ff 25 2d 77 01 00 	bnd jmpq *0x1772d(%rip)        # 41b218 <_ZStrsIcSt11char_traitsIcESaIcEERSt13basic_istreamIT_T0_ES7_RNSt7__cxx1112basic_stringIS4_S5_T1_EE@GLIBCXX_3.4.21>
  403aeb:	0f 1f 44 00 00       	nopl   0x0(%rax,%rax,1)

0000000000403af0 <_ZdaPv@plt>:
  403af0:	f3 0f 1e fa          	endbr64 
  403af4:	f2 ff 25 25 77 01 00 	bnd jmpq *0x17725(%rip)        # 41b220 <_ZdaPv@GLIBCXX_3.4>
  403afb:	0f 1f 44 00 00       	nopl   0x0(%rax,%rax,1)

0000000000403b00 <_ZNSt7__cxx1115basic_stringbufIcSt11char_traitsIcESaIcEE7_M_syncEPcmm@plt>:
  403b00:	f3 0f 1e fa          	endbr64 
  403b04:	f2 ff 25 1d 77 01 00 	bnd jmpq *0x1771d(%rip)        # 41b228 <_ZNSt7__cxx1115basic_stringbufIcSt11char_traitsIcESaIcEE7_M_syncEPcmm@GLIBCXX_3.4.21>
  403b0b:	0f 1f 44 00 00       	nopl   0x0(%rax,%rax,1)

0000000000403b10 <_ZStrsIcSt11char_traitsIcEERSt13basic_istreamIT_T0_ES6_RS3_@plt>:
  403b10:	f3 0f 1e fa          	endbr64 
  403b14:	f2 ff 25 15 77 01 00 	bnd jmpq *0x17715(%rip)        # 41b230 <_ZStrsIcSt11char_traitsIcEERSt13basic_istreamIT_T0_ES6_RS3_@GLIBCXX_3.4>
  403b1b:	0f 1f 44 00 00       	nopl   0x0(%rax,%rax,1)

0000000000403b20 <malloc@plt>:
  403b20:	f3 0f 1e fa          	endbr64 
  403b24:	f2 ff 25 0d 77 01 00 	bnd jmpq *0x1770d(%rip)        # 41b238 <malloc@GLIBC_2.2.5>
  403b2b:	0f 1f 44 00 00       	nopl   0x0(%rax,%rax,1)

0000000000403b30 <_ZNSt9basic_iosIcSt11char_traitsIcEE4initEPSt15basic_streambufIcS1_E@plt>:
  403b30:	f3 0f 1e fa          	endbr64 
  403b34:	f2 ff 25 05 77 01 00 	bnd jmpq *0x17705(%rip)        # 41b240 <_ZNSt9basic_iosIcSt11char_traitsIcEE4initEPSt15basic_streambufIcS1_E@GLIBCXX_3.4>
  403b3b:	0f 1f 44 00 00       	nopl   0x0(%rax,%rax,1)

0000000000403b40 <mlock@plt>:
  403b40:	f3 0f 1e fa          	endbr64 
  403b44:	f2 ff 25 fd 76 01 00 	bnd jmpq *0x176fd(%rip)        # 41b248 <mlock@GLIBC_2.2.5>
  403b4b:	0f 1f 44 00 00       	nopl   0x0(%rax,%rax,1)

0000000000403b50 <strtol@plt>:
  403b50:	f3 0f 1e fa          	endbr64 
  403b54:	f2 ff 25 f5 76 01 00 	bnd jmpq *0x176f5(%rip)        # 41b250 <strtol@GLIBC_2.2.5>
  403b5b:	0f 1f 44 00 00       	nopl   0x0(%rax,%rax,1)

0000000000403b60 <ioctl@plt>:
  403b60:	f3 0f 1e fa          	endbr64 
  403b64:	f2 ff 25 ed 76 01 00 	bnd jmpq *0x176ed(%rip)        # 41b258 <ioctl@GLIBC_2.2.5>
  403b6b:	0f 1f 44 00 00       	nopl   0x0(%rax,%rax,1)

0000000000403b70 <_ZNSt6localeD1Ev@plt>:
  403b70:	f3 0f 1e fa          	endbr64 
  403b74:	f2 ff 25 e5 76 01 00 	bnd jmpq *0x176e5(%rip)        # 41b260 <_ZNSt6localeD1Ev@GLIBCXX_3.4>
  403b7b:	0f 1f 44 00 00       	nopl   0x0(%rax,%rax,1)

0000000000403b80 <__cxa_throw_bad_array_new_length@plt>:
  403b80:	f3 0f 1e fa          	endbr64 
  403b84:	f2 ff 25 dd 76 01 00 	bnd jmpq *0x176dd(%rip)        # 41b268 <__cxa_throw_bad_array_new_length@CXXABI_1.3.8>
  403b8b:	0f 1f 44 00 00       	nopl   0x0(%rax,%rax,1)

0000000000403b90 <read@plt>:
  403b90:	f3 0f 1e fa          	endbr64 
  403b94:	f2 ff 25 d5 76 01 00 	bnd jmpq *0x176d5(%rip)        # 41b270 <read@GLIBC_2.2.5>
  403b9b:	0f 1f 44 00 00       	nopl   0x0(%rax,%rax,1)

0000000000403ba0 <omp_get_num_threads@plt>:
  403ba0:	f3 0f 1e fa          	endbr64 
  403ba4:	f2 ff 25 cd 76 01 00 	bnd jmpq *0x176cd(%rip)        # 41b278 <omp_get_num_threads@VERSION>
  403bab:	0f 1f 44 00 00       	nopl   0x0(%rax,%rax,1)

0000000000403bb0 <getpid@plt>:
  403bb0:	f3 0f 1e fa          	endbr64 
  403bb4:	f2 ff 25 c5 76 01 00 	bnd jmpq *0x176c5(%rip)        # 41b280 <getpid@GLIBC_2.2.5>
  403bbb:	0f 1f 44 00 00       	nopl   0x0(%rax,%rax,1)

0000000000403bc0 <fread@plt>:
  403bc0:	f3 0f 1e fa          	endbr64 
  403bc4:	f2 ff 25 bd 76 01 00 	bnd jmpq *0x176bd(%rip)        # 41b288 <fread@GLIBC_2.2.5>
  403bcb:	0f 1f 44 00 00       	nopl   0x0(%rax,%rax,1)

0000000000403bd0 <_ZSt24__throw_out_of_range_fmtPKcz@plt>:
  403bd0:	f3 0f 1e fa          	endbr64 
  403bd4:	f2 ff 25 b5 76 01 00 	bnd jmpq *0x176b5(%rip)        # 41b290 <_ZSt24__throw_out_of_range_fmtPKcz@GLIBCXX_3.4.20>
  403bdb:	0f 1f 44 00 00       	nopl   0x0(%rax,%rax,1)

0000000000403be0 <_ZNSt8ios_base4InitC1Ev@plt>:
  403be0:	f3 0f 1e fa          	endbr64 
  403be4:	f2 ff 25 ad 76 01 00 	bnd jmpq *0x176ad(%rip)        # 41b298 <_ZNSt8ios_base4InitC1Ev@GLIBCXX_3.4>
  403beb:	0f 1f 44 00 00       	nopl   0x0(%rax,%rax,1)

0000000000403bf0 <_ZNSt13basic_filebufIcSt11char_traitsIcEED1Ev@plt>:
  403bf0:	f3 0f 1e fa          	endbr64 
  403bf4:	f2 ff 25 a5 76 01 00 	bnd jmpq *0x176a5(%rip)        # 41b2a0 <_ZNSt13basic_filebufIcSt11char_traitsIcEED1Ev@GLIBCXX_3.4>
  403bfb:	0f 1f 44 00 00       	nopl   0x0(%rax,%rax,1)

0000000000403c00 <_ZNSt7__cxx1112basic_stringIcSt11char_traitsIcESaIcEE7reserveEm@plt>:
  403c00:	f3 0f 1e fa          	endbr64 
  403c04:	f2 ff 25 9d 76 01 00 	bnd jmpq *0x1769d(%rip)        # 41b2a8 <_ZNSt7__cxx1112basic_stringIcSt11char_traitsIcESaIcEE7reserveEm@GLIBCXX_3.4.21>
  403c0b:	0f 1f 44 00 00       	nopl   0x0(%rax,%rax,1)

0000000000403c10 <fgets@plt>:
  403c10:	f3 0f 1e fa          	endbr64 
  403c14:	f2 ff 25 95 76 01 00 	bnd jmpq *0x17695(%rip)        # 41b2b0 <fgets@GLIBC_2.2.5>
  403c1b:	0f 1f 44 00 00       	nopl   0x0(%rax,%rax,1)

0000000000403c20 <GOMP_critical_start@plt>:
  403c20:	f3 0f 1e fa          	endbr64 
  403c24:	f2 ff 25 8d 76 01 00 	bnd jmpq *0x1768d(%rip)        # 41b2b8 <GOMP_critical_start@VERSION>
  403c2b:	0f 1f 44 00 00       	nopl   0x0(%rax,%rax,1)

0000000000403c30 <gettimeofday@plt>:
  403c30:	f3 0f 1e fa          	endbr64 
  403c34:	f2 ff 25 85 76 01 00 	bnd jmpq *0x17685(%rip)        # 41b2c0 <gettimeofday@GLIBC_2.2.5>
  403c3b:	0f 1f 44 00 00       	nopl   0x0(%rax,%rax,1)

0000000000403c40 <memmove@plt>:
  403c40:	f3 0f 1e fa          	endbr64 
  403c44:	f2 ff 25 7d 76 01 00 	bnd jmpq *0x1767d(%rip)        # 41b2c8 <memmove@GLIBC_2.2.5>
  403c4b:	0f 1f 44 00 00       	nopl   0x0(%rax,%rax,1)

0000000000403c50 <__cxa_end_catch@plt>:
  403c50:	f3 0f 1e fa          	endbr64 
  403c54:	f2 ff 25 75 76 01 00 	bnd jmpq *0x17675(%rip)        # 41b2d0 <__cxa_end_catch@CXXABI_1.3>
  403c5b:	0f 1f 44 00 00       	nopl   0x0(%rax,%rax,1)

0000000000403c60 <realloc@plt>:
  403c60:	f3 0f 1e fa          	endbr64 
  403c64:	f2 ff 25 6d 76 01 00 	bnd jmpq *0x1766d(%rip)        # 41b2d8 <realloc@GLIBC_2.2.5>
  403c6b:	0f 1f 44 00 00       	nopl   0x0(%rax,%rax,1)

0000000000403c70 <__fprintf_chk@plt>:
  403c70:	f3 0f 1e fa          	endbr64 
  403c74:	f2 ff 25 65 76 01 00 	bnd jmpq *0x17665(%rip)        # 41b2e0 <__fprintf_chk@GLIBC_2.3.4>
  403c7b:	0f 1f 44 00 00       	nopl   0x0(%rax,%rax,1)

0000000000403c80 <_ZNSt7__cxx1119basic_istringstreamIcSt11char_traitsIcESaIcEEC1ERKNS_12basic_stringIcS2_S3_EESt13_Ios_Openmode@plt>:
  403c80:	f3 0f 1e fa          	endbr64 
  403c84:	f2 ff 25 5d 76 01 00 	bnd jmpq *0x1765d(%rip)        # 41b2e8 <_ZNSt7__cxx1119basic_istringstreamIcSt11char_traitsIcESaIcEEC1ERKNS_12basic_stringIcS2_S3_EESt13_Ios_Openmode@GLIBCXX_3.4.21>
  403c8b:	0f 1f 44 00 00       	nopl   0x0(%rax,%rax,1)

0000000000403c90 <_ZNSt9basic_iosIcSt11char_traitsIcEE5clearESt12_Ios_Iostate@plt>:
  403c90:	f3 0f 1e fa          	endbr64 
  403c94:	f2 ff 25 55 76 01 00 	bnd jmpq *0x17655(%rip)        # 41b2f0 <_ZNSt9basic_iosIcSt11char_traitsIcEE5clearESt12_Ios_Iostate@GLIBCXX_3.4>
  403c9b:	0f 1f 44 00 00       	nopl   0x0(%rax,%rax,1)

0000000000403ca0 <_ZNSolsEi@plt>:
  403ca0:	f3 0f 1e fa          	endbr64 
  403ca4:	f2 ff 25 4d 76 01 00 	bnd jmpq *0x1764d(%rip)        # 41b2f8 <_ZNSolsEi@GLIBCXX_3.4>
  403cab:	0f 1f 44 00 00       	nopl   0x0(%rax,%rax,1)

0000000000403cb0 <GOMP_parallel@plt>:
  403cb0:	f3 0f 1e fa          	endbr64 
  403cb4:	f2 ff 25 45 76 01 00 	bnd jmpq *0x17645(%rip)        # 41b300 <GOMP_parallel@VERSION>
  403cbb:	0f 1f 44 00 00       	nopl   0x0(%rax,%rax,1)

0000000000403cc0 <omp_get_max_threads@plt>:
  403cc0:	f3 0f 1e fa          	endbr64 
  403cc4:	f2 ff 25 3d 76 01 00 	bnd jmpq *0x1763d(%rip)        # 41b308 <omp_get_max_threads@VERSION>
  403ccb:	0f 1f 44 00 00       	nopl   0x0(%rax,%rax,1)

0000000000403cd0 <GOMP_loop_ull_nonmonotonic_dynamic_next@plt>:
  403cd0:	f3 0f 1e fa          	endbr64 
  403cd4:	f2 ff 25 35 76 01 00 	bnd jmpq *0x17635(%rip)        # 41b310 <GOMP_loop_ull_nonmonotonic_dynamic_next@VERSION>
  403cdb:	0f 1f 44 00 00       	nopl   0x0(%rax,%rax,1)

0000000000403ce0 <_Unwind_Resume@plt>:
  403ce0:	f3 0f 1e fa          	endbr64 
  403ce4:	f2 ff 25 2d 76 01 00 	bnd jmpq *0x1762d(%rip)        # 41b318 <_Unwind_Resume@GCC_3.0>
  403ceb:	0f 1f 44 00 00       	nopl   0x0(%rax,%rax,1)

0000000000403cf0 <mmap@plt>:
  403cf0:	f3 0f 1e fa          	endbr64 
  403cf4:	f2 ff 25 25 76 01 00 	bnd jmpq *0x17625(%rip)        # 41b320 <mmap@GLIBC_2.2.5>
  403cfb:	0f 1f 44 00 00       	nopl   0x0(%rax,%rax,1)

0000000000403d00 <_ZNSt7__cxx1112basic_stringIcSt11char_traitsIcESaIcEE9_M_createERmm@plt>:
  403d00:	f3 0f 1e fa          	endbr64 
  403d04:	f2 ff 25 1d 76 01 00 	bnd jmpq *0x1761d(%rip)        # 41b328 <_ZNSt7__cxx1112basic_stringIcSt11char_traitsIcESaIcEE9_M_createERmm@GLIBCXX_3.4.21>
  403d0b:	0f 1f 44 00 00       	nopl   0x0(%rax,%rax,1)

0000000000403d10 <__isoc99_fscanf@plt>:
  403d10:	f3 0f 1e fa          	endbr64 
  403d14:	f2 ff 25 15 76 01 00 	bnd jmpq *0x17615(%rip)        # 41b330 <__isoc99_fscanf@GLIBC_2.7>
  403d1b:	0f 1f 44 00 00       	nopl   0x0(%rax,%rax,1)

0000000000403d20 <_ZSt7getlineIcSt11char_traitsIcESaIcEERSt13basic_istreamIT_T0_ES7_RNSt7__cxx1112basic_stringIS4_S5_T1_EES4_@plt>:
  403d20:	f3 0f 1e fa          	endbr64 
  403d24:	f2 ff 25 0d 76 01 00 	bnd jmpq *0x1760d(%rip)        # 41b338 <_ZSt7getlineIcSt11char_traitsIcESaIcEERSt13basic_istreamIT_T0_ES7_RNSt7__cxx1112basic_stringIS4_S5_T1_EES4_@GLIBCXX_3.4.21>
  403d2b:	0f 1f 44 00 00       	nopl   0x0(%rax,%rax,1)

0000000000403d30 <_ZNSt12__basic_fileIcED1Ev@plt>:
  403d30:	f3 0f 1e fa          	endbr64 
  403d34:	f2 ff 25 05 76 01 00 	bnd jmpq *0x17605(%rip)        # 41b340 <_ZNSt12__basic_fileIcED1Ev@GLIBCXX_3.4>
  403d3b:	0f 1f 44 00 00       	nopl   0x0(%rax,%rax,1)

0000000000403d40 <munlock@plt>:
  403d40:	f3 0f 1e fa          	endbr64 
  403d44:	f2 ff 25 fd 75 01 00 	bnd jmpq *0x175fd(%rip)        # 41b348 <munlock@GLIBC_2.2.5>
  403d4b:	0f 1f 44 00 00       	nopl   0x0(%rax,%rax,1)

0000000000403d50 <fwrite@plt>:
  403d50:	f3 0f 1e fa          	endbr64 
  403d54:	f2 ff 25 f5 75 01 00 	bnd jmpq *0x175f5(%rip)        # 41b350 <fwrite@GLIBC_2.2.5>
  403d5b:	0f 1f 44 00 00       	nopl   0x0(%rax,%rax,1)

0000000000403d60 <close@plt>:
  403d60:	f3 0f 1e fa          	endbr64 
  403d64:	f2 ff 25 ed 75 01 00 	bnd jmpq *0x175ed(%rip)        # 41b358 <close@GLIBC_2.2.5>
  403d6b:	0f 1f 44 00 00       	nopl   0x0(%rax,%rax,1)

0000000000403d70 <_ZNKSt7__cxx1112basic_stringIcSt11char_traitsIcESaIcEE5rfindEcm@plt>:
  403d70:	f3 0f 1e fa          	endbr64 
  403d74:	f2 ff 25 e5 75 01 00 	bnd jmpq *0x175e5(%rip)        # 41b360 <_ZNKSt7__cxx1112basic_stringIcSt11char_traitsIcESaIcEE5rfindEcm@GLIBCXX_3.4.21>
  403d7b:	0f 1f 44 00 00       	nopl   0x0(%rax,%rax,1)

0000000000403d80 <_ZNSt6localeC1Ev@plt>:
  403d80:	f3 0f 1e fa          	endbr64 
  403d84:	f2 ff 25 dd 75 01 00 	bnd jmpq *0x175dd(%rip)        # 41b368 <_ZNSt6localeC1Ev@GLIBCXX_3.4>
  403d8b:	0f 1f 44 00 00       	nopl   0x0(%rax,%rax,1)

Disassembly of section .text:

0000000000403d90 <_Z10PrintLabelRKNSt7__cxx1112basic_stringIcSt11char_traitsIcESaIcEEES6_.cold>:
_ZNKSt7__cxx1112basic_stringIcSt11char_traitsIcESaIcEE7_M_dataEv():
/usr/include/c++/10/bits/basic_string.h:195 (discriminator 1)
      _M_length(size_type __length)
      { _M_string_length = __length; }

      pointer
      _M_data() const
      { return _M_dataplus._M_p; }
  403d90:	48 8b 7c 24 10       	mov    0x10(%rsp),%rdi
_ZNSt7__cxx1112basic_stringIcSt11char_traitsIcESaIcEE10_M_disposeEv():
/usr/include/c++/10/bits/basic_string.h:239 (discriminator 1)
      _M_create(size_type&, size_type);

      void
      _M_dispose()
      {
	if (!_M_is_local())
  403d95:	48 39 df             	cmp    %rbx,%rdi
  403d98:	74 05                	je     403d9f <_Z10PrintLabelRKNSt7__cxx1112basic_stringIcSt11char_traitsIcESaIcEEES6_.cold+0xf>
_ZN9__gnu_cxx13new_allocatorIcE10deallocateEPcm():
/usr/include/c++/10/ext/new_allocator.h:139
# endif
			      std::align_val_t(alignof(_Tp)));
	    return;
	  }
#endif
	::operator delete(__p
  403d9a:	e8 21 fc ff ff       	callq  4039c0 <_ZdlPv@plt>
_ZN9__gnu_cxx13new_allocatorIcED4Ev():
/usr/include/c++/10/ext/new_allocator.h:89
      ~new_allocator() _GLIBCXX_USE_NOEXCEPT { }
  403d9f:	48 89 ef             	mov    %rbp,%rdi
  403da2:	e8 39 ff ff ff       	callq  403ce0 <_Unwind_Resume@plt>

0000000000403da7 <_Z9PrintTimeRKNSt7__cxx1112basic_stringIcSt11char_traitsIcESaIcEEEd.cold>:
_ZNKSt7__cxx1112basic_stringIcSt11char_traitsIcESaIcEE7_M_dataEv():
/usr/include/c++/10/bits/basic_string.h:195 (discriminator 1)
      { return _M_dataplus._M_p; }
  403da7:	48 8b 7c 24 10       	mov    0x10(%rsp),%rdi
_ZNSt7__cxx1112basic_stringIcSt11char_traitsIcESaIcEE10_M_disposeEv():
/usr/include/c++/10/bits/basic_string.h:239 (discriminator 1)
	if (!_M_is_local())
  403dac:	48 39 df             	cmp    %rbx,%rdi
  403daf:	74 05                	je     403db6 <_Z9PrintTimeRKNSt7__cxx1112basic_stringIcSt11char_traitsIcESaIcEEEd.cold+0xf>
_ZN9__gnu_cxx13new_allocatorIcE10deallocateEPcm():
/usr/include/c++/10/ext/new_allocator.h:139
	::operator delete(__p
  403db1:	e8 0a fc ff ff       	callq  4039c0 <_ZdlPv@plt>
_ZN9__gnu_cxx13new_allocatorIcED4Ev():
/usr/include/c++/10/ext/new_allocator.h:89
      ~new_allocator() _GLIBCXX_USE_NOEXCEPT { }
  403db6:	48 89 ef             	mov    %rbp,%rdi
  403db9:	e8 22 ff ff ff       	callq  403ce0 <_Unwind_Resume@plt>

0000000000403dbe <_Z9PrintStepRKNSt7__cxx1112basic_stringIcSt11char_traitsIcESaIcEEEl.cold>:
_ZNKSt7__cxx1112basic_stringIcSt11char_traitsIcESaIcEE7_M_dataEv():
/usr/include/c++/10/bits/basic_string.h:195 (discriminator 1)
      { return _M_dataplus._M_p; }
  403dbe:	48 8b 7c 24 10       	mov    0x10(%rsp),%rdi
_ZNSt7__cxx1112basic_stringIcSt11char_traitsIcESaIcEE10_M_disposeEv():
/usr/include/c++/10/bits/basic_string.h:239 (discriminator 1)
	if (!_M_is_local())
  403dc3:	48 39 df             	cmp    %rbx,%rdi
  403dc6:	74 05                	je     403dcd <_Z9PrintStepRKNSt7__cxx1112basic_stringIcSt11char_traitsIcESaIcEEEl.cold+0xf>
_ZN9__gnu_cxx13new_allocatorIcE10deallocateEPcm():
/usr/include/c++/10/ext/new_allocator.h:139
	::operator delete(__p
  403dc8:	e8 f3 fb ff ff       	callq  4039c0 <_ZdlPv@plt>
_ZN9__gnu_cxx13new_allocatorIcED4Ev():
/usr/include/c++/10/ext/new_allocator.h:89
      ~new_allocator() _GLIBCXX_USE_NOEXCEPT { }
  403dcd:	48 89 ef             	mov    %rbp,%rdi
  403dd0:	e8 0b ff ff ff       	callq  403ce0 <_Unwind_Resume@plt>

0000000000403dd5 <_Z9PrintStepidl.cold>:
_ZNKSt7__cxx1112basic_stringIcSt11char_traitsIcESaIcEE7_M_dataEv():
/usr/include/c++/10/bits/basic_string.h:195 (discriminator 1)
      { return _M_dataplus._M_p; }
  403dd5:	48 8b 7c 24 10       	mov    0x10(%rsp),%rdi
_ZNSt7__cxx1112basic_stringIcSt11char_traitsIcESaIcEE10_M_disposeEv():
/usr/include/c++/10/bits/basic_string.h:239 (discriminator 1)
	if (!_M_is_local())
  403dda:	48 39 ef             	cmp    %rbp,%rdi
  403ddd:	74 05                	je     403de4 <_Z9PrintStepidl.cold+0xf>
_ZN9__gnu_cxx13new_allocatorIcE10deallocateEPcm():
/usr/include/c++/10/ext/new_allocator.h:139
	::operator delete(__p
  403ddf:	e8 dc fb ff ff       	callq  4039c0 <_ZdlPv@plt>
_ZN9__gnu_cxx13new_allocatorIcED4Ev():
/usr/include/c++/10/ext/new_allocator.h:89
      ~new_allocator() _GLIBCXX_USE_NOEXCEPT { }
  403de4:	4c 89 e7             	mov    %r12,%rdi
  403de7:	e8 f4 fe ff ff       	callq  403ce0 <_Unwind_Resume@plt>

0000000000403dec <_Z9DeltaStepRK8CSRGraphIi10NodeWeightIiiELb1EEiib.cold>:
_ZN7pvectorIiE16ReleaseResourcesEv():
/home/aliha951/ipdps-artifact/gapbs-master/src/pvector.h:73
    }
    return *this;
  }

  void ReleaseResources(){
    if (start_ != nullptr) {
  403dec:	48 8b 7c 24 20       	mov    0x20(%rsp),%rdi
  403df1:	48 85 ff             	test   %rdi,%rdi
  403df4:	74 05                	je     403dfb <_Z9DeltaStepRK8CSRGraphIi10NodeWeightIiiELb1EEiib.cold+0xf>
/home/aliha951/ipdps-artifact/gapbs-master/src/pvector.h:74
      delete[] start_;
  403df6:	e8 f5 fc ff ff       	callq  403af0 <_ZdaPv@plt>
/home/aliha951/ipdps-artifact/gapbs-master/src/pvector.h:73
    if (start_ != nullptr) {
  403dfb:	49 8b 3c 24          	mov    (%r12),%rdi
  403dff:	48 85 ff             	test   %rdi,%rdi
  403e02:	74 05                	je     403e09 <_Z9DeltaStepRK8CSRGraphIi10NodeWeightIiiELb1EEiib.cold+0x1d>
/home/aliha951/ipdps-artifact/gapbs-master/src/pvector.h:74
      delete[] start_;
  403e04:	e8 e7 fc ff ff       	callq  403af0 <_ZdaPv@plt>
  403e09:	48 89 ef             	mov    %rbp,%rdi
  403e0c:	e8 cf fe ff ff       	callq  403ce0 <_Unwind_Resume@plt>
  403e11:	f3 0f 1e fa          	endbr64 
/home/aliha951/ipdps-artifact/gapbs-master/src/pvector.h:73
    if (start_ != nullptr) {
  403e15:	48 89 c5             	mov    %rax,%rbp
  403e18:	eb e1                	jmp    403dfb <_Z9DeltaStepRK8CSRGraphIi10NodeWeightIiiELb1EEiib.cold+0xf>
_ZN7pvectorIiEC4Em():
/home/aliha951/ipdps-artifact/gapbs-master/src/pvector.h:30
    start_ = new T_[num_elements];
  403e1a:	e8 61 fd ff ff       	callq  403b80 <__cxa_throw_bad_array_new_length@plt>
  403e1f:	e8 5c fd ff ff       	callq  403b80 <__cxa_throw_bad_array_new_length@plt>

0000000000403e24 <_Z9DeltaStepRK8CSRGraphIi10NodeWeightIiiELb1EEiib._omp_fn.0.cold>:
_Z9DeltaStepRK8CSRGraphIi10NodeWeightIiiELb1EEiib._omp_fn.0.cold():
/home/aliha951/ipdps-artifact/gapbs-master/src/sssp_batching.cc:137
  delta_pointer = &delta;
  int num_threads = omp_get_num_threads();
  
  t.Start();
  SETUP_GLOBAL_VARS();
  #pragma omp parallel PFH_CLAUSES
  403e24:	e8 b7 f9 ff ff       	callq  4037e0 <_ZSt9terminatev@plt>
_Z9DeltaStepRK8CSRGraphIi10NodeWeightIiiELb1EEiib._omp_fn.0():
/home/aliha951/ipdps-artifact/gapbs-master/src/sssp_batching.cc:137
  403e29:	e8 b2 f9 ff ff       	callq  4037e0 <_ZSt9terminatev@plt>

0000000000403e2e <_Z12SSSPVerifierRK8CSRGraphIi10NodeWeightIiiELb1EEiRK7pvectorIiE.cold>:
_ZN7pvectorIiEC4Em():
/home/aliha951/ipdps-artifact/gapbs-master/src/pvector.h:30
  403e2e:	e8 4d fd ff ff       	callq  403b80 <__cxa_throw_bad_array_new_length@plt>
_ZNSt6vectorISt4pairIiiESaIS1_EED4Ev():
/usr/include/c++/10/bits/stl_vector.h:680
       *  not touched in any way.  Managing the pointer is the user's
       *  responsibility.
       */
      ~vector() _GLIBCXX_NOEXCEPT
      {
	std::_Destroy(this->_M_impl._M_start, this->_M_impl._M_finish,
  403e33:	48 8b 7c 24 60       	mov    0x60(%rsp),%rdi
_ZNSt12_Vector_baseISt4pairIiiESaIS1_EE13_M_deallocateEPS1_m():
/usr/include/c++/10/bits/stl_vector.h:353
	if (__p)
  403e38:	48 85 ff             	test   %rdi,%rdi
  403e3b:	74 05                	je     403e42 <_Z12SSSPVerifierRK8CSRGraphIi10NodeWeightIiiELb1EEiRK7pvectorIiE.cold+0x14>
_ZN9__gnu_cxx13new_allocatorISt4pairIiiEE10deallocateEPS2_m():
/usr/include/c++/10/ext/new_allocator.h:139
	::operator delete(__p
  403e3d:	e8 7e fb ff ff       	callq  4039c0 <_ZdlPv@plt>
_ZN7pvectorIiE16ReleaseResourcesEv():
/home/aliha951/ipdps-artifact/gapbs-master/src/pvector.h:73
    if (start_ != nullptr) {
  403e42:	48 8b 7c 24 40       	mov    0x40(%rsp),%rdi
  403e47:	48 85 ff             	test   %rdi,%rdi
  403e4a:	74 05                	je     403e51 <_Z12SSSPVerifierRK8CSRGraphIi10NodeWeightIiiELb1EEiRK7pvectorIiE.cold+0x23>
/home/aliha951/ipdps-artifact/gapbs-master/src/pvector.h:74
      delete[] start_;
  403e4c:	e8 9f fc ff ff       	callq  403af0 <_ZdaPv@plt>
  403e51:	48 89 ef             	mov    %rbp,%rdi
  403e54:	e8 87 fe ff ff       	callq  403ce0 <_Unwind_Resume@plt>

0000000000403e59 <main.cold>:
_ZNKSt7__cxx1112basic_stringIcSt11char_traitsIcESaIcEE7_M_dataEv():
/usr/include/c++/10/bits/basic_string.h:195
      { return _M_dataplus._M_p; }
  403e59:	48 8b bc 24 00 01 00 	mov    0x100(%rsp),%rdi
  403e60:	00 
_ZNSt7__cxx1112basic_stringIcSt11char_traitsIcESaIcEE10_M_disposeEv():
/usr/include/c++/10/bits/basic_string.h:239
	if (!_M_is_local())
  403e61:	4c 39 ef             	cmp    %r13,%rdi
  403e64:	74 05                	je     403e6b <main.cold+0x12>
_ZN9__gnu_cxx13new_allocatorIcE10deallocateEPcm():
/usr/include/c++/10/ext/new_allocator.h:139
  403e66:	e8 55 fb ff ff       	callq  4039c0 <_ZdlPv@plt>
_ZN7pvectorIiE16ReleaseResourcesEv():
/home/aliha951/ipdps-artifact/gapbs-master/src/pvector.h:73
    if (start_ != nullptr) {
  403e6b:	48 8b bc 24 80 00 00 	mov    0x80(%rsp),%rdi
  403e72:	00 
  403e73:	48 85 ff             	test   %rdi,%rdi
  403e76:	74 05                	je     403e7d <main.cold+0x24>
/home/aliha951/ipdps-artifact/gapbs-master/src/pvector.h:74
      delete[] start_;
  403e78:	e8 73 fc ff ff       	callq  403af0 <_ZdaPv@plt>
_ZN8CSRGraphIi10NodeWeightIiiELb1EED4Ev():
/home/aliha951/ipdps-artifact/gapbs-master/src/graph.h:166
      other.in_index_ = nullptr;
      other.in_neighbors_ = nullptr;
  }

  ~CSRGraph() {
    ReleaseResources();
  403e7d:	48 8b 7c 24 18       	mov    0x18(%rsp),%rdi
  403e82:	e8 f9 87 00 00       	callq  40c680 <_ZN8CSRGraphIi10NodeWeightIiiELb1EE16ReleaseResourcesEv>
_ZN5CLAppD4Ev():
/home/aliha951/ipdps-artifact/gapbs-master/src/command_line.h:140
  int batching_mode() const { return batching_mode_; }
};



class CLApp : public CLBase {
  403e87:	48 8b 7c 24 38       	mov    0x38(%rsp),%rdi
  403e8c:	48 8d 05 65 6c 01 00 	lea    0x16c65(%rip),%rax        # 41aaf8 <_ZTV5CLApp+0x10>
  403e93:	48 89 84 24 20 01 00 	mov    %rax,0x120(%rsp)
  403e9a:	00 
  403e9b:	e8 00 76 00 00       	callq  40b4a0 <_ZN6CLBaseD1Ev>
  403ea0:	48 89 df             	mov    %rbx,%rdi
  403ea3:	e8 38 fe ff ff       	callq  403ce0 <_Unwind_Resume@plt>
_ZNKSt7__cxx1112basic_stringIcSt11char_traitsIcESaIcEE7_M_dataEv():
/usr/include/c++/10/bits/basic_string.h:195
      { return _M_dataplus._M_p; }
  403ea8:	48 8b bc 24 00 01 00 	mov    0x100(%rsp),%rdi
  403eaf:	00 
_ZNSt7__cxx1112basic_stringIcSt11char_traitsIcESaIcEE10_M_disposeEv():
/usr/include/c++/10/bits/basic_string.h:239
	if (!_M_is_local())
  403eb0:	4c 39 ef             	cmp    %r13,%rdi
  403eb3:	74 b6                	je     403e6b <main.cold+0x12>
_ZN9__gnu_cxx13new_allocatorIcE10deallocateEPcm():
/usr/include/c++/10/ext/new_allocator.h:139
  403eb5:	e8 06 fb ff ff       	callq  4039c0 <_ZdlPv@plt>
_ZNSt7__cxx1112basic_stringIcSt11char_traitsIcESaIcEE10_M_destroyEm():
/usr/include/c++/10/bits/basic_string.h:245
	  _M_destroy(_M_allocated_capacity);
      }

      void
      _M_destroy(size_type __size) throw()
      { _Alloc_traits::deallocate(_M_get_allocator(), _M_data(), __size + 1); }
  403eba:	eb af                	jmp    403e6b <main.cold+0x12>
_ZNKSt7__cxx1112basic_stringIcSt11char_traitsIcESaIcEE7_M_dataEv():
/usr/include/c++/10/bits/basic_string.h:195
      { return _M_dataplus._M_p; }
  403ebc:	48 8b bc 24 00 01 00 	mov    0x100(%rsp),%rdi
  403ec3:	00 
_ZNSt7__cxx1112basic_stringIcSt11char_traitsIcESaIcEE10_M_disposeEv():
/usr/include/c++/10/bits/basic_string.h:239
	if (!_M_is_local())
  403ec4:	48 8d 84 24 10 01 00 	lea    0x110(%rsp),%rax
  403ecb:	00 
  403ecc:	48 39 c7             	cmp    %rax,%rdi
  403ecf:	74 ac                	je     403e7d <main.cold+0x24>
_ZN9__gnu_cxx13new_allocatorIcE10deallocateEPcm():
/usr/include/c++/10/ext/new_allocator.h:139
  403ed1:	e8 ea fa ff ff       	callq  4039c0 <_ZdlPv@plt>
_ZNSt7__cxx1112basic_stringIcSt11char_traitsIcESaIcEE10_M_destroyEm():
/usr/include/c++/10/bits/basic_string.h:245
      { _Alloc_traits::deallocate(_M_get_allocator(), _M_data(), __size + 1); }
  403ed6:	eb a5                	jmp    403e7d <main.cold+0x24>
_ZNKSt7__cxx1112basic_stringIcSt11char_traitsIcESaIcEE7_M_dataEv():
/usr/include/c++/10/bits/basic_string.h:195
      { return _M_dataplus._M_p; }
  403ed8:	48 8b bc 24 00 01 00 	mov    0x100(%rsp),%rdi
  403edf:	00 
_ZNSt7__cxx1112basic_stringIcSt11char_traitsIcESaIcEE10_M_disposeEv():
/usr/include/c++/10/bits/basic_string.h:239
	if (!_M_is_local())
  403ee0:	4c 39 ef             	cmp    %r13,%rdi
  403ee3:	74 05                	je     403eea <main.cold+0x91>
_ZN9__gnu_cxx13new_allocatorIcE10deallocateEPcm():
/usr/include/c++/10/ext/new_allocator.h:139
  403ee5:	e8 d6 fa ff ff       	callq  4039c0 <_ZdlPv@plt>
_ZNKSt7__cxx1112basic_stringIcSt11char_traitsIcESaIcEE7_M_dataEv():
/usr/include/c++/10/bits/basic_string.h:195
      { return _M_dataplus._M_p; }
  403eea:	48 8b bc 24 e0 00 00 	mov    0xe0(%rsp),%rdi
  403ef1:	00 
_ZNSt7__cxx1112basic_stringIcSt11char_traitsIcESaIcEE10_M_disposeEv():
/usr/include/c++/10/bits/basic_string.h:239
	if (!_M_is_local())
  403ef2:	4c 39 ff             	cmp    %r15,%rdi
  403ef5:	0f 84 70 ff ff ff    	je     403e6b <main.cold+0x12>
_ZN9__gnu_cxx13new_allocatorIcE10deallocateEPcm():
/usr/include/c++/10/ext/new_allocator.h:139
  403efb:	e8 c0 fa ff ff       	callq  4039c0 <_ZdlPv@plt>
_ZNSt7__cxx1112basic_stringIcSt11char_traitsIcESaIcEE10_M_destroyEm():
/usr/include/c++/10/bits/basic_string.h:245
      { _Alloc_traits::deallocate(_M_get_allocator(), _M_data(), __size + 1); }
  403f00:	e9 66 ff ff ff       	jmpq   403e6b <main.cold+0x12>
_ZNKSt7__cxx1112basic_stringIcSt11char_traitsIcESaIcEE7_M_dataEv():
/usr/include/c++/10/bits/basic_string.h:195
      { return _M_dataplus._M_p; }
  403f05:	48 8b bc 24 e0 0b 00 	mov    0xbe0(%rsp),%rdi
  403f0c:	00 
_ZNSt7__cxx1112basic_stringIcSt11char_traitsIcESaIcEE10_M_disposeEv():
/usr/include/c++/10/bits/basic_string.h:239
	if (!_M_is_local())
  403f0d:	48 8d 84 24 f0 0b 00 	lea    0xbf0(%rsp),%rax
  403f14:	00 
  403f15:	48 39 c7             	cmp    %rax,%rdi
  403f18:	74 05                	je     403f1f <main.cold+0xc6>
_ZN9__gnu_cxx13new_allocatorIcE10deallocateEPcm():
/usr/include/c++/10/ext/new_allocator.h:139
  403f1a:	e8 a1 fa ff ff       	callq  4039c0 <_ZdlPv@plt>
_ZN9__gnu_cxx13new_allocatorIcED4Ev():
/usr/include/c++/10/ext/new_allocator.h:89
      ~new_allocator() _GLIBCXX_USE_NOEXCEPT { }
  403f1f:	48 89 ef             	mov    %rbp,%rdi
  403f22:	e8 b9 fd ff ff       	callq  403ce0 <_Unwind_Resume@plt>
main.cold():
  403f27:	66 0f 1f 84 00 00 00 	nopw   0x0(%rax,%rax,1)
  403f2e:	00 00 

0000000000403f30 <main>:
main():
/home/aliha951/ipdps-artifact/gapbs-master/src/sssp_batching.cc:256
  }
  return all_ok;
}


int main(int argc, char* argv[]) {
  403f30:	f3 0f 1e fa          	endbr64 
  403f34:	41 57                	push   %r15
  403f36:	41 56                	push   %r14
  403f38:	41 55                	push   %r13
  403f3a:	41 54                	push   %r12
  403f3c:	55                   	push   %rbp
  403f3d:	53                   	push   %rbx
  403f3e:	48 81 ec 00 10 00 00 	sub    $0x1000,%rsp
  403f45:	48 83 0c 24 00       	orq    $0x0,(%rsp)
  403f4a:	48 81 ec e8 06 00 00 	sub    $0x6e8,%rsp
  403f51:	64 48 8b 04 25 28 00 	mov    %fs:0x28,%rax
  403f58:	00 00 
  403f5a:	48 89 84 24 d8 16 00 	mov    %rax,0x16d8(%rsp)
  403f61:	00 
  403f62:	31 c0                	xor    %eax,%eax
/home/aliha951/ipdps-artifact/gapbs-master/src/sssp_batching.cc:258
  initialize_perf_measurements();
  CLDelta<WeightT> cli(argc, argv, "single-source shortest-path");
  403f64:	48 8d ac 24 e0 0b 00 	lea    0xbe0(%rsp),%rbp
  403f6b:	00 
/home/aliha951/ipdps-artifact/gapbs-master/src/sssp_batching.cc:256
int main(int argc, char* argv[]) {
  403f6c:	41 89 fc             	mov    %edi,%r12d
  403f6f:	49 89 f5             	mov    %rsi,%r13
_Z28initialize_perf_measurementsv():
/home/aliha951/ipdps-artifact/gapbs-master/src/profiling_utils.h:169

/* Setup counters before any threads are created by omp
 * Must be called at the begining of the program.
*/
void initialize_perf_measurements(){
  perf_ctrs = setup_counters();
  403f72:	e8 39 32 00 00       	callq  4071b0 <_Z14setup_countersv>
main():
/home/aliha951/ipdps-artifact/gapbs-master/src/sssp_batching.cc:258
  CLDelta<WeightT> cli(argc, argv, "single-source shortest-path");
  403f77:	48 8d 35 73 23 01 00 	lea    0x12373(%rip),%rsi        # 4162f1 <_IO_stdin_used+0x2f1>
  403f7e:	48 89 ef             	mov    %rbp,%rdi
_Z28initialize_perf_measurementsv():
/home/aliha951/ipdps-artifact/gapbs-master/src/profiling_utils.h:169
  403f81:	48 89 05 a8 c9 01 00 	mov    %rax,0x1c9a8(%rip)        # 420930 <perf_ctrs>
  403f88:	48 89 15 a9 c9 01 00 	mov    %rdx,0x1c9a9(%rip)        # 420938 <perf_ctrs+0x8>
main():
/home/aliha951/ipdps-artifact/gapbs-master/src/sssp_batching.cc:258
  403f8f:	e8 5c 25 00 00       	callq  4064f0 <_ZNSt7__cxx1112basic_stringIcSt11char_traitsIcESaIcEEC2EPKcRKS3_.constprop.0>
  403f94:	48 89 e9             	mov    %rbp,%rcx
  403f97:	4c 89 ea             	mov    %r13,%rdx
  403f9a:	44 89 e6             	mov    %r12d,%esi
  403f9d:	48 8d 84 24 20 01 00 	lea    0x120(%rsp),%rax
  403fa4:	00 
  403fa5:	48 89 c7             	mov    %rax,%rdi
  403fa8:	48 89 44 24 38       	mov    %rax,0x38(%rsp)
  403fad:	e8 5e a5 00 00       	callq  40e510 <_ZN7CLDeltaIiEC1EiPPcNSt7__cxx1112basic_stringIcSt11char_traitsIcESaIcEEE>
_ZNKSt7__cxx1112basic_stringIcSt11char_traitsIcESaIcEE7_M_dataEv():
/usr/include/c++/10/bits/basic_string.h:195
      { return _M_dataplus._M_p; }
  403fb2:	48 8b bc 24 e0 0b 00 	mov    0xbe0(%rsp),%rdi
  403fb9:	00 
_ZNSt7__cxx1112basic_stringIcSt11char_traitsIcESaIcEE10_M_disposeEv():
/usr/include/c++/10/bits/basic_string.h:239
	if (!_M_is_local())
  403fba:	4c 8d a4 24 f0 0b 00 	lea    0xbf0(%rsp),%r12
  403fc1:	00 
  403fc2:	4c 39 e7             	cmp    %r12,%rdi
  403fc5:	74 05                	je     403fcc <main+0x9c>
_ZN9__gnu_cxx13new_allocatorIcE10deallocateEPcm():
/usr/include/c++/10/ext/new_allocator.h:139
	::operator delete(__p
  403fc7:	e8 f4 f9 ff ff       	callq  4039c0 <_ZdlPv@plt>
_ZN6CLBase9HandleArgEaPc():
/home/aliha951/ipdps-artifact/gapbs-master/src/command_line.h:100
    switch (opt) {
  403fcc:	4c 8d 2d 79 30 01 00 	lea    0x13079(%rip),%r13        # 41704c <_IO_stdin_used+0x104c>
_ZNSt7__cxx1112basic_stringIcSt11char_traitsIcESaIcEEaSEOS4_():
/usr/include/c++/10/bits/basic_string.h:745
	    || _M_get_allocator() == __str._M_get_allocator())
	  {
	    // Just move the allocated pointer, our allocator can free it.
	    pointer __data = nullptr;
	    size_type __capacity;
	    if (!_M_is_local())
  403fd3:	4c 8d b4 24 a8 01 00 	lea    0x1a8(%rsp),%r14
  403fda:	00 
_ZN5CLApp9HandleArgEaPc():
/home/aliha951/ipdps-artifact/gapbs-master/src/command_line.h:165
    AddHelpLine('p', "", "partial execution", "false");
    AddHelpLine('z', "", "pin vertex array in memory", "false");
  }

  void HandleArg(signed char opt, char* opt_arg) override {
    switch (opt) {
  403fdb:	48 8d 1d 02 30 01 00 	lea    0x13002(%rip),%rbx        # 416fe4 <_IO_stdin_used+0xfe4>
  403fe2:	66 0f 1f 44 00 00    	nopw   0x0(%rax,%rax,1)
_ZN6CLBase9ParseArgsEv():
/home/aliha951/ipdps-artifact/gapbs-master/src/command_line.h:87
    while ((c_opt = getopt(argc_, argv_, get_args_.c_str())) != -1) {
  403fe8:	48 8b 94 24 58 01 00 	mov    0x158(%rsp),%rdx
  403fef:	00 
  403ff0:	48 8b b4 24 30 01 00 	mov    0x130(%rsp),%rsi
  403ff7:	00 
  403ff8:	8b bc 24 28 01 00 00 	mov    0x128(%rsp),%edi
  403fff:	e8 8c f7 ff ff       	callq  403790 <getopt@plt>
  404004:	3c ff                	cmp    $0xff,%al
  404006:	0f 84 c4 00 00 00    	je     4040d0 <main+0x1a0>
/home/aliha951/ipdps-artifact/gapbs-master/src/command_line.h:88
      HandleArg(c_opt, optarg);
  40400c:	48 8b 3d ad 73 01 00 	mov    0x173ad(%rip),%rdi        # 41b3c0 <optarg@@GLIBC_2.2.5>
_ZN7CLDeltaIiE9HandleArgEaPc():
/home/aliha951/ipdps-artifact/gapbs-master/src/command_line.h:253
    get_args_ += "d:";
    AddHelpLine('d', "d", "delta parameter", std::to_string(delta_));
  }

  void HandleArg(signed char opt, char* opt_arg) override {
    switch (opt) {
  404013:	3c 64                	cmp    $0x64,%al
  404015:	0f 84 9d 00 00 00    	je     4040b8 <main+0x188>
_ZN5CLApp9HandleArgEaPc():
/home/aliha951/ipdps-artifact/gapbs-master/src/command_line.h:165
    switch (opt) {
  40401b:	8d 50 9f             	lea    -0x61(%rax),%edx
  40401e:	80 fa 19             	cmp    $0x19,%dl
  404021:	77 0d                	ja     404030 <main+0x100>
  404023:	0f b6 d2             	movzbl %dl,%edx
  404026:	48 63 14 93          	movslq (%rbx,%rdx,4),%rdx
  40402a:	48 01 da             	add    %rbx,%rdx
  40402d:	3e ff e2             	notrack jmpq *%rdx
_ZN6CLBase9HandleArgEaPc():
/home/aliha951/ipdps-artifact/gapbs-master/src/command_line.h:100
    switch (opt) {
  404030:	83 e8 66             	sub    $0x66,%eax
  404033:	3c 13                	cmp    $0x13,%al
  404035:	77 b1                	ja     403fe8 <main+0xb8>
  404037:	0f b6 c0             	movzbl %al,%eax
  40403a:	49 63 44 85 00       	movslq 0x0(%r13,%rax,4),%rax
  40403f:	4c 01 e8             	add    %r13,%rax
  404042:	3e ff e0             	notrack jmpq *%rax
_ZN5CLApp9HandleArgEaPc():
/home/aliha951/ipdps-artifact/gapbs-master/src/command_line.h:174
      case 'z': pin_vertices_ = true;                 	break;
  404045:	c6 84 24 e3 01 00 00 	movb   $0x1,0x1e3(%rsp)
  40404c:	01 
  40404d:	eb 99                	jmp    403fe8 <main+0xb8>
/home/aliha951/ipdps-artifact/gapbs-master/src/command_line.h:169
      case 'v': do_verify_ = true;                      break;
  40404f:	c6 84 24 e0 01 00 00 	movb   $0x1,0x1e0(%rsp)
  404056:	01 
  404057:	eb 8f                	jmp    403fe8 <main+0xb8>
main():
/usr/include/stdlib.h:368
  return (int) strtol (__nptr, (char **) NULL, 10);
}
__extern_inline long int
__NTH (atol (const char *__nptr))
{
  return strtol (__nptr, (char **) NULL, 10);
  404059:	ba 0a 00 00 00       	mov    $0xa,%edx
atol():
/usr/include/stdlib.h:368
  40405e:	31 f6                	xor    %esi,%esi
  404060:	e8 eb fa ff ff       	callq  403b50 <strtol@plt>
_ZN5CLApp9HandleArgEaPc():
/home/aliha951/ipdps-artifact/gapbs-master/src/command_line.h:168
      case 'r': start_vertex_ = atol(opt_arg);          break;
  404065:	48 89 84 24 d8 01 00 	mov    %rax,0x1d8(%rsp)
  40406c:	00 
  40406d:	e9 76 ff ff ff       	jmpq   403fe8 <main+0xb8>
/home/aliha951/ipdps-artifact/gapbs-master/src/command_line.h:173
      case 'p': partial_execution_ = true;              break;
  404072:	c6 84 24 e2 01 00 00 	movb   $0x1,0x1e2(%rsp)
  404079:	01 
  40407a:	e9 69 ff ff ff       	jmpq   403fe8 <main+0xb8>
main():
/usr/include/stdlib.h:363
  return (int) strtol (__nptr, (char **) NULL, 10);
  40407f:	ba 0a 00 00 00       	mov    $0xa,%edx
atoi():
/usr/include/stdlib.h:363
  404084:	31 f6                	xor    %esi,%esi
  404086:	e8 c5 fa ff ff       	callq  403b50 <strtol@plt>
  40408b:	89 84 24 d4 01 00 00 	mov    %eax,0x1d4(%rsp)
_ZN5CLApp9HandleArgEaPc():
/home/aliha951/ipdps-artifact/gapbs-master/src/command_line.h:167
      case 'n': num_trials_ = atoi(opt_arg);            break;
  404092:	e9 51 ff ff ff       	jmpq   403fe8 <main+0xb8>
/home/aliha951/ipdps-artifact/gapbs-master/src/command_line.h:170
      case 'l': enable_logging_ = true;                 break;
  404097:	c6 84 24 e1 01 00 00 	movb   $0x1,0x1e1(%rsp)
  40409e:	01 
  40409f:	e9 44 ff ff ff       	jmpq   403fe8 <main+0xb8>
/home/aliha951/ipdps-artifact/gapbs-master/src/command_line.h:166
      case 'a': do_analysis_ = true;                    break;
  4040a4:	c6 84 24 d0 01 00 00 	movb   $0x1,0x1d0(%rsp)
  4040ab:	01 
  4040ac:	e9 37 ff ff ff       	jmpq   403fe8 <main+0xb8>
  4040b1:	0f 1f 80 00 00 00 00 	nopl   0x0(%rax)
main():
/usr/include/stdlib.h:368
  return strtol (__nptr, (char **) NULL, 10);
  4040b8:	ba 0a 00 00 00       	mov    $0xa,%edx
atol():
/usr/include/stdlib.h:368
  4040bd:	31 f6                	xor    %esi,%esi
  4040bf:	e8 8c fa ff ff       	callq  403b50 <strtol@plt>
_ZN7CLDeltaIiE9HandleArgEaPc():
/home/aliha951/ipdps-artifact/gapbs-master/src/command_line.h:258
      case 'd':
        if (std::is_floating_point<WeightT_>::value)
          delta_ = static_cast<WeightT_>(atof(opt_arg));
        else
          delta_ = static_cast<WeightT_>(atol(opt_arg));
  4040c4:	89 84 24 e4 01 00 00 	mov    %eax,0x1e4(%rsp)
/home/aliha951/ipdps-artifact/gapbs-master/src/command_line.h:259
        break;
  4040cb:	e9 18 ff ff ff       	jmpq   403fe8 <main+0xb8>
_ZSteqIcSt11char_traitsIcESaIcEEbRKNSt7__cxx1112basic_stringIT_T0_T1_EEPKS5_():
/usr/include/c++/10/bits/basic_string.h:6199
   */
  template<typename _CharT, typename _Traits, typename _Alloc>
    inline bool
    operator==(const basic_string<_CharT, _Traits, _Alloc>& __lhs,
	       const _CharT* __rhs)
    { return __lhs.compare(__rhs) == 0; }
  4040d0:	48 8d bc 24 98 01 00 	lea    0x198(%rsp),%rdi
  4040d7:	00 
  4040d8:	48 8d 35 6c 21 01 00 	lea    0x1216c(%rip),%rsi        # 41624b <_IO_stdin_used+0x24b>
  4040df:	e8 0c f7 ff ff       	callq  4037f0 <_ZNKSt7__cxx1112basic_stringIcSt11char_traitsIcESaIcEE7compareEPKc@plt>
_ZN6CLBase9ParseArgsEv():
/home/aliha951/ipdps-artifact/gapbs-master/src/command_line.h:90
    if ((filename_ == "") && (scale_ == -1)) {
  4040e4:	85 c0                	test   %eax,%eax
  4040e6:	0f 84 cb 05 00 00    	je     4046b7 <main+0x787>
/home/aliha951/ipdps-artifact/gapbs-master/src/command_line.h:94
    if (scale_ != -1)
  4040ec:	83 bc 24 90 01 00 00 	cmpl   $0xffffffff,0x190(%rsp)
  4040f3:	ff 
  4040f4:	0f 85 cf 05 00 00    	jne    4046c9 <main+0x799>
_ZN11BuilderBaseIi10NodeWeightIiiEiLb1EEC4ERK6CLBase():
/home/aliha951/ipdps-artifact/gapbs-master/src/builder.h:50
  bool needs_weights_;
  bool in_place_ = false;
  int64_t num_nodes_ = -1;

 public:
  explicit BuilderBase(const CLBase &cli) : cli_(cli) {
  4040fa:	48 8b 44 24 38       	mov    0x38(%rsp),%rax
/home/aliha951/ipdps-artifact/gapbs-master/src/builder.h:52
    symmetrize_ = cli_.symmetrize();
    needs_weights_ = !std::is_same<NodeID_, DestID_>::value;
  4040ff:	c6 44 24 69 01       	movb   $0x1,0x69(%rsp)
/home/aliha951/ipdps-artifact/gapbs-master/src/builder.h:50
  explicit BuilderBase(const CLBase &cli) : cli_(cli) {
  404104:	48 c7 44 24 70 ff ff 	movq   $0xffffffffffffffff,0x70(%rsp)
  40410b:	ff ff 
  40410d:	48 89 44 24 60       	mov    %rax,0x60(%rsp)
/home/aliha951/ipdps-artifact/gapbs-master/src/builder.h:51
    symmetrize_ = cli_.symmetrize();
  404112:	0f b6 84 24 b8 01 00 	movzbl 0x1b8(%rsp),%eax
  404119:	00 
  40411a:	88 44 24 68          	mov    %al,0x68(%rsp)
_ZNK6CLBase8in_placeEv():
/home/aliha951/ipdps-artifact/gapbs-master/src/command_line.h:129
  bool in_place() const { return in_place_; }
  40411e:	0f b6 84 24 ba 01 00 	movzbl 0x1ba(%rsp),%eax
  404125:	00 
_ZN11BuilderBaseIi10NodeWeightIiiEiLb1EEC4ERK6CLBase():
/home/aliha951/ipdps-artifact/gapbs-master/src/builder.h:53
    in_place_ = cli_.in_place();
  404126:	88 44 24 6a          	mov    %al,0x6a(%rsp)
/home/aliha951/ipdps-artifact/gapbs-master/src/builder.h:54
    if (in_place_ && needs_weights_) {
  40412a:	84 c0                	test   %al,%al
  40412c:	0f 85 7c 0b 00 00    	jne    404cae <main+0xd7e>
main():
/home/aliha951/ipdps-artifact/gapbs-master/src/sssp_batching.cc:263
  if (!cli.ParseArgs())
    return -1;

  WeightedBuilder b(cli);
  WGraph g = b.MakeGraph();
  404132:	48 8d 84 24 a0 00 00 	lea    0xa0(%rsp),%rax
  404139:	00 
  40413a:	48 8d 74 24 60       	lea    0x60(%rsp),%rsi
  40413f:	48 89 c7             	mov    %rax,%rdi
  404142:	48 89 44 24 18       	mov    %rax,0x18(%rsp)
  404147:	48 89 c3             	mov    %rax,%rbx
  40414a:	e8 f1 02 01 00       	callq  414440 <_ZN11BuilderBaseIi10NodeWeightIiiEiLb1EE9MakeGraphEv>
/home/aliha951/ipdps-artifact/gapbs-master/src/sssp_batching.cc:264
  SourcePicker<WGraph> sp(g, cli.start_vertex());
  40414f:	8b 94 24 d8 01 00 00 	mov    0x1d8(%rsp),%edx
  404156:	48 8d bc 24 f0 01 00 	lea    0x1f0(%rsp),%rdi
  40415d:	00 
  40415e:	48 89 de             	mov    %rbx,%rsi
  404161:	e8 ba 7a 00 00       	callq  40bc20 <_ZN12SourcePickerI8CSRGraphIi10NodeWeightIiiELb1EEEC1ERKS3_i>
/home/aliha951/ipdps-artifact/gapbs-master/src/sssp_batching.cc:268
  auto SSSPBound = [&sp, &cli] (const WGraph &g) {
    return DeltaStep(g, sp.PickNext(), cli.delta(), cli.logging_en());
  };
  SourcePicker<WGraph> vsp(g, cli.start_vertex());
  404166:	8b 94 24 d8 01 00 00 	mov    0x1d8(%rsp),%edx
  40416d:	48 89 de             	mov    %rbx,%rsi
  404170:	48 89 ef             	mov    %rbp,%rdi
  404173:	e8 a8 7a 00 00       	callq  40bc20 <_ZN12SourcePickerI8CSRGraphIi10NodeWeightIiiELb1EEEC1ERKS3_i>
/home/aliha951/ipdps-artifact/gapbs-master/src/sssp_batching.cc:273
  auto VerifierBound = [&vsp] (const WGraph &g, const pvector<WeightT> &dist) {
    return SSSPVerifier(g, vsp.PickNext(), dist);
  };

  if(cli.batching()){
  404178:	80 bc 24 bb 01 00 00 	cmpb   $0x0,0x1bb(%rsp)
  40417f:	00 
  404180:	0f 84 a9 00 00 00    	je     40422f <main+0x2ff>
/home/aliha951/ipdps-artifact/gapbs-master/src/sssp_batching.cc:274
    pagefault_queue_size = cli.queue_size();
  404186:	48 63 84 24 c0 01 00 	movslq 0x1c0(%rsp),%rax
  40418d:	00 
  40418e:	48 89 05 f3 71 01 00 	mov    %rax,0x171f3(%rip)        # 41b388 <pagefault_queue_size>
/home/aliha951/ipdps-artifact/gapbs-master/src/sssp_batching.cc:275
    batching_mode = cli.batching_mode();
  404195:	8b 84 24 cc 01 00 00 	mov    0x1cc(%rsp),%eax
  40419c:	89 05 e2 71 01 00    	mov    %eax,0x171e2(%rip)        # 41b384 <batching_mode>
/home/aliha951/ipdps-artifact/gapbs-master/src/sssp_batching.cc:276
    allocate_pf_status_array();
  4041a2:	e8 c9 79 00 00       	callq  40bb70 <_Z24allocate_pf_status_arrayv>
_Z16prepare_pmadvisev():
/home/aliha951/ipdps-artifact/gapbs-master/src/libpfq_sssp.h:292
  touch_pages(pf_status_array, 32*1024*sizeof(int));
}

// Get file descriptor required for process_madvise and store it in pidfd
inline void prepare_pmadvise(){
  if(batching_mode == P_MADVISE){
  4041a7:	83 3d d6 71 01 00 01 	cmpl   $0x1,0x171d6(%rip)        # 41b384 <batching_mode>
  4041ae:	0f 84 db 09 00 00    	je     404b8f <main+0xc5f>
_Z24register_pf_status_arrayv():
/home/aliha951/ipdps-artifact/gapbs-master/src/libpfq_sssp.h:300
  }
}

// syscall to register the page fault status array with the kernel
inline void register_pf_status_array(){
  syscall(550,pf_status_array,32*1024);
  4041b4:	48 8b 35 ed c3 01 00 	mov    0x1c3ed(%rip),%rsi        # 4205a8 <pf_status_array>
  4041bb:	ba 00 80 00 00       	mov    $0x8000,%edx
  4041c0:	bf 26 02 00 00       	mov    $0x226,%edi
  4041c5:	31 c0                	xor    %eax,%eax
  4041c7:	e8 64 f5 ff ff       	callq  403730 <syscall@plt>
main():
/home/aliha951/ipdps-artifact/gapbs-master/src/sssp_batching.cc:279
    prepare_pmadvise();
    register_pf_status_array();
    unsigned long *ips = (unsigned long *)malloc(2 * sizeof(unsigned long));
  4041cc:	bf 10 00 00 00       	mov    $0x10,%edi
  4041d1:	e8 4a f9 ff ff       	callq  403b20 <malloc@plt>
/home/aliha951/ipdps-artifact/gapbs-master/src/sssp_batching.cc:280
    unsigned long *ret_ips = (unsigned long *)malloc(2 * sizeof(unsigned long));
  4041d6:	bf 10 00 00 00       	mov    $0x10,%edi
/home/aliha951/ipdps-artifact/gapbs-master/src/sssp_batching.cc:279
    unsigned long *ips = (unsigned long *)malloc(2 * sizeof(unsigned long));
  4041db:	48 89 c5             	mov    %rax,%rbp
/home/aliha951/ipdps-artifact/gapbs-master/src/sssp_batching.cc:280
    unsigned long *ret_ips = (unsigned long *)malloc(2 * sizeof(unsigned long));
  4041de:	e8 3d f9 ff ff       	callq  403b20 <malloc@plt>
/home/aliha951/ipdps-artifact/gapbs-master/src/sssp_batching.cc:281
    ips[0] = 0x408dde;  // t maker
  4041e3:	66 0f 6f 05 a5 30 01 	movdqa 0x130a5(%rip),%xmm0        # 417290 <_ZZNSt8__detail18__to_chars_10_implIjEEvPcjT_E8__digits+0x1d0>
  4041ea:	00 
_Z23register_ips_and_retipsPmS_i():
/home/aliha951/ipdps-artifact/gapbs-master/src/libpfq_sssp.h:305
}

// syscall to register the special PCs (ips) and their return PCs (ret_ips) with the kernel
inline void register_ips_and_retips(unsigned long *ips, unsigned long *ret_ips, int size){
  syscall(548, ips, ret_ips, size);
  4041eb:	b9 02 00 00 00       	mov    $0x2,%ecx
  4041f0:	48 89 ee             	mov    %rbp,%rsi
main():
/home/aliha951/ipdps-artifact/gapbs-master/src/sssp_batching.cc:280
    unsigned long *ret_ips = (unsigned long *)malloc(2 * sizeof(unsigned long));
  4041f3:	48 89 c2             	mov    %rax,%rdx
_Z23register_ips_and_retipsPmS_i():
/home/aliha951/ipdps-artifact/gapbs-master/src/libpfq_sssp.h:305
  4041f6:	bf 24 02 00 00       	mov    $0x224,%edi
main():
/home/aliha951/ipdps-artifact/gapbs-master/src/sssp_batching.cc:281
    ips[0] = 0x408dde;  // t maker
  4041fb:	0f 11 45 00          	movups %xmm0,0x0(%rbp)
/home/aliha951/ipdps-artifact/gapbs-master/src/sssp_batching.cc:282
    ret_ips[0] = 0xb;
  4041ff:	66 0f 6f 05 99 30 01 	movdqa 0x13099(%rip),%xmm0        # 4172a0 <_ZZNSt8__detail18__to_chars_10_implIjEEvPcjT_E8__digits+0x1e0>
  404206:	00 
  404207:	0f 11 00             	movups %xmm0,(%rax)
_Z23register_ips_and_retipsPmS_i():
/home/aliha951/ipdps-artifact/gapbs-master/src/libpfq_sssp.h:305
  40420a:	31 c0                	xor    %eax,%eax
  40420c:	e8 1f f5 ff ff       	callq  403730 <syscall@plt>
_Z11touch_pagesPVim():
/home/aliha951/ipdps-artifact/gapbs-master/src/libpfq_sssp.h:272
    for (size_t i = 0; i < num_ints; i += 32) {
  404211:	48 8b 05 90 c3 01 00 	mov    0x1c390(%rip),%rax        # 4205a8 <pf_status_array>
  404218:	48 8d 90 00 00 02 00 	lea    0x20000(%rax),%rdx
  40421f:	90                   	nop
/home/aliha951/ipdps-artifact/gapbs-master/src/libpfq_sssp.h:273
        address[i] = 0;
  404220:	c7 00 00 00 00 00    	movl   $0x0,(%rax)
/home/aliha951/ipdps-artifact/gapbs-master/src/libpfq_sssp.h:272
    for (size_t i = 0; i < num_ints; i += 32) {
  404226:	48 83 e8 80          	sub    $0xffffffffffffff80,%rax
  40422a:	48 39 c2             	cmp    %rax,%rdx
  40422d:	75 f1                	jne    404220 <main+0x2f0>
main():
/home/aliha951/ipdps-artifact/gapbs-master/src/benchmark.h:107
template<typename GraphT_, typename GraphFunc, typename AnalysisFunc,
         typename VerifierFunc>
void BenchmarkKernel(const CLApp &cli, const GraphT_ &g,
                     GraphFunc kernel, AnalysisFunc stats,
                     VerifierFunc verify) {
  g.PrintStats();
  40422f:	48 8b 7c 24 18       	mov    0x18(%rsp),%rdi
BenchmarkKernel<CSRGraph<int, NodeWeight<int, int> >, main(int, char**)::<lambda(const WGraph&)>, void (*)(const CSRGraph<int, NodeWeight<int, int> >&, const pvector<int>&), main(int, char**)::<lambda(const WGraph&, const pvector<int>&)> >():
/home/aliha951/ipdps-artifact/gapbs-master/src/benchmark.h:107
  404234:	e8 a7 84 00 00       	callq  40c6e0 <_ZNK8CSRGraphIi10NodeWeightIiiELb1EE10PrintStatsEv>
_Z16start_disk_statsPKc():
/home/aliha951/ipdps-artifact/gapbs-master/src/profiling_utils.h:300
	fprintf(f, "%d", pid);
	fclose(f);
}

inline void start_disk_stats(const char* result_file_name){
  pid_t pid = fork();
  404239:	e8 92 f5 ff ff       	callq  4037d0 <fork@plt>
/home/aliha951/ipdps-artifact/gapbs-master/src/profiling_utils.h:301
  if (pid < 0) {
  40423e:	85 c0                	test   %eax,%eax
  404240:	0f 88 17 0a 00 00    	js     404c5d <main+0xd2d>
/home/aliha951/ipdps-artifact/gapbs-master/src/profiling_utils.h:304
    perror("fork failed");
    exit(EXIT_FAILURE);
  } else if (pid == 0) { // Child process
  404246:	0f 84 27 0a 00 00    	je     404c73 <main+0xd43>
/home/aliha951/ipdps-artifact/gapbs-master/src/profiling_utils.h:312
    execlp("/home/aliha951/ipdps-gapbs/gather_diskstats.sh", "/home/aliha951/ipdps-gapbs/gather_diskstats.sh", result_file_name, NULL);
    perror("execlp failed");
    exit(EXIT_FAILURE);
  }
  // Parent process continues
  diskstat_pid = pid;
  40424c:	89 05 42 71 01 00    	mov    %eax,0x17142(%rip)        # 41b394 <diskstat_pid>
BenchmarkKernel<CSRGraph<int, NodeWeight<int, int> >, main(int, char**)::<lambda(const WGraph&)>, void (*)(const CSRGraph<int, NodeWeight<int, int> >&, const pvector<int>&), main(int, char**)::<lambda(const WGraph&, const pvector<int>&)> >():
/home/aliha951/ipdps-artifact/gapbs-master/src/benchmark.h:114
  
  // adding profiling markers and rusage counters for performance analysis
  long long user_instructions, kernel_instructions,
              user_time, kernel_time;
  start_disk_stats("disk.stats");
  start_taskstats();                    
  404252:	e8 79 38 00 00       	callq  407ad0 <_Z15start_taskstatsv>
/home/aliha951/ipdps-artifact/gapbs-master/src/benchmark.h:115
  snapshot_proc_pid(BEGIN);
  404257:	31 ff                	xor    %edi,%edi
  404259:	e8 f2 72 00 00       	callq  40b550 <_Z17snapshot_proc_pid13SnapshotPoint>
/home/aliha951/ipdps-artifact/gapbs-master/src/benchmark.h:116
  snapshot_proc_stat(BEGIN);
  40425e:	31 ff                	xor    %edi,%edi
  404260:	e8 1b 76 00 00       	callq  40b880 <_Z18snapshot_proc_stat13SnapshotPoint>
/home/aliha951/ipdps-artifact/gapbs-master/src/benchmark.h:117
  start_counters(&perf_ctrs);
  404265:	48 8d 3d c4 c6 01 00 	lea    0x1c6c4(%rip),%rdi        # 420930 <perf_ctrs>
  40426c:	e8 3f 31 00 00       	callq  4073b0 <_Z14start_countersP13perf_counters>
/home/aliha951/ipdps-artifact/gapbs-master/src/benchmark.h:118
  trace_marker("BenchmarkKernel_Start");
  404271:	48 8d 3d d0 20 01 00 	lea    0x120d0(%rip),%rdi        # 416348 <_IO_stdin_used+0x348>
  404278:	e8 63 2e 00 00       	callq  4070e0 <_Z12trace_markerPKc>
/home/aliha951/ipdps-artifact/gapbs-master/src/benchmark.h:119
  start_time_stats();
  40427d:	e8 0e 2c 00 00       	callq  406e90 <_Z16start_time_statsv>
_Z19ompt_mark_roi_startv():
/home/aliha951/ipdps-artifact/gapbs-master/src/../omp_runtime_visualizer/include/runtime_visualizer_utils.h:52
  printf("[OMPT_annotation] Thread %d Annotation at %.3f ms: %s\n", 
         thread_id, timestamp / 1000.0, annotation);
}

inline void ompt_mark_roi_start() {
  ompt_annotate("ROI_START");
  404282:	48 8d 3d d5 20 01 00 	lea    0x120d5(%rip),%rdi        # 41635e <_IO_stdin_used+0x35e>
  404289:	e8 e2 3a 00 00       	callq  407d70 <_Z13ompt_annotatePKc>
BenchmarkKernel<CSRGraph<int, NodeWeight<int, int> >, main(int, char**)::<lambda(const WGraph&)>, void (*)(const CSRGraph<int, NodeWeight<int, int> >&, const pvector<int>&), main(int, char**)::<lambda(const WGraph&, const pvector<int>&)> >():
/home/aliha951/ipdps-artifact/gapbs-master/src/benchmark.h:123
  ompt_mark_roi_start();

  Timer trial_timer;
  for (int iter=0; iter < cli.num_trials(); iter++) {
  40428e:	8b 8c 24 d4 01 00 00 	mov    0x1d4(%rsp),%ecx
  404295:	85 c9                	test   %ecx,%ecx
  404297:	0f 8e e3 08 00 00    	jle    404b80 <main+0xc50>
  40429d:	48 8d 84 24 80 00 00 	lea    0x80(%rsp),%rax
  4042a4:	00 
/home/aliha951/ipdps-artifact/gapbs-master/src/benchmark.h:108
  double total_seconds = 0;
  4042a5:	66 0f ef ed          	pxor   %xmm5,%xmm5
/home/aliha951/ipdps-artifact/gapbs-master/src/benchmark.h:123
  for (int iter=0; iter < cli.num_trials(); iter++) {
  4042a9:	c7 44 24 0c 00 00 00 	movl   $0x0,0xc(%rsp)
  4042b0:	00 
_ZNSt23mersenne_twister_engineImLm64ELm312ELm156ELm31ELm13043109905998158313ELm29ELm6148914691236517205ELm17ELm8202884508482404352ELm37ELm18444473444759240704ELm43ELm6364136223846793005EEclEv():
/usr/include/c++/10/bits/random.tcc:460
      if (_M_p >= state_size)
	_M_gen_rand();

      // Calculate o(x(i)).
      result_type __z = _M_x[_M_p++];
      __z ^= (__z >> __u) & __d;
  4042b1:	48 bb 55 55 55 55 55 	movabs $0x5555555555555555,%rbx
  4042b8:	55 55 55 
/usr/include/c++/10/bits/random.tcc:461
      __z ^= (__z << __s) & __b;
  4042bb:	48 bd 00 00 a6 ed ff 	movabs $0x71d67fffeda60000,%rbp
  4042c2:	7f d6 71 
  4042c5:	48 89 44 24 28       	mov    %rax,0x28(%rsp)
/usr/include/c++/10/bits/random.tcc:462
      __z ^= (__z << __t) & __c;
  4042ca:	49 bc 00 00 00 00 e0 	movabs $0xfff7eee000000000,%r12
  4042d1:	ee f7 ff 
BenchmarkKernel<CSRGraph<int, NodeWeight<int, int> >, main(int, char**)::<lambda(const WGraph&)>, void (*)(const CSRGraph<int, NodeWeight<int, int> >&, const pvector<int>&), main(int, char**)::<lambda(const WGraph&, const pvector<int>&)> >():
/home/aliha951/ipdps-artifact/gapbs-master/src/benchmark.h:108
  double total_seconds = 0;
  4042d4:	f2 0f 11 6c 24 10    	movsd  %xmm5,0x10(%rsp)
  4042da:	66 0f 1f 44 00 00    	nopw   0x0(%rax,%rax,1)
_ZN5Timer5StartEv():
/home/aliha951/ipdps-artifact/gapbs-master/src/timer.h:23
class Timer {
 public:
  Timer() {}

  void Start() {
    elapsed_time_ = start_time_ = std::chrono::high_resolution_clock::now();
  4042e0:	e8 3b f4 ff ff       	callq  403720 <_ZNSt6chrono3_V212system_clock3nowEv@plt>
_ZN12SourcePickerI8CSRGraphIi10NodeWeightIiiELb1EEE8PickNextEv():
/home/aliha951/ipdps-artifact/gapbs-master/src/benchmark.h:58
    if (given_source_ != -1)
  4042e5:	8b 94 24 f0 01 00 00 	mov    0x1f0(%rsp),%edx
main():
/home/aliha951/ipdps-artifact/gapbs-master/src/sssp_batching.cc:266
    return DeltaStep(g, sp.PickNext(), cli.delta(), cli.logging_en());
  4042ec:	44 0f b6 ac 24 e1 01 	movzbl 0x1e1(%rsp),%r13d
  4042f3:	00 00 
_ZN5Timer5StartEv():
/home/aliha951/ipdps-artifact/gapbs-master/src/timer.h:23
  4042f5:	48 89 44 24 20       	mov    %rax,0x20(%rsp)
_ZNK7CLDeltaIiE5deltaEv():
/home/aliha951/ipdps-artifact/gapbs-master/src/command_line.h:264
      default: CLApp::HandleArg(opt, opt_arg);
    }
  }

  WeightT_ delta() const { return delta_; }
  4042fa:	44 8b b4 24 e4 01 00 	mov    0x1e4(%rsp),%r14d
  404301:	00 
_ZN12SourcePickerI8CSRGraphIi10NodeWeightIiiELb1EEE8PickNextEv():
/home/aliha951/ipdps-artifact/gapbs-master/src/benchmark.h:58
  404302:	83 fa ff             	cmp    $0xffffffff,%edx
  404305:	0f 84 66 04 00 00    	je     404771 <main+0x841>
operator()():
/home/aliha951/ipdps-artifact/gapbs-master/src/sssp_batching.cc:266
  40430b:	48 8b 74 24 18       	mov    0x18(%rsp),%rsi
  404310:	48 8b 7c 24 28       	mov    0x28(%rsp),%rdi
  404315:	45 89 e8             	mov    %r13d,%r8d
  404318:	44 89 f1             	mov    %r14d,%ecx
  40431b:	e8 00 3f 00 00       	callq  408220 <_Z9DeltaStepRK8CSRGraphIi10NodeWeightIiiELb1EEiib>
_ZN5Timer4StopEv():
/home/aliha951/ipdps-artifact/gapbs-master/src/timer.h:27
  }

  void Stop() {
    elapsed_time_ = std::chrono::high_resolution_clock::now();
  404320:	e8 fb f3 ff ff       	callq  403720 <_ZNSt6chrono3_V212system_clock3nowEv@plt>
_ZNSt7__cxx1112basic_stringIcSt11char_traitsIcESaIcEE12_Alloc_hiderC4EPcRKS3_():
/usr/include/c++/10/bits/basic_string.h:165
	: allocator_type(__a), _M_p(__dat) { }
  404325:	4c 8d b4 24 00 01 00 	lea    0x100(%rsp),%r14
  40432c:	00 
_ZNSt6chronomiIlSt5ratioILl1ELl1000000000EElS2_EENSt11common_typeIJNS_8durationIT_T0_EENS4_IT1_T2_EEEE4typeERKS7_RKSA_():
/usr/include/c++/10/chrono:614
		const duration<_Rep2, _Period2>& __rhs)
      {
	typedef duration<_Rep1, _Period1>			__dur1;
	typedef duration<_Rep2, _Period2>			__dur2;
	typedef typename common_type<__dur1,__dur2>::type	__cd;
	return __cd(__cd(__lhs).count() - __cd(__rhs).count());
  40432d:	48 2b 44 24 20       	sub    0x20(%rsp),%rax
_ZNSt6chrono20__duration_cast_implINS_8durationIdSt5ratioILl1ELl1EEEES2_ILl1ELl1000000000EEdLb1ELb0EE6__castIlS5_EES4_RKNS1_IT_T0_EE():
/usr/include/c++/10/chrono:214
	      static_cast<_CR>(__d.count()) / static_cast<_CR>(_CF::den)));
  404332:	66 0f ef c0          	pxor   %xmm0,%xmm0
  404336:	f2 48 0f 2a c0       	cvtsi2sd %rax,%xmm0
_ZNSt7__cxx1112basic_stringIcSt11char_traitsIcESaIcEE12_Alloc_hiderC4EPcRKS3_():
/usr/include/c++/10/bits/basic_string.h:165
  40433b:	4c 8d ac 24 10 01 00 	lea    0x110(%rsp),%r13
  404342:	00 
_ZNSt11char_traitsIcE4copyEPcPKcm():
/usr/include/c++/10/bits/char_traits.h:437
	  return __s1;
#ifdef __cpp_lib_is_constant_evaluated
	if (std::is_constant_evaluated())
	  return __gnu_cxx::char_traits<char_type>::copy(__s1, __s2, __n);
#endif
	return static_cast<char_type*>(__builtin_memcpy(__s1, __s2, __n));
  404343:	ba 6d 65 00 00       	mov    $0x656d,%edx
  404348:	48 b8 54 72 69 61 6c 	movabs $0x6954206c61697254,%rax
  40434f:	20 54 69 
BenchmarkKernel<CSRGraph<int, NodeWeight<int, int> >, main(int, char**)::<lambda(const WGraph&)>, void (*)(const CSRGraph<int, NodeWeight<int, int> >&, const pvector<int>&), main(int, char**)::<lambda(const WGraph&, const pvector<int>&)> >():
/home/aliha951/ipdps-artifact/gapbs-master/src/benchmark.h:127
    trial_timer.Start();
    auto result = kernel(g);
    trial_timer.Stop();
    PrintTime("Trial Time", trial_timer.Seconds());
  404352:	4c 89 f7             	mov    %r14,%rdi
_ZNSt6chrono20__duration_cast_implINS_8durationIdSt5ratioILl1ELl1EEEES2_ILl1ELl1000000000EEdLb1ELb0EE6__castIlS5_EES4_RKNS1_IT_T0_EE():
/usr/include/c++/10/chrono:214
  404355:	f2 0f 5e 05 9b 2f 01 	divsd  0x12f9b(%rip),%xmm0        # 4172f8 <_ZZNSt8__detail18__to_chars_10_implIjEEvPcjT_E8__digits+0x238>
  40435c:	00 
_ZNSt7__cxx1112basic_stringIcSt11char_traitsIcESaIcEE12_Alloc_hiderC4EPcRKS3_():
/usr/include/c++/10/bits/basic_string.h:165
  40435d:	4c 89 ac 24 00 01 00 	mov    %r13,0x100(%rsp)
  404364:	00 
_ZNSt11char_traitsIcE4copyEPcPKcm():
/usr/include/c++/10/bits/char_traits.h:437
  404365:	48 89 84 24 10 01 00 	mov    %rax,0x110(%rsp)
  40436c:	00 
  40436d:	66 89 94 24 18 01 00 	mov    %dx,0x118(%rsp)
  404374:	00 
_ZNSt7__cxx1112basic_stringIcSt11char_traitsIcESaIcEE9_M_lengthEm():
/usr/include/c++/10/bits/basic_string.h:191
      { _M_string_length = __length; }
  404375:	48 c7 84 24 08 01 00 	movq   $0xa,0x108(%rsp)
  40437c:	00 0a 00 00 00 
_ZNSt11char_traitsIcE6assignERcRKc():
/usr/include/c++/10/bits/char_traits.h:357
      { __c1 = __c2; }
  404381:	c6 84 24 1a 01 00 00 	movb   $0x0,0x11a(%rsp)
  404388:	00 
_ZNSt6chrono20__duration_cast_implINS_8durationIdSt5ratioILl1ELl1EEEES2_ILl1ELl1000000000EEdLb1ELb0EE6__castIlS5_EES4_RKNS1_IT_T0_EE():
/usr/include/c++/10/chrono:214
  404389:	f2 0f 11 44 24 20    	movsd  %xmm0,0x20(%rsp)
BenchmarkKernel<CSRGraph<int, NodeWeight<int, int> >, main(int, char**)::<lambda(const WGraph&)>, void (*)(const CSRGraph<int, NodeWeight<int, int> >&, const pvector<int>&), main(int, char**)::<lambda(const WGraph&, const pvector<int>&)> >():
/home/aliha951/ipdps-artifact/gapbs-master/src/benchmark.h:127
  40438f:	e8 5c 24 00 00       	callq  4067f0 <_Z9PrintTimeRKNSt7__cxx1112basic_stringIcSt11char_traitsIcESaIcEEEd>
_ZNKSt7__cxx1112basic_stringIcSt11char_traitsIcESaIcEE7_M_dataEv():
/usr/include/c++/10/bits/basic_string.h:195
      { return _M_dataplus._M_p; }
  404394:	48 8b bc 24 00 01 00 	mov    0x100(%rsp),%rdi
  40439b:	00 
_ZNSt7__cxx1112basic_stringIcSt11char_traitsIcESaIcEE10_M_disposeEv():
/usr/include/c++/10/bits/basic_string.h:239
	if (!_M_is_local())
  40439c:	4c 39 ef             	cmp    %r13,%rdi
  40439f:	74 05                	je     4043a6 <main+0x476>
_ZN9__gnu_cxx13new_allocatorIcE10deallocateEPcm():
/usr/include/c++/10/ext/new_allocator.h:139
  4043a1:	e8 1a f6 ff ff       	callq  4039c0 <_ZdlPv@plt>
BenchmarkKernel<CSRGraph<int, NodeWeight<int, int> >, main(int, char**)::<lambda(const WGraph&)>, void (*)(const CSRGraph<int, NodeWeight<int, int> >&, const pvector<int>&), main(int, char**)::<lambda(const WGraph&, const pvector<int>&)> >():
/home/aliha951/ipdps-artifact/gapbs-master/src/benchmark.h:128
    total_seconds += trial_timer.Seconds();
  4043a6:	f2 0f 10 54 24 10    	movsd  0x10(%rsp),%xmm2
  4043ac:	f2 0f 58 54 24 20    	addsd  0x20(%rsp),%xmm2
/home/aliha951/ipdps-artifact/gapbs-master/src/benchmark.h:129
    if (cli.do_analysis() && (iter == (cli.num_trials()-1)))
  4043b2:	80 bc 24 d0 01 00 00 	cmpb   $0x0,0x1d0(%rsp)
  4043b9:	00 
/home/aliha951/ipdps-artifact/gapbs-master/src/benchmark.h:128
    total_seconds += trial_timer.Seconds();
  4043ba:	f2 0f 11 54 24 10    	movsd  %xmm2,0x10(%rsp)
/home/aliha951/ipdps-artifact/gapbs-master/src/benchmark.h:129
    if (cli.do_analysis() && (iter == (cli.num_trials()-1)))
  4043c0:	74 14                	je     4043d6 <main+0x4a6>
  4043c2:	8b 84 24 d4 01 00 00 	mov    0x1d4(%rsp),%eax
  4043c9:	83 e8 01             	sub    $0x1,%eax
  4043cc:	3b 44 24 0c          	cmp    0xc(%rsp),%eax
  4043d0:	0f 84 ba 05 00 00    	je     404990 <main+0xa60>
/home/aliha951/ipdps-artifact/gapbs-master/src/benchmark.h:131
      stats(g, result);
    if (cli.do_verify()) {
  4043d6:	80 bc 24 e0 01 00 00 	cmpb   $0x0,0x1e0(%rsp)
  4043dd:	00 
  4043de:	0f 84 69 01 00 00    	je     40454d <main+0x61d>
_ZN5Timer5StartEv():
/home/aliha951/ipdps-artifact/gapbs-master/src/timer.h:23
    elapsed_time_ = start_time_ = std::chrono::high_resolution_clock::now();
  4043e4:	e8 37 f3 ff ff       	callq  403720 <_ZNSt6chrono3_V212system_clock3nowEv@plt>
_ZN12SourcePickerI8CSRGraphIi10NodeWeightIiiELb1EEE8PickNextEv():
/home/aliha951/ipdps-artifact/gapbs-master/src/benchmark.h:58
    if (given_source_ != -1)
  4043e9:	8b b4 24 e0 0b 00 00 	mov    0xbe0(%rsp),%esi
_ZN5Timer5StartEv():
/home/aliha951/ipdps-artifact/gapbs-master/src/timer.h:23
  4043f0:	48 89 44 24 30       	mov    %rax,0x30(%rsp)
_ZN12SourcePickerI8CSRGraphIi10NodeWeightIiiELb1EEE8PickNextEv():
/home/aliha951/ipdps-artifact/gapbs-master/src/benchmark.h:58
  4043f5:	83 fe ff             	cmp    $0xffffffff,%esi
  4043f8:	0f 84 43 04 00 00    	je     404841 <main+0x911>
main():
/home/aliha951/ipdps-artifact/gapbs-master/src/sssp_batching.cc:270
    return SSSPVerifier(g, vsp.PickNext(), dist);
  4043fe:	48 8b 54 24 28       	mov    0x28(%rsp),%rdx
operator()():
/home/aliha951/ipdps-artifact/gapbs-master/src/sssp_batching.cc:270
  404403:	48 8b 7c 24 18       	mov    0x18(%rsp),%rdi
  404408:	e8 a3 5c 00 00       	callq  40a0b0 <_Z12SSSPVerifierRK8CSRGraphIi10NodeWeightIiiELb1EEiRK7pvectorIiE>
BenchmarkKernel<CSRGraph<int, NodeWeight<int, int> >, main(int, char**)::<lambda(const WGraph&)>, void (*)(const CSRGraph<int, NodeWeight<int, int> >&, const pvector<int>&), main(int, char**)::<lambda(const WGraph&, const pvector<int>&)> >():
/home/aliha951/ipdps-artifact/gapbs-master/src/benchmark.h:133
      trial_timer.Start();
      PrintLabel("Verification",
  40440d:	3c 01                	cmp    $0x1,%al
_ZNSt7__cxx1112basic_stringIcSt11char_traitsIcESaIcEE12_Alloc_hiderC4EPcRKS3_():
/usr/include/c++/10/bits/basic_string.h:165
	: allocator_type(__a), _M_p(__dat) { }
  40440f:	4c 89 ac 24 00 01 00 	mov    %r13,0x100(%rsp)
  404416:	00 
  404417:	48 8d bc 24 f0 00 00 	lea    0xf0(%rsp),%rdi
  40441e:	00 
  40441f:	48 8d b4 24 e0 00 00 	lea    0xe0(%rsp),%rsi
  404426:	00 
BenchmarkKernel<CSRGraph<int, NodeWeight<int, int> >, main(int, char**)::<lambda(const WGraph&)>, void (*)(const CSRGraph<int, NodeWeight<int, int> >&, const pvector<int>&), main(int, char**)::<lambda(const WGraph&, const pvector<int>&)> >():
/home/aliha951/ipdps-artifact/gapbs-master/src/benchmark.h:133
  404427:	19 c0                	sbb    %eax,%eax
_ZNSt11char_traitsIcE4copyEPcPKcm():
/usr/include/c++/10/bits/char_traits.h:437
	return static_cast<char_type*>(__builtin_memcpy(__s1, __s2, __n));
  404429:	41 c7 45 08 74 69 6f 	movl   $0x6e6f6974,0x8(%r13)
  404430:	6e 
_ZNSt7__cxx1112basic_stringIcSt11char_traitsIcESaIcEE12_Alloc_hiderC4EPcRKS3_():
/usr/include/c++/10/bits/basic_string.h:165
  404431:	49 89 ff             	mov    %rdi,%r15
BenchmarkKernel<CSRGraph<int, NodeWeight<int, int> >, main(int, char**)::<lambda(const WGraph&)>, void (*)(const CSRGraph<int, NodeWeight<int, int> >&, const pvector<int>&), main(int, char**)::<lambda(const WGraph&, const pvector<int>&)> >():
/home/aliha951/ipdps-artifact/gapbs-master/src/benchmark.h:133
  404434:	25 f6 ff f5 f8       	and    $0xf8f5fff6,%eax
_ZNSt7__cxx1112basic_stringIcSt11char_traitsIcESaIcEE12_Alloc_hiderC4EPcRKS3_():
/usr/include/c++/10/bits/basic_string.h:165
  404439:	48 89 bc 24 e0 00 00 	mov    %rdi,0xe0(%rsp)
  404440:	00 
BenchmarkKernel<CSRGraph<int, NodeWeight<int, int> >, main(int, char**)::<lambda(const WGraph&)>, void (*)(const CSRGraph<int, NodeWeight<int, int> >&, const pvector<int>&), main(int, char**)::<lambda(const WGraph&, const pvector<int>&)> >():
/home/aliha951/ipdps-artifact/gapbs-master/src/benchmark.h:133
  404441:	4c 89 f7             	mov    %r14,%rdi
  404444:	05 50 41 53 53       	add    $0x53534150,%eax
_ZNSt11char_traitsIcE6assignERcRKc():
/usr/include/c++/10/bits/char_traits.h:357
      { __c1 = __c2; }
  404449:	c6 84 24 f4 00 00 00 	movb   $0x0,0xf4(%rsp)
  404450:	00 
_ZNSt11char_traitsIcE4copyEPcPKcm():
/usr/include/c++/10/bits/char_traits.h:437
	return static_cast<char_type*>(__builtin_memcpy(__s1, __s2, __n));
  404451:	89 84 24 f0 00 00 00 	mov    %eax,0xf0(%rsp)
  404458:	48 b8 56 65 72 69 66 	movabs $0x6163696669726556,%rax
  40445f:	69 63 61 
  404462:	49 89 45 00          	mov    %rax,0x0(%r13)
_ZNSt7__cxx1112basic_stringIcSt11char_traitsIcESaIcEE9_M_lengthEm():
/usr/include/c++/10/bits/basic_string.h:191
      { _M_string_length = __length; }
  404466:	48 c7 84 24 e8 00 00 	movq   $0x4,0xe8(%rsp)
  40446d:	00 04 00 00 00 
  404472:	48 c7 84 24 08 01 00 	movq   $0xc,0x108(%rsp)
  404479:	00 0c 00 00 00 
_ZNSt11char_traitsIcE6assignERcRKc():
/usr/include/c++/10/bits/char_traits.h:357
      { __c1 = __c2; }
  40447e:	c6 84 24 1c 01 00 00 	movb   $0x0,0x11c(%rsp)
  404485:	00 
BenchmarkKernel<CSRGraph<int, NodeWeight<int, int> >, main(int, char**)::<lambda(const WGraph&)>, void (*)(const CSRGraph<int, NodeWeight<int, int> >&, const pvector<int>&), main(int, char**)::<lambda(const WGraph&, const pvector<int>&)> >():
/home/aliha951/ipdps-artifact/gapbs-master/src/benchmark.h:133
  404486:	e8 f5 21 00 00       	callq  406680 <_Z10PrintLabelRKNSt7__cxx1112basic_stringIcSt11char_traitsIcESaIcEEES6_>
_ZNKSt7__cxx1112basic_stringIcSt11char_traitsIcESaIcEE7_M_dataEv():
/usr/include/c++/10/bits/basic_string.h:195
      { return _M_dataplus._M_p; }
  40448b:	48 8b bc 24 00 01 00 	mov    0x100(%rsp),%rdi
  404492:	00 
_ZNSt7__cxx1112basic_stringIcSt11char_traitsIcESaIcEE10_M_disposeEv():
/usr/include/c++/10/bits/basic_string.h:239
	if (!_M_is_local())
  404493:	4c 39 ef             	cmp    %r13,%rdi
  404496:	74 05                	je     40449d <main+0x56d>
_ZN9__gnu_cxx13new_allocatorIcE10deallocateEPcm():
/usr/include/c++/10/ext/new_allocator.h:139
  404498:	e8 23 f5 ff ff       	callq  4039c0 <_ZdlPv@plt>
_ZNKSt7__cxx1112basic_stringIcSt11char_traitsIcESaIcEE7_M_dataEv():
/usr/include/c++/10/bits/basic_string.h:195
      { return _M_dataplus._M_p; }
  40449d:	48 8b bc 24 e0 00 00 	mov    0xe0(%rsp),%rdi
  4044a4:	00 
_ZNSt7__cxx1112basic_stringIcSt11char_traitsIcESaIcEE10_M_disposeEv():
/usr/include/c++/10/bits/basic_string.h:239
	if (!_M_is_local())
  4044a5:	4c 39 ff             	cmp    %r15,%rdi
  4044a8:	74 05                	je     4044af <main+0x57f>
_ZN9__gnu_cxx13new_allocatorIcE10deallocateEPcm():
/usr/include/c++/10/ext/new_allocator.h:139
  4044aa:	e8 11 f5 ff ff       	callq  4039c0 <_ZdlPv@plt>
_ZN5Timer4StopEv():
/home/aliha951/ipdps-artifact/gapbs-master/src/timer.h:27
    elapsed_time_ = std::chrono::high_resolution_clock::now();
  4044af:	e8 6c f2 ff ff       	callq  403720 <_ZNSt6chrono3_V212system_clock3nowEv@plt>
_ZNSt6chrono20__duration_cast_implINS_8durationIdSt5ratioILl1ELl1EEEES2_ILl1ELl1000000000EEdLb1ELb0EE6__castIlS5_EES4_RKNS1_IT_T0_EE():
/usr/include/c++/10/chrono:214
  4044b4:	66 0f ef c0          	pxor   %xmm0,%xmm0
_ZNSt6chronomiIlSt5ratioILl1ELl1000000000EElS2_EENSt11common_typeIJNS_8durationIT_T0_EENS4_IT1_T2_EEEE4typeERKS7_RKSA_():
/usr/include/c++/10/chrono:614
	return __cd(__cd(__lhs).count() - __cd(__rhs).count());
  4044b8:	48 2b 44 24 30       	sub    0x30(%rsp),%rax
_ZNSt7__cxx1112basic_stringIcSt11char_traitsIcESaIcEE12_M_constructIPKcEEvT_S8_St20forward_iterator_tag():
/usr/include/c++/10/bits/basic_string.tcc:219

	size_type __dnew = static_cast<size_type>(std::distance(__beg, __end));

	if (__dnew > size_type(_S_local_capacity))
	  {
	    _M_data(_M_create(__dnew, size_type(0)));
  4044bd:	31 d2                	xor    %edx,%edx
  4044bf:	48 8d 74 24 58       	lea    0x58(%rsp),%rsi
  4044c4:	4c 89 f7             	mov    %r14,%rdi
_ZNSt7__cxx1112basic_stringIcSt11char_traitsIcESaIcEE12_Alloc_hiderC4EPcRKS3_():
/usr/include/c++/10/bits/basic_string.h:165
	: allocator_type(__a), _M_p(__dat) { }
  4044c7:	4c 89 ac 24 00 01 00 	mov    %r13,0x100(%rsp)
  4044ce:	00 
_ZNSt7__cxx1112basic_stringIcSt11char_traitsIcESaIcEE12_M_constructIPKcEEvT_S8_St20forward_iterator_tag():
/usr/include/c++/10/bits/basic_string.tcc:215
	size_type __dnew = static_cast<size_type>(std::distance(__beg, __end));
  4044cf:	48 c7 44 24 58 11 00 	movq   $0x11,0x58(%rsp)
  4044d6:	00 00 
_ZNSt6chrono20__duration_cast_implINS_8durationIdSt5ratioILl1ELl1EEEES2_ILl1ELl1000000000EEdLb1ELb0EE6__castIlS5_EES4_RKNS1_IT_T0_EE():
/usr/include/c++/10/chrono:214
	      static_cast<_CR>(__d.count()) / static_cast<_CR>(_CF::den)));
  4044d8:	f2 48 0f 2a c0       	cvtsi2sd %rax,%xmm0
  4044dd:	f2 0f 5e 05 13 2e 01 	divsd  0x12e13(%rip),%xmm0        # 4172f8 <_ZZNSt8__detail18__to_chars_10_implIjEEvPcjT_E8__digits+0x238>
  4044e4:	00 
  4044e5:	f2 0f 11 44 24 20    	movsd  %xmm0,0x20(%rsp)
_ZNSt7__cxx1112basic_stringIcSt11char_traitsIcESaIcEE12_M_constructIPKcEEvT_S8_St20forward_iterator_tag():
/usr/include/c++/10/bits/basic_string.tcc:219
	    _M_data(_M_create(__dnew, size_type(0)));
  4044eb:	e8 10 f8 ff ff       	callq  403d00 <_ZNSt7__cxx1112basic_stringIcSt11char_traitsIcESaIcEE9_M_createERmm@plt>
_ZNSt7__cxx1112basic_stringIcSt11char_traitsIcESaIcEE11_M_capacityEm():
/usr/include/c++/10/bits/basic_string.h:219
      { _M_allocated_capacity = __capacity; }
  4044f0:	48 8b 54 24 58       	mov    0x58(%rsp),%rdx
_ZNSt11char_traitsIcE4copyEPcPKcm():
/usr/include/c++/10/bits/char_traits.h:437
	return static_cast<char_type*>(__builtin_memcpy(__s1, __s2, __n));
  4044f5:	66 0f 6f 05 b3 2d 01 	movdqa 0x12db3(%rip),%xmm0        # 4172b0 <_ZZNSt8__detail18__to_chars_10_implIjEEvPcjT_E8__digits+0x1f0>
  4044fc:	00 
_ZNSt7__cxx1112basic_stringIcSt11char_traitsIcESaIcEE7_M_dataEPc():
/usr/include/c++/10/bits/basic_string.h:187
      { _M_dataplus._M_p = __p; }
  4044fd:	48 89 84 24 00 01 00 	mov    %rax,0x100(%rsp)
  404504:	00 
BenchmarkKernel<CSRGraph<int, NodeWeight<int, int> >, main(int, char**)::<lambda(const WGraph&)>, void (*)(const CSRGraph<int, NodeWeight<int, int> >&, const pvector<int>&), main(int, char**)::<lambda(const WGraph&, const pvector<int>&)> >():
/home/aliha951/ipdps-artifact/gapbs-master/src/benchmark.h:136
                 verify(std::ref(g), std::ref(result)) ? "PASS" : "FAIL");
      trial_timer.Stop();
      PrintTime("Verification Time", trial_timer.Seconds());
  404505:	4c 89 f7             	mov    %r14,%rdi
_ZNSt7__cxx1112basic_stringIcSt11char_traitsIcESaIcEE11_M_capacityEm():
/usr/include/c++/10/bits/basic_string.h:219
      { _M_allocated_capacity = __capacity; }
  404508:	48 89 94 24 10 01 00 	mov    %rdx,0x110(%rsp)
  40450f:	00 
_ZNSt11char_traitsIcE4copyEPcPKcm():
/usr/include/c++/10/bits/char_traits.h:437
  404510:	0f 11 00             	movups %xmm0,(%rax)
BenchmarkKernel<CSRGraph<int, NodeWeight<int, int> >, main(int, char**)::<lambda(const WGraph&)>, void (*)(const CSRGraph<int, NodeWeight<int, int> >&, const pvector<int>&), main(int, char**)::<lambda(const WGraph&, const pvector<int>&)> >():
/home/aliha951/ipdps-artifact/gapbs-master/src/benchmark.h:136
  404513:	f2 0f 10 44 24 20    	movsd  0x20(%rsp),%xmm0
_ZNSt11char_traitsIcE4copyEPcPKcm():
/usr/include/c++/10/bits/char_traits.h:437
  404519:	c6 40 10 65          	movb   $0x65,0x10(%rax)
_ZNSt7__cxx1112basic_stringIcSt11char_traitsIcESaIcEE12_M_constructIPKcEEvT_S8_St20forward_iterator_tag():
/usr/include/c++/10/bits/basic_string.tcc:232
	  {
	    _M_dispose();
	    __throw_exception_again;
	  }

	_M_set_length(__dnew);
  40451d:	48 8b 44 24 58       	mov    0x58(%rsp),%rax
_ZNSt11char_traitsIcE6assignERcRKc():
/usr/include/c++/10/bits/char_traits.h:357
      { __c1 = __c2; }
  404522:	48 8b 94 24 00 01 00 	mov    0x100(%rsp),%rdx
  404529:	00 
_ZNSt7__cxx1112basic_stringIcSt11char_traitsIcESaIcEE9_M_lengthEm():
/usr/include/c++/10/bits/basic_string.h:191
      { _M_string_length = __length; }
  40452a:	48 89 84 24 08 01 00 	mov    %rax,0x108(%rsp)
  404531:	00 
_ZNSt11char_traitsIcE6assignERcRKc():
/usr/include/c++/10/bits/char_traits.h:357
  404532:	c6 04 02 00          	movb   $0x0,(%rdx,%rax,1)
BenchmarkKernel<CSRGraph<int, NodeWeight<int, int> >, main(int, char**)::<lambda(const WGraph&)>, void (*)(const CSRGraph<int, NodeWeight<int, int> >&, const pvector<int>&), main(int, char**)::<lambda(const WGraph&, const pvector<int>&)> >():
/home/aliha951/ipdps-artifact/gapbs-master/src/benchmark.h:136
  404536:	e8 b5 22 00 00       	callq  4067f0 <_Z9PrintTimeRKNSt7__cxx1112basic_stringIcSt11char_traitsIcESaIcEEEd>
_ZNKSt7__cxx1112basic_stringIcSt11char_traitsIcESaIcEE7_M_dataEv():
/usr/include/c++/10/bits/basic_string.h:195
      { return _M_dataplus._M_p; }
  40453b:	48 8b bc 24 00 01 00 	mov    0x100(%rsp),%rdi
  404542:	00 
_ZNSt7__cxx1112basic_stringIcSt11char_traitsIcESaIcEE10_M_disposeEv():
/usr/include/c++/10/bits/basic_string.h:239
	if (!_M_is_local())
  404543:	4c 39 ef             	cmp    %r13,%rdi
  404546:	74 05                	je     40454d <main+0x61d>
_ZN9__gnu_cxx13new_allocatorIcE10deallocateEPcm():
/usr/include/c++/10/ext/new_allocator.h:139
  404548:	e8 73 f4 ff ff       	callq  4039c0 <_ZdlPv@plt>
BenchmarkKernel<CSRGraph<int, NodeWeight<int, int> >, main(int, char**)::<lambda(const WGraph&)>, void (*)(const CSRGraph<int, NodeWeight<int, int> >&, const pvector<int>&), main(int, char**)::<lambda(const WGraph&, const pvector<int>&)> >():
/home/aliha951/ipdps-artifact/gapbs-master/src/benchmark.h:138
    }
    ompt_annotate("Trial End");
  40454d:	48 8d 3d 14 1e 01 00 	lea    0x11e14(%rip),%rdi        # 416368 <_IO_stdin_used+0x368>
  404554:	e8 17 38 00 00       	callq  407d70 <_Z13ompt_annotatePKc>
_ZN7pvectorIiE16ReleaseResourcesEv():
/home/aliha951/ipdps-artifact/gapbs-master/src/pvector.h:73
    if (start_ != nullptr) {
  404559:	48 8b bc 24 80 00 00 	mov    0x80(%rsp),%rdi
  404560:	00 
  404561:	48 85 ff             	test   %rdi,%rdi
  404564:	0f 84 06 04 00 00    	je     404970 <main+0xa40>
/home/aliha951/ipdps-artifact/gapbs-master/src/pvector.h:74
      delete[] start_;
  40456a:	e8 81 f5 ff ff       	callq  403af0 <_ZdaPv@plt>
BenchmarkKernel<CSRGraph<int, NodeWeight<int, int> >, main(int, char**)::<lambda(const WGraph&)>, void (*)(const CSRGraph<int, NodeWeight<int, int> >&, const pvector<int>&), main(int, char**)::<lambda(const WGraph&, const pvector<int>&)> >():
/home/aliha951/ipdps-artifact/gapbs-master/src/benchmark.h:123
  for (int iter=0; iter < cli.num_trials(); iter++) {
  40456f:	83 44 24 0c 01       	addl   $0x1,0xc(%rsp)
  404574:	8b 44 24 0c          	mov    0xc(%rsp),%eax
  404578:	3b 84 24 d4 01 00 00 	cmp    0x1d4(%rsp),%eax
  40457f:	0f 8c 5b fd ff ff    	jl     4042e0 <main+0x3b0>
_Z17ompt_mark_roi_endv():
/home/aliha951/ipdps-artifact/gapbs-master/src/../omp_runtime_visualizer/include/runtime_visualizer_utils.h:56
}

inline void ompt_mark_roi_end() {
  ompt_annotate("ROI_END");
  404585:	48 8d 3d e6 1d 01 00 	lea    0x11de6(%rip),%rdi        # 416372 <_IO_stdin_used+0x372>
  40458c:	e8 df 37 00 00       	callq  407d70 <_Z13ompt_annotatePKc>
BenchmarkKernel<CSRGraph<int, NodeWeight<int, int> >, main(int, char**)::<lambda(const WGraph&)>, void (*)(const CSRGraph<int, NodeWeight<int, int> >&, const pvector<int>&), main(int, char**)::<lambda(const WGraph&, const pvector<int>&)> >():
/home/aliha951/ipdps-artifact/gapbs-master/src/benchmark.h:143
  }
  
  // adding profiling markers and rusage counters for performance analysis
  ompt_mark_roi_end();
  stop_time_stats();
  404591:	e8 2a 29 00 00       	callq  406ec0 <_Z15stop_time_statsv>
/home/aliha951/ipdps-artifact/gapbs-master/src/benchmark.h:144
  trace_marker("BenchmarkKernel_End");
  404596:	48 8d 3d dd 1d 01 00 	lea    0x11ddd(%rip),%rdi        # 41637a <_IO_stdin_used+0x37a>
  40459d:	e8 3e 2b 00 00       	callq  4070e0 <_Z12trace_markerPKc>
/home/aliha951/ipdps-artifact/gapbs-master/src/benchmark.h:145
  stop_counters(&perf_ctrs, &user_time, &kernel_time ,&user_instructions, &kernel_instructions);
  4045a2:	48 8d 4c 24 48       	lea    0x48(%rsp),%rcx
  4045a7:	48 8d 94 24 80 00 00 	lea    0x80(%rsp),%rdx
  4045ae:	00 
  4045af:	48 8d 74 24 58       	lea    0x58(%rsp),%rsi
  4045b4:	4c 8d 44 24 50       	lea    0x50(%rsp),%r8
  4045b9:	48 8d 3d 70 c3 01 00 	lea    0x1c370(%rip),%rdi        # 420930 <perf_ctrs>
  4045c0:	e8 7b 2f 00 00       	callq  407540 <_Z13stop_countersP13perf_countersPxS1_S1_S1_>
/home/aliha951/ipdps-artifact/gapbs-master/src/benchmark.h:146
  snapshot_proc_stat(END);
  4045c5:	bf 01 00 00 00       	mov    $0x1,%edi
  4045ca:	e8 b1 72 00 00       	callq  40b880 <_Z18snapshot_proc_stat13SnapshotPoint>
/home/aliha951/ipdps-artifact/gapbs-master/src/benchmark.h:147
  snapshot_proc_pid(END);
  4045cf:	bf 01 00 00 00       	mov    $0x1,%edi
  4045d4:	e8 77 6f 00 00       	callq  40b550 <_Z17snapshot_proc_pid13SnapshotPoint>
/home/aliha951/ipdps-artifact/gapbs-master/src/benchmark.h:148
  stop_taskstats();
  4045d9:	e8 32 35 00 00       	callq  407b10 <_Z14stop_taskstatsv>
_Z15stop_disk_statsv():
/home/aliha951/ipdps-artifact/gapbs-master/src/profiling_utils.h:316
}

inline void stop_disk_stats() {
  if (diskstat_pid > 0) {
  4045de:	8b 05 b0 6d 01 00    	mov    0x16db0(%rip),%eax        # 41b394 <diskstat_pid>
  4045e4:	85 c0                	test   %eax,%eax
  4045e6:	0f 8f b8 03 00 00    	jg     4049a4 <main+0xa74>
BenchmarkKernel<CSRGraph<int, NodeWeight<int, int> >, main(int, char**)::<lambda(const WGraph&)>, void (*)(const CSRGraph<int, NodeWeight<int, int> >&, const pvector<int>&), main(int, char**)::<lambda(const WGraph&, const pvector<int>&)> >():
/home/aliha951/ipdps-artifact/gapbs-master/src/benchmark.h:150
  stop_disk_stats();
  cleanup_counters(&perf_ctrs);
  4045ec:	48 8d 3d 3d c3 01 00 	lea    0x1c33d(%rip),%rdi        # 420930 <perf_ctrs>
  4045f3:	e8 88 31 00 00       	callq  407780 <_Z16cleanup_countersP13perf_counters>
/home/aliha951/ipdps-artifact/gapbs-master/src/benchmark.h:151
  measure_time_stats();
  4045f8:	e8 f3 28 00 00       	callq  406ef0 <_Z18measure_time_statsv>
/home/aliha951/ipdps-artifact/gapbs-master/src/benchmark.h:153

  PrintTime("Average Time", total_seconds / cli.num_trials());
  4045fd:	66 0f ef c0          	pxor   %xmm0,%xmm0
  404601:	f2 0f 10 64 24 10    	movsd  0x10(%rsp),%xmm4
  404607:	4c 8d b4 24 00 01 00 	lea    0x100(%rsp),%r14
  40460e:	00 
  40460f:	48 8d 35 78 1d 01 00 	lea    0x11d78(%rip),%rsi        # 41638e <_IO_stdin_used+0x38e>
  404616:	f2 0f 2a 84 24 d4 01 	cvtsi2sdl 0x1d4(%rsp),%xmm0
  40461d:	00 00 
  40461f:	4c 89 f7             	mov    %r14,%rdi
  404622:	f2 0f 5e e0          	divsd  %xmm0,%xmm4
  404626:	66 48 0f 7e e3       	movq   %xmm4,%rbx
  40462b:	e8 c0 1e 00 00       	callq  4064f0 <_ZNSt7__cxx1112basic_stringIcSt11char_traitsIcESaIcEEC2EPKcRKS3_.constprop.0>
  404630:	66 48 0f 6e c3       	movq   %rbx,%xmm0
  404635:	4c 89 f7             	mov    %r14,%rdi
  404638:	e8 b3 21 00 00       	callq  4067f0 <_Z9PrintTimeRKNSt7__cxx1112basic_stringIcSt11char_traitsIcESaIcEEEd>
_ZNKSt7__cxx1112basic_stringIcSt11char_traitsIcESaIcEE7_M_dataEv():
/usr/include/c++/10/bits/basic_string.h:195
      { return _M_dataplus._M_p; }
  40463d:	48 8b bc 24 00 01 00 	mov    0x100(%rsp),%rdi
  404644:	00 
_ZNSt7__cxx1112basic_stringIcSt11char_traitsIcESaIcEE10_M_disposeEv():
/usr/include/c++/10/bits/basic_string.h:239
	if (!_M_is_local())
  404645:	48 8d 84 24 10 01 00 	lea    0x110(%rsp),%rax
  40464c:	00 
  40464d:	48 39 c7             	cmp    %rax,%rdi
  404650:	74 05                	je     404657 <main+0x727>
_ZN9__gnu_cxx13new_allocatorIcE10deallocateEPcm():
/usr/include/c++/10/ext/new_allocator.h:139
  404652:	e8 69 f3 ff ff       	callq  4039c0 <_ZdlPv@plt>
main():
/home/aliha951/ipdps-artifact/gapbs-master/src/sssp_batching.cc:293
    touch_ips(ips, ret_ips, 2);
  }

  BenchmarkKernel(cli, g, SSSPBound, PrintSSSPStats, VerifierBound);

  if(cli.batching()){
  404657:	80 bc 24 bb 01 00 00 	cmpb   $0x0,0x1bb(%rsp)
  40465e:	00 
  40465f:	0f 85 86 03 00 00    	jne    4049eb <main+0xabb>
_ZN8CSRGraphIi10NodeWeightIiiELb1EED4Ev():
/home/aliha951/ipdps-artifact/gapbs-master/src/graph.h:166
  404665:	48 8b 7c 24 18       	mov    0x18(%rsp),%rdi
main():
/home/aliha951/ipdps-artifact/gapbs-master/src/sssp_batching.cc:297
    unregister_and_free_arrays();
  }

  return 0;
  40466a:	45 31 e4             	xor    %r12d,%r12d
_ZN8CSRGraphIi10NodeWeightIiiELb1EED4Ev():
/home/aliha951/ipdps-artifact/gapbs-master/src/graph.h:166
  40466d:	e8 0e 80 00 00       	callq  40c680 <_ZN8CSRGraphIi10NodeWeightIiiELb1EE16ReleaseResourcesEv>
_ZN5CLAppD4Ev():
/home/aliha951/ipdps-artifact/gapbs-master/src/command_line.h:140
class CLApp : public CLBase {
  404672:	48 8b 7c 24 38       	mov    0x38(%rsp),%rdi
  404677:	48 8d 05 7a 64 01 00 	lea    0x1647a(%rip),%rax        # 41aaf8 <_ZTV5CLApp+0x10>
  40467e:	48 89 84 24 20 01 00 	mov    %rax,0x120(%rsp)
  404685:	00 
  404686:	e8 15 6e 00 00       	callq  40b4a0 <_ZN6CLBaseD1Ev>
main():
/home/aliha951/ipdps-artifact/gapbs-master/src/sssp_batching.cc:298
}
  40468b:	48 8b 84 24 d8 16 00 	mov    0x16d8(%rsp),%rax
  404692:	00 
  404693:	64 48 2b 04 25 28 00 	sub    %fs:0x28,%rax
  40469a:	00 00 
  40469c:	0f 85 b6 05 00 00    	jne    404c58 <main+0xd28>
  4046a2:	48 81 c4 e8 16 00 00 	add    $0x16e8,%rsp
  4046a9:	44 89 e0             	mov    %r12d,%eax
  4046ac:	5b                   	pop    %rbx
  4046ad:	5d                   	pop    %rbp
  4046ae:	41 5c                	pop    %r12
  4046b0:	41 5d                	pop    %r13
  4046b2:	41 5e                	pop    %r14
  4046b4:	41 5f                	pop    %r15
  4046b6:	c3                   	retq   
_ZN6CLBase9ParseArgsEv():
/home/aliha951/ipdps-artifact/gapbs-master/src/command_line.h:90
    if ((filename_ == "") && (scale_ == -1)) {
  4046b7:	44 8b a4 24 90 01 00 	mov    0x190(%rsp),%r12d
  4046be:	00 
  4046bf:	41 83 fc ff          	cmp    $0xffffffff,%r12d
  4046c3:	0f 84 e6 04 00 00    	je     404baf <main+0xc7f>
/home/aliha951/ipdps-artifact/gapbs-master/src/command_line.h:95
      symmetrize_ = true;
  4046c9:	c6 84 24 b8 01 00 00 	movb   $0x1,0x1b8(%rsp)
  4046d0:	01 
/home/aliha951/ipdps-artifact/gapbs-master/src/command_line.h:92
      return false;
  4046d1:	e9 24 fa ff ff       	jmpq   4040fa <main+0x1ca>
  4046d6:	66 2e 0f 1f 84 00 00 	nopw   %cs:0x0(%rax,%rax,1)
  4046dd:	00 00 00 
_ZNSt23mersenne_twister_engineImLm64ELm312ELm156ELm31ELm13043109905998158313ELm29ELm6148914691236517205ELm17ELm8202884508482404352ELm37ELm18444473444759240704ELm43ELm6364136223846793005EEclEv():
/usr/include/c++/10/bits/random.tcc:456
	_M_gen_rand();
  4046e0:	4c 89 ff             	mov    %r15,%rdi
  4046e3:	e8 18 d7 00 00       	callq  411e00 <_ZNSt23mersenne_twister_engineImLm64ELm312ELm156ELm31ELm13043109905998158313ELm29ELm6148914691236517205ELm17ELm8202884508482404352ELm37ELm18444473444759240704ELm43ELm6364136223846793005EE11_M_gen_randEv>
/usr/include/c++/10/bits/random.tcc:459
      result_type __z = _M_x[_M_p++];
  4046e8:	49 8b 97 c0 09 00 00 	mov    0x9c0(%r15),%rdx
  4046ef:	48 8d 4a 01          	lea    0x1(%rdx),%rcx
  4046f3:	49 8b 14 d7          	mov    (%r15,%rdx,8),%rdx
  4046f7:	49 89 8f c0 09 00 00 	mov    %rcx,0x9c0(%r15)
/usr/include/c++/10/bits/random.tcc:460
      __z ^= (__z >> __u) & __d;
  4046fe:	48 89 d0             	mov    %rdx,%rax
  404701:	48 c1 e8 1d          	shr    $0x1d,%rax
  404705:	48 21 d8             	and    %rbx,%rax
  404708:	48 31 c2             	xor    %rax,%rdx
/usr/include/c++/10/bits/random.tcc:461
      __z ^= (__z << __s) & __b;
  40470b:	48 89 d0             	mov    %rdx,%rax
  40470e:	48 c1 e0 11          	shl    $0x11,%rax
  404712:	48 21 e8             	and    %rbp,%rax
  404715:	48 31 c2             	xor    %rax,%rdx
/usr/include/c++/10/bits/random.tcc:462
      __z ^= (__z << __t) & __c;
  404718:	48 89 d0             	mov    %rdx,%rax
  40471b:	48 c1 e0 25          	shl    $0x25,%rax
  40471f:	4c 21 e0             	and    %r12,%rax
  404722:	48 31 c2             	xor    %rax,%rdx
/usr/include/c++/10/bits/random.tcc:463
      __z ^= (__z >> __l);
  404725:	48 89 d0             	mov    %rdx,%rax
  404728:	48 c1 e8 2b          	shr    $0x2b,%rax
  40472c:	48 31 c2             	xor    %rax,%rdx
_ZN7UniDistIiSt23mersenne_twister_engineImLm64ELm312ELm156ELm31ELm13043109905998158313ELm29ELm6148914691236517205ELm17ELm8202884508482404352ELm37ELm18444473444759240704ELm43ELm6364136223846793005EEjEclEv():
/home/aliha951/ipdps-artifact/gapbs-master/src/generator.h:50
      cutoff_ = rng_.max() - remainder_sub_1;
  }

  NodeID_ operator()() {
    uNodeID_ rand_num = rng_();
    if (no_mod_)
  40472f:	80 bc 24 c8 0b 00 00 	cmpb   $0x0,0xbc8(%rsp)
  404736:	00 
  404737:	75 1a                	jne    404753 <main+0x823>
/home/aliha951/ipdps-artifact/gapbs-master/src/generator.h:52
      return rand_num;
    if (cutoff_ != 0) {
  404739:	8b 8c 24 d0 0b 00 00 	mov    0xbd0(%rsp),%ecx
/home/aliha951/ipdps-artifact/gapbs-master/src/generator.h:49
    uNodeID_ rand_num = rng_();
  404740:	89 d0                	mov    %edx,%eax
/home/aliha951/ipdps-artifact/gapbs-master/src/generator.h:52
    if (cutoff_ != 0) {
  404742:	85 c9                	test   %ecx,%ecx
  404744:	0f 85 a6 00 00 00    	jne    4047f0 <main+0x8c0>
/home/aliha951/ipdps-artifact/gapbs-master/src/generator.h:56
      while (rand_num >= cutoff_)
        rand_num = rng_();
    }
    return rand_num % mod_;
  40474a:	31 d2                	xor    %edx,%edx
  40474c:	f7 b4 24 cc 0b 00 00 	divl   0xbcc(%rsp)
_ZNK8CSRGraphIi10NodeWeightIiiELb1EE10out_degreeEi():
/home/aliha951/ipdps-artifact/gapbs-master/src/graph.h:206
  int64_t num_edges_directed() const {
    return directed_ ? num_edges_ : 2*num_edges_;
  }

  int64_t out_degree(NodeID_ v) const {
    return out_index_[v+1] - out_index_[v];
  404753:	48 8b 84 24 d8 0b 00 	mov    0xbd8(%rsp),%rax
  40475a:	00 
  40475b:	48 8b 40 18          	mov    0x18(%rax),%rax
  40475f:	48 63 ca             	movslq %edx,%rcx
_ZN12SourcePickerI8CSRGraphIi10NodeWeightIiiELb1EEE8PickNextEv():
/home/aliha951/ipdps-artifact/gapbs-master/src/benchmark.h:63
    } while (g_.out_degree(source) == 0);
  404762:	48 8b 3c c8          	mov    (%rax,%rcx,8),%rdi
  404766:	48 39 7c c8 08       	cmp    %rdi,0x8(%rax,%rcx,8)
  40476b:	0f 85 9a fb ff ff    	jne    40430b <main+0x3db>
_ZN7UniDistIiSt23mersenne_twister_engineImLm64ELm312ELm156ELm31ELm13043109905998158313ELm29ELm6148914691236517205ELm17ELm8202884508482404352ELm37ELm18444473444759240704ELm43ELm6364136223846793005EEjEclEv():
/home/aliha951/ipdps-artifact/gapbs-master/src/generator.h:49
    uNodeID_ rand_num = rng_();
  404771:	4c 8b bc 24 c0 0b 00 	mov    0xbc0(%rsp),%r15
  404778:	00 
_ZNSt23mersenne_twister_engineImLm64ELm312ELm156ELm31ELm13043109905998158313ELm29ELm6148914691236517205ELm17ELm8202884508482404352ELm37ELm18444473444759240704ELm43ELm6364136223846793005EEclEv():
/usr/include/c++/10/bits/random.tcc:455
      if (_M_p >= state_size)
  404779:	49 8b 97 c0 09 00 00 	mov    0x9c0(%r15),%rdx
  404780:	48 81 fa 37 01 00 00 	cmp    $0x137,%rdx
  404787:	0f 86 62 ff ff ff    	jbe    4046ef <main+0x7bf>
  40478d:	e9 4e ff ff ff       	jmpq   4046e0 <main+0x7b0>
  404792:	66 0f 1f 44 00 00    	nopw   0x0(%rax,%rax,1)
/usr/include/c++/10/bits/random.tcc:456
	_M_gen_rand();
  404798:	4c 89 ff             	mov    %r15,%rdi
  40479b:	e8 60 d6 00 00       	callq  411e00 <_ZNSt23mersenne_twister_engineImLm64ELm312ELm156ELm31ELm13043109905998158313ELm29ELm6148914691236517205ELm17ELm8202884508482404352ELm37ELm18444473444759240704ELm43ELm6364136223846793005EE11_M_gen_randEv>
_ZN7UniDistIiSt23mersenne_twister_engineImLm64ELm312ELm156ELm31ELm13043109905998158313ELm29ELm6148914691236517205ELm17ELm8202884508482404352ELm37ELm18444473444759240704ELm43ELm6364136223846793005EEjEclEv():
/home/aliha951/ipdps-artifact/gapbs-master/src/generator.h:53
      while (rand_num >= cutoff_)
  4047a0:	8b 8c 24 d0 0b 00 00 	mov    0xbd0(%rsp),%ecx
_ZNSt23mersenne_twister_engineImLm64ELm312ELm156ELm31ELm13043109905998158313ELm29ELm6148914691236517205ELm17ELm8202884508482404352ELm37ELm18444473444759240704ELm43ELm6364136223846793005EEclEv():
/usr/include/c++/10/bits/random.tcc:459
      result_type __z = _M_x[_M_p++];
  4047a7:	49 8b 97 c0 09 00 00 	mov    0x9c0(%r15),%rdx
  4047ae:	48 8d 72 01          	lea    0x1(%rdx),%rsi
  4047b2:	49 8b 14 d7          	mov    (%r15,%rdx,8),%rdx
  4047b6:	49 89 b7 c0 09 00 00 	mov    %rsi,0x9c0(%r15)
/usr/include/c++/10/bits/random.tcc:460
      __z ^= (__z >> __u) & __d;
  4047bd:	48 89 d0             	mov    %rdx,%rax
  4047c0:	48 c1 e8 1d          	shr    $0x1d,%rax
  4047c4:	48 21 d8             	and    %rbx,%rax
  4047c7:	48 31 c2             	xor    %rax,%rdx
/usr/include/c++/10/bits/random.tcc:461
      __z ^= (__z << __s) & __b;
  4047ca:	48 89 d0             	mov    %rdx,%rax
  4047cd:	48 c1 e0 11          	shl    $0x11,%rax
  4047d1:	48 21 e8             	and    %rbp,%rax
  4047d4:	48 31 c2             	xor    %rax,%rdx
/usr/include/c++/10/bits/random.tcc:462
      __z ^= (__z << __t) & __c;
  4047d7:	48 89 d0             	mov    %rdx,%rax
  4047da:	48 c1 e0 25          	shl    $0x25,%rax
  4047de:	4c 21 e0             	and    %r12,%rax
  4047e1:	48 31 c2             	xor    %rax,%rdx
/usr/include/c++/10/bits/random.tcc:463
      __z ^= (__z >> __l);
  4047e4:	48 89 d0             	mov    %rdx,%rax
  4047e7:	48 c1 e8 2b          	shr    $0x2b,%rax
  4047eb:	48 31 c2             	xor    %rax,%rdx
_ZN7UniDistIiSt23mersenne_twister_engineImLm64ELm312ELm156ELm31ELm13043109905998158313ELm29ELm6148914691236517205ELm17ELm8202884508482404352ELm37ELm18444473444759240704ELm43ELm6364136223846793005EEjEclEv():
/home/aliha951/ipdps-artifact/gapbs-master/src/generator.h:54
        rand_num = rng_();
  4047ee:	89 d0                	mov    %edx,%eax
/home/aliha951/ipdps-artifact/gapbs-master/src/generator.h:53
      while (rand_num >= cutoff_)
  4047f0:	39 ca                	cmp    %ecx,%edx
  4047f2:	0f 82 52 ff ff ff    	jb     40474a <main+0x81a>
/home/aliha951/ipdps-artifact/gapbs-master/src/generator.h:54
        rand_num = rng_();
  4047f8:	4c 8b bc 24 c0 0b 00 	mov    0xbc0(%rsp),%r15
  4047ff:	00 
_ZNSt23mersenne_twister_engineImLm64ELm312ELm156ELm31ELm13043109905998158313ELm29ELm6148914691236517205ELm17ELm8202884508482404352ELm37ELm18444473444759240704ELm43ELm6364136223846793005EEclEv():
/usr/include/c++/10/bits/random.tcc:455
      if (_M_p >= state_size)
  404800:	49 8b 97 c0 09 00 00 	mov    0x9c0(%r15),%rdx
  404807:	48 81 fa 37 01 00 00 	cmp    $0x137,%rdx
  40480e:	76 9e                	jbe    4047ae <main+0x87e>
  404810:	eb 86                	jmp    404798 <main+0x868>
  404812:	66 0f 1f 44 00 00    	nopw   0x0(%rax,%rax,1)
_ZN7UniDistIiSt23mersenne_twister_engineImLm64ELm312ELm156ELm31ELm13043109905998158313ELm29ELm6148914691236517205ELm17ELm8202884508482404352ELm37ELm18444473444759240704ELm43ELm6364136223846793005EEjEclEv():
/home/aliha951/ipdps-artifact/gapbs-master/src/generator.h:56
    return rand_num % mod_;
  404818:	31 d2                	xor    %edx,%edx
  40481a:	f7 b4 24 bc 15 00 00 	divl   0x15bc(%rsp)
  404821:	89 d6                	mov    %edx,%esi
_ZNK8CSRGraphIi10NodeWeightIiiELb1EE10out_degreeEi():
/home/aliha951/ipdps-artifact/gapbs-master/src/graph.h:206
  404823:	48 8b 84 24 c8 15 00 	mov    0x15c8(%rsp),%rax
  40482a:	00 
  40482b:	48 63 d6             	movslq %esi,%rdx
  40482e:	48 8b 40 18          	mov    0x18(%rax),%rax
_ZN12SourcePickerI8CSRGraphIi10NodeWeightIiiELb1EEE8PickNextEv():
/home/aliha951/ipdps-artifact/gapbs-master/src/benchmark.h:63
  404832:	48 8b 3c d0          	mov    (%rax,%rdx,8),%rdi
  404836:	48 39 7c d0 08       	cmp    %rdi,0x8(%rax,%rdx,8)
  40483b:	0f 85 bd fb ff ff    	jne    4043fe <main+0x4ce>
_ZN7UniDistIiSt23mersenne_twister_engineImLm64ELm312ELm156ELm31ELm13043109905998158313ELm29ELm6148914691236517205ELm17ELm8202884508482404352ELm37ELm18444473444759240704ELm43ELm6364136223846793005EEjEclEv():
/home/aliha951/ipdps-artifact/gapbs-master/src/generator.h:49
    uNodeID_ rand_num = rng_();
  404841:	48 8b 84 24 b0 15 00 	mov    0x15b0(%rsp),%rax
  404848:	00 
_ZNSt23mersenne_twister_engineImLm64ELm312ELm156ELm31ELm13043109905998158313ELm29ELm6148914691236517205ELm17ELm8202884508482404352ELm37ELm18444473444759240704ELm43ELm6364136223846793005EEclEv():
/usr/include/c++/10/bits/random.tcc:455
  404849:	48 8b 90 c0 09 00 00 	mov    0x9c0(%rax),%rdx
  404850:	48 81 fa 37 01 00 00 	cmp    $0x137,%rdx
  404857:	0f 87 eb 00 00 00    	ja     404948 <main+0xa18>
/usr/include/c++/10/bits/random.tcc:459
      result_type __z = _M_x[_M_p++];
  40485d:	48 8d 4a 01          	lea    0x1(%rdx),%rcx
  404861:	48 89 88 c0 09 00 00 	mov    %rcx,0x9c0(%rax)
  404868:	48 8b 04 d0          	mov    (%rax,%rdx,8),%rax
/usr/include/c++/10/bits/random.tcc:460
      __z ^= (__z >> __u) & __d;
  40486c:	48 89 c2             	mov    %rax,%rdx
  40486f:	48 c1 ea 1d          	shr    $0x1d,%rdx
  404873:	48 21 da             	and    %rbx,%rdx
  404876:	48 31 d0             	xor    %rdx,%rax
/usr/include/c++/10/bits/random.tcc:461
      __z ^= (__z << __s) & __b;
  404879:	48 89 c2             	mov    %rax,%rdx
  40487c:	48 c1 e2 11          	shl    $0x11,%rdx
  404880:	48 21 ea             	and    %rbp,%rdx
  404883:	48 31 d0             	xor    %rdx,%rax
/usr/include/c++/10/bits/random.tcc:462
      __z ^= (__z << __t) & __c;
  404886:	48 89 c2             	mov    %rax,%rdx
  404889:	48 c1 e2 25          	shl    $0x25,%rdx
  40488d:	4c 21 e2             	and    %r12,%rdx
  404890:	48 31 d0             	xor    %rdx,%rax
/usr/include/c++/10/bits/random.tcc:463
      __z ^= (__z >> __l);
  404893:	48 89 c6             	mov    %rax,%rsi
  404896:	48 c1 ee 2b          	shr    $0x2b,%rsi
  40489a:	48 31 c6             	xor    %rax,%rsi
_ZN7UniDistIiSt23mersenne_twister_engineImLm64ELm312ELm156ELm31ELm13043109905998158313ELm29ELm6148914691236517205ELm17ELm8202884508482404352ELm37ELm18444473444759240704ELm43ELm6364136223846793005EEjEclEv():
/home/aliha951/ipdps-artifact/gapbs-master/src/generator.h:50
    if (no_mod_)
  40489d:	80 bc 24 b8 15 00 00 	cmpb   $0x0,0x15b8(%rsp)
  4048a4:	00 
  4048a5:	0f 85 78 ff ff ff    	jne    404823 <main+0x8f3>
/home/aliha951/ipdps-artifact/gapbs-master/src/generator.h:52
    if (cutoff_ != 0) {
  4048ab:	8b 8c 24 c0 15 00 00 	mov    0x15c0(%rsp),%ecx
/home/aliha951/ipdps-artifact/gapbs-master/src/generator.h:49
    uNodeID_ rand_num = rng_();
  4048b2:	89 f0                	mov    %esi,%eax
/home/aliha951/ipdps-artifact/gapbs-master/src/generator.h:52
    if (cutoff_ != 0) {
  4048b4:	85 c9                	test   %ecx,%ecx
  4048b6:	0f 84 5c ff ff ff    	je     404818 <main+0x8e8>
/home/aliha951/ipdps-artifact/gapbs-master/src/generator.h:53
      while (rand_num >= cutoff_)
  4048bc:	39 ce                	cmp    %ecx,%esi
  4048be:	73 52                	jae    404912 <main+0x9e2>
  4048c0:	e9 53 ff ff ff       	jmpq   404818 <main+0x8e8>
  4048c5:	0f 1f 00             	nopl   (%rax)
_ZNSt23mersenne_twister_engineImLm64ELm312ELm156ELm31ELm13043109905998158313ELm29ELm6148914691236517205ELm17ELm8202884508482404352ELm37ELm18444473444759240704ELm43ELm6364136223846793005EEclEv():
/usr/include/c++/10/bits/random.tcc:459
      result_type __z = _M_x[_M_p++];
  4048c8:	48 8d 72 01          	lea    0x1(%rdx),%rsi
  4048cc:	49 8b 14 d7          	mov    (%r15,%rdx,8),%rdx
  4048d0:	49 89 b7 c0 09 00 00 	mov    %rsi,0x9c0(%r15)
/usr/include/c++/10/bits/random.tcc:460
      __z ^= (__z >> __u) & __d;
  4048d7:	48 89 d0             	mov    %rdx,%rax
  4048da:	48 c1 e8 1d          	shr    $0x1d,%rax
  4048de:	48 21 d8             	and    %rbx,%rax
  4048e1:	48 31 c2             	xor    %rax,%rdx
/usr/include/c++/10/bits/random.tcc:461
      __z ^= (__z << __s) & __b;
  4048e4:	48 89 d0             	mov    %rdx,%rax
  4048e7:	48 c1 e0 11          	shl    $0x11,%rax
  4048eb:	48 21 e8             	and    %rbp,%rax
  4048ee:	48 31 c2             	xor    %rax,%rdx
/usr/include/c++/10/bits/random.tcc:462
      __z ^= (__z << __t) & __c;
  4048f1:	48 89 d0             	mov    %rdx,%rax
  4048f4:	48 c1 e0 25          	shl    $0x25,%rax
  4048f8:	4c 21 e0             	and    %r12,%rax
  4048fb:	48 31 c2             	xor    %rax,%rdx
/usr/include/c++/10/bits/random.tcc:463
      __z ^= (__z >> __l);
  4048fe:	48 89 d0             	mov    %rdx,%rax
  404901:	48 c1 e8 2b          	shr    $0x2b,%rax
  404905:	48 31 c2             	xor    %rax,%rdx
_ZN7UniDistIiSt23mersenne_twister_engineImLm64ELm312ELm156ELm31ELm13043109905998158313ELm29ELm6148914691236517205ELm17ELm8202884508482404352ELm37ELm18444473444759240704ELm43ELm6364136223846793005EEjEclEv():
/home/aliha951/ipdps-artifact/gapbs-master/src/generator.h:54
        rand_num = rng_();
  404908:	89 d0                	mov    %edx,%eax
/home/aliha951/ipdps-artifact/gapbs-master/src/generator.h:53
      while (rand_num >= cutoff_)
  40490a:	39 ca                	cmp    %ecx,%edx
  40490c:	0f 82 06 ff ff ff    	jb     404818 <main+0x8e8>
/home/aliha951/ipdps-artifact/gapbs-master/src/generator.h:54
        rand_num = rng_();
  404912:	4c 8b bc 24 b0 15 00 	mov    0x15b0(%rsp),%r15
  404919:	00 
_ZNSt23mersenne_twister_engineImLm64ELm312ELm156ELm31ELm13043109905998158313ELm29ELm6148914691236517205ELm17ELm8202884508482404352ELm37ELm18444473444759240704ELm43ELm6364136223846793005EEclEv():
/usr/include/c++/10/bits/random.tcc:455
      if (_M_p >= state_size)
  40491a:	49 8b 97 c0 09 00 00 	mov    0x9c0(%r15),%rdx
  404921:	48 81 fa 37 01 00 00 	cmp    $0x137,%rdx
  404928:	76 9e                	jbe    4048c8 <main+0x998>
/usr/include/c++/10/bits/random.tcc:456
	_M_gen_rand();
  40492a:	4c 89 ff             	mov    %r15,%rdi
  40492d:	e8 ce d4 00 00       	callq  411e00 <_ZNSt23mersenne_twister_engineImLm64ELm312ELm156ELm31ELm13043109905998158313ELm29ELm6148914691236517205ELm17ELm8202884508482404352ELm37ELm18444473444759240704ELm43ELm6364136223846793005EE11_M_gen_randEv>
_ZN7UniDistIiSt23mersenne_twister_engineImLm64ELm312ELm156ELm31ELm13043109905998158313ELm29ELm6148914691236517205ELm17ELm8202884508482404352ELm37ELm18444473444759240704ELm43ELm6364136223846793005EEjEclEv():
/home/aliha951/ipdps-artifact/gapbs-master/src/generator.h:53
      while (rand_num >= cutoff_)
  404932:	8b 8c 24 c0 15 00 00 	mov    0x15c0(%rsp),%ecx
_ZNSt23mersenne_twister_engineImLm64ELm312ELm156ELm31ELm13043109905998158313ELm29ELm6148914691236517205ELm17ELm8202884508482404352ELm37ELm18444473444759240704ELm43ELm6364136223846793005EEclEv():
/usr/include/c++/10/bits/random.tcc:459
      result_type __z = _M_x[_M_p++];
  404939:	49 8b 97 c0 09 00 00 	mov    0x9c0(%r15),%rdx
  404940:	eb 86                	jmp    4048c8 <main+0x998>
  404942:	66 0f 1f 44 00 00    	nopw   0x0(%rax,%rax,1)
/usr/include/c++/10/bits/random.tcc:456
	_M_gen_rand();
  404948:	48 89 c7             	mov    %rax,%rdi
  40494b:	48 89 44 24 20       	mov    %rax,0x20(%rsp)
  404950:	e8 ab d4 00 00       	callq  411e00 <_ZNSt23mersenne_twister_engineImLm64ELm312ELm156ELm31ELm13043109905998158313ELm29ELm6148914691236517205ELm17ELm8202884508482404352ELm37ELm18444473444759240704ELm43ELm6364136223846793005EE11_M_gen_randEv>
/usr/include/c++/10/bits/random.tcc:459
      result_type __z = _M_x[_M_p++];
  404955:	48 8b 44 24 20       	mov    0x20(%rsp),%rax
  40495a:	48 8b 90 c0 09 00 00 	mov    0x9c0(%rax),%rdx
  404961:	e9 f7 fe ff ff       	jmpq   40485d <main+0x92d>
  404966:	66 2e 0f 1f 84 00 00 	nopw   %cs:0x0(%rax,%rax,1)
  40496d:	00 00 00 
BenchmarkKernel<CSRGraph<int, NodeWeight<int, int> >, main(int, char**)::<lambda(const WGraph&)>, void (*)(const CSRGraph<int, NodeWeight<int, int> >&, const pvector<int>&), main(int, char**)::<lambda(const WGraph&, const pvector<int>&)> >():
/home/aliha951/ipdps-artifact/gapbs-master/src/benchmark.h:123
  for (int iter=0; iter < cli.num_trials(); iter++) {
  404970:	83 44 24 0c 01       	addl   $0x1,0xc(%rsp)
  404975:	8b 44 24 0c          	mov    0xc(%rsp),%eax
  404979:	39 84 24 d4 01 00 00 	cmp    %eax,0x1d4(%rsp)
  404980:	0f 8f 5a f9 ff ff    	jg     4042e0 <main+0x3b0>
  404986:	e9 fa fb ff ff       	jmpq   404585 <main+0x655>
  40498b:	0f 1f 44 00 00       	nopl   0x0(%rax,%rax,1)
/home/aliha951/ipdps-artifact/gapbs-master/src/benchmark.h:130
      stats(g, result);
  404990:	48 8b 74 24 28       	mov    0x28(%rsp),%rsi
  404995:	48 8b 7c 24 18       	mov    0x18(%rsp),%rdi
  40499a:	e8 91 3a 00 00       	callq  408430 <_Z14PrintSSSPStatsRK8CSRGraphIi10NodeWeightIiiELb1EERK7pvectorIiE>
  40499f:	e9 32 fa ff ff       	jmpq   4043d6 <main+0x4a6>
main():
/usr/include/x86_64-linux-gnu/bits/stdio2.h:67
# ifdef __va_arg_pack
__fortify_function int
__NTH (snprintf (char *__restrict __s, size_t __n,
		 const char *__restrict __fmt, ...))
{
  return __builtin___snprintf_chk (__s, __n, __USE_FORTIFY_LEVEL - 1,
  4049a4:	4c 8d 84 24 d0 15 00 	lea    0x15d0(%rsp),%r8
  4049ab:	00 
snprintf():
/usr/include/x86_64-linux-gnu/bits/stdio2.h:67
  4049ac:	48 8d 35 5d 1e 01 00 	lea    0x11e5d(%rip),%rsi        # 416810 <_IO_stdin_used+0x810>
  4049b3:	b9 09 00 00 00       	mov    $0x9,%ecx
  4049b8:	4c 89 c7             	mov    %r8,%rdi
  4049bb:	f3 a5                	rep movsl %ds:(%rsi),%es:(%rdi)
_Z15stop_disk_statsv():
/home/aliha951/ipdps-artifact/gapbs-master/src/profiling_utils.h:319
    char command[256];
    snprintf(command, sizeof(command), "sudo pkill -f 'gather_diskstats.sh'");
    int ret = system(command);
  4049bd:	4c 89 c7             	mov    %r8,%rdi
  4049c0:	e8 bb ef ff ff       	callq  403980 <system@plt>
/home/aliha951/ipdps-artifact/gapbs-master/src/profiling_utils.h:320
    if (ret==-1)	std::cout << "could not stop diskstat gathering\n";
  4049c5:	83 c0 01             	add    $0x1,%eax
  4049c8:	0f 85 1e fc ff ff    	jne    4045ec <main+0x6bc>
_ZStlsISt11char_traitsIcEERSt13basic_ostreamIcT_ES5_PKc():
/usr/include/c++/10/ostream:611
    operator<<(basic_ostream<char, _Traits>& __out, const char* __s)
    {
      if (!__s)
	__out.setstate(ios_base::badbit);
      else
	__ostream_insert(__out, __s,
  4049ce:	ba 22 00 00 00       	mov    $0x22,%edx
  4049d3:	48 8d 35 5e 1e 01 00 	lea    0x11e5e(%rip),%rsi        # 416838 <_IO_stdin_used+0x838>
  4049da:	48 8d 3d 1f 6a 01 00 	lea    0x16a1f(%rip),%rdi        # 41b400 <_ZSt4cout@@GLIBCXX_3.4>
  4049e1:	e8 5a f0 ff ff       	callq  403a40 <_ZSt16__ostream_insertIcSt11char_traitsIcEERSt13basic_ostreamIT_T0_ES6_PKS3_l@plt>
  4049e6:	e9 01 fc ff ff       	jmpq   4045ec <main+0x6bc>
_Z26unregister_and_free_arraysv():
/home/aliha951/ipdps-artifact/gapbs-master/src/libpfq_sssp.h:310
}

// syscall to unregister the page fault status array, as well as ips and ret_ips, and free the allocated memory
inline void unregister_and_free_arrays(){
  syscall(548, NULL, NULL, 0);
  4049eb:	31 c9                	xor    %ecx,%ecx
  4049ed:	31 d2                	xor    %edx,%edx
  4049ef:	31 f6                	xor    %esi,%esi
  4049f1:	bf 24 02 00 00       	mov    $0x224,%edi
  4049f6:	31 c0                	xor    %eax,%eax
  4049f8:	e8 33 ed ff ff       	callq  403730 <syscall@plt>
/home/aliha951/ipdps-artifact/gapbs-master/src/libpfq_sssp.h:311
  syscall(550, NULL, 0);
  4049fd:	31 d2                	xor    %edx,%edx
  4049ff:	31 f6                	xor    %esi,%esi
  404a01:	bf 26 02 00 00       	mov    $0x226,%edi
  404a06:	31 c0                	xor    %eax,%eax
  404a08:	e8 23 ed ff ff       	callq  403730 <syscall@plt>
/home/aliha951/ipdps-artifact/gapbs-master/src/libpfq_sssp.h:312
  munlock(ptr, 32*1024*sizeof(int));
  404a0d:	48 8b 3d 9c bb 01 00 	mov    0x1bb9c(%rip),%rdi        # 4205b0 <ptr>
  404a14:	be 00 00 02 00       	mov    $0x20000,%esi
  404a19:	e8 22 f3 ff ff       	callq  403d40 <munlock@plt>
/home/aliha951/ipdps-artifact/gapbs-master/src/libpfq_sssp.h:313
  munmap(ptr, 32*1024*sizeof(int));
  404a1e:	48 8b 3d 8b bb 01 00 	mov    0x1bb8b(%rip),%rdi        # 4205b0 <ptr>
  404a25:	be 00 00 02 00       	mov    $0x20000,%esi
  404a2a:	e8 b1 ee ff ff       	callq  4038e0 <munmap@plt>
/home/aliha951/ipdps-artifact/gapbs-master/src/libpfq_sssp.h:314
}
  404a2f:	e9 31 fc ff ff       	jmpq   404665 <main+0x735>
_ZN6CLBase9HandleArgEaPc():
/home/aliha951/ipdps-artifact/gapbs-master/src/command_line.h:106
      case 'u': uniform_ = true; scale_ = atoi(opt_arg);                break;
  404a34:	c6 84 24 b9 01 00 00 	movb   $0x1,0x1b9(%rsp)
  404a3b:	01 
main():
/usr/include/stdlib.h:363
  return (int) strtol (__nptr, (char **) NULL, 10);
  404a3c:	ba 0a 00 00 00       	mov    $0xa,%edx
atoi():
/usr/include/stdlib.h:363
  404a41:	31 f6                	xor    %esi,%esi
  404a43:	e8 08 f1 ff ff       	callq  403b50 <strtol@plt>
  404a48:	89 84 24 90 01 00 00 	mov    %eax,0x190(%rsp)
_ZN6CLBase9HandleArgEaPc():
/home/aliha951/ipdps-artifact/gapbs-master/src/command_line.h:106
  404a4f:	e9 94 f5 ff ff       	jmpq   403fe8 <main+0xb8>
main():
/usr/include/stdlib.h:363
  404a54:	ba 0a 00 00 00       	mov    $0xa,%edx
atoi():
/usr/include/stdlib.h:363
  404a59:	31 f6                	xor    %esi,%esi
  404a5b:	e8 f0 f0 ff ff       	callq  403b50 <strtol@plt>
  404a60:	89 84 24 94 01 00 00 	mov    %eax,0x194(%rsp)
_ZN6CLBase9HandleArgEaPc():
/home/aliha951/ipdps-artifact/gapbs-master/src/command_line.h:104
      case 'k': degree_ = atoi(opt_arg);                                break;
  404a67:	e9 7c f5 ff ff       	jmpq   403fe8 <main+0xb8>
/home/aliha951/ipdps-artifact/gapbs-master/src/command_line.h:107
      case 'm': in_place_ = true;                                       break;
  404a6c:	c6 84 24 ba 01 00 00 	movb   $0x1,0x1ba(%rsp)
  404a73:	01 
  404a74:	e9 6f f5 ff ff       	jmpq   403fe8 <main+0xb8>
/home/aliha951/ipdps-artifact/gapbs-master/src/command_line.h:112
      case 'o': batching_mode_ = MADVISE;                               break;
  404a79:	c7 84 24 cc 01 00 00 	movl   $0x2,0x1cc(%rsp)
  404a80:	02 00 00 00 
  404a84:	e9 5f f5 ff ff       	jmpq   403fe8 <main+0xb8>
/home/aliha951/ipdps-artifact/gapbs-master/src/command_line.h:109
      case 'q': batching_ = true;                                       break;
  404a89:	c6 84 24 bb 01 00 00 	movb   $0x1,0x1bb(%rsp)
  404a90:	01 
  404a91:	e9 52 f5 ff ff       	jmpq   403fe8 <main+0xb8>
/home/aliha951/ipdps-artifact/gapbs-master/src/command_line.h:105
      case 's': symmetrize_ = true;                                     break;
  404a96:	c6 84 24 b8 01 00 00 	movb   $0x1,0x1b8(%rsp)
  404a9d:	01 
  404a9e:	e9 45 f5 ff ff       	jmpq   403fe8 <main+0xb8>
main():
/usr/include/stdlib.h:363
  404aa3:	ba 0a 00 00 00       	mov    $0xa,%edx
atoi():
/usr/include/stdlib.h:363
  404aa8:	31 f6                	xor    %esi,%esi
  404aaa:	e8 a1 f0 ff ff       	callq  403b50 <strtol@plt>
  404aaf:	89 84 24 c8 01 00 00 	mov    %eax,0x1c8(%rsp)
_ZN6CLBase9HandleArgEaPc():
/home/aliha951/ipdps-artifact/gapbs-master/src/command_line.h:111
      case 'x': readahead_size_ = atoi(opt_arg);                        break;
  404ab6:	e9 2d f5 ff ff       	jmpq   403fe8 <main+0xb8>
main():
/usr/include/stdlib.h:363
  404abb:	ba 0a 00 00 00       	mov    $0xa,%edx
atoi():
/usr/include/stdlib.h:363
  404ac0:	31 f6                	xor    %esi,%esi
  404ac2:	e8 89 f0 ff ff       	callq  403b50 <strtol@plt>
_ZN6CLBase9HandleArgEaPc():
/home/aliha951/ipdps-artifact/gapbs-master/src/command_line.h:110
      case 'y': queue_size_ = (long unsigned int) atoi(opt_arg);        break;
  404ac7:	48 98                	cltq   
  404ac9:	48 89 84 24 c0 01 00 	mov    %rax,0x1c0(%rsp)
  404ad0:	00 
  404ad1:	e9 12 f5 ff ff       	jmpq   403fe8 <main+0xb8>
/home/aliha951/ipdps-artifact/gapbs-master/src/command_line.h:101
      case 'f': filename_ = std::string(opt_arg);                       break;
  404ad6:	48 89 fe             	mov    %rdi,%rsi
  404ad9:	48 89 ef             	mov    %rbp,%rdi
  404adc:	e8 0f 1a 00 00       	callq  4064f0 <_ZNSt7__cxx1112basic_stringIcSt11char_traitsIcESaIcEEC2EPKcRKS3_.constprop.0>
_ZNKSt7__cxx1112basic_stringIcSt11char_traitsIcESaIcEE7_M_dataEv():
/usr/include/c++/10/bits/basic_string.h:195
      { return _M_dataplus._M_p; }
  404ae1:	48 8b 84 24 e0 0b 00 	mov    0xbe0(%rsp),%rax
  404ae8:	00 
  404ae9:	48 8b bc 24 98 01 00 	mov    0x198(%rsp),%rdi
  404af0:	00 
_ZNKSt7__cxx1112basic_stringIcSt11char_traitsIcESaIcEE4sizeEv():
/usr/include/c++/10/bits/basic_string.h:915
      { return _M_string_length; }
  404af1:	48 8b 94 24 e8 0b 00 	mov    0xbe8(%rsp),%rdx
  404af8:	00 
_ZNSt7__cxx1112basic_stringIcSt11char_traitsIcESaIcEEaSEOS4_():
/usr/include/c++/10/bits/basic_string.h:731
	if (__str._M_is_local())
  404af9:	4c 39 e0             	cmp    %r12,%rax
  404afc:	0f 84 e0 00 00 00    	je     404be2 <main+0xcb2>
/usr/include/c++/10/bits/basic_string.h:759
	    _M_capacity(__str._M_allocated_capacity);
  404b02:	f3 0f 7e 8c 24 f0 0b 	movq   0xbf0(%rsp),%xmm1
  404b09:	00 00 
/usr/include/c++/10/bits/basic_string.h:745
	    if (!_M_is_local())
  404b0b:	4c 39 f7             	cmp    %r14,%rdi
  404b0e:	0f 84 02 01 00 00    	je     404c16 <main+0xce6>
_ZNSt7__cxx1112basic_stringIcSt11char_traitsIcESaIcEE9_M_lengthEm():
/usr/include/c++/10/bits/basic_string.h:191
      { _M_string_length = __length; }
  404b14:	66 48 0f 6e c2       	movq   %rdx,%xmm0
_ZNSt7__cxx1112basic_stringIcSt11char_traitsIcESaIcEEaSEOS4_():
/usr/include/c++/10/bits/basic_string.h:751
		    __capacity = _M_allocated_capacity;
  404b19:	48 8b 8c 24 a8 01 00 	mov    0x1a8(%rsp),%rcx
  404b20:	00 
_ZNSt7__cxx1112basic_stringIcSt11char_traitsIcESaIcEE7_M_dataEPc():
/usr/include/c++/10/bits/basic_string.h:187
      { _M_dataplus._M_p = __p; }
  404b21:	48 89 84 24 98 01 00 	mov    %rax,0x198(%rsp)
  404b28:	00 
_ZNSt7__cxx1112basic_stringIcSt11char_traitsIcESaIcEE9_M_lengthEm():
/usr/include/c++/10/bits/basic_string.h:191
      { _M_string_length = __length; }
  404b29:	66 0f 6c c1          	punpcklqdq %xmm1,%xmm0
  404b2d:	0f 29 84 24 a0 01 00 	movaps %xmm0,0x1a0(%rsp)
  404b34:	00 
_ZNSt7__cxx1112basic_stringIcSt11char_traitsIcESaIcEEaSEOS4_():
/usr/include/c++/10/bits/basic_string.h:760
	    if (__data)
  404b35:	48 85 ff             	test   %rdi,%rdi
  404b38:	0f 84 f1 00 00 00    	je     404c2f <main+0xcff>
_ZNSt7__cxx1112basic_stringIcSt11char_traitsIcESaIcEE7_M_dataEPc():
/usr/include/c++/10/bits/basic_string.h:187
      { _M_dataplus._M_p = __p; }
  404b3e:	48 89 bc 24 e0 0b 00 	mov    %rdi,0xbe0(%rsp)
  404b45:	00 
_ZNSt7__cxx1112basic_stringIcSt11char_traitsIcESaIcEE11_M_capacityEm():
/usr/include/c++/10/bits/basic_string.h:219
      { _M_allocated_capacity = __capacity; }
  404b46:	48 89 8c 24 f0 0b 00 	mov    %rcx,0xbf0(%rsp)
  404b4d:	00 
_ZNKSt7__cxx1112basic_stringIcSt11char_traitsIcESaIcEE7_M_dataEv():
/usr/include/c++/10/bits/basic_string.h:195
      { return _M_dataplus._M_p; }
  404b4e:	48 8b 84 24 e0 0b 00 	mov    0xbe0(%rsp),%rax
  404b55:	00 
_ZNSt7__cxx1112basic_stringIcSt11char_traitsIcESaIcEE9_M_lengthEm():
/usr/include/c++/10/bits/basic_string.h:191
      { _M_string_length = __length; }
  404b56:	48 c7 84 24 e8 0b 00 	movq   $0x0,0xbe8(%rsp)
  404b5d:	00 00 00 00 00 
_ZNSt11char_traitsIcE6assignERcRKc():
/usr/include/c++/10/bits/char_traits.h:357
  404b62:	c6 00 00             	movb   $0x0,(%rax)
_ZNKSt7__cxx1112basic_stringIcSt11char_traitsIcESaIcEE7_M_dataEv():
/usr/include/c++/10/bits/basic_string.h:195
      { return _M_dataplus._M_p; }
  404b65:	48 8b bc 24 e0 0b 00 	mov    0xbe0(%rsp),%rdi
  404b6c:	00 
_ZNSt7__cxx1112basic_stringIcSt11char_traitsIcESaIcEE10_M_disposeEv():
/usr/include/c++/10/bits/basic_string.h:239
	if (!_M_is_local())
  404b6d:	4c 39 e7             	cmp    %r12,%rdi
  404b70:	0f 84 72 f4 ff ff    	je     403fe8 <main+0xb8>
_ZN9__gnu_cxx13new_allocatorIcE10deallocateEPcm():
/usr/include/c++/10/ext/new_allocator.h:139
  404b76:	e8 45 ee ff ff       	callq  4039c0 <_ZdlPv@plt>
_ZN6CLBase9HandleArgEaPc():
/home/aliha951/ipdps-artifact/gapbs-master/src/command_line.h:114
  }
  404b7b:	e9 68 f4 ff ff       	jmpq   403fe8 <main+0xb8>
BenchmarkKernel<CSRGraph<int, NodeWeight<int, int> >, main(int, char**)::<lambda(const WGraph&)>, void (*)(const CSRGraph<int, NodeWeight<int, int> >&, const pvector<int>&), main(int, char**)::<lambda(const WGraph&, const pvector<int>&)> >():
/home/aliha951/ipdps-artifact/gapbs-master/src/benchmark.h:108
  double total_seconds = 0;
  404b80:	66 0f ef f6          	pxor   %xmm6,%xmm6
  404b84:	f2 0f 11 74 24 10    	movsd  %xmm6,0x10(%rsp)
  404b8a:	e9 f6 f9 ff ff       	jmpq   404585 <main+0x655>
_Z16prepare_pmadvisev():
/home/aliha951/ipdps-artifact/gapbs-master/src/libpfq_sssp.h:293
    pid_t pid = getpid();
  404b8f:	e8 1c f0 ff ff       	callq  403bb0 <getpid@plt>
/home/aliha951/ipdps-artifact/gapbs-master/src/libpfq_sssp.h:294
    pidfd = syscall(SYS_pidfd_open, pid, 0); // this is necessary for process_madvise
  404b94:	31 d2                	xor    %edx,%edx
  404b96:	bf b2 01 00 00       	mov    $0x1b2,%edi
/home/aliha951/ipdps-artifact/gapbs-master/src/libpfq_sssp.h:293
    pid_t pid = getpid();
  404b9b:	89 c6                	mov    %eax,%esi
/home/aliha951/ipdps-artifact/gapbs-master/src/libpfq_sssp.h:294
    pidfd = syscall(SYS_pidfd_open, pid, 0); // this is necessary for process_madvise
  404b9d:	31 c0                	xor    %eax,%eax
  404b9f:	e8 8c eb ff ff       	callq  403730 <syscall@plt>
  404ba4:	89 05 e6 b9 01 00    	mov    %eax,0x1b9e6(%rip)        # 420590 <pidfd>
/home/aliha951/ipdps-artifact/gapbs-master/src/libpfq_sssp.h:296
}
  404baa:	e9 05 f6 ff ff       	jmpq   4041b4 <main+0x284>
_ZStlsISt11char_traitsIcEERSt13basic_ostreamIcT_ES5_PKc():
/usr/include/c++/10/ostream:611
  404baf:	ba 2b 00 00 00       	mov    $0x2b,%edx
  404bb4:	48 8d 35 bd 1b 01 00 	lea    0x11bbd(%rip),%rsi        # 416778 <_IO_stdin_used+0x778>
  404bbb:	48 8d 3d 3e 68 01 00 	lea    0x1683e(%rip),%rdi        # 41b400 <_ZSt4cout@@GLIBCXX_3.4>
  404bc2:	e8 79 ee ff ff       	callq  403a40 <_ZSt16__ostream_insertIcSt11char_traitsIcEERSt13basic_ostreamIT_T0_ES6_PKS3_l@plt>
_ZNSolsEPFRSoS_E():
/usr/include/c++/10/ostream:113
	return __pf(*this);
  404bc7:	48 8d 3d 32 68 01 00 	lea    0x16832(%rip),%rdi        # 41b400 <_ZSt4cout@@GLIBCXX_3.4>
  404bce:	e8 cd 11 00 00       	callq  405da0 <_ZSt4endlIcSt11char_traitsIcEERSt13basic_ostreamIT_T0_ES6_.isra.0>
  404bd3:	e9 9a fa ff ff       	jmpq   404672 <main+0x742>
_ZN6CLBase9HandleArgEaPc():
/home/aliha951/ipdps-artifact/gapbs-master/src/command_line.h:103
      case 'h': PrintUsage();                                           break;
  404bd8:	48 8b 7c 24 38       	mov    0x38(%rsp),%rdi
  404bdd:	e8 0e 63 00 00       	callq  40aef0 <_ZN6CLBase10PrintUsageEv>
_ZNSt7__cxx1112basic_stringIcSt11char_traitsIcESaIcEEaSEOS4_():
/usr/include/c++/10/bits/basic_string.h:734
	    if (__str.size())
  404be2:	48 85 d2             	test   %rdx,%rdx
  404be5:	74 1e                	je     404c05 <main+0xcd5>
_ZNSt7__cxx1112basic_stringIcSt11char_traitsIcESaIcEE7_S_copyEPcPKcm():
/usr/include/c++/10/bits/basic_string.h:356
	if (__n == 1)
  404be7:	48 83 fa 01          	cmp    $0x1,%rdx
  404beb:	74 4f                	je     404c3c <main+0xd0c>
_ZNSt11char_traitsIcE4copyEPcPKcm():
/usr/include/c++/10/bits/char_traits.h:437
	return static_cast<char_type*>(__builtin_memcpy(__s1, __s2, __n));
  404bed:	4c 89 e6             	mov    %r12,%rsi
  404bf0:	e8 5b ed ff ff       	callq  403950 <memcpy@plt>
  404bf5:	48 8b bc 24 98 01 00 	mov    0x198(%rsp),%rdi
  404bfc:	00 
  404bfd:	48 8b 94 24 e8 0b 00 	mov    0xbe8(%rsp),%rdx
  404c04:	00 
_ZNSt7__cxx1112basic_stringIcSt11char_traitsIcESaIcEE9_M_lengthEm():
/usr/include/c++/10/bits/basic_string.h:191
      { _M_string_length = __length; }
  404c05:	48 89 94 24 a0 01 00 	mov    %rdx,0x1a0(%rsp)
  404c0c:	00 
_ZNSt11char_traitsIcE6assignERcRKc():
/usr/include/c++/10/bits/char_traits.h:357
      { __c1 = __c2; }
  404c0d:	c6 04 17 00          	movb   $0x0,(%rdi,%rdx,1)
_ZNSt7__cxx1112basic_stringIcSt11char_traitsIcESaIcEE13_M_set_lengthEm():
/usr/include/c++/10/bits/basic_string.h:226
      }
  404c11:	e9 38 ff ff ff       	jmpq   404b4e <main+0xc1e>
_ZNSt7__cxx1112basic_stringIcSt11char_traitsIcESaIcEE9_M_lengthEm():
/usr/include/c++/10/bits/basic_string.h:191
      { _M_string_length = __length; }
  404c16:	66 48 0f 6e c2       	movq   %rdx,%xmm0
_ZNSt7__cxx1112basic_stringIcSt11char_traitsIcESaIcEE7_M_dataEPc():
/usr/include/c++/10/bits/basic_string.h:187
      { _M_dataplus._M_p = __p; }
  404c1b:	48 89 84 24 98 01 00 	mov    %rax,0x198(%rsp)
  404c22:	00 
_ZNSt7__cxx1112basic_stringIcSt11char_traitsIcESaIcEE9_M_lengthEm():
/usr/include/c++/10/bits/basic_string.h:191
      { _M_string_length = __length; }
  404c23:	66 0f 6c c1          	punpcklqdq %xmm1,%xmm0
  404c27:	0f 29 84 24 a0 01 00 	movaps %xmm0,0x1a0(%rsp)
  404c2e:	00 
_ZNSt7__cxx1112basic_stringIcSt11char_traitsIcESaIcEE7_M_dataEPc():
/usr/include/c++/10/bits/basic_string.h:187
      { _M_dataplus._M_p = __p; }
  404c2f:	4c 89 a4 24 e0 0b 00 	mov    %r12,0xbe0(%rsp)
  404c36:	00 
  404c37:	e9 12 ff ff ff       	jmpq   404b4e <main+0xc1e>
_ZNSt11char_traitsIcE6assignERcRKc():
/usr/include/c++/10/bits/char_traits.h:357
  404c3c:	0f b6 84 24 f0 0b 00 	movzbl 0xbf0(%rsp),%eax
  404c43:	00 
  404c44:	88 07                	mov    %al,(%rdi)
  404c46:	48 8b bc 24 98 01 00 	mov    0x198(%rsp),%rdi
  404c4d:	00 
  404c4e:	48 8b 94 24 e8 0b 00 	mov    0xbe8(%rsp),%rdx
  404c55:	00 
  404c56:	eb ad                	jmp    404c05 <main+0xcd5>
main():
/home/aliha951/ipdps-artifact/gapbs-master/src/sssp_batching.cc:298
  404c58:	e8 d3 ed ff ff       	callq  403a30 <__stack_chk_fail@plt>
_Z16start_disk_statsPKc():
/home/aliha951/ipdps-artifact/gapbs-master/src/profiling_utils.h:302
    perror("fork failed");
  404c5d:	48 8d 3d a9 16 01 00 	lea    0x116a9(%rip),%rdi        # 41630d <_IO_stdin_used+0x30d>
  404c64:	e8 f7 ec ff ff       	callq  403960 <perror@plt>
/home/aliha951/ipdps-artifact/gapbs-master/src/profiling_utils.h:303
    exit(EXIT_FAILURE);
  404c69:	bf 01 00 00 00       	mov    $0x1,%edi
  404c6e:	e8 2d ee ff ff       	callq  403aa0 <exit@plt>
/home/aliha951/ipdps-artifact/gapbs-master/src/profiling_utils.h:306
	  move_to_cgroup(root_cgroup, getpid());
  404c73:	e8 38 ef ff ff       	callq  403bb0 <getpid@plt>
  404c78:	48 8d 3d 9a 16 01 00 	lea    0x1169a(%rip),%rdi        # 416319 <_IO_stdin_used+0x319>
  404c7f:	89 c6                	mov    %eax,%esi
  404c81:	e8 2a 2b 00 00       	callq  4077b0 <_Z14move_to_cgroupPKci>
/home/aliha951/ipdps-artifact/gapbs-master/src/profiling_utils.h:307
    execlp("/home/aliha951/ipdps-gapbs/gather_diskstats.sh", "/home/aliha951/ipdps-gapbs/gather_diskstats.sh", result_file_name, NULL);
  404c86:	48 8d 35 53 1b 01 00 	lea    0x11b53(%rip),%rsi        # 4167e0 <_IO_stdin_used+0x7e0>
  404c8d:	31 c9                	xor    %ecx,%ecx
  404c8f:	48 8d 15 99 16 01 00 	lea    0x11699(%rip),%rdx        # 41632f <_IO_stdin_used+0x32f>
  404c96:	31 c0                	xor    %eax,%eax
  404c98:	48 89 f7             	mov    %rsi,%rdi
  404c9b:	e8 60 eb ff ff       	callq  403800 <execlp@plt>
/home/aliha951/ipdps-artifact/gapbs-master/src/profiling_utils.h:308
    perror("execlp failed");
  404ca0:	48 8d 3d 93 16 01 00 	lea    0x11693(%rip),%rdi        # 41633a <_IO_stdin_used+0x33a>
  404ca7:	e8 b4 ec ff ff       	callq  403960 <perror@plt>
  404cac:	eb bb                	jmp    404c69 <main+0xd39>
_ZStlsISt11char_traitsIcEERSt13basic_ostreamIcT_ES5_PKc():
/usr/include/c++/10/ostream:611
	__ostream_insert(__out, __s,
  404cae:	ba 37 00 00 00       	mov    $0x37,%edx
  404cb3:	48 8d 35 ee 1a 01 00 	lea    0x11aee(%rip),%rsi        # 4167a8 <_IO_stdin_used+0x7a8>
  404cba:	48 8d 3d 3f 67 01 00 	lea    0x1673f(%rip),%rdi        # 41b400 <_ZSt4cout@@GLIBCXX_3.4>
  404cc1:	e8 7a ed ff ff       	callq  403a40 <_ZSt16__ostream_insertIcSt11char_traitsIcEERSt13basic_ostreamIT_T0_ES6_PKS3_l@plt>
_ZNSolsEPFRSoS_E():
/usr/include/c++/10/ostream:113
	return __pf(*this);
  404cc6:	48 8d 3d 33 67 01 00 	lea    0x16733(%rip),%rdi        # 41b400 <_ZSt4cout@@GLIBCXX_3.4>
  404ccd:	e8 ce 10 00 00       	callq  405da0 <_ZSt4endlIcSt11char_traitsIcEERSt13basic_ostreamIT_T0_ES6_.isra.0>
_ZN11BuilderBaseIi10NodeWeightIiiEiLb1EEC4ERK6CLBase():
/home/aliha951/ipdps-artifact/gapbs-master/src/builder.h:57
      std::cout << "In-place building (-m) does not support weighted graphs"
                << std::endl;
      exit(-30);
  404cd2:	bf e2 ff ff ff       	mov    $0xffffffe2,%edi
  404cd7:	e8 c4 ed ff ff       	callq  403aa0 <exit@plt>
  404cdc:	f3 0f 1e fa          	endbr64 
_ZNKSt7__cxx1112basic_stringIcSt11char_traitsIcESaIcEE7_M_dataEv():
/usr/include/c++/10/bits/basic_string.h:195
      { return _M_dataplus._M_p; }
  404ce0:	48 89 c3             	mov    %rax,%rbx
  404ce3:	e9 71 f1 ff ff       	jmpq   403e59 <main.cold>
  404ce8:	f3 0f 1e fa          	endbr64 
  404cec:	48 89 c3             	mov    %rax,%rbx
  404cef:	e9 b4 f1 ff ff       	jmpq   403ea8 <main.cold+0x4f>
  404cf4:	f3 0f 1e fa          	endbr64 
  404cf8:	48 89 c3             	mov    %rax,%rbx
  404cfb:	e9 bc f1 ff ff       	jmpq   403ebc <main.cold+0x63>
  404d00:	f3 0f 1e fa          	endbr64 
_ZN7pvectorIiE16ReleaseResourcesEv():
/home/aliha951/ipdps-artifact/gapbs-master/src/pvector.h:73
    if (start_ != nullptr) {
  404d04:	48 89 c3             	mov    %rax,%rbx
  404d07:	e9 5f f1 ff ff       	jmpq   403e6b <main.cold+0x12>
  404d0c:	f3 0f 1e fa          	endbr64 
  404d10:	48 89 c3             	mov    %rax,%rbx
  404d13:	e9 65 f1 ff ff       	jmpq   403e7d <main.cold+0x24>
  404d18:	f3 0f 1e fa          	endbr64 
_ZNKSt7__cxx1112basic_stringIcSt11char_traitsIcESaIcEE7_M_dataEv():
/usr/include/c++/10/bits/basic_string.h:195
  404d1c:	48 89 c3             	mov    %rax,%rbx
  404d1f:	e9 b4 f1 ff ff       	jmpq   403ed8 <main.cold+0x7f>
  404d24:	f3 0f 1e fa          	endbr64 
_ZN5CLAppD4Ev():
/home/aliha951/ipdps-artifact/gapbs-master/src/command_line.h:140
class CLApp : public CLBase {
  404d28:	48 89 c3             	mov    %rax,%rbx
  404d2b:	e9 57 f1 ff ff       	jmpq   403e87 <main.cold+0x2e>
  404d30:	f3 0f 1e fa          	endbr64 
_ZNKSt7__cxx1112basic_stringIcSt11char_traitsIcESaIcEE7_M_dataEv():
/usr/include/c++/10/bits/basic_string.h:195
  404d34:	48 89 c5             	mov    %rax,%rbp
  404d37:	e9 c9 f1 ff ff       	jmpq   403f05 <main.cold+0xac>
main():
/usr/include/c++/10/bits/basic_string.h:195
  404d3c:	0f 1f 40 00          	nopl   0x0(%rax)

0000000000404d40 <_GLOBAL__sub_I__Z10PrintLabelRKNSt7__cxx1112basic_stringIcSt11char_traitsIcESaIcEEES6_>:
_GLOBAL__sub_I__Z10PrintLabelRKNSt7__cxx1112basic_stringIcSt11char_traitsIcESaIcEEES6_():
/home/aliha951/ipdps-artifact/gapbs-master/src/sssp_batching.cc:298
  404d40:	f3 0f 1e fa          	endbr64 
  404d44:	48 83 ec 08          	sub    $0x8,%rsp
/usr/include/c++/10/iostream:74
  extern wostream wclog;	/// Linked to standard error (buffered)
#endif
  ///@}

  // For construction of filebuffers for cout, cin, cerr, clog et. al.
  static ios_base::Init __ioinit;
  404d48:	48 8d 3d 41 bd 01 00 	lea    0x1bd41(%rip),%rdi        # 420a90 <_ZStL8__ioinit>
__static_initialization_and_destruction_0():
/usr/include/c++/10/iostream:74
  404d4f:	e8 8c ee ff ff       	callq  403be0 <_ZNSt8ios_base4InitC1Ev@plt>
  404d54:	48 8b 3d 9d 62 01 00 	mov    0x1629d(%rip),%rdi        # 41aff8 <_ZNSt8ios_base4InitD1Ev@GLIBCXX_3.4>
  404d5b:	48 8d 15 16 66 01 00 	lea    0x16616(%rip),%rdx        # 41b378 <__dso_handle>
  404d62:	48 8d 35 27 bd 01 00 	lea    0x1bd27(%rip),%rsi        # 420a90 <_ZStL8__ioinit>
  404d69:	e8 22 ec ff ff       	callq  403990 <__cxa_atexit@plt>
/home/aliha951/ipdps-artifact/gapbs-master/src/libpfq_sssp.h:163
vector<state> curr_queue[NR_THREADS];
  404d6e:	48 8d 05 eb 97 01 00 	lea    0x197eb(%rip),%rax        # 41e560 <curr_queue>
_ZNSt12_Vector_baseI5stateSaIS0_EE17_Vector_impl_dataC4Ev():
/usr/include/c++/10/bits/stl_vector.h:98
	: _M_start(), _M_finish(), _M_end_of_storage()
  404d75:	66 0f ef c0          	pxor   %xmm0,%xmm0
  404d79:	48 8d 90 00 18 00 00 	lea    0x1800(%rax),%rdx
  404d80:	0f 29 00             	movaps %xmm0,(%rax)
  404d83:	48 83 c0 30          	add    $0x30,%rax
  404d87:	0f 29 40 e0          	movaps %xmm0,-0x20(%rax)
  404d8b:	0f 29 40 f0          	movaps %xmm0,-0x10(%rax)
__static_initialization_and_destruction_0():
/home/aliha951/ipdps-artifact/gapbs-master/src/libpfq_sssp.h:163
  404d8f:	48 39 d0             	cmp    %rdx,%rax
  404d92:	75 ec                	jne    404d80 <_GLOBAL__sub_I__Z10PrintLabelRKNSt7__cxx1112basic_stringIcSt11char_traitsIcESaIcEEES6_+0x40>
  404d94:	48 8d 15 dd 65 01 00 	lea    0x165dd(%rip),%rdx        # 41b378 <__dso_handle>
  404d9b:	31 f6                	xor    %esi,%esi
  404d9d:	48 8d 3d 1c 02 00 00 	lea    0x21c(%rip),%rdi        # 404fc0 <__tcf_0>
  404da4:	e8 e7 eb ff ff       	callq  403990 <__cxa_atexit@plt>
/home/aliha951/ipdps-artifact/gapbs-master/src/libpfq_sssp.h:164
vector<state> shipped_queue[NR_THREADS];
  404da9:	48 8d 05 b0 7f 01 00 	lea    0x17fb0(%rip),%rax        # 41cd60 <shipped_queue>
_ZNSt12_Vector_baseI5stateSaIS0_EE17_Vector_impl_dataC4Ev():
/usr/include/c++/10/bits/stl_vector.h:98
  404db0:	66 0f ef c0          	pxor   %xmm0,%xmm0
  404db4:	48 8d 90 00 18 00 00 	lea    0x1800(%rax),%rdx
  404dbb:	0f 1f 44 00 00       	nopl   0x0(%rax,%rax,1)
  404dc0:	0f 29 00             	movaps %xmm0,(%rax)
  404dc3:	48 83 c0 30          	add    $0x30,%rax
  404dc7:	0f 29 40 e0          	movaps %xmm0,-0x20(%rax)
  404dcb:	0f 29 40 f0          	movaps %xmm0,-0x10(%rax)
__static_initialization_and_destruction_0():
/home/aliha951/ipdps-artifact/gapbs-master/src/libpfq_sssp.h:164
  404dcf:	48 39 d0             	cmp    %rdx,%rax
  404dd2:	75 ec                	jne    404dc0 <_GLOBAL__sub_I__Z10PrintLabelRKNSt7__cxx1112basic_stringIcSt11char_traitsIcESaIcEEES6_+0x80>
  404dd4:	48 8d 15 9d 65 01 00 	lea    0x1659d(%rip),%rdx        # 41b378 <__dso_handle>
  404ddb:	31 f6                	xor    %esi,%esi
  404ddd:	48 8d 3d 8c 01 00 00 	lea    0x18c(%rip),%rdi        # 404f70 <__tcf_1>
  404de4:	e8 a7 eb ff ff       	callq  403990 <__cxa_atexit@plt>
/home/aliha951/ipdps-artifact/gapbs-master/src/libpfq_sssp.h:165
vector<state> ready_queue[NR_THREADS];
  404de9:	48 8d 05 70 67 01 00 	lea    0x16770(%rip),%rax        # 41b560 <ready_queue>
_ZNSt12_Vector_baseI5stateSaIS0_EE17_Vector_impl_dataC4Ev():
/usr/include/c++/10/bits/stl_vector.h:98
  404df0:	66 0f ef c0          	pxor   %xmm0,%xmm0
  404df4:	48 8d 90 00 18 00 00 	lea    0x1800(%rax),%rdx
  404dfb:	0f 1f 44 00 00       	nopl   0x0(%rax,%rax,1)
  404e00:	0f 29 00             	movaps %xmm0,(%rax)
  404e03:	48 83 c0 30          	add    $0x30,%rax
  404e07:	0f 29 40 e0          	movaps %xmm0,-0x20(%rax)
  404e0b:	0f 29 40 f0          	movaps %xmm0,-0x10(%rax)
__static_initialization_and_destruction_0():
/home/aliha951/ipdps-artifact/gapbs-master/src/libpfq_sssp.h:165
  404e0f:	48 39 d0             	cmp    %rdx,%rax
  404e12:	75 ec                	jne    404e00 <_GLOBAL__sub_I__Z10PrintLabelRKNSt7__cxx1112basic_stringIcSt11char_traitsIcESaIcEEES6_+0xc0>
  404e14:	48 8d 15 5d 65 01 00 	lea    0x1655d(%rip),%rdx        # 41b378 <__dso_handle>
  404e1b:	31 f6                	xor    %esi,%esi
  404e1d:	48 8d 3d fc 00 00 00 	lea    0xfc(%rip),%rdi        # 404f20 <__tcf_2>
_GLOBAL__sub_I__Z10PrintLabelRKNSt7__cxx1112basic_stringIcSt11char_traitsIcESaIcEEES6_():
/home/aliha951/ipdps-artifact/gapbs-master/src/sssp_batching.cc:298
  404e24:	48 83 c4 08          	add    $0x8,%rsp
__static_initialization_and_destruction_0():
/home/aliha951/ipdps-artifact/gapbs-master/src/libpfq_sssp.h:165
  404e28:	e9 63 eb ff ff       	jmpq   403990 <__cxa_atexit@plt>
_GLOBAL__sub_I__Z10PrintLabelRKNSt7__cxx1112basic_stringIcSt11char_traitsIcESaIcEEES6_():
  404e2d:	0f 1f 00             	nopl   (%rax)

0000000000404e30 <_start>:
_start():
  404e30:	f3 0f 1e fa          	endbr64 
  404e34:	31 ed                	xor    %ebp,%ebp
  404e36:	49 89 d1             	mov    %rdx,%r9
  404e39:	5e                   	pop    %rsi
  404e3a:	48 89 e2             	mov    %rsp,%rdx
  404e3d:	48 83 e4 f0          	and    $0xfffffffffffffff0,%rsp
  404e41:	50                   	push   %rax
  404e42:	54                   	push   %rsp
  404e43:	49 c7 c0 e0 59 41 00 	mov    $0x4159e0,%r8
  404e4a:	48 c7 c1 70 59 41 00 	mov    $0x415970,%rcx
  404e51:	48 c7 c7 30 3f 40 00 	mov    $0x403f30,%rdi
  404e58:	ff 15 8a 61 01 00    	callq  *0x1618a(%rip)        # 41afe8 <__libc_start_main@GLIBC_2.2.5>
  404e5e:	f4                   	hlt    
  404e5f:	90                   	nop

0000000000404e60 <_dl_relocate_static_pie>:
_dl_relocate_static_pie():
  404e60:	f3 0f 1e fa          	endbr64 
  404e64:	c3                   	retq   
  404e65:	66 2e 0f 1f 84 00 00 	nopw   %cs:0x0(%rax,%rax,1)
  404e6c:	00 00 00 
  404e6f:	90                   	nop

0000000000404e70 <deregister_tm_clones>:
deregister_tm_clones():
  404e70:	b8 a0 b3 41 00       	mov    $0x41b3a0,%eax
  404e75:	48 3d a0 b3 41 00    	cmp    $0x41b3a0,%rax
  404e7b:	74 13                	je     404e90 <deregister_tm_clones+0x20>
  404e7d:	b8 00 00 00 00       	mov    $0x0,%eax
  404e82:	48 85 c0             	test   %rax,%rax
  404e85:	74 09                	je     404e90 <deregister_tm_clones+0x20>
  404e87:	bf a0 b3 41 00       	mov    $0x41b3a0,%edi
  404e8c:	ff e0                	jmpq   *%rax
  404e8e:	66 90                	xchg   %ax,%ax
  404e90:	c3                   	retq   
  404e91:	66 66 2e 0f 1f 84 00 	data16 nopw %cs:0x0(%rax,%rax,1)
  404e98:	00 00 00 00 
  404e9c:	0f 1f 40 00          	nopl   0x0(%rax)

0000000000404ea0 <register_tm_clones>:
register_tm_clones():
  404ea0:	be a0 b3 41 00       	mov    $0x41b3a0,%esi
  404ea5:	48 81 ee a0 b3 41 00 	sub    $0x41b3a0,%rsi
  404eac:	48 89 f0             	mov    %rsi,%rax
  404eaf:	48 c1 ee 3f          	shr    $0x3f,%rsi
  404eb3:	48 c1 f8 03          	sar    $0x3,%rax
  404eb7:	48 01 c6             	add    %rax,%rsi
  404eba:	48 d1 fe             	sar    %rsi
  404ebd:	74 11                	je     404ed0 <register_tm_clones+0x30>
  404ebf:	b8 00 00 00 00       	mov    $0x0,%eax
  404ec4:	48 85 c0             	test   %rax,%rax
  404ec7:	74 07                	je     404ed0 <register_tm_clones+0x30>
  404ec9:	bf a0 b3 41 00       	mov    $0x41b3a0,%edi
  404ece:	ff e0                	jmpq   *%rax
  404ed0:	c3                   	retq   
  404ed1:	66 66 2e 0f 1f 84 00 	data16 nopw %cs:0x0(%rax,%rax,1)
  404ed8:	00 00 00 00 
  404edc:	0f 1f 40 00          	nopl   0x0(%rax)

0000000000404ee0 <__do_global_dtors_aux>:
__do_global_dtors_aux():
  404ee0:	f3 0f 1e fa          	endbr64 
  404ee4:	80 3d 3d 66 01 00 00 	cmpb   $0x0,0x1663d(%rip)        # 41b528 <completed.0>
  404eeb:	75 13                	jne    404f00 <__do_global_dtors_aux+0x20>
  404eed:	55                   	push   %rbp
  404eee:	48 89 e5             	mov    %rsp,%rbp
  404ef1:	e8 7a ff ff ff       	callq  404e70 <deregister_tm_clones>
  404ef6:	c6 05 2b 66 01 00 01 	movb   $0x1,0x1662b(%rip)        # 41b528 <completed.0>
  404efd:	5d                   	pop    %rbp
  404efe:	c3                   	retq   
  404eff:	90                   	nop
  404f00:	c3                   	retq   
  404f01:	66 66 2e 0f 1f 84 00 	data16 nopw %cs:0x0(%rax,%rax,1)
  404f08:	00 00 00 00 
  404f0c:	0f 1f 40 00          	nopl   0x0(%rax)

0000000000404f10 <frame_dummy>:
frame_dummy():
  404f10:	f3 0f 1e fa          	endbr64 
  404f14:	eb 8a                	jmp    404ea0 <register_tm_clones>
  404f16:	66 2e 0f 1f 84 00 00 	nopw   %cs:0x0(%rax,%rax,1)
  404f1d:	00 00 00 

0000000000404f20 <__tcf_2>:
__tcf_2():
/home/aliha951/ipdps-artifact/gapbs-master/src/libpfq_sssp.h:165
  404f20:	f3 0f 1e fa          	endbr64 
  404f24:	55                   	push   %rbp
  404f25:	53                   	push   %rbx
  404f26:	48 8d 1d 1b 7e 01 00 	lea    0x17e1b(%rip),%rbx        # 41cd48 <ready_queue+0x17e8>
  404f2d:	48 8d ab 18 e8 ff ff 	lea    -0x17e8(%rbx),%rbp
  404f34:	48 83 ec 08          	sub    $0x8,%rsp
  404f38:	eb 17                	jmp    404f51 <__tcf_2+0x31>
  404f3a:	66 0f 1f 44 00 00    	nopw   0x0(%rax,%rax,1)
_ZN9__gnu_cxx13new_allocatorI5stateE10deallocateEPS1_m():
/usr/include/c++/10/ext/new_allocator.h:139
  404f40:	e8 7b ea ff ff       	callq  4039c0 <_ZdlPv@plt>
__tcf_2():
/home/aliha951/ipdps-artifact/gapbs-master/src/libpfq_sssp.h:165
  404f45:	48 8d 43 e8          	lea    -0x18(%rbx),%rax
  404f49:	48 39 eb             	cmp    %rbp,%rbx
  404f4c:	74 14                	je     404f62 <__tcf_2+0x42>
  404f4e:	48 89 c3             	mov    %rax,%rbx
_ZNSt6vectorI5stateSaIS0_EED4Ev():
/usr/include/c++/10/bits/stl_vector.h:680 (discriminator 3)
	std::_Destroy(this->_M_impl._M_start, this->_M_impl._M_finish,
  404f51:	48 8b 3b             	mov    (%rbx),%rdi
_ZNSt12_Vector_baseI5stateSaIS0_EE13_M_deallocateEPS0_m():
/usr/include/c++/10/bits/stl_vector.h:353 (discriminator 3)
	if (__p)
  404f54:	48 85 ff             	test   %rdi,%rdi
  404f57:	75 e7                	jne    404f40 <__tcf_2+0x20>
__tcf_2():
/home/aliha951/ipdps-artifact/gapbs-master/src/libpfq_sssp.h:165
  404f59:	48 8d 43 e8          	lea    -0x18(%rbx),%rax
  404f5d:	48 39 eb             	cmp    %rbp,%rbx
  404f60:	75 ec                	jne    404f4e <__tcf_2+0x2e>
  404f62:	48 83 c4 08          	add    $0x8,%rsp
  404f66:	5b                   	pop    %rbx
  404f67:	5d                   	pop    %rbp
  404f68:	c3                   	retq   
  404f69:	0f 1f 80 00 00 00 00 	nopl   0x0(%rax)

0000000000404f70 <__tcf_1>:
__tcf_1():
/home/aliha951/ipdps-artifact/gapbs-master/src/libpfq_sssp.h:164
vector<state> shipped_queue[NR_THREADS];
  404f70:	f3 0f 1e fa          	endbr64 
  404f74:	55                   	push   %rbp
  404f75:	53                   	push   %rbx
  404f76:	48 8d 1d cb 95 01 00 	lea    0x195cb(%rip),%rbx        # 41e548 <shipped_queue+0x17e8>
  404f7d:	48 8d ab 18 e8 ff ff 	lea    -0x17e8(%rbx),%rbp
  404f84:	48 83 ec 08          	sub    $0x8,%rsp
  404f88:	eb 17                	jmp    404fa1 <__tcf_1+0x31>
  404f8a:	66 0f 1f 44 00 00    	nopw   0x0(%rax,%rax,1)
_ZN9__gnu_cxx13new_allocatorI5stateE10deallocateEPS1_m():
/usr/include/c++/10/ext/new_allocator.h:139
  404f90:	e8 2b ea ff ff       	callq  4039c0 <_ZdlPv@plt>
__tcf_1():
/home/aliha951/ipdps-artifact/gapbs-master/src/libpfq_sssp.h:164
  404f95:	48 8d 43 e8          	lea    -0x18(%rbx),%rax
  404f99:	48 39 eb             	cmp    %rbp,%rbx
  404f9c:	74 14                	je     404fb2 <__tcf_1+0x42>
  404f9e:	48 89 c3             	mov    %rax,%rbx
_ZNSt6vectorI5stateSaIS0_EED4Ev():
/usr/include/c++/10/bits/stl_vector.h:680 (discriminator 3)
	std::_Destroy(this->_M_impl._M_start, this->_M_impl._M_finish,
  404fa1:	48 8b 3b             	mov    (%rbx),%rdi
_ZNSt12_Vector_baseI5stateSaIS0_EE13_M_deallocateEPS0_m():
/usr/include/c++/10/bits/stl_vector.h:353 (discriminator 3)
	if (__p)
  404fa4:	48 85 ff             	test   %rdi,%rdi
  404fa7:	75 e7                	jne    404f90 <__tcf_1+0x20>
__tcf_1():
/home/aliha951/ipdps-artifact/gapbs-master/src/libpfq_sssp.h:164
  404fa9:	48 8d 43 e8          	lea    -0x18(%rbx),%rax
  404fad:	48 39 eb             	cmp    %rbp,%rbx
  404fb0:	75 ec                	jne    404f9e <__tcf_1+0x2e>
  404fb2:	48 83 c4 08          	add    $0x8,%rsp
  404fb6:	5b                   	pop    %rbx
  404fb7:	5d                   	pop    %rbp
  404fb8:	c3                   	retq   
  404fb9:	0f 1f 80 00 00 00 00 	nopl   0x0(%rax)

0000000000404fc0 <__tcf_0>:
__tcf_0():
/home/aliha951/ipdps-artifact/gapbs-master/src/libpfq_sssp.h:163
vector<state> curr_queue[NR_THREADS];
  404fc0:	f3 0f 1e fa          	endbr64 
  404fc4:	55                   	push   %rbp
  404fc5:	53                   	push   %rbx
  404fc6:	48 8d 1d 7b ad 01 00 	lea    0x1ad7b(%rip),%rbx        # 41fd48 <curr_queue+0x17e8>
  404fcd:	48 8d ab 18 e8 ff ff 	lea    -0x17e8(%rbx),%rbp
  404fd4:	48 83 ec 08          	sub    $0x8,%rsp
  404fd8:	eb 17                	jmp    404ff1 <__tcf_0+0x31>
  404fda:	66 0f 1f 44 00 00    	nopw   0x0(%rax,%rax,1)
_ZN9__gnu_cxx13new_allocatorI5stateE10deallocateEPS1_m():
/usr/include/c++/10/ext/new_allocator.h:139
  404fe0:	e8 db e9 ff ff       	callq  4039c0 <_ZdlPv@plt>
__tcf_0():
/home/aliha951/ipdps-artifact/gapbs-master/src/libpfq_sssp.h:163
  404fe5:	48 8d 43 e8          	lea    -0x18(%rbx),%rax
  404fe9:	48 39 eb             	cmp    %rbp,%rbx
  404fec:	74 14                	je     405002 <__tcf_0+0x42>
  404fee:	48 89 c3             	mov    %rax,%rbx
_ZNSt6vectorI5stateSaIS0_EED4Ev():
/usr/include/c++/10/bits/stl_vector.h:680 (discriminator 3)
	std::_Destroy(this->_M_impl._M_start, this->_M_impl._M_finish,
  404ff1:	48 8b 3b             	mov    (%rbx),%rdi
_ZNSt12_Vector_baseI5stateSaIS0_EE13_M_deallocateEPS0_m():
/usr/include/c++/10/bits/stl_vector.h:353 (discriminator 3)
	if (__p)
  404ff4:	48 85 ff             	test   %rdi,%rdi
  404ff7:	75 e7                	jne    404fe0 <__tcf_0+0x20>
__tcf_0():
/home/aliha951/ipdps-artifact/gapbs-master/src/libpfq_sssp.h:163
  404ff9:	48 8d 43 e8          	lea    -0x18(%rbx),%rax
  404ffd:	48 39 eb             	cmp    %rbp,%rbx
  405000:	75 ec                	jne    404fee <__tcf_0+0x2e>
  405002:	48 83 c4 08          	add    $0x8,%rsp
  405006:	5b                   	pop    %rbx
  405007:	5d                   	pop    %rbp
  405008:	c3                   	retq   
  405009:	0f 1f 80 00 00 00 00 	nopl   0x0(%rax)

0000000000405010 <_ZL13get_family_idi>:
_ZL13get_family_idi():
/home/aliha951/ipdps-artifact/gapbs-master/src/taskstats_helper.h:30
	struct genlmsghdr g;
	char buf[512];
};

/* Ask generic netlink for the family id of TASKSTATS */
static int get_family_id(int sd) {
  405010:	41 54                	push   %r12
/home/aliha951/ipdps-artifact/gapbs-master/src/taskstats_helper.h:32
	struct msgtemplate req = {0};
	struct msgtemplate ans = {0};
  405012:	b9 42 00 00 00       	mov    $0x42,%ecx
/home/aliha951/ipdps-artifact/gapbs-master/src/taskstats_helper.h:30
static int get_family_id(int sd) {
  405017:	55                   	push   %rbp
  405018:	89 fd                	mov    %edi,%ebp
  40501a:	48 81 ec 48 04 00 00 	sub    $0x448,%rsp
  405021:	64 48 8b 04 25 28 00 	mov    %fs:0x28,%rax
  405028:	00 00 
  40502a:	48 89 84 24 38 04 00 	mov    %rax,0x438(%rsp)
  405031:	00 
  405032:	31 c0                	xor    %eax,%eax
/home/aliha951/ipdps-artifact/gapbs-master/src/taskstats_helper.h:32
	struct msgtemplate ans = {0};
  405034:	4c 8d a4 24 20 02 00 	lea    0x220(%rsp),%r12
  40503b:	00 
  40503c:	4c 89 e7             	mov    %r12,%rdi
  40503f:	f3 48 ab             	rep stos %rax,%es:(%rdi)
/home/aliha951/ipdps-artifact/gapbs-master/src/taskstats_helper.h:31
	struct msgtemplate req = {0};
  405042:	b9 42 00 00 00       	mov    $0x42,%ecx
/home/aliha951/ipdps-artifact/gapbs-master/src/taskstats_helper.h:32
	struct msgtemplate ans = {0};
  405047:	c7 07 00 00 00 00    	movl   $0x0,(%rdi)
/home/aliha951/ipdps-artifact/gapbs-master/src/taskstats_helper.h:31
	struct msgtemplate req = {0};
  40504d:	48 89 e7             	mov    %rsp,%rdi
  405050:	f3 48 ab             	rep stos %rax,%es:(%rdi)
/home/aliha951/ipdps-artifact/gapbs-master/src/taskstats_helper.h:36
	struct nlattr *na;
	int rep_len;

	req.n.nlmsg_len = NLMSG_LENGTH(GENL_HDRLEN);
  405053:	48 b8 14 00 00 00 10 	movabs $0x1001000000014,%rax
  40505a:	00 01 00 
  40505d:	48 89 04 24          	mov    %rax,(%rsp)
/home/aliha951/ipdps-artifact/gapbs-master/src/taskstats_helper.h:31
	struct msgtemplate req = {0};
  405061:	c7 07 00 00 00 00    	movl   $0x0,(%rdi)
/home/aliha951/ipdps-artifact/gapbs-master/src/taskstats_helper.h:40
	req.n.nlmsg_type = GENL_ID_CTRL;
	req.n.nlmsg_flags = NLM_F_REQUEST;
	req.n.nlmsg_seq = 0;
	req.n.nlmsg_pid = getpid();
  405067:	e8 44 eb ff ff       	callq  403bb0 <getpid@plt>
/usr/include/x86_64-linux-gnu/bits/string_fortified.h:34

__fortify_function void *
__NTH (memcpy (void *__restrict __dest, const void *__restrict __src,
	       size_t __len))
{
  return __builtin___memcpy_chk (__dest, __src, __len, __bos0 (__dest));
  40506c:	ba 53 00 00 00       	mov    $0x53,%edx
/home/aliha951/ipdps-artifact/gapbs-master/src/taskstats_helper.h:50
	na->nla_type = CTRL_ATTR_FAMILY_NAME;
	na->nla_len = NLA_HDRLEN + strlen(TASKSTATS_GENL_NAME) + 1;
	memcpy(NLA_DATA(na), TASKSTATS_GENL_NAME, strlen(TASKSTATS_GENL_NAME) + 1);
	req.n.nlmsg_len += NLMSG_ALIGN(na->nla_len);

	if (send(sd, &req, req.n.nlmsg_len, 0) < 0)
  405071:	31 c9                	xor    %ecx,%ecx
memcpy():
/usr/include/x86_64-linux-gnu/bits/string_fortified.h:34
  405073:	48 89 e6             	mov    %rsp,%rsi
_ZL13get_family_idi():
/home/aliha951/ipdps-artifact/gapbs-master/src/taskstats_helper.h:40
	req.n.nlmsg_pid = getpid();
  405076:	89 44 24 0c          	mov    %eax,0xc(%rsp)
/home/aliha951/ipdps-artifact/gapbs-master/src/taskstats_helper.h:41
	req.g.cmd = CTRL_CMD_GETFAMILY;
  40507a:	b8 03 01 00 00       	mov    $0x103,%eax
/home/aliha951/ipdps-artifact/gapbs-master/src/taskstats_helper.h:50
	if (send(sd, &req, req.n.nlmsg_len, 0) < 0)
  40507f:	89 ef                	mov    %ebp,%edi
/home/aliha951/ipdps-artifact/gapbs-master/src/taskstats_helper.h:41
	req.g.cmd = CTRL_CMD_GETFAMILY;
  405081:	66 89 44 24 10       	mov    %ax,0x10(%rsp)
memcpy():
/usr/include/x86_64-linux-gnu/bits/string_fortified.h:34
  405086:	48 b8 54 41 53 4b 53 	movabs $0x544154534b534154,%rax
  40508d:	54 41 54 
  405090:	48 89 44 24 18       	mov    %rax,0x18(%rsp)
_ZL13get_family_idi():
/home/aliha951/ipdps-artifact/gapbs-master/src/taskstats_helper.h:48
	req.n.nlmsg_len += NLMSG_ALIGN(na->nla_len);
  405095:	8b 04 24             	mov    (%rsp),%eax
memcpy():
/usr/include/x86_64-linux-gnu/bits/string_fortified.h:34
  405098:	66 89 54 24 20       	mov    %dx,0x20(%rsp)
_ZL13get_family_idi():
/home/aliha951/ipdps-artifact/gapbs-master/src/taskstats_helper.h:48
  40509d:	8d 50 10             	lea    0x10(%rax),%edx
/home/aliha951/ipdps-artifact/gapbs-master/src/taskstats_helper.h:46
	na->nla_len = NLA_HDRLEN + strlen(TASKSTATS_GENL_NAME) + 1;
  4050a0:	c7 44 24 14 0e 00 02 	movl   $0x2000e,0x14(%rsp)
  4050a7:	00 
/home/aliha951/ipdps-artifact/gapbs-master/src/taskstats_helper.h:48
	req.n.nlmsg_len += NLMSG_ALIGN(na->nla_len);
  4050a8:	89 14 24             	mov    %edx,(%rsp)
/home/aliha951/ipdps-artifact/gapbs-master/src/taskstats_helper.h:50
	if (send(sd, &req, req.n.nlmsg_len, 0) < 0)
  4050ab:	e8 e0 e7 ff ff       	callq  403890 <send@plt>
  4050b0:	48 85 c0             	test   %rax,%rax
  4050b3:	78 6b                	js     405120 <_ZL13get_family_idi+0x110>
/usr/include/x86_64-linux-gnu/bits/socket2.h:44
	return __recv_chk (__fd, __buf, __n, __bos0 (__buf), __flags);

      if (__n > __bos0 (__buf))
	return __recv_chk_warn (__fd, __buf, __n, __bos0 (__buf), __flags);
    }
  return __recv_alias (__fd, __buf, __n, __flags);
  4050b5:	31 c9                	xor    %ecx,%ecx
recv():
/usr/include/x86_64-linux-gnu/bits/socket2.h:44
  4050b7:	ba 14 02 00 00       	mov    $0x214,%edx
  4050bc:	4c 89 e6             	mov    %r12,%rsi
  4050bf:	89 ef                	mov    %ebp,%edi
  4050c1:	e8 6a e7 ff ff       	callq  403830 <recv@plt>
_ZL13get_family_idi():
/home/aliha951/ipdps-artifact/gapbs-master/src/taskstats_helper.h:54
		return -1;

	rep_len = recv(sd, &ans, sizeof(ans), 0);
	if (rep_len < 0 || ans.n.nlmsg_type == NLMSG_ERROR)
  4050c6:	85 c0                	test   %eax,%eax
  4050c8:	78 56                	js     405120 <_ZL13get_family_idi+0x110>
/home/aliha951/ipdps-artifact/gapbs-master/src/taskstats_helper.h:54 (discriminator 1)
  4050ca:	66 83 bc 24 24 02 00 	cmpw   $0x2,0x224(%rsp)
  4050d1:	00 02 
  4050d3:	74 4b                	je     405120 <_ZL13get_family_idi+0x110>
/home/aliha951/ipdps-artifact/gapbs-master/src/taskstats_helper.h:59
		return -1;

	/* First attr is family name we sent, second should be ID */
	na = (struct nlattr *) GENLMSG_DATA(&ans.n);
	na = (struct nlattr *) ((char*)na + NLA_ALIGN(na->nla_len));
  4050d5:	0f b7 84 24 34 02 00 	movzwl 0x234(%rsp),%eax
  4050dc:	00 
  4050dd:	83 c0 03             	add    $0x3,%eax
  4050e0:	25 fc ff 01 00       	and    $0x1fffc,%eax
  4050e5:	48 8d 84 04 34 02 00 	lea    0x234(%rsp,%rax,1),%rax
  4050ec:	00 
/home/aliha951/ipdps-artifact/gapbs-master/src/taskstats_helper.h:60
	if (na->nla_type == CTRL_ATTR_FAMILY_ID)
  4050ed:	66 83 78 02 01       	cmpw   $0x1,0x2(%rax)
  4050f2:	75 2c                	jne    405120 <_ZL13get_family_idi+0x110>
/home/aliha951/ipdps-artifact/gapbs-master/src/taskstats_helper.h:61
		return *(__u16 *) NLA_DATA(na);
  4050f4:	0f b7 40 04          	movzwl 0x4(%rax),%eax
/home/aliha951/ipdps-artifact/gapbs-master/src/taskstats_helper.h:63
	return -1;
}
  4050f8:	48 8b b4 24 38 04 00 	mov    0x438(%rsp),%rsi
  4050ff:	00 
  405100:	64 48 2b 34 25 28 00 	sub    %fs:0x28,%rsi
  405107:	00 00 
  405109:	75 1c                	jne    405127 <_ZL13get_family_idi+0x117>
  40510b:	48 81 c4 48 04 00 00 	add    $0x448,%rsp
  405112:	5d                   	pop    %rbp
  405113:	41 5c                	pop    %r12
  405115:	c3                   	retq   
  405116:	66 2e 0f 1f 84 00 00 	nopw   %cs:0x0(%rax,%rax,1)
  40511d:	00 00 00 
/home/aliha951/ipdps-artifact/gapbs-master/src/taskstats_helper.h:51
		return -1;
  405120:	b8 ff ff ff ff       	mov    $0xffffffff,%eax
  405125:	eb d1                	jmp    4050f8 <_ZL13get_family_idi+0xe8>
/home/aliha951/ipdps-artifact/gapbs-master/src/taskstats_helper.h:63
}
  405127:	e8 04 e9 ff ff       	callq  403a30 <__stack_chk_fail@plt>
  40512c:	0f 1f 40 00          	nopl   0x0(%rax)

0000000000405130 <_ZL21request_taskstats_pidiiiP9taskstatsPm>:
_ZL21request_taskstats_pidiiiP9taskstatsPm():
/home/aliha951/ipdps-artifact/gapbs-master/src/taskstats_helper.h:80
		return -1;
	}
	return sd;
}

static int request_taskstats_pid(int sd, int family_id, pid_t pid, struct taskstats *out_ts, size_t *out_len) {
  405130:	41 57                	push   %r15
  405132:	41 89 d7             	mov    %edx,%r15d
  405135:	41 56                	push   %r14
  405137:	41 55                	push   %r13
  405139:	41 89 fd             	mov    %edi,%r13d
  40513c:	41 54                	push   %r12
  40513e:	49 89 cc             	mov    %rcx,%r12
/home/aliha951/ipdps-artifact/gapbs-master/src/taskstats_helper.h:81
	struct msgtemplate req = {0};
  405141:	b9 42 00 00 00       	mov    $0x42,%ecx
/home/aliha951/ipdps-artifact/gapbs-master/src/taskstats_helper.h:80
static int request_taskstats_pid(int sd, int family_id, pid_t pid, struct taskstats *out_ts, size_t *out_len) {
  405146:	55                   	push   %rbp
/usr/include/x86_64-linux-gnu/bits/string_fortified.h:71
    {
      __warn_memset_zero_len ();
      return __dest;
    }
#endif
  return __builtin___memset_chk (__dest, __ch, __len, __bos0 (__dest));
  405147:	49 8d 6c 24 08       	lea    0x8(%r12),%rbp
/home/aliha951/ipdps-artifact/gapbs-master/src/taskstats_helper.h:80
  40514c:	53                   	push   %rbx
  40514d:	4c 89 c3             	mov    %r8,%rbx
  405150:	48 81 ec 48 04 00 00 	sub    $0x448,%rsp
  405157:	64 48 8b 04 25 28 00 	mov    %fs:0x28,%rax
  40515e:	00 00 
  405160:	48 89 84 24 38 04 00 	mov    %rax,0x438(%rsp)
  405167:	00 
  405168:	31 c0                	xor    %eax,%eax
/home/aliha951/ipdps-artifact/gapbs-master/src/taskstats_helper.h:81
	struct msgtemplate req = {0};
  40516a:	48 89 e7             	mov    %rsp,%rdi
/home/aliha951/ipdps-artifact/gapbs-master/src/taskstats_helper.h:85
	struct msgtemplate rep = {0};
	struct nlattr *na;

	*out_len = 0;
  40516d:	49 c7 00 00 00 00 00 	movq   $0x0,(%r8)
/home/aliha951/ipdps-artifact/gapbs-master/src/taskstats_helper.h:82
	struct msgtemplate rep = {0};
  405174:	4c 8d b4 24 20 02 00 	lea    0x220(%rsp),%r14
  40517b:	00 
/home/aliha951/ipdps-artifact/gapbs-master/src/taskstats_helper.h:81
	struct msgtemplate req = {0};
  40517c:	f3 48 ab             	rep stos %rax,%es:(%rdi)
/home/aliha951/ipdps-artifact/gapbs-master/src/taskstats_helper.h:82
	struct msgtemplate rep = {0};
  40517f:	b9 42 00 00 00       	mov    $0x42,%ecx
/home/aliha951/ipdps-artifact/gapbs-master/src/taskstats_helper.h:81
	struct msgtemplate req = {0};
  405184:	c7 07 00 00 00 00    	movl   $0x0,(%rdi)
/home/aliha951/ipdps-artifact/gapbs-master/src/taskstats_helper.h:82
	struct msgtemplate rep = {0};
  40518a:	4c 89 f7             	mov    %r14,%rdi
  40518d:	f3 48 ab             	rep stos %rax,%es:(%rdi)
memset():
/usr/include/x86_64-linux-gnu/bits/string_fortified.h:71
  405190:	4c 89 e1             	mov    %r12,%rcx
_ZL21request_taskstats_pidiiiP9taskstatsPm():
/home/aliha951/ipdps-artifact/gapbs-master/src/taskstats_helper.h:82
  405193:	c7 07 00 00 00 00    	movl   $0x0,(%rdi)
memset():
/usr/include/x86_64-linux-gnu/bits/string_fortified.h:71
  405199:	48 89 ef             	mov    %rbp,%rdi
  40519c:	48 83 e7 f8          	and    $0xfffffffffffffff8,%rdi
  4051a0:	49 c7 04 24 00 00 00 	movq   $0x0,(%r12)
  4051a7:	00 
  4051a8:	49 c7 84 24 a8 01 00 	movq   $0x0,0x1a8(%r12)
  4051af:	00 00 00 00 00 
  4051b4:	48 29 f9             	sub    %rdi,%rcx
  4051b7:	81 c1 b0 01 00 00    	add    $0x1b0,%ecx
  4051bd:	c1 e9 03             	shr    $0x3,%ecx
  4051c0:	f3 48 ab             	rep stos %rax,%es:(%rdi)
_ZL21request_taskstats_pidiiiP9taskstatsPm():
/home/aliha951/ipdps-artifact/gapbs-master/src/taskstats_helper.h:90
	memset(out_ts, 0, sizeof(*out_ts));

	req.n.nlmsg_len = NLMSG_LENGTH(GENL_HDRLEN);
	req.n.nlmsg_type = family_id;
	req.n.nlmsg_flags = NLM_F_REQUEST;
  4051c3:	b8 01 00 00 00       	mov    $0x1,%eax
/home/aliha951/ipdps-artifact/gapbs-master/src/taskstats_helper.h:89
	req.n.nlmsg_type = family_id;
  4051c8:	66 89 74 24 04       	mov    %si,0x4(%rsp)
/home/aliha951/ipdps-artifact/gapbs-master/src/taskstats_helper.h:88
	req.n.nlmsg_len = NLMSG_LENGTH(GENL_HDRLEN);
  4051cd:	c7 04 24 14 00 00 00 	movl   $0x14,(%rsp)
/home/aliha951/ipdps-artifact/gapbs-master/src/taskstats_helper.h:90
	req.n.nlmsg_flags = NLM_F_REQUEST;
  4051d4:	66 89 44 24 06       	mov    %ax,0x6(%rsp)
/home/aliha951/ipdps-artifact/gapbs-master/src/taskstats_helper.h:91
	req.n.nlmsg_seq = 1;
  4051d9:	c7 44 24 08 01 00 00 	movl   $0x1,0x8(%rsp)
  4051e0:	00 
/home/aliha951/ipdps-artifact/gapbs-master/src/taskstats_helper.h:92
	req.n.nlmsg_pid = getpid();
  4051e1:	e8 ca e9 ff ff       	callq  403bb0 <getpid@plt>
/home/aliha951/ipdps-artifact/gapbs-master/src/taskstats_helper.h:93
	req.g.cmd = TASKSTATS_CMD_GET;
  4051e6:	ba 01 0e 00 00       	mov    $0xe01,%edx
/home/aliha951/ipdps-artifact/gapbs-master/src/taskstats_helper.h:103
  na->nla_type = TASKSTATS_CMD_ATTR_TGID; // Use TGID to get stats for thread group (process) instead of single thread
	na->nla_len = NLA_HDRLEN + sizeof(pid);
	memcpy(NLA_DATA(na), &pid, sizeof(pid));
	req.n.nlmsg_len += NLMSG_ALIGN(na->nla_len);

	if (send(sd, &req, req.n.nlmsg_len, 0) < 0)
  4051eb:	31 c9                	xor    %ecx,%ecx
  4051ed:	48 89 e6             	mov    %rsp,%rsi
/home/aliha951/ipdps-artifact/gapbs-master/src/taskstats_helper.h:92
	req.n.nlmsg_pid = getpid();
  4051f0:	89 44 24 0c          	mov    %eax,0xc(%rsp)
/home/aliha951/ipdps-artifact/gapbs-master/src/taskstats_helper.h:101
	req.n.nlmsg_len += NLMSG_ALIGN(na->nla_len);
  4051f4:	8b 04 24             	mov    (%rsp),%eax
/home/aliha951/ipdps-artifact/gapbs-master/src/taskstats_helper.h:103
	if (send(sd, &req, req.n.nlmsg_len, 0) < 0)
  4051f7:	44 89 ef             	mov    %r13d,%edi
/home/aliha951/ipdps-artifact/gapbs-master/src/taskstats_helper.h:93
	req.g.cmd = TASKSTATS_CMD_GET;
  4051fa:	66 89 54 24 10       	mov    %dx,0x10(%rsp)
/home/aliha951/ipdps-artifact/gapbs-master/src/taskstats_helper.h:101
	req.n.nlmsg_len += NLMSG_ALIGN(na->nla_len);
  4051ff:	8d 50 08             	lea    0x8(%rax),%edx
/home/aliha951/ipdps-artifact/gapbs-master/src/taskstats_helper.h:99
	na->nla_len = NLA_HDRLEN + sizeof(pid);
  405202:	c7 44 24 14 08 00 02 	movl   $0x20008,0x14(%rsp)
  405209:	00 
/usr/include/x86_64-linux-gnu/bits/string_fortified.h:34
  return __builtin___memcpy_chk (__dest, __src, __len, __bos0 (__dest));
  40520a:	44 89 7c 24 18       	mov    %r15d,0x18(%rsp)
/home/aliha951/ipdps-artifact/gapbs-master/src/taskstats_helper.h:101
	req.n.nlmsg_len += NLMSG_ALIGN(na->nla_len);
  40520f:	89 14 24             	mov    %edx,(%rsp)
/home/aliha951/ipdps-artifact/gapbs-master/src/taskstats_helper.h:103
	if (send(sd, &req, req.n.nlmsg_len, 0) < 0)
  405212:	e8 79 e6 ff ff       	callq  403890 <send@plt>
  405217:	48 85 c0             	test   %rax,%rax
  40521a:	0f 88 18 01 00 00    	js     405338 <_ZL21request_taskstats_pidiiiP9taskstatsPm+0x208>
/usr/include/x86_64-linux-gnu/bits/socket2.h:44
  405220:	31 c9                	xor    %ecx,%ecx
recv():
/usr/include/x86_64-linux-gnu/bits/socket2.h:44
  405222:	ba 14 02 00 00       	mov    $0x214,%edx
  405227:	4c 89 f6             	mov    %r14,%rsi
  40522a:	44 89 ef             	mov    %r13d,%edi
  40522d:	e8 fe e5 ff ff       	callq  403830 <recv@plt>
_ZL21request_taskstats_pidiiiP9taskstatsPm():
/home/aliha951/ipdps-artifact/gapbs-master/src/taskstats_helper.h:105
		return -1;
	if (recv(sd, &rep, sizeof(rep), 0) < 0)
  405232:	48 85 c0             	test   %rax,%rax
  405235:	0f 88 fd 00 00 00    	js     405338 <_ZL21request_taskstats_pidiiiP9taskstatsPm+0x208>
/home/aliha951/ipdps-artifact/gapbs-master/src/taskstats_helper.h:109
		return -1;

	na = (struct nlattr *) GENLMSG_DATA(&rep.n);
	int rem = rep.n.nlmsg_len - NLMSG_LENGTH(GENL_HDRLEN);
  40523b:	8b 84 24 20 02 00 00 	mov    0x220(%rsp),%eax
  405242:	8d 70 ec             	lea    -0x14(%rax),%esi
/home/aliha951/ipdps-artifact/gapbs-master/src/taskstats_helper.h:110
	while (rem > 0 && na->nla_len >= NLA_HDRLEN && rem >= na->nla_len) {
  405245:	85 f6                	test   %esi,%esi
  405247:	0f 8e eb 00 00 00    	jle    405338 <_ZL21request_taskstats_pidiiiP9taskstatsPm+0x208>
/home/aliha951/ipdps-artifact/gapbs-master/src/taskstats_helper.h:108
	na = (struct nlattr *) GENLMSG_DATA(&rep.n);
  40524d:	48 8d 8c 24 34 02 00 	lea    0x234(%rsp),%rcx
  405254:	00 
  405255:	eb 29                	jmp    405280 <_ZL21request_taskstats_pidiiiP9taskstatsPm+0x150>
  405257:	66 0f 1f 84 00 00 00 	nopw   0x0(%rax,%rax,1)
  40525e:	00 00 
/home/aliha951/ipdps-artifact/gapbs-master/src/taskstats_helper.h:126
				}
				int step2 = NLA_ALIGN(n2->nla_len);
				aggr_len -= step2;
				n2 = (struct nlattr *) ((char*)n2 + step2);
			}
		} else if (na->nla_type == TASKSTATS_TYPE_STATS) {
  405260:	66 83 f8 03          	cmp    $0x3,%ax
  405264:	0f 84 26 01 00 00    	je     405390 <_ZL21request_taskstats_pidiiiP9taskstatsPm+0x260>
/home/aliha951/ipdps-artifact/gapbs-master/src/taskstats_helper.h:133
			if (payload > sizeof(*out_ts)) payload = sizeof(*out_ts);
			memcpy(out_ts, NLA_DATA(na), payload);
			*out_len = payload;
			return 0;
		}
		int step = NLA_ALIGN(na->nla_len);
  40526a:	83 c2 03             	add    $0x3,%edx
  40526d:	83 e2 fc             	and    $0xfffffffc,%edx
/home/aliha951/ipdps-artifact/gapbs-master/src/taskstats_helper.h:134
		rem -= step;
  405270:	29 d6                	sub    %edx,%esi
/home/aliha951/ipdps-artifact/gapbs-master/src/taskstats_helper.h:135
		na = (struct nlattr *) ((char*)na + step);
  405272:	48 63 d2             	movslq %edx,%rdx
  405275:	48 01 d1             	add    %rdx,%rcx
/home/aliha951/ipdps-artifact/gapbs-master/src/taskstats_helper.h:110
	while (rem > 0 && na->nla_len >= NLA_HDRLEN && rem >= na->nla_len) {
  405278:	85 f6                	test   %esi,%esi
  40527a:	0f 8e b8 00 00 00    	jle    405338 <_ZL21request_taskstats_pidiiiP9taskstatsPm+0x208>
/home/aliha951/ipdps-artifact/gapbs-master/src/taskstats_helper.h:110 (discriminator 1)
  405280:	0f b7 11             	movzwl (%rcx),%edx
  405283:	66 83 fa 03          	cmp    $0x3,%dx
  405287:	0f 86 ab 00 00 00    	jbe    405338 <_ZL21request_taskstats_pidiiiP9taskstatsPm+0x208>
/home/aliha951/ipdps-artifact/gapbs-master/src/taskstats_helper.h:110 (discriminator 2)
  40528d:	39 f2                	cmp    %esi,%edx
  40528f:	0f 8f a3 00 00 00    	jg     405338 <_ZL21request_taskstats_pidiiiP9taskstatsPm+0x208>
/home/aliha951/ipdps-artifact/gapbs-master/src/taskstats_helper.h:111
		if (na->nla_type == TASKSTATS_TYPE_AGGR_PID || na->nla_type == TASKSTATS_TYPE_AGGR_TGID) {
  405295:	0f b7 41 02          	movzwl 0x2(%rcx),%eax
  405299:	8d 78 fc             	lea    -0x4(%rax),%edi
  40529c:	66 83 ff 01          	cmp    $0x1,%di
  4052a0:	77 be                	ja     405260 <_ZL21request_taskstats_pidiiiP9taskstatsPm+0x130>
/home/aliha951/ipdps-artifact/gapbs-master/src/taskstats_helper.h:114
			while (aggr_len > 0 && n2->nla_len >= NLA_HDRLEN && aggr_len >= n2->nla_len) {
  4052a2:	41 89 d0             	mov    %edx,%r8d
/home/aliha951/ipdps-artifact/gapbs-master/src/taskstats_helper.h:113
			struct nlattr *n2 = (struct nlattr *) NLA_DATA(na);
  4052a5:	48 8d 79 04          	lea    0x4(%rcx),%rdi
/home/aliha951/ipdps-artifact/gapbs-master/src/taskstats_helper.h:114
			while (aggr_len > 0 && n2->nla_len >= NLA_HDRLEN && aggr_len >= n2->nla_len) {
  4052a9:	41 83 e8 04          	sub    $0x4,%r8d
  4052ad:	75 1c                	jne    4052cb <_ZL21request_taskstats_pidiiiP9taskstatsPm+0x19b>
  4052af:	eb b9                	jmp    40526a <_ZL21request_taskstats_pidiiiP9taskstatsPm+0x13a>
  4052b1:	0f 1f 80 00 00 00 00 	nopl   0x0(%rax)
/home/aliha951/ipdps-artifact/gapbs-master/src/taskstats_helper.h:122
				int step2 = NLA_ALIGN(n2->nla_len);
  4052b8:	83 c0 03             	add    $0x3,%eax
  4052bb:	83 e0 fc             	and    $0xfffffffc,%eax
/home/aliha951/ipdps-artifact/gapbs-master/src/taskstats_helper.h:123
				aggr_len -= step2;
  4052be:	41 29 c0             	sub    %eax,%r8d
/home/aliha951/ipdps-artifact/gapbs-master/src/taskstats_helper.h:124
				n2 = (struct nlattr *) ((char*)n2 + step2);
  4052c1:	48 98                	cltq   
  4052c3:	48 01 c7             	add    %rax,%rdi
/home/aliha951/ipdps-artifact/gapbs-master/src/taskstats_helper.h:114
			while (aggr_len > 0 && n2->nla_len >= NLA_HDRLEN && aggr_len >= n2->nla_len) {
  4052c6:	45 85 c0             	test   %r8d,%r8d
  4052c9:	7e 9f                	jle    40526a <_ZL21request_taskstats_pidiiiP9taskstatsPm+0x13a>
/home/aliha951/ipdps-artifact/gapbs-master/src/taskstats_helper.h:114 (discriminator 1)
  4052cb:	0f b7 07             	movzwl (%rdi),%eax
  4052ce:	66 83 f8 03          	cmp    $0x3,%ax
  4052d2:	76 96                	jbe    40526a <_ZL21request_taskstats_pidiiiP9taskstatsPm+0x13a>
/home/aliha951/ipdps-artifact/gapbs-master/src/taskstats_helper.h:114 (discriminator 2)
  4052d4:	44 39 c0             	cmp    %r8d,%eax
  4052d7:	7f 91                	jg     40526a <_ZL21request_taskstats_pidiiiP9taskstatsPm+0x13a>
/home/aliha951/ipdps-artifact/gapbs-master/src/taskstats_helper.h:115
				if (n2->nla_type == TASKSTATS_TYPE_STATS) {
  4052d9:	66 83 7f 02 03       	cmpw   $0x3,0x2(%rdi)
  4052de:	75 d8                	jne    4052b8 <_ZL21request_taskstats_pidiiiP9taskstatsPm+0x188>
/home/aliha951/ipdps-artifact/gapbs-master/src/taskstats_helper.h:116
					size_t payload = n2->nla_len - NLA_HDRLEN;
  4052e0:	83 e8 04             	sub    $0x4,%eax
  4052e3:	ba b0 01 00 00       	mov    $0x1b0,%edx
/home/aliha951/ipdps-artifact/gapbs-master/src/taskstats_helper.h:118
					memcpy(out_ts, NLA_DATA(n2), payload);
  4052e8:	48 8d 77 04          	lea    0x4(%rdi),%rsi
/home/aliha951/ipdps-artifact/gapbs-master/src/taskstats_helper.h:116
					size_t payload = n2->nla_len - NLA_HDRLEN;
  4052ec:	48 98                	cltq   
/home/aliha951/ipdps-artifact/gapbs-master/src/taskstats_helper.h:117
					if (payload > sizeof(*out_ts)) payload = sizeof(*out_ts);
  4052ee:	48 3d b0 01 00 00    	cmp    $0x1b0,%rax
  4052f4:	48 0f 47 c2          	cmova  %rdx,%rax
/usr/include/x86_64-linux-gnu/bits/string_fortified.h:34
  4052f8:	83 f8 08             	cmp    $0x8,%eax
memcpy():
/usr/include/x86_64-linux-gnu/bits/string_fortified.h:34
  4052fb:	72 6b                	jb     405368 <_ZL21request_taskstats_pidiiiP9taskstatsPm+0x238>
  4052fd:	48 8b 57 04          	mov    0x4(%rdi),%rdx
_ZL21request_taskstats_pidiiiP9taskstatsPm():
/usr/include/x86_64-linux-gnu/bits/string_fortified.h:34
  405301:	49 89 14 24          	mov    %rdx,(%r12)
memcpy():
/usr/include/x86_64-linux-gnu/bits/string_fortified.h:34
  405305:	89 c2                	mov    %eax,%edx
  405307:	48 89 ef             	mov    %rbp,%rdi
  40530a:	48 8b 4c 16 f8       	mov    -0x8(%rsi,%rdx,1),%rcx
  40530f:	48 83 e7 f8          	and    $0xfffffffffffffff8,%rdi
  405313:	49 89 4c 14 f8       	mov    %rcx,-0x8(%r12,%rdx,1)
  405318:	49 29 fc             	sub    %rdi,%r12
  40531b:	4c 29 e6             	sub    %r12,%rsi
  40531e:	41 01 c4             	add    %eax,%r12d
  405321:	41 c1 ec 03          	shr    $0x3,%r12d
  405325:	44 89 e1             	mov    %r12d,%ecx
  405328:	f3 48 a5             	rep movsq %ds:(%rsi),%es:(%rdi)
_ZL21request_taskstats_pidiiiP9taskstatsPm():
/home/aliha951/ipdps-artifact/gapbs-master/src/taskstats_helper.h:130
			*out_len = payload;
  40532b:	48 89 03             	mov    %rax,(%rbx)
/home/aliha951/ipdps-artifact/gapbs-master/src/taskstats_helper.h:131
			return 0;
  40532e:	31 c0                	xor    %eax,%eax
  405330:	eb 0b                	jmp    40533d <_ZL21request_taskstats_pidiiiP9taskstatsPm+0x20d>
  405332:	66 0f 1f 44 00 00    	nopw   0x0(%rax,%rax,1)
/home/aliha951/ipdps-artifact/gapbs-master/src/taskstats_helper.h:104
		return -1;
  405338:	b8 ff ff ff ff       	mov    $0xffffffff,%eax
/home/aliha951/ipdps-artifact/gapbs-master/src/taskstats_helper.h:138
	}
	return -1; /* Not found */
}
  40533d:	48 8b 9c 24 38 04 00 	mov    0x438(%rsp),%rbx
  405344:	00 
  405345:	64 48 2b 1c 25 28 00 	sub    %fs:0x28,%rbx
  40534c:	00 00 
  40534e:	75 7c                	jne    4053cc <_ZL21request_taskstats_pidiiiP9taskstatsPm+0x29c>
  405350:	48 81 c4 48 04 00 00 	add    $0x448,%rsp
  405357:	5b                   	pop    %rbx
  405358:	5d                   	pop    %rbp
  405359:	41 5c                	pop    %r12
  40535b:	41 5d                	pop    %r13
  40535d:	41 5e                	pop    %r14
  40535f:	41 5f                	pop    %r15
  405361:	c3                   	retq   
  405362:	66 0f 1f 44 00 00    	nopw   0x0(%rax,%rax,1)
memcpy():
/usr/include/x86_64-linux-gnu/bits/string_fortified.h:34
  405368:	a8 04                	test   $0x4,%al
  40536a:	75 4a                	jne    4053b6 <_ZL21request_taskstats_pidiiiP9taskstatsPm+0x286>
  40536c:	85 c0                	test   %eax,%eax
  40536e:	74 bb                	je     40532b <_ZL21request_taskstats_pidiiiP9taskstatsPm+0x1fb>
  405370:	0f b6 16             	movzbl (%rsi),%edx
  405373:	41 88 14 24          	mov    %dl,(%r12)
  405377:	a8 02                	test   $0x2,%al
  405379:	74 b0                	je     40532b <_ZL21request_taskstats_pidiiiP9taskstatsPm+0x1fb>
  40537b:	89 c2                	mov    %eax,%edx
  40537d:	0f b7 4c 16 fe       	movzwl -0x2(%rsi,%rdx,1),%ecx
  405382:	66 41 89 4c 14 fe    	mov    %cx,-0x2(%r12,%rdx,1)
  405388:	eb a1                	jmp    40532b <_ZL21request_taskstats_pidiiiP9taskstatsPm+0x1fb>
  40538a:	66 0f 1f 44 00 00    	nopw   0x0(%rax,%rax,1)
_ZL21request_taskstats_pidiiiP9taskstatsPm():
/home/aliha951/ipdps-artifact/gapbs-master/src/taskstats_helper.h:127
			size_t payload = na->nla_len - NLA_HDRLEN;
  405390:	8d 42 fc             	lea    -0x4(%rdx),%eax
  405393:	ba b0 01 00 00       	mov    $0x1b0,%edx
/home/aliha951/ipdps-artifact/gapbs-master/src/taskstats_helper.h:129
			memcpy(out_ts, NLA_DATA(na), payload);
  405398:	48 8d 71 04          	lea    0x4(%rcx),%rsi
/home/aliha951/ipdps-artifact/gapbs-master/src/taskstats_helper.h:127
			size_t payload = na->nla_len - NLA_HDRLEN;
  40539c:	48 98                	cltq   
/home/aliha951/ipdps-artifact/gapbs-master/src/taskstats_helper.h:128
			if (payload > sizeof(*out_ts)) payload = sizeof(*out_ts);
  40539e:	48 3d b0 01 00 00    	cmp    $0x1b0,%rax
  4053a4:	48 0f 47 c2          	cmova  %rdx,%rax
memcpy():
/usr/include/x86_64-linux-gnu/bits/string_fortified.h:34
  4053a8:	83 f8 08             	cmp    $0x8,%eax
  4053ab:	72 bb                	jb     405368 <_ZL21request_taskstats_pidiiiP9taskstatsPm+0x238>
  4053ad:	48 8b 51 04          	mov    0x4(%rcx),%rdx
  4053b1:	e9 4b ff ff ff       	jmpq   405301 <_ZL21request_taskstats_pidiiiP9taskstatsPm+0x1d1>
  4053b6:	8b 16                	mov    (%rsi),%edx
  4053b8:	41 89 14 24          	mov    %edx,(%r12)
  4053bc:	89 c2                	mov    %eax,%edx
  4053be:	8b 4c 16 fc          	mov    -0x4(%rsi,%rdx,1),%ecx
  4053c2:	41 89 4c 14 fc       	mov    %ecx,-0x4(%r12,%rdx,1)
  4053c7:	e9 5f ff ff ff       	jmpq   40532b <_ZL21request_taskstats_pidiiiP9taskstatsPm+0x1fb>
_ZL21request_taskstats_pidiiiP9taskstatsPm():
/home/aliha951/ipdps-artifact/gapbs-master/src/taskstats_helper.h:138
}
  4053cc:	e8 5f e6 ff ff       	callq  403a30 <__stack_chk_fail@plt>
  4053d1:	66 66 2e 0f 1f 84 00 	data16 nopw %cs:0x0(%rax,%rax,1)
  4053d8:	00 00 00 00 
  4053dc:	0f 1f 40 00          	nopl   0x0(%rax)

00000000004053e0 <_Z12clear_queuesPFvR5stateE._omp_fn.1>:
_Z12clear_queuesPFvR5stateE._omp_fn.1():
/home/aliha951/ipdps-artifact/gapbs-master/src/libpfq_sssp.h:220
  #pragma omp parallel for
  4053e0:	f3 0f 1e fa          	endbr64 
  4053e4:	41 56                	push   %r14
  4053e6:	41 55                	push   %r13
  4053e8:	41 54                	push   %r12
  4053ea:	55                   	push   %rbp
  4053eb:	48 89 fd             	mov    %rdi,%rbp
  4053ee:	53                   	push   %rbx
  4053ef:	e8 ac e7 ff ff       	callq  403ba0 <omp_get_num_threads@plt>
  4053f4:	89 c3                	mov    %eax,%ebx
  4053f6:	e8 65 e6 ff ff       	callq  403a60 <omp_get_thread_num@plt>
  4053fb:	89 c1                	mov    %eax,%ecx
  4053fd:	8b 45 08             	mov    0x8(%rbp),%eax
  405400:	99                   	cltd   
  405401:	f7 fb                	idiv   %ebx
  405403:	39 d1                	cmp    %edx,%ecx
  405405:	0f 8c c0 00 00 00    	jl     4054cb <_Z12clear_queuesPFvR5stateE._omp_fn.1+0xeb>
  40540b:	0f af c8             	imul   %eax,%ecx
  40540e:	01 ca                	add    %ecx,%edx
  405410:	8d 0c 10             	lea    (%rax,%rdx,1),%ecx
  405413:	39 ca                	cmp    %ecx,%edx
  405415:	0f 8d a7 00 00 00    	jge    4054c2 <_Z12clear_queuesPFvR5stateE._omp_fn.1+0xe2>
  40541b:	48 63 d2             	movslq %edx,%rdx
  40541e:	83 e8 01             	sub    $0x1,%eax
  405421:	48 8b 6d 00          	mov    0x0(%rbp),%rbp
  405425:	4c 8d 25 34 79 01 00 	lea    0x17934(%rip),%r12        # 41cd60 <shipped_queue>
  40542c:	4c 8d 2c 52          	lea    (%rdx,%rdx,2),%r13
  405430:	48 01 c2             	add    %rax,%rdx
  405433:	48 8d 0d 26 91 01 00 	lea    0x19126(%rip),%rcx        # 41e560 <curr_queue>
  40543a:	49 c1 e5 03          	shl    $0x3,%r13
  40543e:	48 8d 14 52          	lea    (%rdx,%rdx,2),%rdx
  405442:	48 8d 05 2f 79 01 00 	lea    0x1792f(%rip),%rax        # 41cd78 <shipped_queue+0x18>
  405449:	4d 01 ec             	add    %r13,%r12
  40544c:	4c 8d 34 d0          	lea    (%rax,%rdx,8),%r14
  405450:	49 01 cd             	add    %rcx,%r13
  405453:	0f 1f 44 00 00       	nopl   0x0(%rax,%rax,1)
_ZN9__gnu_cxx17__normal_iteratorIP5stateSt6vectorIS1_SaIS1_EEEC4ERKS2_():
/usr/include/c++/10/bits/stl_iterator.h:996 (discriminator 5)
      _GLIBCXX_CONSTEXPR __normal_iterator() _GLIBCXX_NOEXCEPT
      : _M_current(_Iterator()) { }

      explicit _GLIBCXX20_CONSTEXPR
      __normal_iterator(const _Iterator& __i) _GLIBCXX_NOEXCEPT
      : _M_current(__i) { }
  405458:	49 8b 1c 24          	mov    (%r12),%rbx
_Z12resume_queueRSt6vectorI5stateSaIS0_EEPFvRS0_E():
/home/aliha951/ipdps-artifact/gapbs-master/src/libpfq_sssp.h:203 (discriminator 5)
  for (auto rq_it = queue.begin(); rq_it != queue.end(); ++rq_it)
  40545c:	49 3b 5c 24 08       	cmp    0x8(%r12),%rbx
  405461:	74 15                	je     405478 <_Z12clear_queuesPFvR5stateE._omp_fn.1+0x98>
  405463:	0f 1f 44 00 00       	nopl   0x0(%rax,%rax,1)
/home/aliha951/ipdps-artifact/gapbs-master/src/libpfq_sssp.h:205
    func(*rq_it);
  405468:	48 89 df             	mov    %rbx,%rdi
/home/aliha951/ipdps-artifact/gapbs-master/src/libpfq_sssp.h:203
  for (auto rq_it = queue.begin(); rq_it != queue.end(); ++rq_it)
  40546b:	48 83 c3 20          	add    $0x20,%rbx
/home/aliha951/ipdps-artifact/gapbs-master/src/libpfq_sssp.h:205
    func(*rq_it);
  40546f:	ff d5                	callq  *%rbp
/home/aliha951/ipdps-artifact/gapbs-master/src/libpfq_sssp.h:203
  for (auto rq_it = queue.begin(); rq_it != queue.end(); ++rq_it)
  405471:	49 39 5c 24 08       	cmp    %rbx,0x8(%r12)
  405476:	75 f0                	jne    405468 <_Z12clear_queuesPFvR5stateE._omp_fn.1+0x88>
_ZN9__gnu_cxx17__normal_iteratorIP5stateSt6vectorIS1_SaIS1_EEEC4ERKS2_():
/usr/include/c++/10/bits/stl_iterator.h:996
  405478:	49 8b 5d 00          	mov    0x0(%r13),%rbx
_Z12resume_queueRSt6vectorI5stateSaIS0_EEPFvRS0_E():
/home/aliha951/ipdps-artifact/gapbs-master/src/libpfq_sssp.h:203
  40547c:	49 3b 5d 08          	cmp    0x8(%r13),%rbx
  405480:	74 15                	je     405497 <_Z12clear_queuesPFvR5stateE._omp_fn.1+0xb7>
  405482:	66 0f 1f 44 00 00    	nopw   0x0(%rax,%rax,1)
/home/aliha951/ipdps-artifact/gapbs-master/src/libpfq_sssp.h:205
    func(*rq_it);
  405488:	48 89 df             	mov    %rbx,%rdi
/home/aliha951/ipdps-artifact/gapbs-master/src/libpfq_sssp.h:203
  for (auto rq_it = queue.begin(); rq_it != queue.end(); ++rq_it)
  40548b:	48 83 c3 20          	add    $0x20,%rbx
/home/aliha951/ipdps-artifact/gapbs-master/src/libpfq_sssp.h:205
    func(*rq_it);
  40548f:	ff d5                	callq  *%rbp
/home/aliha951/ipdps-artifact/gapbs-master/src/libpfq_sssp.h:203
  for (auto rq_it = queue.begin(); rq_it != queue.end(); ++rq_it)
  405491:	49 39 5d 08          	cmp    %rbx,0x8(%r13)
  405495:	75 f1                	jne    405488 <_Z12clear_queuesPFvR5stateE._omp_fn.1+0xa8>
_ZNSt6vectorI5stateSaIS0_EE5clearEv():
/usr/include/c++/10/bits/stl_vector.h:1499
       *  pointed-to memory is not touched in any way.  Managing the pointer is
       *  the user's responsibility.
       */
      void
      clear() _GLIBCXX_NOEXCEPT
      { _M_erase_at_end(this->_M_impl._M_start); }
  405497:	49 8b 45 00          	mov    0x0(%r13),%rax
_ZNSt6vectorI5stateSaIS0_EE15_M_erase_at_endEPS0_():
/usr/include/c++/10/bits/stl_vector.h:1794
      // Called by erase(q1,q2), clear(), resize(), _M_fill_assign,
      // _M_assign_aux.
      void
      _M_erase_at_end(pointer __pos) _GLIBCXX_NOEXCEPT
      {
	if (size_type __n = this->_M_impl._M_finish - __pos)
  40549b:	49 3b 45 08          	cmp    0x8(%r13),%rax
  40549f:	74 04                	je     4054a5 <_Z12clear_queuesPFvR5stateE._omp_fn.1+0xc5>
/usr/include/c++/10/bits/stl_vector.h:1798
	  {
	    std::_Destroy(__pos, this->_M_impl._M_finish,
			  _M_get_Tp_allocator());
	    this->_M_impl._M_finish = __pos;
  4054a1:	49 89 45 08          	mov    %rax,0x8(%r13)
_ZNSt6vectorI5stateSaIS0_EE5clearEv():
/usr/include/c++/10/bits/stl_vector.h:1499
      { _M_erase_at_end(this->_M_impl._M_start); }
  4054a5:	49 8b 04 24          	mov    (%r12),%rax
_ZNSt6vectorI5stateSaIS0_EE15_M_erase_at_endEPS0_():
/usr/include/c++/10/bits/stl_vector.h:1794
	if (size_type __n = this->_M_impl._M_finish - __pos)
  4054a9:	49 3b 44 24 08       	cmp    0x8(%r12),%rax
  4054ae:	74 05                	je     4054b5 <_Z12clear_queuesPFvR5stateE._omp_fn.1+0xd5>
/usr/include/c++/10/bits/stl_vector.h:1798
	    this->_M_impl._M_finish = __pos;
  4054b0:	49 89 44 24 08       	mov    %rax,0x8(%r12)
  4054b5:	49 83 c4 18          	add    $0x18,%r12
  4054b9:	49 83 c5 18          	add    $0x18,%r13
  4054bd:	4d 39 f4             	cmp    %r14,%r12
  4054c0:	75 96                	jne    405458 <_Z12clear_queuesPFvR5stateE._omp_fn.1+0x78>
_Z12clear_queuesPFvR5stateE._omp_fn.1():
/home/aliha951/ipdps-artifact/gapbs-master/src/libpfq_sssp.h:220
  #pragma omp parallel for
  4054c2:	5b                   	pop    %rbx
  4054c3:	5d                   	pop    %rbp
  4054c4:	41 5c                	pop    %r12
  4054c6:	41 5d                	pop    %r13
  4054c8:	41 5e                	pop    %r14
  4054ca:	c3                   	retq   
  4054cb:	83 c0 01             	add    $0x1,%eax
  4054ce:	31 d2                	xor    %edx,%edx
  4054d0:	e9 36 ff ff ff       	jmpq   40540b <_Z12clear_queuesPFvR5stateE._omp_fn.1+0x2b>
  4054d5:	66 66 2e 0f 1f 84 00 	data16 nopw %cs:0x0(%rax,%rax,1)
  4054dc:	00 00 00 00 

00000000004054e0 <_ZN7pvectorIiE4fillEi._omp_fn.0>:
_ZN7pvectorIiE4fillEi._omp_fn.0():
/home/aliha951/ipdps-artifact/gapbs-master/src/pvector.h:133
    *end_size_ = val;
    end_size_++;
  }

  void fill(T_ init_val) {
    #pragma omp parallel for
  4054e0:	f3 0f 1e fa          	endbr64 
  4054e4:	41 55                	push   %r13
  4054e6:	41 54                	push   %r12
  4054e8:	55                   	push   %rbp
  4054e9:	53                   	push   %rbx
  4054ea:	48 83 ec 08          	sub    $0x8,%rsp
  4054ee:	48 8b 07             	mov    (%rdi),%rax
/home/aliha951/ipdps-artifact/gapbs-master/src/pvector.h:134
    for (T_* ptr=start_; ptr < end_size_; ptr++)
  4054f1:	48 8b 28             	mov    (%rax),%rbp
  4054f4:	4c 8b 68 08          	mov    0x8(%rax),%r13
  4054f8:	4c 39 ed             	cmp    %r13,%rbp
  4054fb:	0f 83 dd 00 00 00    	jae    4055de <_ZN7pvectorIiE4fillEi._omp_fn.0+0xfe>
  405501:	49 89 fc             	mov    %rdi,%r12
  405504:	e8 97 e6 ff ff       	callq  403ba0 <omp_get_num_threads@plt>
  405509:	48 63 d8             	movslq %eax,%rbx
  40550c:	e8 4f e5 ff ff       	callq  403a60 <omp_get_thread_num@plt>
  405511:	48 63 c8             	movslq %eax,%rcx
  405514:	49 8d 45 03          	lea    0x3(%r13),%rax
  405518:	48 29 e8             	sub    %rbp,%rax
  40551b:	48 89 c2             	mov    %rax,%rdx
  40551e:	48 8d 40 03          	lea    0x3(%rax),%rax
  405522:	48 0f 49 c2          	cmovns %rdx,%rax
  405526:	48 c1 f8 02          	sar    $0x2,%rax
  40552a:	48 99                	cqto   
  40552c:	48 f7 fb             	idiv   %rbx
  40552f:	48 39 d1             	cmp    %rdx,%rcx
  405532:	0f 8c b8 00 00 00    	jl     4055f0 <_ZN7pvectorIiE4fillEi._omp_fn.0+0x110>
  405538:	48 0f af c8          	imul   %rax,%rcx
  40553c:	48 01 ca             	add    %rcx,%rdx
  40553f:	48 01 d0             	add    %rdx,%rax
  405542:	48 39 c2             	cmp    %rax,%rdx
  405545:	0f 8d 93 00 00 00    	jge    4055de <_ZN7pvectorIiE4fillEi._omp_fn.0+0xfe>
  40554b:	48 c1 e2 02          	shl    $0x2,%rdx
  40554f:	48 c1 e0 02          	shl    $0x2,%rax
/home/aliha951/ipdps-artifact/gapbs-master/src/pvector.h:133
    #pragma omp parallel for
  405553:	41 8b 7c 24 08       	mov    0x8(%r12),%edi
  405558:	48 8d 74 15 00       	lea    0x0(%rbp,%rdx,1),%rsi
  40555d:	48 01 c5             	add    %rax,%rbp
  405560:	48 29 d0             	sub    %rdx,%rax
  405563:	48 83 e8 01          	sub    $0x1,%rax
  405567:	4c 8d 46 01          	lea    0x1(%rsi),%r8
  40556b:	48 89 f1             	mov    %rsi,%rcx
  40556e:	48 89 c2             	mov    %rax,%rdx
  405571:	48 c1 ea 02          	shr    $0x2,%rdx
  405575:	48 83 c2 01          	add    $0x1,%rdx
  405579:	4c 39 c5             	cmp    %r8,%rbp
  40557c:	41 b8 01 00 00 00    	mov    $0x1,%r8d
  405582:	49 0f 42 d0          	cmovb  %r8,%rdx
  405586:	72 3c                	jb     4055c4 <_ZN7pvectorIiE4fillEi._omp_fn.0+0xe4>
  405588:	48 83 f8 0b          	cmp    $0xb,%rax
  40558c:	76 36                	jbe    4055c4 <_ZN7pvectorIiE4fillEi._omp_fn.0+0xe4>
  40558e:	48 89 d0             	mov    %rdx,%rax
  405591:	66 0f 6e cf          	movd   %edi,%xmm1
  405595:	48 c1 e8 02          	shr    $0x2,%rax
  405599:	66 0f 70 c1 00       	pshufd $0x0,%xmm1,%xmm0
  40559e:	48 c1 e0 04          	shl    $0x4,%rax
  4055a2:	48 01 f0             	add    %rsi,%rax
  4055a5:	0f 1f 00             	nopl   (%rax)
/home/aliha951/ipdps-artifact/gapbs-master/src/pvector.h:135 (discriminator 1)
      *ptr = init_val;
  4055a8:	0f 11 01             	movups %xmm0,(%rcx)
  4055ab:	48 83 c1 10          	add    $0x10,%rcx
  4055af:	48 39 c1             	cmp    %rax,%rcx
  4055b2:	75 f4                	jne    4055a8 <_ZN7pvectorIiE4fillEi._omp_fn.0+0xc8>
  4055b4:	48 89 d0             	mov    %rdx,%rax
  4055b7:	48 83 e0 fc          	and    $0xfffffffffffffffc,%rax
  4055bb:	48 8d 34 86          	lea    (%rsi,%rax,4),%rsi
  4055bf:	48 39 c2             	cmp    %rax,%rdx
  4055c2:	74 1a                	je     4055de <_ZN7pvectorIiE4fillEi._omp_fn.0+0xfe>
  4055c4:	48 8d 46 04          	lea    0x4(%rsi),%rax
/home/aliha951/ipdps-artifact/gapbs-master/src/pvector.h:135
  4055c8:	89 3e                	mov    %edi,(%rsi)
  4055ca:	48 39 c5             	cmp    %rax,%rbp
  4055cd:	76 0f                	jbe    4055de <_ZN7pvectorIiE4fillEi._omp_fn.0+0xfe>
  4055cf:	48 8d 46 08          	lea    0x8(%rsi),%rax
  4055d3:	89 7e 04             	mov    %edi,0x4(%rsi)
  4055d6:	48 39 c5             	cmp    %rax,%rbp
  4055d9:	76 03                	jbe    4055de <_ZN7pvectorIiE4fillEi._omp_fn.0+0xfe>
  4055db:	89 7e 08             	mov    %edi,0x8(%rsi)
/home/aliha951/ipdps-artifact/gapbs-master/src/pvector.h:133
    #pragma omp parallel for
  4055de:	48 83 c4 08          	add    $0x8,%rsp
  4055e2:	5b                   	pop    %rbx
  4055e3:	5d                   	pop    %rbp
  4055e4:	41 5c                	pop    %r12
  4055e6:	41 5d                	pop    %r13
  4055e8:	c3                   	retq   
  4055e9:	0f 1f 80 00 00 00 00 	nopl   0x0(%rax)
  4055f0:	48 83 c0 01          	add    $0x1,%rax
/home/aliha951/ipdps-artifact/gapbs-master/src/pvector.h:134
    for (T_* ptr=start_; ptr < end_size_; ptr++)
  4055f4:	31 d2                	xor    %edx,%edx
  4055f6:	e9 3d ff ff ff       	jmpq   405538 <_ZN7pvectorIiE4fillEi._omp_fn.0+0x58>
  4055fb:	0f 1f 44 00 00       	nopl   0x0(%rax,%rax,1)

0000000000405600 <_ZN8CSRGraphIi10NodeWeightIiiELb1EE8GenIndexERK7pvectorIlEPS1_._omp_fn.0>:
_ZN8CSRGraphIi10NodeWeightIiiELb1EE8GenIndexERK7pvectorIlEPS1_._omp_fn.0():
/home/aliha951/ipdps-artifact/gapbs-master/src/graph.h:245
  }

  static DestID_** GenIndex(const pvector<SGOffset> &offsets, DestID_* neighs) {
    NodeID_ length = offsets.size();
    DestID_** index = new DestID_*[length];
    #pragma omp parallel for
  405600:	f3 0f 1e fa          	endbr64 
  405604:	55                   	push   %rbp
  405605:	53                   	push   %rbx
  405606:	48 89 fb             	mov    %rdi,%rbx
  405609:	48 83 ec 08          	sub    $0x8,%rsp
  40560d:	e8 8e e5 ff ff       	callq  403ba0 <omp_get_num_threads@plt>
  405612:	89 c5                	mov    %eax,%ebp
  405614:	e8 47 e4 ff ff       	callq  403a60 <omp_get_thread_num@plt>
  405619:	89 c1                	mov    %eax,%ecx
  40561b:	8b 43 18             	mov    0x18(%rbx),%eax
  40561e:	99                   	cltd   
  40561f:	f7 fd                	idiv   %ebp
  405621:	39 d1                	cmp    %edx,%ecx
  405623:	7c 43                	jl     405668 <_ZN8CSRGraphIi10NodeWeightIiiELb1EE8GenIndexERK7pvectorIlEPS1_._omp_fn.0+0x68>
  405625:	0f af c8             	imul   %eax,%ecx
  405628:	01 ca                	add    %ecx,%edx
  40562a:	01 d0                	add    %edx,%eax
  40562c:	39 c2                	cmp    %eax,%edx
  40562e:	7d 2c                	jge    40565c <_ZN8CSRGraphIi10NodeWeightIiiELb1EE8GenIndexERK7pvectorIlEPS1_._omp_fn.0+0x5c>
_ZNK7pvectorIlEixEm():
/home/aliha951/ipdps-artifact/gapbs-master/src/pvector.h:120
    return start_[n];
  405630:	48 8b 0b             	mov    (%rbx),%rcx
_ZN8CSRGraphIi10NodeWeightIiiELb1EE8GenIndexERK7pvectorIlEPS1_._omp_fn.0():
/home/aliha951/ipdps-artifact/gapbs-master/src/graph.h:245
  405633:	4c 8b 43 10          	mov    0x10(%rbx),%r8
  405637:	48 63 d2             	movslq %edx,%rdx
  40563a:	48 8b 7b 08          	mov    0x8(%rbx),%rdi
_ZNK7pvectorIlEixEm():
/home/aliha951/ipdps-artifact/gapbs-master/src/pvector.h:120
  40563e:	48 8b 31             	mov    (%rcx),%rsi
  405641:	0f 1f 80 00 00 00 00 	nopl   0x0(%rax)
_ZN8CSRGraphIi10NodeWeightIiiELb1EE8GenIndexERK7pvectorIlEPS1_._omp_fn.0():
/home/aliha951/ipdps-artifact/gapbs-master/src/graph.h:247 (discriminator 1)
    for (NodeID_ n=0; n < length; n++)
      index[n] = neighs + offsets[n];
  405648:	48 8b 0c d6          	mov    (%rsi,%rdx,8),%rcx
  40564c:	48 8d 0c cf          	lea    (%rdi,%rcx,8),%rcx
  405650:	49 89 0c d0          	mov    %rcx,(%r8,%rdx,8)
  405654:	48 83 c2 01          	add    $0x1,%rdx
  405658:	39 d0                	cmp    %edx,%eax
  40565a:	7f ec                	jg     405648 <_ZN8CSRGraphIi10NodeWeightIiiELb1EE8GenIndexERK7pvectorIlEPS1_._omp_fn.0+0x48>
/home/aliha951/ipdps-artifact/gapbs-master/src/graph.h:245
    #pragma omp parallel for
  40565c:	48 83 c4 08          	add    $0x8,%rsp
  405660:	5b                   	pop    %rbx
  405661:	5d                   	pop    %rbp
  405662:	c3                   	retq   
  405663:	0f 1f 44 00 00       	nopl   0x0(%rax,%rax,1)
  405668:	83 c0 01             	add    $0x1,%eax
  40566b:	31 d2                	xor    %edx,%edx
  40566d:	eb b6                	jmp    405625 <_ZN8CSRGraphIi10NodeWeightIiiELb1EE8GenIndexERK7pvectorIlEPS1_._omp_fn.0+0x25>
  40566f:	90                   	nop

0000000000405670 <_ZN7pvectorI8EdgePairIi10NodeWeightIiiEEE7reserveEm._omp_fn.0>:
_ZN7pvectorI8EdgePairIi10NodeWeightIiiEEE7reserveEm._omp_fn.0():
/home/aliha951/ipdps-artifact/gapbs-master/src/pvector.h:86
      #pragma omp parallel for
  405670:	f3 0f 1e fa          	endbr64 
  405674:	41 55                	push   %r13
  405676:	41 54                	push   %r12
  405678:	55                   	push   %rbp
  405679:	53                   	push   %rbx
  40567a:	48 83 ec 08          	sub    $0x8,%rsp
  40567e:	48 8b 07             	mov    (%rdi),%rax
_ZNK7pvectorI8EdgePairIi10NodeWeightIiiEEE4sizeEv():
/home/aliha951/ipdps-artifact/gapbs-master/src/pvector.h:143
  size_t capacity() const {
    return end_capacity_ - start_;
  }

  size_t size() const {
    return end_size_ - start_;
  405681:	48 8b 28             	mov    (%rax),%rbp
  405684:	48 8b 58 08          	mov    0x8(%rax),%rbx
  405688:	48 b8 ab aa aa aa aa 	movabs $0xaaaaaaaaaaaaaaab,%rax
  40568f:	aa aa aa 
  405692:	48 29 eb             	sub    %rbp,%rbx
  405695:	48 c1 fb 02          	sar    $0x2,%rbx
  405699:	48 0f af d8          	imul   %rax,%rbx
  40569d:	48 85 db             	test   %rbx,%rbx
  4056a0:	74 68                	je     40570a <_ZN7pvectorI8EdgePairIi10NodeWeightIiiEEE7reserveEm._omp_fn.0+0x9a>
  4056a2:	49 89 fc             	mov    %rdi,%r12
  4056a5:	e8 f6 e4 ff ff       	callq  403ba0 <omp_get_num_threads@plt>
  4056aa:	41 89 c5             	mov    %eax,%r13d
  4056ad:	e8 ae e3 ff ff       	callq  403a60 <omp_get_thread_num@plt>
  4056b2:	49 63 f5             	movslq %r13d,%rsi
  4056b5:	31 d2                	xor    %edx,%edx
  4056b7:	48 63 c8             	movslq %eax,%rcx
  4056ba:	48 89 d8             	mov    %rbx,%rax
  4056bd:	48 f7 f6             	div    %rsi
  4056c0:	48 39 d1             	cmp    %rdx,%rcx
  4056c3:	72 53                	jb     405718 <_ZN7pvectorI8EdgePairIi10NodeWeightIiiEEE7reserveEm._omp_fn.0+0xa8>
  4056c5:	48 0f af c8          	imul   %rax,%rcx
  4056c9:	48 01 ca             	add    %rcx,%rdx
  4056cc:	48 01 d0             	add    %rdx,%rax
  4056cf:	48 39 c2             	cmp    %rax,%rdx
  4056d2:	73 36                	jae    40570a <_ZN7pvectorI8EdgePairIi10NodeWeightIiiEEE7reserveEm._omp_fn.0+0x9a>
  4056d4:	48 8d 14 52          	lea    (%rdx,%rdx,2),%rdx
  4056d8:	48 8d 34 40          	lea    (%rax,%rax,2),%rsi
_ZN7pvectorI8EdgePairIi10NodeWeightIiiEEE7reserveEm._omp_fn.0():
/home/aliha951/ipdps-artifact/gapbs-master/src/pvector.h:86
      #pragma omp parallel for
  4056dc:	49 8b 4c 24 08       	mov    0x8(%r12),%rcx
  4056e1:	48 c1 e2 02          	shl    $0x2,%rdx
  4056e5:	48 c1 e6 02          	shl    $0x2,%rsi
  4056e9:	0f 1f 80 00 00 00 00 	nopl   0x0(%rax)
/home/aliha951/ipdps-artifact/gapbs-master/src/pvector.h:88 (discriminator 1)
        new_range[i] = start_[i];
  4056f0:	48 8b 44 15 00       	mov    0x0(%rbp,%rdx,1),%rax
  4056f5:	48 89 04 11          	mov    %rax,(%rcx,%rdx,1)
  4056f9:	8b 44 15 08          	mov    0x8(%rbp,%rdx,1),%eax
  4056fd:	89 44 11 08          	mov    %eax,0x8(%rcx,%rdx,1)
  405701:	48 83 c2 0c          	add    $0xc,%rdx
  405705:	48 39 d6             	cmp    %rdx,%rsi
  405708:	75 e6                	jne    4056f0 <_ZN7pvectorI8EdgePairIi10NodeWeightIiiEEE7reserveEm._omp_fn.0+0x80>
/home/aliha951/ipdps-artifact/gapbs-master/src/pvector.h:86
      #pragma omp parallel for
  40570a:	48 83 c4 08          	add    $0x8,%rsp
  40570e:	5b                   	pop    %rbx
  40570f:	5d                   	pop    %rbp
  405710:	41 5c                	pop    %r12
  405712:	41 5d                	pop    %r13
  405714:	c3                   	retq   
  405715:	0f 1f 00             	nopl   (%rax)
  405718:	48 83 c0 01          	add    $0x1,%rax
_ZNK7pvectorI8EdgePairIi10NodeWeightIiiEEE4sizeEv():
/home/aliha951/ipdps-artifact/gapbs-master/src/pvector.h:143
    return end_size_ - start_;
  40571c:	31 d2                	xor    %edx,%edx
  40571e:	eb a5                	jmp    4056c5 <_ZN7pvectorI8EdgePairIi10NodeWeightIiiEEE7reserveEm._omp_fn.0+0x55>

0000000000405720 <_ZN11BuilderBaseIi10NodeWeightIiiEiLb1EE12CountDegreesERK7pvectorI8EdgePairIiS1_EEb._omp_fn.0>:
_ZN11BuilderBaseIi10NodeWeightIiiEiLb1EE12CountDegreesERK7pvectorI8EdgePairIiS1_EEb._omp_fn.0():
/home/aliha951/ipdps-artifact/gapbs-master/src/builder.h:82
    return max_seen;
  }

  pvector<NodeID_> CountDegrees(const EdgeList &el, bool transpose) {
    pvector<NodeID_> degrees(num_nodes_, 0);
    #pragma omp parallel for
  405720:	f3 0f 1e fa          	endbr64 
  405724:	41 55                	push   %r13
  405726:	41 54                	push   %r12
  405728:	55                   	push   %rbp
  405729:	53                   	push   %rbx
  40572a:	48 83 ec 08          	sub    $0x8,%rsp
/home/aliha951/ipdps-artifact/gapbs-master/src/builder.h:83
    for (auto it = el.begin(); it < el.end(); it++) {
  40572e:	48 8b 47 08          	mov    0x8(%rdi),%rax
_ZNK7pvectorI8EdgePairIi10NodeWeightIiiEEE5beginEv():
/home/aliha951/ipdps-artifact/gapbs-master/src/pvector.h:147
  }

  iterator begin() const {
    return start_;
  405732:	4c 8b 28             	mov    (%rax),%r13
_ZNK7pvectorI8EdgePairIi10NodeWeightIiiEEE3endEv():
/home/aliha951/ipdps-artifact/gapbs-master/src/pvector.h:151
  }

  iterator end() const {
    return end_size_;
  405735:	4c 8b 60 08          	mov    0x8(%rax),%r12
  405739:	4d 39 ec             	cmp    %r13,%r12
  40573c:	0f 86 a2 00 00 00    	jbe    4057e4 <_ZN11BuilderBaseIi10NodeWeightIiiEiLb1EE12CountDegreesERK7pvectorI8EdgePairIiS1_EEb._omp_fn.0+0xc4>
  405742:	48 89 fb             	mov    %rdi,%rbx
  405745:	e8 56 e4 ff ff       	callq  403ba0 <omp_get_num_threads@plt>
  40574a:	48 63 e8             	movslq %eax,%rbp
  40574d:	e8 0e e3 ff ff       	callq  403a60 <omp_get_thread_num@plt>
  405752:	49 8d 4c 24 0b       	lea    0xb(%r12),%rcx
  405757:	48 ba ab aa aa aa aa 	movabs $0x2aaaaaaaaaaaaaab,%rdx
  40575e:	aa aa 2a 
  405761:	4c 29 e9             	sub    %r13,%rcx
  405764:	48 63 f0             	movslq %eax,%rsi
  405767:	48 89 c8             	mov    %rcx,%rax
  40576a:	48 c1 f9 3f          	sar    $0x3f,%rcx
  40576e:	48 f7 ea             	imul   %rdx
  405771:	48 89 d0             	mov    %rdx,%rax
  405774:	48 d1 f8             	sar    %rax
  405777:	48 29 c8             	sub    %rcx,%rax
  40577a:	48 99                	cqto   
  40577c:	48 f7 fd             	idiv   %rbp
  40577f:	48 39 d6             	cmp    %rdx,%rsi
  405782:	7c 6c                	jl     4057f0 <_ZN11BuilderBaseIi10NodeWeightIiiEiLb1EE12CountDegreesERK7pvectorI8EdgePairIiS1_EEb._omp_fn.0+0xd0>
  405784:	48 0f af f0          	imul   %rax,%rsi
  405788:	48 01 f2             	add    %rsi,%rdx
  40578b:	48 01 d0             	add    %rdx,%rax
  40578e:	48 39 c2             	cmp    %rax,%rdx
  405791:	7d 51                	jge    4057e4 <_ZN11BuilderBaseIi10NodeWeightIiiEiLb1EE12CountDegreesERK7pvectorI8EdgePairIiS1_EEb._omp_fn.0+0xc4>
  405793:	48 8d 14 52          	lea    (%rdx,%rdx,2),%rdx
  405797:	48 8d 04 40          	lea    (%rax,%rax,2),%rax
  40579b:	80 7b 18 00          	cmpb   $0x0,0x18(%rbx)
_ZN11BuilderBaseIi10NodeWeightIiiEiLb1EE12CountDegreesERK7pvectorI8EdgePairIiS1_EEb._omp_fn.0():
/home/aliha951/ipdps-artifact/gapbs-master/src/builder.h:82
    #pragma omp parallel for
  40579f:	48 8b 3b             	mov    (%rbx),%rdi
  4057a2:	49 8d 54 95 00       	lea    0x0(%r13,%rdx,4),%rdx
  4057a7:	4d 8d 44 85 00       	lea    0x0(%r13,%rax,4),%r8
  4057ac:	75 4a                	jne    4057f8 <_ZN11BuilderBaseIi10NodeWeightIiiEiLb1EE12CountDegreesERK7pvectorI8EdgePairIiS1_EEb._omp_fn.0+0xd8>
  4057ae:	66 90                	xchg   %ax,%ax
_ZN7pvectorIiEixEm():
/home/aliha951/ipdps-artifact/gapbs-master/src/pvector.h:116
    return start_[n];
  4057b0:	48 8b 4b 10          	mov    0x10(%rbx),%rcx
_ZN11BuilderBaseIi10NodeWeightIiiEiLb1EE12CountDegreesERK7pvectorI8EdgePairIiS1_EEb._omp_fn.0():
/home/aliha951/ipdps-artifact/gapbs-master/src/builder.h:84
      Edge e = *it;
  4057b4:	48 63 42 04          	movslq 0x4(%rdx),%rax
/home/aliha951/ipdps-artifact/gapbs-master/src/builder.h:86
      if (symmetrize_ || (!symmetrize_ && !transpose))
        fetch_and_add(degrees[e.u], 1);
  4057b8:	48 63 32             	movslq (%rdx),%rsi
_Z13fetch_and_addIiiET_RS0_T0_():
/home/aliha951/ipdps-artifact/gapbs-master/src/platform_atomics.h:26

    // gcc/clang/icc instrinsics

    template<typename T, typename U>
    T fetch_and_add(T &x, U inc) {
      return __sync_fetch_and_add(&x, inc);
  4057bb:	48 8b 09             	mov    (%rcx),%rcx
  4057be:	f0 83 04 b1 01       	lock addl $0x1,(%rcx,%rsi,4)
_ZN11BuilderBaseIi10NodeWeightIiiEiLb1EE12CountDegreesERK7pvectorI8EdgePairIiS1_EEb._omp_fn.0():
/home/aliha951/ipdps-artifact/gapbs-master/src/builder.h:87
      if ((symmetrize_ && !in_place_) || (!symmetrize_ && transpose))
  4057c3:	80 7f 08 00          	cmpb   $0x0,0x8(%rdi)
  4057c7:	74 12                	je     4057db <_ZN11BuilderBaseIi10NodeWeightIiiEiLb1EE12CountDegreesERK7pvectorI8EdgePairIiS1_EEb._omp_fn.0+0xbb>
  4057c9:	80 7f 0a 00          	cmpb   $0x0,0xa(%rdi)
  4057cd:	75 0c                	jne    4057db <_ZN11BuilderBaseIi10NodeWeightIiiEiLb1EE12CountDegreesERK7pvectorI8EdgePairIiS1_EEb._omp_fn.0+0xbb>
_ZN7pvectorIiEixEm():
/home/aliha951/ipdps-artifact/gapbs-master/src/pvector.h:116
  4057cf:	48 8b 4b 10          	mov    0x10(%rbx),%rcx
_Z13fetch_and_addIiiET_RS0_T0_():
/home/aliha951/ipdps-artifact/gapbs-master/src/platform_atomics.h:26
  4057d3:	48 8b 09             	mov    (%rcx),%rcx
  4057d6:	f0 83 04 81 01       	lock addl $0x1,(%rcx,%rax,4)
  4057db:	48 83 c2 0c          	add    $0xc,%rdx
  4057df:	49 39 d0             	cmp    %rdx,%r8
  4057e2:	77 cc                	ja     4057b0 <_ZN11BuilderBaseIi10NodeWeightIiiEiLb1EE12CountDegreesERK7pvectorI8EdgePairIiS1_EEb._omp_fn.0+0x90>
_ZN11BuilderBaseIi10NodeWeightIiiEiLb1EE12CountDegreesERK7pvectorI8EdgePairIiS1_EEb._omp_fn.0():
/home/aliha951/ipdps-artifact/gapbs-master/src/builder.h:82
    #pragma omp parallel for
  4057e4:	48 83 c4 08          	add    $0x8,%rsp
  4057e8:	5b                   	pop    %rbx
  4057e9:	5d                   	pop    %rbp
  4057ea:	41 5c                	pop    %r12
  4057ec:	41 5d                	pop    %r13
  4057ee:	c3                   	retq   
  4057ef:	90                   	nop
  4057f0:	48 83 c0 01          	add    $0x1,%rax
_ZNK7pvectorI8EdgePairIi10NodeWeightIiiEEE3endEv():
/home/aliha951/ipdps-artifact/gapbs-master/src/pvector.h:151
    return end_size_;
  4057f4:	31 d2                	xor    %edx,%edx
  4057f6:	eb 8c                	jmp    405784 <_ZN11BuilderBaseIi10NodeWeightIiiEiLb1EE12CountDegreesERK7pvectorI8EdgePairIiS1_EEb._omp_fn.0+0x64>
_ZN11BuilderBaseIi10NodeWeightIiiEiLb1EE12CountDegreesERK7pvectorI8EdgePairIiS1_EEb._omp_fn.0():
/home/aliha951/ipdps-artifact/gapbs-master/src/builder.h:85
      if (symmetrize_ || (!symmetrize_ && !transpose))
  4057f8:	80 7f 08 00          	cmpb   $0x0,0x8(%rdi)
/home/aliha951/ipdps-artifact/gapbs-master/src/builder.h:84
      Edge e = *it;
  4057fc:	48 63 42 04          	movslq 0x4(%rdx),%rax
/home/aliha951/ipdps-artifact/gapbs-master/src/builder.h:85
      if (symmetrize_ || (!symmetrize_ && !transpose))
  405800:	74 1b                	je     40581d <_ZN11BuilderBaseIi10NodeWeightIiiEiLb1EE12CountDegreesERK7pvectorI8EdgePairIiS1_EEb._omp_fn.0+0xfd>
_ZN7pvectorIiEixEm():
/home/aliha951/ipdps-artifact/gapbs-master/src/pvector.h:116
    return start_[n];
  405802:	48 8b 4b 10          	mov    0x10(%rbx),%rcx
_ZN11BuilderBaseIi10NodeWeightIiiEiLb1EE12CountDegreesERK7pvectorI8EdgePairIiS1_EEb._omp_fn.0():
/home/aliha951/ipdps-artifact/gapbs-master/src/builder.h:86
        fetch_and_add(degrees[e.u], 1);
  405806:	48 63 32             	movslq (%rdx),%rsi
_Z13fetch_and_addIiiET_RS0_T0_():
/home/aliha951/ipdps-artifact/gapbs-master/src/platform_atomics.h:26
  405809:	48 8b 09             	mov    (%rcx),%rcx
  40580c:	f0 83 04 b1 01       	lock addl $0x1,(%rcx,%rsi,4)
_ZN11BuilderBaseIi10NodeWeightIiiEiLb1EE12CountDegreesERK7pvectorI8EdgePairIiS1_EEb._omp_fn.0():
/home/aliha951/ipdps-artifact/gapbs-master/src/builder.h:87
      if ((symmetrize_ && !in_place_) || (!symmetrize_ && transpose))
  405811:	80 7f 08 00          	cmpb   $0x0,0x8(%rdi)
  405815:	74 06                	je     40581d <_ZN11BuilderBaseIi10NodeWeightIiiEiLb1EE12CountDegreesERK7pvectorI8EdgePairIiS1_EEb._omp_fn.0+0xfd>
/home/aliha951/ipdps-artifact/gapbs-master/src/builder.h:87 (discriminator 1)
  405817:	80 7f 0a 00          	cmpb   $0x0,0xa(%rdi)
  40581b:	75 0c                	jne    405829 <_ZN11BuilderBaseIi10NodeWeightIiiEiLb1EE12CountDegreesERK7pvectorI8EdgePairIiS1_EEb._omp_fn.0+0x109>
_ZN7pvectorIiEixEm():
/home/aliha951/ipdps-artifact/gapbs-master/src/pvector.h:116
  40581d:	48 8b 4b 10          	mov    0x10(%rbx),%rcx
_Z13fetch_and_addIiiET_RS0_T0_():
/home/aliha951/ipdps-artifact/gapbs-master/src/platform_atomics.h:26
  405821:	48 8b 09             	mov    (%rcx),%rcx
  405824:	f0 83 04 81 01       	lock addl $0x1,(%rcx,%rax,4)
  405829:	48 83 c2 0c          	add    $0xc,%rdx
  40582d:	49 39 d0             	cmp    %rdx,%r8
  405830:	77 c6                	ja     4057f8 <_ZN11BuilderBaseIi10NodeWeightIiiEiLb1EE12CountDegreesERK7pvectorI8EdgePairIiS1_EEb._omp_fn.0+0xd8>
  405832:	eb b0                	jmp    4057e4 <_ZN11BuilderBaseIi10NodeWeightIiiEiLb1EE12CountDegreesERK7pvectorI8EdgePairIiS1_EEb._omp_fn.0+0xc4>
_ZN11BuilderBaseIi10NodeWeightIiiEiLb1EE12CountDegreesERK7pvectorI8EdgePairIiS1_EEb._omp_fn.0():
/home/aliha951/ipdps-artifact/gapbs-master/src/platform_atomics.h:26
  405834:	66 66 2e 0f 1f 84 00 	data16 nopw %cs:0x0(%rax,%rax,1)
  40583b:	00 00 00 00 
  40583f:	90                   	nop

0000000000405840 <_ZN11BuilderBaseIi10NodeWeightIiiEiLb1EE17ParallelPrefixSumERK7pvectorIiE._omp_fn.0>:
_ZN11BuilderBaseIi10NodeWeightIiiEiLb1EE17ParallelPrefixSumERK7pvectorIiE._omp_fn.0():
/home/aliha951/ipdps-artifact/gapbs-master/src/builder.h:110
  static
  pvector<SGOffset> ParallelPrefixSum(const pvector<NodeID_> &degrees) {
    const size_t block_size = 1<<20;
    const size_t num_blocks = (degrees.size() + block_size - 1) / block_size;
    pvector<SGOffset> local_sums(num_blocks);
    #pragma omp parallel for
  405840:	f3 0f 1e fa          	endbr64 
  405844:	41 54                	push   %r12
  405846:	55                   	push   %rbp
  405847:	53                   	push   %rbx
  405848:	48 8b 5f 08          	mov    0x8(%rdi),%rbx
  40584c:	48 85 db             	test   %rbx,%rbx
  40584f:	0f 84 4d 01 00 00    	je     4059a2 <_ZN11BuilderBaseIi10NodeWeightIiiEiLb1EE17ParallelPrefixSumERK7pvectorIiE._omp_fn.0+0x162>
  405855:	49 89 fc             	mov    %rdi,%r12
  405858:	e8 43 e3 ff ff       	callq  403ba0 <omp_get_num_threads@plt>
  40585d:	89 c5                	mov    %eax,%ebp
  40585f:	e8 fc e1 ff ff       	callq  403a60 <omp_get_thread_num@plt>
  405864:	48 63 cd             	movslq %ebp,%rcx
  405867:	31 d2                	xor    %edx,%edx
  405869:	48 63 f0             	movslq %eax,%rsi
  40586c:	48 89 d8             	mov    %rbx,%rax
  40586f:	48 f7 f1             	div    %rcx
  405872:	48 39 d6             	cmp    %rdx,%rsi
  405875:	0f 82 3d 01 00 00    	jb     4059b8 <_ZN11BuilderBaseIi10NodeWeightIiiEiLb1EE17ParallelPrefixSumERK7pvectorIiE._omp_fn.0+0x178>
  40587b:	48 0f af f0          	imul   %rax,%rsi
  40587f:	48 01 d6             	add    %rdx,%rsi
  405882:	48 01 f0             	add    %rsi,%rax
  405885:	48 39 c6             	cmp    %rax,%rsi
  405888:	0f 83 14 01 00 00    	jae    4059a2 <_ZN11BuilderBaseIi10NodeWeightIiiEiLb1EE17ParallelPrefixSumERK7pvectorIiE._omp_fn.0+0x162>
/home/aliha951/ipdps-artifact/gapbs-master/src/builder.h:113
    for (size_t block=0; block < num_blocks; block++) {
      SGOffset lsum = 0;
      size_t block_end = std::min((block + 1) * block_size, degrees.size());
  40588e:	49 8b 14 24          	mov    (%r12),%rdx
  405892:	49 89 f0             	mov    %rsi,%r8
/home/aliha951/ipdps-artifact/gapbs-master/src/builder.h:115
      for (size_t i=block * block_size; i < block_end; i++)
        lsum += degrees[i];
  405895:	66 0f ef e4          	pxor   %xmm4,%xmm4
  405899:	49 c1 e0 14          	shl    $0x14,%r8
_ZNK7pvectorIiE4sizeEv():
/home/aliha951/ipdps-artifact/gapbs-master/src/pvector.h:143
    return end_size_ - start_;
  40589d:	4c 8b 1a             	mov    (%rdx),%r11
  4058a0:	4c 8b 52 08          	mov    0x8(%rdx),%r10
_ZN7pvectorIlEixEm():
/home/aliha951/ipdps-artifact/gapbs-master/src/pvector.h:116
    return start_[n];
  4058a4:	49 8b 54 24 10       	mov    0x10(%r12),%rdx
_ZNK7pvectorIiE4sizeEv():
/home/aliha951/ipdps-artifact/gapbs-master/src/pvector.h:143
    return end_size_ - start_;
  4058a9:	4d 29 da             	sub    %r11,%r10
_ZN7pvectorIlEixEm():
/home/aliha951/ipdps-artifact/gapbs-master/src/pvector.h:116
    return start_[n];
  4058ac:	48 8b 12             	mov    (%rdx),%rdx
_ZNK7pvectorIiE4sizeEv():
/home/aliha951/ipdps-artifact/gapbs-master/src/pvector.h:143
    return end_size_ - start_;
  4058af:	49 c1 fa 02          	sar    $0x2,%r10
  4058b3:	4c 8d 0c f2          	lea    (%rdx,%rsi,8),%r9
  4058b7:	48 c1 e6 16          	shl    $0x16,%rsi
  4058bb:	48 8d 2c c2          	lea    (%rdx,%rax,8),%rbp
  4058bf:	4c 01 de             	add    %r11,%rsi
  4058c2:	66 0f 1f 44 00 00    	nopw   0x0(%rax,%rax,1)
/home/aliha951/ipdps-artifact/gapbs-master/src/pvector.h:142
  size_t size() const {
  4058c8:	4c 89 c1             	mov    %r8,%rcx
_ZN11BuilderBaseIi10NodeWeightIiiEiLb1EE17ParallelPrefixSumERK7pvectorIiE._omp_fn.0():
/home/aliha951/ipdps-artifact/gapbs-master/src/builder.h:113
      size_t block_end = std::min((block + 1) * block_size, degrees.size());
  4058cb:	49 81 c0 00 00 10 00 	add    $0x100000,%r8
  4058d2:	4c 89 d3             	mov    %r10,%rbx
  4058d5:	4d 39 d0             	cmp    %r10,%r8
  4058d8:	49 0f 46 d8          	cmovbe %r8,%rbx
/home/aliha951/ipdps-artifact/gapbs-master/src/builder.h:114
      for (size_t i=block * block_size; i < block_end; i++)
  4058dc:	48 39 cb             	cmp    %rcx,%rbx
  4058df:	0f 86 cb 00 00 00    	jbe    4059b0 <_ZN11BuilderBaseIi10NodeWeightIiiEiLb1EE17ParallelPrefixSumERK7pvectorIiE._omp_fn.0+0x170>
  4058e5:	48 89 df             	mov    %rbx,%rdi
  4058e8:	48 29 cf             	sub    %rcx,%rdi
  4058eb:	48 8d 47 ff          	lea    -0x1(%rdi),%rax
  4058ef:	48 83 f8 02          	cmp    $0x2,%rax
  4058f3:	0f 86 bb 00 00 00    	jbe    4059b4 <_ZN11BuilderBaseIi10NodeWeightIiiEiLb1EE17ParallelPrefixSumERK7pvectorIiE._omp_fn.0+0x174>
  4058f9:	48 89 fa             	mov    %rdi,%rdx
  4058fc:	48 89 f0             	mov    %rsi,%rax
  4058ff:	66 0f ef c9          	pxor   %xmm1,%xmm1
  405903:	48 c1 ea 02          	shr    $0x2,%rdx
  405907:	48 c1 e2 04          	shl    $0x4,%rdx
  40590b:	48 01 f2             	add    %rsi,%rdx
  40590e:	66 90                	xchg   %ax,%ax
/home/aliha951/ipdps-artifact/gapbs-master/src/builder.h:115 (discriminator 2)
        lsum += degrees[i];
  405910:	f3 0f 6f 00          	movdqu (%rax),%xmm0
  405914:	66 0f 6f d4          	movdqa %xmm4,%xmm2
  405918:	48 83 c0 10          	add    $0x10,%rax
  40591c:	66 0f 66 d0          	pcmpgtd %xmm0,%xmm2
  405920:	66 0f 6f d8          	movdqa %xmm0,%xmm3
  405924:	66 0f 62 da          	punpckldq %xmm2,%xmm3
  405928:	66 0f 6a c2          	punpckhdq %xmm2,%xmm0
  40592c:	66 0f d4 cb          	paddq  %xmm3,%xmm1
  405930:	66 0f d4 c8          	paddq  %xmm0,%xmm1
/home/aliha951/ipdps-artifact/gapbs-master/src/builder.h:114 (discriminator 2)
      for (size_t i=block * block_size; i < block_end; i++)
  405934:	48 39 d0             	cmp    %rdx,%rax
  405937:	75 d7                	jne    405910 <_ZN11BuilderBaseIi10NodeWeightIiiEiLb1EE17ParallelPrefixSumERK7pvectorIiE._omp_fn.0+0xd0>
  405939:	66 0f 6f c1          	movdqa %xmm1,%xmm0
  40593d:	48 89 fa             	mov    %rdi,%rdx
  405940:	66 0f 73 d8 08       	psrldq $0x8,%xmm0
  405945:	48 83 e2 fc          	and    $0xfffffffffffffffc,%rdx
  405949:	66 0f d4 c1          	paddq  %xmm1,%xmm0
  40594d:	48 01 d1             	add    %rdx,%rcx
  405950:	66 48 0f 7e c0       	movq   %xmm0,%rax
  405955:	48 39 fa             	cmp    %rdi,%rdx
  405958:	74 31                	je     40598b <_ZN11BuilderBaseIi10NodeWeightIiiEiLb1EE17ParallelPrefixSumERK7pvectorIiE._omp_fn.0+0x14b>
/home/aliha951/ipdps-artifact/gapbs-master/src/builder.h:115
        lsum += degrees[i];
  40595a:	49 63 3c 8b          	movslq (%r11,%rcx,4),%rdi
_ZNK7pvectorIiEixEm():
/home/aliha951/ipdps-artifact/gapbs-master/src/pvector.h:120
    return start_[n];
  40595e:	48 8d 14 8d 00 00 00 	lea    0x0(,%rcx,4),%rdx
  405965:	00 
_ZN11BuilderBaseIi10NodeWeightIiiEiLb1EE17ParallelPrefixSumERK7pvectorIiE._omp_fn.0():
/home/aliha951/ipdps-artifact/gapbs-master/src/builder.h:115
  405966:	48 01 f8             	add    %rdi,%rax
/home/aliha951/ipdps-artifact/gapbs-master/src/builder.h:114
      for (size_t i=block * block_size; i < block_end; i++)
  405969:	48 8d 79 01          	lea    0x1(%rcx),%rdi
  40596d:	48 39 df             	cmp    %rbx,%rdi
  405970:	73 19                	jae    40598b <_ZN11BuilderBaseIi10NodeWeightIiiEiLb1EE17ParallelPrefixSumERK7pvectorIiE._omp_fn.0+0x14b>
/home/aliha951/ipdps-artifact/gapbs-master/src/builder.h:115
        lsum += degrees[i];
  405972:	49 63 7c 13 04       	movslq 0x4(%r11,%rdx,1),%rdi
/home/aliha951/ipdps-artifact/gapbs-master/src/builder.h:114
      for (size_t i=block * block_size; i < block_end; i++)
  405977:	48 83 c1 02          	add    $0x2,%rcx
/home/aliha951/ipdps-artifact/gapbs-master/src/builder.h:115
        lsum += degrees[i];
  40597b:	48 01 f8             	add    %rdi,%rax
/home/aliha951/ipdps-artifact/gapbs-master/src/builder.h:114
      for (size_t i=block * block_size; i < block_end; i++)
  40597e:	48 39 cb             	cmp    %rcx,%rbx
  405981:	76 08                	jbe    40598b <_ZN11BuilderBaseIi10NodeWeightIiiEiLb1EE17ParallelPrefixSumERK7pvectorIiE._omp_fn.0+0x14b>
/home/aliha951/ipdps-artifact/gapbs-master/src/builder.h:115
        lsum += degrees[i];
  405983:	49 63 54 13 08       	movslq 0x8(%r11,%rdx,1),%rdx
  405988:	48 01 d0             	add    %rdx,%rax
/home/aliha951/ipdps-artifact/gapbs-master/src/builder.h:116
      local_sums[block] = lsum;
  40598b:	49 89 01             	mov    %rax,(%r9)
  40598e:	49 83 c1 08          	add    $0x8,%r9
  405992:	48 81 c6 00 00 40 00 	add    $0x400000,%rsi
  405999:	49 39 e9             	cmp    %rbp,%r9
  40599c:	0f 85 26 ff ff ff    	jne    4058c8 <_ZN11BuilderBaseIi10NodeWeightIiiEiLb1EE17ParallelPrefixSumERK7pvectorIiE._omp_fn.0+0x88>
/home/aliha951/ipdps-artifact/gapbs-master/src/builder.h:110
    #pragma omp parallel for
  4059a2:	5b                   	pop    %rbx
  4059a3:	5d                   	pop    %rbp
  4059a4:	41 5c                	pop    %r12
  4059a6:	c3                   	retq   
  4059a7:	66 0f 1f 84 00 00 00 	nopw   0x0(%rax,%rax,1)
  4059ae:	00 00 
/home/aliha951/ipdps-artifact/gapbs-master/src/builder.h:112
      SGOffset lsum = 0;
  4059b0:	31 c0                	xor    %eax,%eax
  4059b2:	eb d7                	jmp    40598b <_ZN11BuilderBaseIi10NodeWeightIiiEiLb1EE17ParallelPrefixSumERK7pvectorIiE._omp_fn.0+0x14b>
  4059b4:	31 c0                	xor    %eax,%eax
  4059b6:	eb a2                	jmp    40595a <_ZN11BuilderBaseIi10NodeWeightIiiEiLb1EE17ParallelPrefixSumERK7pvectorIiE._omp_fn.0+0x11a>
  4059b8:	48 83 c0 01          	add    $0x1,%rax
/home/aliha951/ipdps-artifact/gapbs-master/src/builder.h:110
    #pragma omp parallel for
  4059bc:	31 d2                	xor    %edx,%edx
  4059be:	e9 b8 fe ff ff       	jmpq   40587b <_ZN11BuilderBaseIi10NodeWeightIiiEiLb1EE17ParallelPrefixSumERK7pvectorIiE._omp_fn.0+0x3b>
  4059c3:	66 66 2e 0f 1f 84 00 	data16 nopw %cs:0x0(%rax,%rax,1)
  4059ca:	00 00 00 00 
  4059ce:	66 90                	xchg   %ax,%ax

00000000004059d0 <_ZN11BuilderBaseIi10NodeWeightIiiEiLb1EE17ParallelPrefixSumERK7pvectorIiE._omp_fn.1>:
_ZN11BuilderBaseIi10NodeWeightIiiEiLb1EE17ParallelPrefixSumERK7pvectorIiE._omp_fn.1():
/home/aliha951/ipdps-artifact/gapbs-master/src/builder.h:126
      bulk_prefix[block] = total;
      total += local_sums[block];
    }
    bulk_prefix[num_blocks] = total;
    pvector<SGOffset> prefix(degrees.size() + 1);
    #pragma omp parallel for
  4059d0:	f3 0f 1e fa          	endbr64 
  4059d4:	41 54                	push   %r12
  4059d6:	55                   	push   %rbp
  4059d7:	53                   	push   %rbx
  4059d8:	48 8b 5f 10          	mov    0x10(%rdi),%rbx
  4059dc:	48 85 db             	test   %rbx,%rbx
  4059df:	0f 84 98 00 00 00    	je     405a7d <_ZN11BuilderBaseIi10NodeWeightIiiEiLb1EE17ParallelPrefixSumERK7pvectorIiE._omp_fn.1+0xad>
  4059e5:	48 89 fd             	mov    %rdi,%rbp
  4059e8:	e8 b3 e1 ff ff       	callq  403ba0 <omp_get_num_threads@plt>
  4059ed:	41 89 c4             	mov    %eax,%r12d
  4059f0:	e8 6b e0 ff ff       	callq  403a60 <omp_get_thread_num@plt>
  4059f5:	49 63 cc             	movslq %r12d,%rcx
  4059f8:	31 d2                	xor    %edx,%edx
  4059fa:	4c 63 c8             	movslq %eax,%r9
  4059fd:	48 89 d8             	mov    %rbx,%rax
  405a00:	48 f7 f1             	div    %rcx
  405a03:	49 39 d1             	cmp    %rdx,%r9
  405a06:	72 7a                	jb     405a82 <_ZN11BuilderBaseIi10NodeWeightIiiEiLb1EE17ParallelPrefixSumERK7pvectorIiE._omp_fn.1+0xb2>
  405a08:	4c 0f af c8          	imul   %rax,%r9
  405a0c:	49 01 d1             	add    %rdx,%r9
  405a0f:	4c 01 c8             	add    %r9,%rax
  405a12:	49 39 c1             	cmp    %rax,%r9
  405a15:	73 66                	jae    405a7d <_ZN11BuilderBaseIi10NodeWeightIiiEiLb1EE17ParallelPrefixSumERK7pvectorIiE._omp_fn.1+0xad>
/home/aliha951/ipdps-artifact/gapbs-master/src/builder.h:129
    for (size_t block=0; block < num_blocks; block++) {
      SGOffset local_total = bulk_prefix[block];
      size_t block_end = std::min((block + 1) * block_size, degrees.size());
  405a17:	48 8b 4d 00          	mov    0x0(%rbp),%rcx
_ZN7pvectorIlEixEm():
/home/aliha951/ipdps-artifact/gapbs-master/src/pvector.h:116
    return start_[n];
  405a1b:	48 8b 55 18          	mov    0x18(%rbp),%rdx
_ZN11BuilderBaseIi10NodeWeightIiiEiLb1EE17ParallelPrefixSumERK7pvectorIiE._omp_fn.1():
/home/aliha951/ipdps-artifact/gapbs-master/src/builder.h:131
      for (size_t i=block * block_size; i < block_end; i++) {
        prefix[i] = local_total;
  405a1f:	48 8b 6d 08          	mov    0x8(%rbp),%rbp
_ZNK7pvectorIiE4sizeEv():
/home/aliha951/ipdps-artifact/gapbs-master/src/pvector.h:143
    return end_size_ - start_;
  405a23:	4c 8b 01             	mov    (%rcx),%r8
  405a26:	4c 8b 59 08          	mov    0x8(%rcx),%r11
_ZN7pvectorIlEixEm():
/home/aliha951/ipdps-artifact/gapbs-master/src/pvector.h:116
    return start_[n];
  405a2a:	48 8b 12             	mov    (%rdx),%rdx
_ZNK7pvectorIiE4sizeEv():
/home/aliha951/ipdps-artifact/gapbs-master/src/pvector.h:143
    return end_size_ - start_;
  405a2d:	4d 29 c3             	sub    %r8,%r11
  405a30:	4e 8d 14 ca          	lea    (%rdx,%r9,8),%r10
  405a34:	49 c1 fb 02          	sar    $0x2,%r11
  405a38:	49 c1 e1 14          	shl    $0x14,%r9
  405a3c:	48 8d 1c c2          	lea    (%rdx,%rax,8),%rbx
_ZN7pvectorIlEixEm():
/home/aliha951/ipdps-artifact/gapbs-master/src/pvector.h:115
  T_& operator[](size_t n) {
  405a40:	4c 89 c8             	mov    %r9,%rax
_ZN11BuilderBaseIi10NodeWeightIiiEiLb1EE17ParallelPrefixSumERK7pvectorIiE._omp_fn.1():
/home/aliha951/ipdps-artifact/gapbs-master/src/builder.h:129
      size_t block_end = std::min((block + 1) * block_size, degrees.size());
  405a43:	49 81 c1 00 00 10 00 	add    $0x100000,%r9
  405a4a:	4c 89 de             	mov    %r11,%rsi
/home/aliha951/ipdps-artifact/gapbs-master/src/builder.h:128
      SGOffset local_total = bulk_prefix[block];
  405a4d:	49 8b 12             	mov    (%r10),%rdx
_ZNK7pvectorIiE4sizeEv():
/home/aliha951/ipdps-artifact/gapbs-master/src/pvector.h:142
  size_t size() const {
  405a50:	4d 39 d9             	cmp    %r11,%r9
  405a53:	49 0f 46 f1          	cmovbe %r9,%rsi
_ZN11BuilderBaseIi10NodeWeightIiiEiLb1EE17ParallelPrefixSumERK7pvectorIiE._omp_fn.1():
/home/aliha951/ipdps-artifact/gapbs-master/src/builder.h:130
      for (size_t i=block * block_size; i < block_end; i++) {
  405a57:	48 39 c6             	cmp    %rax,%rsi
  405a5a:	76 18                	jbe    405a74 <_ZN11BuilderBaseIi10NodeWeightIiiEiLb1EE17ParallelPrefixSumERK7pvectorIiE._omp_fn.1+0xa4>
_ZN7pvectorIlEixEm():
/home/aliha951/ipdps-artifact/gapbs-master/src/pvector.h:116
    return start_[n];
  405a5c:	48 8b 7d 00          	mov    0x0(%rbp),%rdi
_ZN11BuilderBaseIi10NodeWeightIiiEiLb1EE17ParallelPrefixSumERK7pvectorIiE._omp_fn.1():
/home/aliha951/ipdps-artifact/gapbs-master/src/builder.h:132 (discriminator 2)
        local_total += degrees[i];
  405a60:	49 63 0c 80          	movslq (%r8,%rax,4),%rcx
/home/aliha951/ipdps-artifact/gapbs-master/src/builder.h:131 (discriminator 2)
        prefix[i] = local_total;
  405a64:	48 89 14 c7          	mov    %rdx,(%rdi,%rax,8)
/home/aliha951/ipdps-artifact/gapbs-master/src/builder.h:130 (discriminator 2)
      for (size_t i=block * block_size; i < block_end; i++) {
  405a68:	48 83 c0 01          	add    $0x1,%rax
/home/aliha951/ipdps-artifact/gapbs-master/src/builder.h:132 (discriminator 2)
        local_total += degrees[i];
  405a6c:	48 01 ca             	add    %rcx,%rdx
/home/aliha951/ipdps-artifact/gapbs-master/src/builder.h:130 (discriminator 2)
      for (size_t i=block * block_size; i < block_end; i++) {
  405a6f:	48 39 c6             	cmp    %rax,%rsi
  405a72:	75 ec                	jne    405a60 <_ZN11BuilderBaseIi10NodeWeightIiiEiLb1EE17ParallelPrefixSumERK7pvectorIiE._omp_fn.1+0x90>
  405a74:	49 83 c2 08          	add    $0x8,%r10
  405a78:	49 39 da             	cmp    %rbx,%r10
  405a7b:	75 c3                	jne    405a40 <_ZN11BuilderBaseIi10NodeWeightIiiEiLb1EE17ParallelPrefixSumERK7pvectorIiE._omp_fn.1+0x70>
/home/aliha951/ipdps-artifact/gapbs-master/src/builder.h:126
    #pragma omp parallel for
  405a7d:	5b                   	pop    %rbx
  405a7e:	5d                   	pop    %rbp
  405a7f:	41 5c                	pop    %r12
  405a81:	c3                   	retq   
  405a82:	48 83 c0 01          	add    $0x1,%rax
  405a86:	31 d2                	xor    %edx,%edx
  405a88:	e9 7b ff ff ff       	jmpq   405a08 <_ZN11BuilderBaseIi10NodeWeightIiiEiLb1EE17ParallelPrefixSumERK7pvectorIiE._omp_fn.1+0x38>
  405a8d:	0f 1f 00             	nopl   (%rax)

0000000000405a90 <_ZN11BuilderBaseIi10NodeWeightIiiEiLb1EE7MakeCSRERK7pvectorI8EdgePairIiS1_EEbPPPS1_SA_._omp_fn.0>:
_ZN11BuilderBaseIi10NodeWeightIiiEiLb1EE7MakeCSRERK7pvectorI8EdgePairIiS1_EEbPPPS1_SA_._omp_fn.0():
/home/aliha951/ipdps-artifact/gapbs-master/src/builder.h:306
               DestID_** neighs) {
    pvector<NodeID_> degrees = CountDegrees(el, transpose);
    pvector<SGOffset> offsets = ParallelPrefixSum(degrees);
    *neighs = new DestID_[offsets[num_nodes_]];
    *index = CSRGraph<NodeID_, DestID_>::GenIndex(offsets, *neighs);
    #pragma omp parallel for
  405a90:	f3 0f 1e fa          	endbr64 
  405a94:	41 55                	push   %r13
  405a96:	41 54                	push   %r12
  405a98:	55                   	push   %rbp
  405a99:	53                   	push   %rbx
  405a9a:	48 83 ec 08          	sub    $0x8,%rsp
/home/aliha951/ipdps-artifact/gapbs-master/src/builder.h:307
    for (auto it = el.begin(); it < el.end(); it++) {
  405a9e:	48 8b 47 08          	mov    0x8(%rdi),%rax
_ZNK7pvectorI8EdgePairIi10NodeWeightIiiEEE5beginEv():
/home/aliha951/ipdps-artifact/gapbs-master/src/pvector.h:147
    return start_;
  405aa2:	4c 8b 28             	mov    (%rax),%r13
_ZNK7pvectorI8EdgePairIi10NodeWeightIiiEEE3endEv():
/home/aliha951/ipdps-artifact/gapbs-master/src/pvector.h:151
    return end_size_;
  405aa5:	4c 8b 60 08          	mov    0x8(%rax),%r12
  405aa9:	4d 39 ec             	cmp    %r13,%r12
  405aac:	0f 86 ff 00 00 00    	jbe    405bb1 <_ZN11BuilderBaseIi10NodeWeightIiiEiLb1EE7MakeCSRERK7pvectorI8EdgePairIiS1_EEbPPPS1_SA_._omp_fn.0+0x121>
  405ab2:	48 89 fb             	mov    %rdi,%rbx
  405ab5:	e8 e6 e0 ff ff       	callq  403ba0 <omp_get_num_threads@plt>
